 PhysX3Cooking_x64

 Timestamp is 62e82490 (Mon Aug  1 15:08:00 2022)

 Preferred load address is 0000000180000000

 Start         Length     Name                   Class
 0001:00000000 00000300H .text$di                CODE
 0001:00000300 0008bf40H .text$mn                CODE
 0001:0008c240 00000040H .text$mn$00             CODE
 0001:0008c280 00000a20H .text$x                 CODE
 0002:00000000 00000440H .idata$5                DATA
 0002:00000440 00000038H .00cfg                  DATA
 0002:00000478 00000008H .CRT$XCA                DATA
 0002:00000480 00000180H .CRT$XCU                DATA
 0002:00000600 00000008H .CRT$XCZ                DATA
 0002:00000608 00000008H .CRT$XIA                DATA
 0002:00000610 00000018H .CRT$XIC                DATA
 0002:00000628 00000008H .CRT$XIZ                DATA
 0002:00000630 00000008H .CRT$XPA                DATA
 0002:00000638 00000010H .CRT$XPX                DATA
 0002:00000648 00000008H .CRT$XPXA               DATA
 0002:00000650 00000008H .CRT$XPZ                DATA
 0002:00000658 00000008H .CRT$XTA                DATA
 0002:00000660 00000010H .CRT$XTZ                DATA
 0002:00000668 00000000H .gehcont$y              DATA
 0002:00000668 00000000H .gfids$y                DATA
 0002:00000670 0000d390H .rdata                  DATA
 0002:0000da00 00000080H .rdata$CastGuardVftablesA DATA
 0002:0000da80 00000080H .rdata$CastGuardVftablesC DATA
 0002:0000db00 00000464H .rdata$r                DATA
 0002:0000df64 000001c8H .rdata$voltmd           DATA
 0002:0000e12c 000003dcH .rdata$zzzdbg           DATA
 0002:0000e508 00000008H .rtc$IAA                DATA
 0002:0000e510 00000008H .rtc$IZZ                DATA
 0002:0000e518 00000008H .rtc$TAA                DATA
 0002:0000e520 00000008H .rtc$TZZ                DATA
 0002:0000e528 00009910H .xdata                  DATA
 0002:00017e38 00000088H .xdata$x                DATA
 0002:00017ec0 00000084H .edata                  DATA
 0002:00017f44 0000003cH .idata$2                DATA
 0002:00017f80 00000018H .idata$3                DATA
 0002:00017f98 00000440H .idata$4                DATA
 0002:000183d8 00000f48H .idata$6                DATA
 0003:00000000 00000aa0H .data                   DATA
 0003:00000aa0 00000738H .data$r                 DATA
 0003:000011d8 000000f8H .data$rs                DATA
 0003:000012d0 00001d40H .bss                    DATA
 0004:00000000 000069d8H .pdata                  DATA
 0005:00000000 0000236cH _RDATA                  DATA
 0006:00000000 000000a0H .rsrc$01                DATA
 0006:000000a0 000004b8H .rsrc$02                DATA

  Address         Publics by Value              Rva+Base               Lib:Object

 0000:00000000       __AbsoluteZero             0000000000000000     <absolute>
 0000:00000000       ___safe_se_handler_count   0000000000000000     <absolute>
 0000:00000000       ___safe_se_handler_table   0000000000000000     <absolute>
 0000:00000000       __arm64x_extra_rfe_table   0000000000000000     <absolute>
 0000:00000000       __arm64x_extra_rfe_table_size 0000000000000000     <absolute>
 0000:00000000       __arm64x_native_entrypoint 0000000000000000     <absolute>
 0000:00000000       __arm64x_redirection_metadata 0000000000000000     <absolute>
 0000:00000000       __arm64x_redirection_metadata_count 0000000000000000     <absolute>
 0000:00000000       __dynamic_value_reloc_table 0000000000000000     <absolute>
 0000:00000000       __enclave_config           0000000000000000     <absolute>
 0000:00000000       __guard_check_icall_a64n_fptr 0000000000000000     <absolute>
 0000:00000000       __guard_eh_cont_count      0000000000000000     <absolute>
 0000:00000000       __guard_eh_cont_table      0000000000000000     <absolute>
 0000:00000000       __guard_fids_count         0000000000000000     <absolute>
 0000:00000000       __guard_fids_table         0000000000000000     <absolute>
 0000:00000000       __guard_iat_count          0000000000000000     <absolute>
 0000:00000000       __guard_iat_table          0000000000000000     <absolute>
 0000:00000000       __guard_longjmp_count      0000000000000000     <absolute>
 0000:00000000       __guard_longjmp_table      0000000000000000     <absolute>
 0000:00000000       __hybrid_auxiliary_iat     0000000000000000     <absolute>
 0000:00000000       __hybrid_auxiliary_iat_copy 0000000000000000     <absolute>
 0000:00000000       __hybrid_code_map          0000000000000000     <absolute>
 0000:00000000       __hybrid_code_map_count    0000000000000000     <absolute>
 0000:00000000       __x64_code_ranges_to_entry_points 0000000000000000     <absolute>
 0000:00000000       __x64_code_ranges_to_entry_points_count 0000000000000000     <absolute>
 0000:00000100       __guard_flags              0000000000000100     <absolute>
 0000:00000000       __ImageBase                0000000180000000     <linker-defined>
 0001:00000300       PxSetPhysXCookingDelayLoadHook 0000000180001300 f   WindowsCookingDelayLoadHook.obj
 0001:00000310       ?delayHook@@YAP6A_JXZIPEAUDelayLoadInfo@@@Z 0000000180001310 f   WindowsCookingDelayLoadHook.obj
 0001:00000360       ?physXCommonDliNotePreLoadLibrary@Cm@physx@@YAP6A_JXZPEBDPEBVPxDelayLoadHook@2@@Z 0000000180001360 f i WindowsCookingDelayLoadHook.obj
 0001:000005e0       ?saveHeightField@physx@@YA_NAEBVHeightField@Gu@1@AEAVPxOutputStream@1@_N@Z 00000001800015e0 f   HeightFieldCooking.obj
 0001:00000830       ?__empty_global_delete@@YAXPEAX@Z 0000000180001830 f i HeightFieldCooking.obj
 0001:00000840       ?__empty_global_delete@@YAXPEAX_K@Z 0000000180001840 f i HeightFieldCooking.obj
 0001:00000840       ?__global_array_delete@@YAXPEAX_K@Z 0000000180001840 f i HeightFieldCooking.obj
 0001:00000840       ?__global_delete@@YAXPEAX_K@Z 0000000180001840 f i HeightFieldCooking.obj
 0001:00000850       ?buildFromTriangles@RTreeCooker@physx@@SAXAEAURTree@Gu@2@PEBVPxVec3@2@IPEBGPEBIIAEAV?$Array@IV?$ReflectionAllocator@I@shdfnd@physx@@@shdfnd@2@PEAURemapCallback@12@MW4Enum@PxMeshCookingHint@2@@Z 0000000180001850 f   RTreeCooking.obj
 0001:00000b10       ??$partition@UBoundsLTE@physx@@@quickSelect@physx@@YAIPEIAIIIIAEBUBoundsLTE@1@@Z 0000000180001b10 f i RTreeCooking.obj
 0001:00000ca0       ??$quickSelectFirstK@UBoundsLTE@physx@@@quickSelect@physx@@YAXPEIAIIIIAEBUBoundsLTE@1@@Z 0000000180001ca0 f i RTreeCooking.obj
 0001:00000e80       ??$smallSort@I$$CBUSortBoundsPredicate@physx@@@internal@shdfnd@physx@@YAXPEAIHHAEBUSortBoundsPredicate@2@@Z 0000000180001e80 f i RTreeCooking.obj
 0001:00001120       ??$sort@I@shdfnd@physx@@YAXPEAII@Z 0000000180002120 f i RTreeCooking.obj
 0001:00001140       ??$sort@IU?$Less@I@shdfnd@physx@@V?$ReflectionAllocator@I@23@@shdfnd@physx@@YAXPEAIIAEBU?$Less@I@01@AEBV?$ReflectionAllocator@I@01@I@Z 0000000180002140 f i RTreeCooking.obj
 0001:000014e0       ??$sort@IUSortBoundsPredicate@physx@@@shdfnd@physx@@YAXPEAIIAEBUSortBoundsPredicate@1@@Z 00000001800024e0 f i RTreeCooking.obj
 0001:00001500       ??$sort@IUSortBoundsPredicate@physx@@V?$ReflectionAllocator@I@shdfnd@2@@shdfnd@physx@@YAXPEAIIAEBUSortBoundsPredicate@1@AEBV?$ReflectionAllocator@I@01@I@Z 0000000180002500 f i RTreeCooking.obj
 0001:00001920       ??_H@YAXPEAX_K1P6APEAX0@Z@Z 0000000180002920 f i RTreeCooking.obj
 0001:00001970       ?allocate@?$Array@UInterval@physx@@V?$InlineAllocator@$0CAAA@V?$ReflectionAllocator@UInterval@physx@@@shdfnd@physx@@@shdfnd@2@@shdfnd@physx@@IEAAPEAUInterval@3@I@Z 0000000180002970 f i RTreeCooking.obj
 0001:00001a30       ?allocate@?$Array@UPxBounds3V@physx@@V?$ReflectionAllocator@UPxBounds3V@physx@@@shdfnd@2@@shdfnd@physx@@IEAAPEAUPxBounds3V@3@I@Z 0000000180002a30 f i RTreeCooking.obj
 0001:00001ad0       ?allocate@?$Array@URTreeNodeNQ@physx@@V?$ReflectionAllocator@URTreeNodeNQ@physx@@@shdfnd@2@@shdfnd@physx@@IEAAPEAURTreeNodeNQ@3@I@Z 0000000180002ad0 f i RTreeCooking.obj
 0001:00001b70       ?allocate@?$Array@URTreeNodeQ@Gu@physx@@V?$ReflectionAllocator@URTreeNodeQ@Gu@physx@@@shdfnd@3@@shdfnd@physx@@IEAAPEAURTreeNodeQ@Gu@3@I@Z 0000000180002b70 f i RTreeCooking.obj
 0001:00001c10       ?allocate@?$Array@VPxVec3@physx@@V?$ReflectionAllocator@VPxVec3@physx@@@shdfnd@2@@shdfnd@physx@@IEAAPEAVPxVec3@3@I@Z 0000000180002c10 f i RTreeCooking.obj
 0001:00001cb0       ?allocate@?$ReflectionAllocator@I@shdfnd@physx@@QEAAPEAX_KPEBDH@Z 0000000180002cb0 f i RTreeCooking.obj
 0001:000029a0       ?copy@?$Array@URTreeNodeNQ@physx@@V?$ReflectionAllocator@URTreeNodeNQ@physx@@@shdfnd@2@@shdfnd@physx@@KAXPEAURTreeNodeNQ@3@0PEBU43@@Z 00000001800039a0 f i RTreeCooking.obj
 0001:00002b60       ?copy@?$Array@VPxVec3@physx@@V?$ReflectionAllocator@VPxVec3@physx@@@shdfnd@2@@shdfnd@physx@@KAXPEAVPxVec3@3@0PEBV43@@Z 0000000180003b60 f i RTreeCooking.obj
 0001:00002c30       ?growAndPushBack@?$Array@IV?$ReflectionAllocator@I@shdfnd@physx@@@shdfnd@physx@@IEAAAEAIAEBI@Z 0000000180003c30 f i RTreeCooking.obj
 0001:00002d00       ?growAndPushBack@?$Array@UInterval@physx@@V?$InlineAllocator@$0CAAA@V?$ReflectionAllocator@UInterval@physx@@@shdfnd@physx@@@shdfnd@2@@shdfnd@physx@@IEAAAEAUInterval@3@AEBU43@@Z 0000000180003d00 f i RTreeCooking.obj
 0001:00002de0       ?growAndPushBack@?$Array@UPxBounds3V@physx@@V?$ReflectionAllocator@UPxBounds3V@physx@@@shdfnd@2@@shdfnd@physx@@IEAAAEAUPxBounds3V@3@AEBU43@@Z 0000000180003de0 f i RTreeCooking.obj
 0001:00002eb0       ?growAndPushBack@?$Array@URTreeNodeNQ@physx@@V?$ReflectionAllocator@URTreeNodeNQ@physx@@@shdfnd@2@@shdfnd@physx@@IEAAAEAURTreeNodeNQ@3@AEBU43@@Z 0000000180003eb0 f i RTreeCooking.obj
 0001:00002f90       ?growAndPushBack@?$Array@URTreeNodeQ@Gu@physx@@V?$ReflectionAllocator@URTreeNodeQ@Gu@physx@@@shdfnd@3@@shdfnd@physx@@IEAAAEAURTreeNodeQ@Gu@3@AEBU453@@Z 0000000180003f90 f i RTreeCooking.obj
 0001:00003070       ?growAndPushBack@?$Array@VPxVec3@physx@@V?$ReflectionAllocator@VPxVec3@physx@@@shdfnd@2@@shdfnd@physx@@IEAAAEAVPxVec3@3@AEBV43@@Z 0000000180004070 f i RTreeCooking.obj
 0001:00003130       ?recreate@?$Array@IV?$ReflectionAllocator@I@shdfnd@physx@@@shdfnd@physx@@IEAAXI@Z 0000000180004130 f i RTreeCooking.obj
 0001:000031f0       ?recreate@?$Array@UPxBounds3V@physx@@V?$ReflectionAllocator@UPxBounds3V@physx@@@shdfnd@2@@shdfnd@physx@@IEAAXI@Z 00000001800041f0 f i RTreeCooking.obj
 0001:000032a0       ?recreate@?$Array@URTreeNodeNQ@physx@@V?$ReflectionAllocator@URTreeNodeNQ@physx@@@shdfnd@2@@shdfnd@physx@@IEAAXI@Z 00000001800042a0 f i RTreeCooking.obj
 0001:00003330       ?recreate@?$Array@URTreeNodeQ@Gu@physx@@V?$ReflectionAllocator@URTreeNodeQ@Gu@physx@@@shdfnd@3@@shdfnd@physx@@IEAAXI@Z 0000000180004330 f i RTreeCooking.obj
 0001:000033f0       ?recreate@?$Array@VPxVec3@physx@@V?$ReflectionAllocator@VPxVec3@physx@@@shdfnd@2@@shdfnd@physx@@IEAAXI@Z 00000001800043f0 f i RTreeCooking.obj
 0001:00003480       ?resize@?$Array@IV?$ReflectionAllocator@I@shdfnd@physx@@@shdfnd@physx@@QEAAXIAEBI@Z 0000000180004480 f i RTreeCooking.obj
 0001:00003540       ?resizeUninitialized@?$Array@URTreeNodeNQ@physx@@V?$ReflectionAllocator@URTreeNodeNQ@physx@@@shdfnd@2@@shdfnd@physx@@QEAAXI@Z 0000000180004540 f i RTreeCooking.obj
 0001:00003580       ?sort4@SubSortQuick@physx@@QEAAXPEIAIIAEAV?$Array@URTreeNodeNQ@physx@@V?$ReflectionAllocator@URTreeNodeNQ@physx@@@shdfnd@2@@shdfnd@2@AEAIAEAUPxBounds3V@2@I@Z 0000000180004580 f i RTreeCooking.obj
 0001:00003910       ?sort4@SubSortSAH@physx@@QEAAXPEAIIAEAV?$Array@URTreeNodeNQ@physx@@V?$ReflectionAllocator@URTreeNodeNQ@physx@@@shdfnd@2@@shdfnd@2@AEAIIPEAURTreeNodeNQ@2@@Z 0000000180004910 f i RTreeCooking.obj
 0001:00004180       ?split@SubSortSAH@physx@@QEAAIPEAII@Z 0000000180005180 f i RTreeCooking.obj
 0001:00004c00       ??0TriangleMeshBuilder@physx@@QEAA@AEAVTriangleMeshData@Gu@1@AEBUPxCookingParams@1@@Z 0000000180005c00 f   TriangleMeshBuilder.obj
 0001:00004c30       ??1TriangleMeshBuilder@physx@@UEAA@XZ 0000000180005c30 f   TriangleMeshBuilder.obj
 0001:00004ca0       ?cleanMesh@TriangleMeshBuilder@physx@@QEAA_N_NPEAW4Enum@PxTriangleMeshCookingResult@2@@Z 0000000180005ca0 f   TriangleMeshBuilder.obj
 0001:00005160       ?remapTopology@TriangleMeshBuilder@physx@@QEAAXPEBI@Z 0000000180006160 f   TriangleMeshBuilder.obj
 0001:000053a0       ?createSharedEdgeData@TriangleMeshBuilder@physx@@QEAAX_N0@Z 00000001800063a0 f   TriangleMeshBuilder.obj
 0001:00005810       ?recordTriangleIndices@TriangleMeshBuilder@physx@@QEAAXXZ 0000000180006810 f   TriangleMeshBuilder.obj
 0001:000058b0       ?createGRBMidPhaseAndData@TriangleMeshBuilder@physx@@QEAAXI@Z 00000001800068b0 f   TriangleMeshBuilder.obj
 0001:00005c50       ?createGRBData@TriangleMeshBuilder@physx@@QEAAXXZ 0000000180006c50 f   TriangleMeshBuilder.obj
 0001:00005d50       ?loadFromDesc@TriangleMeshBuilder@physx@@QEAA_NAEBVPxTriangleMeshDesc@2@PEAW4Enum@PxTriangleMeshCookingResult@2@_N@Z 0000000180006d50 f   TriangleMeshBuilder.obj
 0001:000061c0       ?save@TriangleMeshBuilder@physx@@QEBA_NAEAVPxOutputStream@2@_NAEBUPxCookingParams@2@@Z 00000001800071c0 f   TriangleMeshBuilder.obj
 0001:000067c0       ?checkMeshIndicesSize@TriangleMeshBuilder@physx@@QEAAXXZ 00000001800077c0 f   TriangleMeshBuilder.obj
 0001:000068e0       ?computeLocalBounds@TriangleMeshBuilder@physx@@IEAAXXZ 00000001800078e0 f   TriangleMeshBuilder.obj
 0001:00006980       ?importMesh@TriangleMeshBuilder@physx@@IEAA_NAEBVPxTriangleMeshDesc@2@AEBUPxCookingParams@2@PEAW4Enum@PxTriangleMeshCookingResult@2@_N@Z 0000000180007980 f   TriangleMeshBuilder.obj
 0001:00006c00       ?releaseEdgeList@TriangleMeshBuilder@physx@@IEAAXXZ 0000000180007c00 f   TriangleMeshBuilder.obj
 0001:00006c60       ?createEdgeList@TriangleMeshBuilder@physx@@IEAAXXZ 0000000180007c60 f   TriangleMeshBuilder.obj
 0001:00006d80       ??0RTreeTriangleMeshBuilder@physx@@QEAA@AEBUPxCookingParams@1@@Z 0000000180007d80 f   TriangleMeshBuilder.obj
 0001:00006e40       ??1RTreeTriangleMeshBuilder@physx@@UEAA@XZ 0000000180007e40 f   TriangleMeshBuilder.obj
 0001:00006e70       ?createMidPhaseStructure@RTreeTriangleMeshBuilder@physx@@UEAAXXZ 0000000180007e70 f   TriangleMeshBuilder.obj
 0001:00006f70       ?saveMidPhaseStructure@RTreeTriangleMeshBuilder@physx@@UEBAXAEAVPxOutputStream@2@_N@Z 0000000180007f70 f   TriangleMeshBuilder.obj
 0001:000071c0       ??0BV4TriangleMeshBuilder@physx@@QEAA@AEBUPxCookingParams@1@@Z 00000001800081c0 f   TriangleMeshBuilder.obj
 0001:00007290       ??1BV4TriangleMeshBuilder@physx@@UEAA@XZ 0000000180008290 f   TriangleMeshBuilder.obj
 0001:000072f0       ?createMidPhaseStructure@BV4TriangleMeshBuilder@physx@@UEAAXXZ 00000001800082f0 f   TriangleMeshBuilder.obj
 0001:00007570       ?saveMidPhaseStructure@BV4TriangleMeshBuilder@physx@@UEBAXAEAVPxOutputStream@2@_N@Z 0000000180008570 f   TriangleMeshBuilder.obj
 0001:00007770       ?onMeshIndexFormatChange@BV4TriangleMeshBuilder@physx@@UEAAXXZ 0000000180008770 f   TriangleMeshBuilder.obj
 0001:000077b0       ?createMidPhaseStructure@BV32TriangleMeshBuilder@physx@@SAXAEBUPxCookingParams@2@AEAVTriangleMeshData@Gu@2@AEAVBV32Tree@52@@Z 00000001800087b0 f   TriangleMeshBuilder.obj
 0001:00007940       ?saveMidPhaseStructure@BV32TriangleMeshBuilder@physx@@SAXPEAVBV32Tree@Gu@2@AEAVPxOutputStream@2@_N@Z 0000000180008940 f   TriangleMeshBuilder.obj
 0001:00007ae0       ?findSharpVertices@GrbTrimeshCookerHelper@physx@@YAXAEAV?$Array@USortedNeighbor@GrbTrimeshCookerHelper@physx@@V?$ReflectionAllocator@USortedNeighbor@GrbTrimeshCookerHelper@physx@@@shdfnd@3@@shdfnd@2@AEAV?$Array@USharpEdgeRange@GrbTrimeshCookerHelper@physx@@V?$ReflectionAllocator@USharpEdgeRange@GrbTrimeshCookerHelper@physx@@@shdfnd@3@@42@PEBUuint3@2@PEBUuint4@2@II@Z 0000000180008ae0 f   TriangleMeshBuilder.obj
 0001:00007e80       ?buildVertexConnectionNew_p1@GrbTrimeshCookerHelper@physx@@YAIAEAV?$Array@USortedNeighbor@GrbTrimeshCookerHelper@physx@@V?$ReflectionAllocator@USortedNeighbor@GrbTrimeshCookerHelper@physx@@@shdfnd@3@@shdfnd@2@AEAV?$Array@USharpEdgeRange@GrbTrimeshCookerHelper@physx@@V?$ReflectionAllocator@USharpEdgeRange@GrbTrimeshCookerHelper@physx@@@shdfnd@3@@42@PEBUuint3@2@PEBUuint4@2@II@Z 0000000180008e80 f   TriangleMeshBuilder.obj
 0001:00008000       ?buildVertexConnectionNew_p2@GrbTrimeshCookerHelper@physx@@YAXPEAI00AEAV?$Array@USortedNeighbor@GrbTrimeshCookerHelper@physx@@V?$ReflectionAllocator@USortedNeighbor@GrbTrimeshCookerHelper@physx@@@shdfnd@3@@shdfnd@2@AEAV?$Array@USharpEdgeRange@GrbTrimeshCookerHelper@physx@@V?$ReflectionAllocator@USharpEdgeRange@GrbTrimeshCookerHelper@physx@@@shdfnd@3@@42@I@Z 0000000180009000 f   TriangleMeshBuilder.obj
 0001:000080b0       ??$?_UG@@YAPEAX_KV?$ReflectionAllocator@G@shdfnd@physx@@PEBDH@Z 00000001800090b0 f i TriangleMeshBuilder.obj
 0001:00008150       ??$median3@USortedNeighbor@GrbTrimeshCookerHelper@physx@@$$CBU?$Less@USortedNeighbor@GrbTrimeshCookerHelper@physx@@@shdfnd@3@@internal@shdfnd@physx@@YAXPEAUSortedNeighbor@GrbTrimeshCookerHelper@2@HHAEBU?$Less@USortedNeighbor@GrbTrimeshCookerHelper@physx@@@12@@Z 0000000180009150 f i TriangleMeshBuilder.obj
 0001:00008280       ??$sort@UEdgeTriLookup@physx@@@shdfnd@physx@@YAXPEAUEdgeTriLookup@1@I@Z 0000000180009280 f i TriangleMeshBuilder.obj
 0001:000082a0       ??$sort@UEdgeTriLookup@physx@@U?$Less@UEdgeTriLookup@physx@@@shdfnd@2@V?$ReflectionAllocator@UEdgeTriLookup@physx@@@42@@shdfnd@physx@@YAXPEAUEdgeTriLookup@1@IAEBU?$Less@UEdgeTriLookup@physx@@@01@AEBV?$ReflectionAllocator@UEdgeTriLookup@physx@@@01@I@Z 00000001800092a0 f i TriangleMeshBuilder.obj
 0001:00008830       ??$sort@USortedNeighbor@GrbTrimeshCookerHelper@physx@@@shdfnd@physx@@YAXPEAUSortedNeighbor@GrbTrimeshCookerHelper@1@I@Z 0000000180009830 f i TriangleMeshBuilder.obj
 0001:00008850       ??$sort@USortedNeighbor@GrbTrimeshCookerHelper@physx@@U?$Less@USortedNeighbor@GrbTrimeshCookerHelper@physx@@@shdfnd@3@V?$ReflectionAllocator@USortedNeighbor@GrbTrimeshCookerHelper@physx@@@53@@shdfnd@physx@@YAXPEAUSortedNeighbor@GrbTrimeshCookerHelper@1@IAEBU?$Less@USortedNeighbor@GrbTrimeshCookerHelper@physx@@@01@AEBV?$ReflectionAllocator@USortedNeighbor@GrbTrimeshCookerHelper@physx@@@01@I@Z 0000000180009850 f i TriangleMeshBuilder.obj
 0001:00008cc0       ??0PxVec4@physx@@QEAA@XZ   0000000180009cc0 f i TriangleMeshBuilder.obj
 0001:00008cd0       ??1BV4TriangleData@Gu@physx@@UEAA@XZ 0000000180009cd0 f i TriangleMeshBuilder.obj
 0001:00008d10       ??1RTreeTriangleData@Gu@physx@@UEAA@XZ 0000000180009d10 f i TriangleMeshBuilder.obj
 0001:00008d80       ??1RemapCallback@RTreeCooker@physx@@UEAA@XZ 0000000180009d80 f i TriangleMeshBuilder.obj
 0001:00008d90       ??1TriangleMeshData@Gu@physx@@UEAA@XZ 0000000180009d90 f i TriangleMeshBuilder.obj
 0001:00008f10       ??_EBV4TriangleData@Gu@physx@@UEAAPEAXI@Z 0000000180009f10 f i TriangleMeshBuilder.obj
 0001:00008f10       ??_GBV4TriangleData@Gu@physx@@UEAAPEAXI@Z 0000000180009f10 f i TriangleMeshBuilder.obj
 0001:00008fa0       ??_EBV4TriangleMeshBuilder@physx@@UEAAPEAXI@Z 0000000180009fa0 f i TriangleMeshBuilder.obj
 0001:00008fa0       ??_GBV4TriangleMeshBuilder@physx@@UEAAPEAXI@Z 0000000180009fa0 f i TriangleMeshBuilder.obj
 0001:00009020       ??_ERTreeCookerRemap@physx@@UEAAPEAXI@Z 000000018000a020 f i TriangleMeshBuilder.obj
 0001:00009020       ??_GRTreeCookerRemap@physx@@UEAAPEAXI@Z 000000018000a020 f i TriangleMeshBuilder.obj
 0001:00009050       ??_ERTreeTriangleData@Gu@physx@@UEAAPEAXI@Z 000000018000a050 f i TriangleMeshBuilder.obj
 0001:00009050       ??_GRTreeTriangleData@Gu@physx@@UEAAPEAXI@Z 000000018000a050 f i TriangleMeshBuilder.obj
 0001:000090c0       ??_ERTreeTriangleMeshBuilder@physx@@UEAAPEAXI@Z 000000018000a0c0 f i TriangleMeshBuilder.obj
 0001:000090c0       ??_GRTreeTriangleMeshBuilder@physx@@UEAAPEAXI@Z 000000018000a0c0 f i TriangleMeshBuilder.obj
 0001:00009110       ??_ERemapCallback@RTreeCooker@physx@@UEAAPEAXI@Z 000000018000a110 f i TriangleMeshBuilder.obj
 0001:00009110       ??_GRemapCallback@RTreeCooker@physx@@UEAAPEAXI@Z 000000018000a110 f i TriangleMeshBuilder.obj
 0001:00009140       ??_ETriangleMeshBuilder@physx@@UEAAPEAXI@Z 000000018000a140 f i TriangleMeshBuilder.obj
 0001:00009140       ??_GTriangleMeshBuilder@physx@@UEAAPEAXI@Z 000000018000a140 f i TriangleMeshBuilder.obj
 0001:00009180       ??_ETriangleMeshData@Gu@physx@@UEAAPEAXI@Z 000000018000a180 f i TriangleMeshBuilder.obj
 0001:00009180       ??_GTriangleMeshData@Gu@physx@@UEAAPEAXI@Z 000000018000a180 f i TriangleMeshBuilder.obj
 0001:000091f0       ?allocate@?$ReflectionAllocator@USortedNeighbor@GrbTrimeshCookerHelper@physx@@@shdfnd@physx@@QEAAPEAX_KPEBDH@Z 000000018000a1f0 f i TriangleMeshBuilder.obj
 0001:00009290       ?allocateTriangles@TriangleMeshData@Gu@physx@@QEAAPEAXI_NI@Z 000000018000a290 f i TriangleMeshBuilder.obj
 0001:00009370       ?allocateVertices@TriangleMeshData@Gu@physx@@QEAAPEAVPxVec3@3@I@Z 000000018000a370 f i TriangleMeshBuilder.obj
 0001:00009a80       ?getMidphaseID@BV4TriangleMeshBuilder@physx@@UEBA?AW4Enum@PxMeshMidPhase@2@XZ 000000018000aa80 f i TriangleMeshBuilder.obj
 0001:00009a90       ?getMidphaseID@RTreeTriangleMeshBuilder@physx@@UEBA?AW4Enum@PxMeshMidPhase@2@XZ 000000018000aa90 f i TriangleMeshBuilder.obj
 0001:00009aa0       ?growAndPushBack@?$Array@USortedNeighbor@GrbTrimeshCookerHelper@physx@@V?$ReflectionAllocator@USortedNeighbor@GrbTrimeshCookerHelper@physx@@@shdfnd@3@@shdfnd@physx@@IEAAAEAUSortedNeighbor@GrbTrimeshCookerHelper@3@AEBU453@@Z 000000018000aaa0 f i TriangleMeshBuilder.obj
 0001:00009b90       ?onMeshIndexFormatChange@TriangleMeshBuilder@physx@@UEAAXXZ 000000018000ab90 f i TriangleMeshBuilder.obj
 0001:00009ba0       ?recreate@?$Array@USharpEdgeRange@GrbTrimeshCookerHelper@physx@@V?$ReflectionAllocator@USharpEdgeRange@GrbTrimeshCookerHelper@physx@@@shdfnd@3@@shdfnd@physx@@IEAAXI@Z 000000018000aba0 f i TriangleMeshBuilder.obj
 0001:00009cb0       ?recreate@?$Array@USortedNeighbor@GrbTrimeshCookerHelper@physx@@V?$ReflectionAllocator@USortedNeighbor@GrbTrimeshCookerHelper@physx@@@shdfnd@3@@shdfnd@physx@@IEAAXI@Z 000000018000acb0 f i TriangleMeshBuilder.obj
 0001:00009d80       ?remap@RTreeCookerRemap@physx@@UEAAXPEAIII@Z 000000018000ad80 f i TriangleMeshBuilder.obj
 0001:00009da0       ?resize@?$Array@USharpEdgeRange@GrbTrimeshCookerHelper@physx@@V?$ReflectionAllocator@USharpEdgeRange@GrbTrimeshCookerHelper@physx@@@shdfnd@3@@shdfnd@physx@@QEAAXIAEBUSharpEdgeRange@GrbTrimeshCookerHelper@3@@Z 000000018000ada0 f i TriangleMeshBuilder.obj
 0001:00009e60       ?resizeUninitialized@?$Array@USortedNeighbor@GrbTrimeshCookerHelper@physx@@V?$ReflectionAllocator@USortedNeighbor@GrbTrimeshCookerHelper@physx@@@shdfnd@3@@shdfnd@physx@@QEAAXI@Z 000000018000ae60 f i TriangleMeshBuilder.obj
 0001:00009ea0       ??0BigConvexDataBuilder@physx@@QEAA@PEBUConvexHullData@Gu@1@PEAVBigConvexData@1@PEBVPxVec3@1@@Z 000000018000aea0 f   BigConvexDataBuilder.obj
 0001:00009ec0       ??1BigConvexDataBuilder@physx@@QEAA@XZ 000000018000aec0 f   BigConvexDataBuilder.obj
 0001:00009ed0       ?precompute@BigConvexDataBuilder@physx@@QEAA_NI@Z 000000018000aed0 f   BigConvexDataBuilder.obj
 0001:0000ab10       ?initialize@BigConvexDataBuilder@physx@@QEAA_NXZ 000000018000bb10 f   BigConvexDataBuilder.obj
 0001:0000abb0       ?save@BigConvexDataBuilder@physx@@QEBA_NAEAVPxOutputStream@2@_N@Z 000000018000bbb0 f   BigConvexDataBuilder.obj
 0001:0000aca0       ?computeValencies@BigConvexDataBuilder@physx@@QEAA_NAEBVConvexHullBuilder@2@@Z 000000018000bca0 f   BigConvexDataBuilder.obj
 0001:0000b090       ?saveValencies@BigConvexDataBuilder@physx@@QEBA_NAEAVPxOutputStream@2@_N@Z 000000018000c090 f   BigConvexDataBuilder.obj
 0001:0000b240       ??0ConvexHullBuilder@physx@@QEAA@PEAUConvexHullData@Gu@1@_N@Z 000000018000c240 f   ConvexHullBuilder.obj
 0001:0000b270       ??1ConvexHullBuilder@physx@@QEAA@XZ 000000018000c270 f   ConvexHullBuilder.obj
 0001:0000b380       ?init@ConvexHullBuilder@physx@@QEAA_NIPEBVPxVec3@2@PEBIIIPEBUPxHullPolygon@2@_NPEAVConvexHullLib@2@@Z 000000018000c380 f   ConvexHullBuilder.obj
 0001:0000bd00       ?save@ConvexHullBuilder@physx@@QEBA_NAEAVPxOutputStream@2@_N@Z 000000018000cd00 f   ConvexHullBuilder.obj
 0001:0000c050       ?copy@ConvexHullBuilder@physx@@QEAA_NAEAUConvexHullData@Gu@2@AEAI@Z 000000018000d050 f   ConvexHullBuilder.obj
 0001:0000c2c0       ?createEdgeList@ConvexHullBuilder@physx@@QEAA_N_NI@Z 000000018000d2c0 f   ConvexHullBuilder.obj
 0001:0000caa0       ?checkHullPolygons@ConvexHullBuilder@physx@@QEBA_NXZ 000000018000daa0 f   ConvexHullBuilder.obj
 0001:0000d090       ?calculateVertexMapTable@ConvexHullBuilder@physx@@QEAA_NI_N@Z 000000018000e090 f   ConvexHullBuilder.obj
 0001:0000d260       ?computeGeomCenter@ConvexHullBuilder@physx@@IEBA_NAEAVPxVec3@2@IPEAUHullTriangleData@2@@Z 000000018000e260 f   ConvexHullBuilder.obj
 0001:0000d520       ??$?_UE@@YAPEAX_KV?$ReflectionAllocator@E@shdfnd@physx@@PEBDH@Z 000000018000e520 f i ConvexHullBuilder.obj
 0001:0000d5c0       ??0PxVec3@physx@@QEAA@XZ   000000018000e5c0 f i ConvexHullBuilder.obj
 0001:0000d5d0       ??1ConvexHullLib@physx@@UEAA@XZ 000000018000e5d0 f   ConvexHullLib.obj
 0001:0000d630       ?cleanupVertices@ConvexHullLib@physx@@IEAA_NIPEBVPxVec3@2@IAEAIPEAV32@AEAV32@3@Z 000000018000e630 f   ConvexHullLib.obj
 0001:0000da90       ?shiftAndcleanupVertices@ConvexHullLib@physx@@IEAA_NIPEBVPxVec3@2@IAEAIPEAV32@AEAV32@3@Z 000000018000ea90 f   ConvexHullLib.obj
 0001:0000df40       ?swapLargestFace@ConvexHullLib@physx@@IEAAXAEAVPxConvexMeshDesc@2@@Z 000000018000ef40 f   ConvexHullLib.obj
 0001:0000e130       ?shiftConvexMeshDesc@ConvexHullLib@physx@@IEAAXAEAVPxConvexMeshDesc@2@@Z 000000018000f130 f   ConvexHullLib.obj
 0001:0000e1f0       ??_EConvexHullLib@physx@@UEAAPEAXI@Z 000000018000f1f0 f i ConvexHullLib.obj
 0001:0000e1f0       ??_GConvexHullLib@physx@@UEAAPEAXI@Z 000000018000f1f0 f i ConvexHullLib.obj
 0001:0000e750       ??0ConvexHull@physx@@QEAA@AEBVPxVec3@1@0AEBV?$Array@VPxPlane@physx@@V?$ReflectionAllocator@VPxPlane@physx@@@shdfnd@2@@shdfnd@1@@Z 000000018000f750 f   ConvexHullUtils.obj
 0001:0000f120       ??0ConvexHull@physx@@QEAA@AEBVPxVec3@1@AEBVPxTransform@1@AEBV?$Array@VPxPlane@physx@@V?$ReflectionAllocator@VPxPlane@physx@@@shdfnd@2@@shdfnd@1@@Z 0000000180010120 f   ConvexHullUtils.obj
 0001:00010270       ?findCandidatePlane@ConvexHull@physx@@QEBAHMM@Z 0000000180011270 f   ConvexHullUtils.obj
 0001:000106c0       ?assertIntact@ConvexHull@physx@@QEBA_NM@Z 00000001800116c0 f   ConvexHullUtils.obj
 0001:000109e0       ?maxNumVertsPerFace@ConvexHull@physx@@QEBAIXZ 00000001800119e0 f   ConvexHullUtils.obj
 0001:00010a60       ?convexHullCrop@physx@@YAPEAVConvexHull@1@AEBV21@AEBVPxPlane@1@M@Z 0000000180011a60 f   ConvexHullUtils.obj
 0001:00011860       ?computeOBBFromConvex@physx@@YA_NAEBVPxConvexMeshDesc@1@AEAVPxVec3@1@AEAVPxTransform@1@@Z 0000000180012860 f   ConvexHullUtils.obj
 0001:00011f40       ?computeOBBSIMD@local@@YAXIPEBT__m128@@AEAT2@AEBT2@1@Z 0000000180012f40 f   ConvexHullUtils.obj
 0001:00012320       ??0HalfEdge@ConvexHull@physx@@QEAA@XZ 0000000180013320 f i ConvexHullUtils.obj
 0001:00012330       ??0PxPlane@physx@@QEAA@XZ  0000000180013330 f i ConvexHullUtils.obj
 0001:00012340       ?allocate@?$Array@VHalfEdge@ConvexHull@physx@@V?$ReflectionAllocator@VHalfEdge@ConvexHull@physx@@@shdfnd@3@@shdfnd@physx@@IEAAPEAVHalfEdge@ConvexHull@3@I@Z 0000000180013340 f i ConvexHullUtils.obj
 0001:000123e0       ?allocate@?$Array@VPxPlane@physx@@V?$ReflectionAllocator@VPxPlane@physx@@@shdfnd@2@@shdfnd@physx@@IEAAPEAVPxPlane@3@I@Z 00000001800133e0 f i ConvexHullUtils.obj
 0001:00012480       ?copy@?$Array@VPxPlane@physx@@V?$ReflectionAllocator@VPxPlane@physx@@@shdfnd@2@@shdfnd@physx@@KAXPEAVPxPlane@3@0PEBV43@@Z 0000000180013480 f i ConvexHullUtils.obj
 0001:00012580       ?getInverse@PxMat33@physx@@QEBA?BV12@XZ 0000000180013580 f i ConvexHullUtils.obj
 0001:000127d0       ?growAndPushBack@?$Array@VHalfEdge@ConvexHull@physx@@V?$ReflectionAllocator@VHalfEdge@ConvexHull@physx@@@shdfnd@3@@shdfnd@physx@@IEAAAEAVHalfEdge@ConvexHull@3@AEBV453@@Z 00000001800137d0 f i ConvexHullUtils.obj
 0001:00012890       ?growAndPushBack@?$Array@VPxPlane@physx@@V?$ReflectionAllocator@VPxPlane@physx@@@shdfnd@2@@shdfnd@physx@@IEAAAEAVPxPlane@3@AEBV43@@Z 0000000180013890 f i ConvexHullUtils.obj
 0001:00012950       ?recreate@?$Array@VHalfEdge@ConvexHull@physx@@V?$ReflectionAllocator@VHalfEdge@ConvexHull@physx@@@shdfnd@3@@shdfnd@physx@@IEAAXI@Z 0000000180013950 f i ConvexHullUtils.obj
 0001:000129f0       ?recreate@?$Array@VPxPlane@physx@@V?$ReflectionAllocator@VPxPlane@physx@@@shdfnd@2@@shdfnd@physx@@IEAAXI@Z 00000001800139f0 f i ConvexHullUtils.obj
 0001:00012a80       ?resize@?$Array@VHalfEdge@ConvexHull@physx@@V?$ReflectionAllocator@VHalfEdge@ConvexHull@physx@@@shdfnd@3@@shdfnd@physx@@QEAAXIAEBVHalfEdge@ConvexHull@3@@Z 0000000180013a80 f i ConvexHullUtils.obj
 0001:00012b40       ?resize@?$Array@VPxPlane@physx@@V?$ReflectionAllocator@VPxPlane@physx@@@shdfnd@2@@shdfnd@physx@@QEAAXIAEBVPxPlane@3@@Z 0000000180013b40 f i ConvexHullUtils.obj
 0001:00012c60       ?resize@?$Array@VPxVec3@physx@@V?$ReflectionAllocator@VPxVec3@physx@@@shdfnd@2@@shdfnd@physx@@QEAAXIAEBVPxVec3@3@@Z 0000000180013c60 f i ConvexHullUtils.obj
 0001:00012d50       ??0ConvexMeshBuilder@physx@@QEAA@_N@Z 0000000180013d50 f   ConvexMeshBuilder.obj
 0001:00012dc0       ??1ConvexMeshBuilder@physx@@QEAA@XZ 0000000180013dc0 f   ConvexMeshBuilder.obj
 0001:00012e20       ?build@ConvexMeshBuilder@physx@@QEAA_NAEBVPxConvexMeshDesc@2@I_NPEAVConvexHullLib@2@@Z 0000000180013e20 f   ConvexMeshBuilder.obj
 0001:00013150       ?save@ConvexMeshBuilder@physx@@QEBA_NAEAVPxOutputStream@2@_N@Z 0000000180014150 f   ConvexMeshBuilder.obj
 0001:00013380       ?copy@ConvexMeshBuilder@physx@@QEAA_NAEAUConvexHullData@Gu@2@AEAI@Z 0000000180014380 f   ConvexMeshBuilder.obj
 0001:00013410       ?loadConvexHull@ConvexMeshBuilder@physx@@QEAA_NAEBVPxConvexMeshDesc@2@PEAVConvexHullLib@2@@Z 0000000180014410 f   ConvexMeshBuilder.obj
 0001:00013690       ?computeHullPolygons@ConvexMeshBuilder@physx@@QEAA_NAEBIPEBVPxVec3@2@0PEBIAEAVPxAllocatorCallback@2@AEAIAEAPEAV32@4AEAPEAI4AEAPEAUPxHullPolygon@2@@Z 0000000180014690 f   ConvexMeshBuilder.obj
 0001:000138c0       ?computeGaussMaps@ConvexMeshBuilder@physx@@QEAA_NXZ 00000001800148c0 f   ConvexMeshBuilder.obj
 0001:000139b0       ?computeMassInfo@ConvexMeshBuilder@physx@@QEAAX_N@Z 00000001800149b0 f   ConvexMeshBuilder.obj
 0001:00013d80       ?computeInternalObjects@ConvexMeshBuilder@physx@@QEAAXXZ 0000000180014d80 f   ConvexMeshBuilder.obj
 0001:00014200       ?isFinite@PxVec3@physx@@QEBA_NXZ 0000000180015200 f i ConvexMeshBuilder.obj
 0001:00014260       ??0ConvexPolygonsBuilder@physx@@QEAA@PEAUConvexHullData@Gu@1@_N@Z 0000000180015260 f   ConvexPolygonsBuilder.obj
 0001:00014290       ??1ConvexPolygonsBuilder@physx@@QEAA@XZ 0000000180015290 f   ConvexPolygonsBuilder.obj
 0001:000142e0       ?computeHullPolygons@ConvexPolygonsBuilder@physx@@QEAA_NAEBIPEBVPxVec3@2@0PEBI@Z 00000001800152e0 f   ConvexPolygonsBuilder.obj
 0001:00015360       ?createPolygonData@ConvexPolygonsBuilder@physx@@AEAA_NXZ 0000000180016360 f   ConvexPolygonsBuilder.obj
 0001:00015f10       ?createTrianglesFromPolygons@ConvexPolygonsBuilder@physx@@AEAA_NXZ 0000000180016f10 f   ConvexPolygonsBuilder.obj
 0001:000167c0       ??$?_UUHullTriangleData@physx@@@@YAPEAX_KV?$ReflectionAllocator@UHullTriangleData@physx@@@shdfnd@physx@@PEBDH@Z 00000001800177c0 f i ConvexPolygonsBuilder.obj
 0001:00016860       ??$copy@V?$ReflectionAllocator@VPair@@@shdfnd@physx@@@?$Array@VPair@@V?$ReflectionAllocator@VPair@@@shdfnd@physx@@@shdfnd@physx@@IEAAXAEBV012@@Z 0000000180017860 f i ConvexPolygonsBuilder.obj
 0001:000170e0       ?allocate@?$Array@IV?$ReflectionAllocator@I@shdfnd@physx@@@shdfnd@physx@@IEAAPEAII@Z 00000001800180e0 f i ConvexPolygonsBuilder.obj
 0001:00017180       ?allocate@?$Array@VPair@@V?$ReflectionAllocator@VPair@@@shdfnd@physx@@@shdfnd@physx@@IEAAPEAVPair@@I@Z 0000000180018180 f i ConvexPolygonsBuilder.obj
 0001:00018700       ?growAndPushBack@?$Array@VPair@@V?$ReflectionAllocator@VPair@@@shdfnd@physx@@@shdfnd@physx@@IEAAAEAVPair@@AEBV4@@Z 0000000180019700 f i ConvexPolygonsBuilder.obj
 0001:000187d0       ??0InflationConvexHullLib@physx@@QEAA@AEBVPxConvexMeshDesc@1@AEBUPxCookingParams@1@@Z 00000001800197d0 f   InflationConvexHullLib.obj
 0001:00018810       ??1InflationConvexHullLib@physx@@UEAA@XZ 0000000180019810 f   InflationConvexHullLib.obj
 0001:000188a0       ?createConvexHull@InflationConvexHullLib@physx@@UEAA?AW4Enum@PxConvexMeshCookingResult@2@XZ 00000001800198a0 f   InflationConvexHullLib.obj
 0001:000189b0       ?fillConvexMeshDesc@InflationConvexHullLib@physx@@UEAAXAEAVPxConvexMeshDesc@2@@Z 00000001800199b0 f   InflationConvexHullLib.obj
 0001:00018a30       ?computeHull@InflationConvexHullLib@physx@@IEAA?AW4ErrorCode@ConvexHullLibResult@2@IPEBVPxVec3@2@@Z 0000000180019a30 f   InflationConvexHullLib.obj
 0001:00018c50       ?calchull@InflationConvexHullLib@physx@@IEAA?AW4ErrorCode@ConvexHullLibResult@2@PEBVPxVec3@2@IAEAPEAVConvexHull@2@@Z 0000000180019c50 f   InflationConvexHullLib.obj
 0001:00018e90       ?calchullgen@InflationConvexHullLib@physx@@IEAA?AW4ErrorCode@ConvexHullLibResult@2@PEBVPxVec3@2@IAEAVHullTriangles@local@@@Z 0000000180019e90 f   InflationConvexHullLib.obj
 0001:00019ec0       ?calchullplanes@InflationConvexHullLib@physx@@IEAA_NPEBVPxVec3@2@AEAVHullTriangles@local@@AEAV?$Array@VPxPlane@physx@@V?$ReflectionAllocator@VPxPlane@physx@@@shdfnd@2@@shdfnd@2@@Z 000000018001aec0 f   InflationConvexHullLib.obj
 0001:0001a5c0       ?overhull@InflationConvexHullLib@physx@@IEAA_NPEBVPxVec3@2@IAEBV?$Array@VPxPlane@physx@@V?$ReflectionAllocator@VPxPlane@physx@@@shdfnd@2@@shdfnd@2@AEAPEAVConvexHull@2@@Z 000000018001b5c0 f   InflationConvexHullLib.obj
 0001:0001ae50       ?expandHull@InflationConvexHullLib@physx@@IEAA?AW4ErrorCode@ConvexHullLibResult@2@PEBVPxVec3@2@IAEBVHullTriangles@local@@AEAPEAVConvexHull@2@@Z 000000018001be50 f   InflationConvexHullLib.obj
 0001:0001bd50       ?expandHullOBB@InflationConvexHullLib@physx@@IEAA?AW4ErrorCode@ConvexHullLibResult@2@PEBVPxVec3@2@IAEBVHullTriangles@local@@AEAPEAVConvexHull@2@@Z 000000018001cd50 f   InflationConvexHullLib.obj
 0001:0001c440       ?maxIndexInDirFiltered@local@@YAHPEBVPxVec3@physx@@IAEBV23@PEA_N@Z 000000018001d440 f   InflationConvexHullLib.obj
 0001:0001c700       ?maxIndexInDirSterid@local@@YAHPEBVPxVec3@physx@@IAEBV23@AEAV?$Array@EV?$ReflectionAllocator@E@shdfnd@physx@@@shdfnd@3@@Z 000000018001d700 f   InflationConvexHullLib.obj
 0001:0001cb90       ??_GConvexHull@physx@@QEAAPEAXI@Z 000000018001db90 f i InflationConvexHullLib.obj
 0001:0001cc70       ??_EInflationConvexHullLib@physx@@UEAAPEAXI@Z 000000018001dc70 f i InflationConvexHullLib.obj
 0001:0001cc70       ??_GInflationConvexHullLib@physx@@UEAAPEAXI@Z 000000018001dc70 f i InflationConvexHullLib.obj
 0001:0001cd40       ?allocate@?$Array@EV?$ReflectionAllocator@E@shdfnd@physx@@@shdfnd@physx@@IEAAPEAEI@Z 000000018001dd40 f i InflationConvexHullLib.obj
 0001:0001cdd0       ?allocate@?$Array@HV?$ReflectionAllocator@H@shdfnd@physx@@@shdfnd@physx@@IEAAPEAHI@Z 000000018001ddd0 f i InflationConvexHullLib.obj
 0001:0001ce70       ?allocate@?$Array@PEAVTri@local@@V?$ReflectionAllocator@PEAVTri@local@@@shdfnd@physx@@@shdfnd@physx@@IEAAPEAPEAVTri@local@@I@Z 000000018001de70 f i InflationConvexHullLib.obj
 0001:0001cf10       ?b2bfix@HullTriangles@local@@IEAAXPEAVTri@2@0@Z 000000018001df10 f i InflationConvexHullLib.obj
 0001:0001d310       ?createEdgeList@InflationConvexHullLib@physx@@UEAA_NIPEBEPEAPEAEPEAPEAG2@Z 000000018001e310 f i InflationConvexHullLib.obj
 0001:0001d320       ?createTri@HullTriangles@local@@QEAAPEAVTri@2@HHH@Z 000000018001e320 f i InflationConvexHullLib.obj
 0001:0001d420       ?findExtrudable@HullTriangles@local@@QEBAPEAVTri@2@M@Z 000000018001e420 f i InflationConvexHullLib.obj
 0001:0001dd30       ?getNormal@Tri@local@@QEBA?AVPxVec3@physx@@PEBV34@@Z 000000018001ed30 f i InflationConvexHullLib.obj
 0001:0001de40       ?growAndPushBack@?$Array@EV?$ReflectionAllocator@E@shdfnd@physx@@@shdfnd@physx@@IEAAAEAEAEBE@Z 000000018001ee40 f i InflationConvexHullLib.obj
 0001:0001df00       ?growAndPushBack@?$Array@HV?$ReflectionAllocator@H@shdfnd@physx@@@shdfnd@physx@@IEAAAEAHAEBH@Z 000000018001ef00 f i InflationConvexHullLib.obj
 0001:0001dfc0       ?growAndPushBack@?$Array@PEAVTri@local@@V?$ReflectionAllocator@PEAVTri@local@@@shdfnd@physx@@@shdfnd@physx@@IEAAAEAPEAVTri@local@@AEBQEAV45@@Z 000000018001efc0 f i InflationConvexHullLib.obj
 0001:0001e080       ?growAndPushBack@?$Array@UExpandPlane@local@@V?$ReflectionAllocator@UExpandPlane@local@@@shdfnd@physx@@@shdfnd@physx@@IEAAAEAUExpandPlane@local@@AEBU45@@Z 000000018001f080 f i InflationConvexHullLib.obj
 0001:0001e3d0       ?neib@Tri@local@@QEAAAEAHHH@Z 000000018001f3d0 f i InflationConvexHullLib.obj
 0001:0001e480       ?recreate@?$Array@EV?$ReflectionAllocator@E@shdfnd@physx@@@shdfnd@physx@@IEAAXI@Z 000000018001f480 f i InflationConvexHullLib.obj
 0001:0001e520       ?recreate@?$Array@HV?$ReflectionAllocator@H@shdfnd@physx@@@shdfnd@physx@@IEAAXI@Z 000000018001f520 f i InflationConvexHullLib.obj
 0001:0001e5c0       ?recreate@?$Array@PEAVTri@local@@V?$ReflectionAllocator@PEAVTri@local@@@shdfnd@physx@@@shdfnd@physx@@IEAAXI@Z 000000018001f5c0 f i InflationConvexHullLib.obj
 0001:0001e660       ?removeb2b@HullTriangles@local@@IEAAXPEAVTri@2@0@Z 000000018001f660 f i InflationConvexHullLib.obj
 0001:0001e6d0       ?resize@?$Array@HV?$ReflectionAllocator@H@shdfnd@physx@@@shdfnd@physx@@QEAAXIAEBH@Z 000000018001f6d0 f i InflationConvexHullLib.obj
 0001:0001e790       ??0QuickHullConvexHullLib@physx@@QEAA@AEBVPxConvexMeshDesc@1@AEBUPxCookingParams@1@@Z 000000018001f790 f   QuickHullConvexHullLib.obj
 0001:0001e890       ??1QuickHullConvexHullLib@physx@@UEAA@XZ 000000018001f890 f   QuickHullConvexHullLib.obj
 0001:0001e960       ?createConvexHull@QuickHullConvexHullLib@physx@@UEAA?AW4Enum@PxConvexMeshCookingResult@2@XZ 000000018001f960 f   QuickHullConvexHullLib.obj
 0001:0001ed70       ?fillConvexMeshDesc@QuickHullConvexHullLib@physx@@UEAAXAEAVPxConvexMeshDesc@2@@Z 000000018001fd70 f   QuickHullConvexHullLib.obj
 0001:0001edc0       ?createEdgeList@QuickHullConvexHullLib@physx@@UEAA_NIPEBEPEAPEAEPEAPEAG2@Z 000000018001fdc0 f   QuickHullConvexHullLib.obj
 0001:0001f010       ?expandHullOBB@QuickHullConvexHullLib@physx@@IEAA?AW4Enum@PxConvexMeshCookingResult@2@XZ 0000000180020010 f   QuickHullConvexHullLib.obj
 0001:0001f430       ?expandHull@QuickHullConvexHullLib@physx@@IEAA?AW4Enum@PxConvexMeshCookingResult@2@XZ 0000000180020430 f   QuickHullConvexHullLib.obj
 0001:0001fd60       ?cleanupForSimplex@QuickHullConvexHullLib@physx@@IEAA_NPEAVPxVec3@2@IPEAUQuickHullVertex@local@@1AEAM2@Z 0000000180020d60 f   QuickHullConvexHullLib.obj
 0001:00020990       ?fillConvexMeshDescFromQuickHull@QuickHullConvexHullLib@physx@@IEAAXAEAVPxConvexMeshDesc@2@@Z 0000000180021990 f   QuickHullConvexHullLib.obj
 0001:00020d20       ?fillConvexMeshDescFromCroppedHull@QuickHullConvexHullLib@physx@@IEAAXAEAVPxConvexMeshDesc@2@@Z 0000000180021d20 f   QuickHullConvexHullLib.obj
 0001:00020f20       ?getOppositeFaceDistance@QuickHullHalfEdge@local@@QEBAMXZ 0000000180021f20 f   QuickHullConvexHullLib.obj
 0001:00020f60       ?mergeAdjacentFace@QuickHullFace@local@@QEAA_NPEAUQuickHullHalfEdge@2@AEAV?$Array@PEAUQuickHullFace@local@@V?$ReflectionAllocator@PEAUQuickHullFace@local@@@shdfnd@physx@@@shdfnd@physx@@@Z 0000000180021f60 f   QuickHullConvexHullLib.obj
 0001:000213b0       ?checkFaceConsistency@QuickHullFace@local@@QEAA_NXZ 00000001800223b0 f   QuickHullConvexHullLib.obj
 0001:000213c0       ?connectHalfEdges@QuickHullFace@local@@AEAAPEAU12@PEAUQuickHullHalfEdge@2@0@Z 00000001800223c0 f   QuickHullConvexHullLib.obj
 0001:00021740       ??0QuickHull@local@@QEAA@AEBUPxCookingParams@physx@@AEBVPxConvexMeshDesc@3@@Z 0000000180022740 f   QuickHullConvexHullLib.obj
 0001:000217f0       ??1QuickHull@local@@QEAA@XZ 00000001800227f0 f   QuickHullConvexHullLib.obj
 0001:00021940       ?preallocate@QuickHull@local@@QEAAXI@Z 0000000180022940 f   QuickHullConvexHullLib.obj
 0001:00021a80       ?parseInputVertices@QuickHull@local@@QEAAXPEBVPxVec3@physx@@I@Z 0000000180022a80 f   QuickHullConvexHullLib.obj
 0001:00021c00       ?releaseHull@QuickHull@local@@QEAAXXZ 0000000180022c00 f   QuickHullConvexHullLib.obj
 0001:00021c60       ?setPrecomputedMinMax@QuickHull@local@@QEAAXPEBUQuickHullVertex@2@0MM@Z 0000000180022c60 f   QuickHullConvexHullLib.obj
 0001:00021df0       ?buildHull@QuickHull@local@@QEAA?AW4Enum@QuickHullResult@2@XZ 0000000180022df0 f   QuickHullConvexHullLib.obj
 0001:00022010       ?maxNumVertsPerFace@QuickHull@local@@QEBAIXZ 0000000180023010 f   QuickHullConvexHullLib.obj
 0001:00022050       ?computeMinMaxVerts@QuickHull@local@@IEAAXXZ 0000000180023050 f   QuickHullConvexHullLib.obj
 0001:00022430       ?findSimplex@QuickHull@local@@IEAA_NXZ 0000000180023430 f   QuickHullConvexHullLib.obj
 0001:000230f0       ?addSimplex@QuickHull@local@@IEAAXPEAUQuickHullVertex@2@_N@Z 00000001800240f0 f   QuickHullConvexHullLib.obj
 0001:000235c0       ?nextPointToAdd@QuickHull@local@@IEAAPEAUQuickHullVertex@2@AEAPEAUQuickHullFace@2@@Z 00000001800245c0 f   QuickHullConvexHullLib.obj
 0001:00023740       ?addPointToHull@QuickHull@local@@IEAA_NPEBUQuickHullVertex@2@AEAUQuickHullFace@2@AEA_N@Z 0000000180024740 f   QuickHullConvexHullLib.obj
 0001:00023a10       ?createTriangle@QuickHull@local@@IEAAPEAUQuickHullFace@2@AEBUQuickHullVertex@2@00@Z 0000000180024a10 f   QuickHullConvexHullLib.obj
 0001:00023e00       ?addPointToFace@QuickHull@local@@IEAAXAEAUQuickHullFace@2@PEAUQuickHullVertex@2@M@Z 0000000180024e00 f   QuickHullConvexHullLib.obj
 0001:00023e50       ?removeEyePointFromFace@QuickHull@local@@IEAAXAEAUQuickHullFace@2@PEBUQuickHullVertex@2@@Z 0000000180024e50 f   QuickHullConvexHullLib.obj
 0001:00023e70       ?calculateHorizon@QuickHull@local@@IEAAXAEBVPxVec3@physx@@PEAUQuickHullHalfEdge@2@AEAUQuickHullFace@2@AEAV?$Array@PEAUQuickHullHalfEdge@local@@V?$ReflectionAllocator@PEAUQuickHullHalfEdge@local@@@shdfnd@physx@@@shdfnd@4@AEAV?$Array@PEAUQuickHullFace@local@@V?$ReflectionAllocator@PEAUQuickHullFace@local@@@shdfnd@physx@@@84@@Z 0000000180024e70 f   QuickHullConvexHullLib.obj
 0001:00024030       ?addNewFacesFromHorizon@QuickHull@local@@IEAAXPEBUQuickHullVertex@2@AEBV?$Array@PEAUQuickHullHalfEdge@local@@V?$ReflectionAllocator@PEAUQuickHullHalfEdge@local@@@shdfnd@physx@@@shdfnd@physx@@AEAV?$Array@PEAUQuickHullFace@local@@V?$ReflectionAllocator@PEAUQuickHullFace@local@@@shdfnd@physx@@@56@@Z 0000000180025030 f   QuickHullConvexHullLib.obj
 0001:00024180       ?doAdjacentMerge@QuickHull@local@@IEAA_NAEAUQuickHullFace@2@_NAEA_N@Z 0000000180025180 f   QuickHullConvexHullLib.obj
 0001:000244d0       ?doPostAdjacentMerge@QuickHull@local@@IEAA_NAEAUQuickHullFace@2@M@Z 00000001800254d0 f   QuickHullConvexHullLib.obj
 0001:000246f0       ?deleteFacePoints@QuickHull@local@@IEAAXAEAUQuickHullFace@2@PEAU32@@Z 00000001800256f0 f   QuickHullConvexHullLib.obj
 0001:00024810       ?resolveUnclaimedPoints@QuickHull@local@@IEAAXAEBV?$Array@PEAUQuickHullFace@local@@V?$ReflectionAllocator@PEAUQuickHullFace@local@@@shdfnd@physx@@@shdfnd@physx@@@Z 0000000180025810 f   QuickHullConvexHullLib.obj
 0001:00024a90       ?postMergeHull@QuickHull@local@@IEAAXXZ 0000000180025a90 f   QuickHullConvexHullLib.obj
 0001:00024cf0       ?canMergeFaces@QuickHull@local@@IEAA_NAEBUQuickHullHalfEdge@2@@Z 0000000180025cf0 f   QuickHullConvexHullLib.obj
 0001:00025520       ?getExpandPoint@local@@YAXAEBUQuickHullHalfEdge@1@AEAUExpandPoint@1@PEBV?$Array@IV?$ReflectionAllocator@I@shdfnd@physx@@@shdfnd@physx@@@Z 0000000180026520 f   QuickHullConvexHullLib.obj
 0001:000255f0       ?addExpandPoint@local@@YAXAEBUExpandPoint@1@AEAV?$Array@UExpandPoint@local@@V?$ReflectionAllocator@UExpandPoint@local@@@shdfnd@physx@@@shdfnd@physx@@@Z 00000001800265f0 f   QuickHullConvexHullLib.obj
 0001:000256c0       ??0PxPlane@physx@@QEAA@AEBV01@@Z 00000001800266c0 f i QuickHullConvexHullLib.obj
 0001:000256e0       ??0QuickHullVertex@local@@QEAA@XZ 00000001800266e0 f i QuickHullConvexHullLib.obj
 0001:000256f0       ??1?$MemBlock@UQuickHullFace@local@@$00@local@@QEAA@XZ 00000001800266f0 f i QuickHullConvexHullLib.obj
 0001:00025780       ??1?$MemBlock@UQuickHullHalfEdge@local@@$0A@@local@@QEAA@XZ 0000000180026780 f i QuickHullConvexHullLib.obj
 0001:00025810       ??_EQuickHullConvexHullLib@physx@@UEAAPEAXI@Z 0000000180026810 f i QuickHullConvexHullLib.obj
 0001:00025810       ??_GQuickHullConvexHullLib@physx@@UEAAPEAXI@Z 0000000180026810 f i QuickHullConvexHullLib.obj
 0001:00025910       ??__G@YAXPEAX0_K1P6APEAX00@Z@Z 0000000180026910 f i QuickHullConvexHullLib.obj
 0001:00025970       ?allocate@?$Array@PEAUQuickHullFace@local@@V?$ReflectionAllocator@PEAUQuickHullFace@local@@@shdfnd@physx@@@shdfnd@physx@@IEAAPEAPEAUQuickHullFace@local@@I@Z 0000000180026970 f i QuickHullConvexHullLib.obj
 0001:00025a10       ?allocate@?$Array@PEAUQuickHullHalfEdge@local@@V?$ReflectionAllocator@PEAUQuickHullHalfEdge@local@@@shdfnd@physx@@@shdfnd@physx@@IEAAPEAPEAUQuickHullHalfEdge@local@@I@Z 0000000180026a10 f i QuickHullConvexHullLib.obj
 0001:00025ab0       ?allocate@?$Array@PEAUQuickHullVertex@local@@V?$ReflectionAllocator@PEAUQuickHullVertex@local@@@shdfnd@physx@@@shdfnd@physx@@IEAAPEAPEAUQuickHullVertex@local@@I@Z 0000000180026ab0 f i QuickHullConvexHullLib.obj
 0001:00025b50       ?allocate@?$Array@UExpandPoint@local@@V?$ReflectionAllocator@UExpandPoint@local@@@shdfnd@physx@@@shdfnd@physx@@IEAAPEAUExpandPoint@local@@I@Z 0000000180026b50 f i QuickHullConvexHullLib.obj
 0001:00025bf0       ?copy@?$Array@UExpandPoint@local@@V?$ReflectionAllocator@UExpandPoint@local@@@shdfnd@physx@@@shdfnd@physx@@KAXPEAUExpandPoint@local@@0PEBU45@@Z 0000000180026bf0 f i QuickHullConvexHullLib.obj
 0001:00025ca0       ?getFreeItem@?$MemBlock@UQuickHullFace@local@@$00@local@@QEAAPEAUQuickHullFace@2@XZ 0000000180026ca0 f i QuickHullConvexHullLib.obj
 0001:00025dd0       ?getFreeItem@?$MemBlock@UQuickHullHalfEdge@local@@$0A@@local@@QEAAPEAUQuickHullHalfEdge@2@XZ 0000000180026dd0 f i QuickHullConvexHullLib.obj
 0001:00025ea0       ?growAndPushBack@?$Array@PEAUQuickHullFace@local@@V?$ReflectionAllocator@PEAUQuickHullFace@local@@@shdfnd@physx@@@shdfnd@physx@@IEAAAEAPEAUQuickHullFace@local@@AEBQEAU45@@Z 0000000180026ea0 f i QuickHullConvexHullLib.obj
 0001:00025f60       ?growAndPushBack@?$Array@PEAUQuickHullHalfEdge@local@@V?$ReflectionAllocator@PEAUQuickHullHalfEdge@local@@@shdfnd@physx@@@shdfnd@physx@@IEAAAEAPEAUQuickHullHalfEdge@local@@AEBQEAU45@@Z 0000000180026f60 f i QuickHullConvexHullLib.obj
 0001:00026020       ?growAndPushBack@?$Array@PEAUQuickHullVertex@local@@V?$ReflectionAllocator@PEAUQuickHullVertex@local@@@shdfnd@physx@@@shdfnd@physx@@IEAAAEAPEAUQuickHullVertex@local@@AEBQEAU45@@Z 0000000180027020 f i QuickHullConvexHullLib.obj
 0001:000260e0       ?growAndPushBack@?$Array@UExpandPoint@local@@V?$ReflectionAllocator@UExpandPoint@local@@@shdfnd@physx@@@shdfnd@physx@@IEAAAEAUExpandPoint@local@@AEBU45@@Z 00000001800270e0 f i QuickHullConvexHullLib.obj
 0001:000261e0       ?init@?$MemBlock@UQuickHullFace@local@@$00@local@@QEAAXI@Z 00000001800271e0 f i QuickHullConvexHullLib.obj
 0001:000262e0       ?init@?$MemBlock@UQuickHullHalfEdge@local@@$0A@@local@@QEAAXI@Z 00000001800272e0 f i QuickHullConvexHullLib.obj
 0001:00026380       ?recreate@?$Array@PEAUQuickHullFace@local@@V?$ReflectionAllocator@PEAUQuickHullFace@local@@@shdfnd@physx@@@shdfnd@physx@@IEAAXI@Z 0000000180027380 f i QuickHullConvexHullLib.obj
 0001:00026420       ?recreate@?$Array@PEAUQuickHullHalfEdge@local@@V?$ReflectionAllocator@PEAUQuickHullHalfEdge@local@@@shdfnd@physx@@@shdfnd@physx@@IEAAXI@Z 0000000180027420 f i QuickHullConvexHullLib.obj
 0001:000264c0       ?recreate@?$Array@PEAUQuickHullVertex@local@@V?$ReflectionAllocator@PEAUQuickHullVertex@local@@@shdfnd@physx@@@shdfnd@physx@@IEAAXI@Z 00000001800274c0 f i QuickHullConvexHullLib.obj
 0001:00026560       ?recreate@?$Array@UExpandPoint@local@@V?$ReflectionAllocator@UExpandPoint@local@@@shdfnd@physx@@@shdfnd@physx@@IEAAXI@Z 0000000180027560 f i QuickHullConvexHullLib.obj
 0001:000265f0       ?computeVolumeIntegrals@physx@@YA_NAEBVPxSimpleTriangleMesh@1@MAEAUPxIntegrals@1@@Z 00000001800275f0 f   VolumeIntegration.obj
 0001:00026660       ?computeVolumeIntegralsEberly@physx@@YA_NAEBVPxConvexMeshDesc@1@MAEAUPxIntegrals@1@AEBVPxVec3@1@@Z 0000000180027660 f   VolumeIntegration.obj
 0001:000266b0       ?computeVolumeIntegralsEberlySIMD@physx@@YA_NAEBVPxConvexMeshDesc@1@MAEAUPxIntegrals@1@AEBVPxVec3@1@@Z 00000001800276b0 f   VolumeIntegration.obj
 0001:000288e0       ?ComputeNbBoundaryEdges@AdjTriangle@physx@@QEBAIXZ 00000001800298e0 f   Adjacencies.obj
 0001:00028930       ?ComputeNbNeighbors@AdjTriangle@physx@@QEBAIXZ 0000000180029930 f   Adjacencies.obj
 0001:00028980       ?HasNeighbor@AdjTriangle@physx@@QEBA_NIPEAI@Z 0000000180029980 f   Adjacencies.obj
 0001:000289f0       ?Flip@AdjTriangle@physx@@QEAAXXZ 00000001800299f0 f   Adjacencies.obj
 0001:00028a10       ??0Adjacencies@physx@@QEAA@XZ 0000000180029a10 f   Adjacencies.obj
 0001:00028a30       ??1Adjacencies@physx@@QEAA@XZ 0000000180029a30 f   Adjacencies.obj
 0001:00028aa0       ?Load@Adjacencies@physx@@QEAA_NAEAVPxInputStream@2@@Z 0000000180029aa0 f   Adjacencies.obj
 0001:00028b80       ?ComputeNbBoundaryEdges@Adjacencies@physx@@QEBAIXZ 0000000180029b80 f   Adjacencies.obj
 0001:00028c00       ?GetBoundaryVertices@Adjacencies@physx@@QEBA_NIPEA_NPEBU?$TriangleT@I@Gu@2@@Z 0000000180029c00 f   Adjacencies.obj
 0001:00028d60       ?MakeLastRef@Adjacencies@physx@@QEAA_NAEAVAdjTriangle@2@IPEAU?$TriangleT@I@Gu@2@@Z 0000000180029d60 f   Adjacencies.obj
 0001:00028fa0       ?AssignNewEdgeCode@Adjacencies@physx@@AEAAXIE@Z 0000000180029fa0 f   Adjacencies.obj
 0001:00028ff0       ??0AdjacenciesBuilder@physx@@QEAA@XZ 0000000180029ff0 f   Adjacencies.obj
 0001:00029010       ??1AdjacenciesBuilder@physx@@QEAA@XZ 000000018002a010 f   Adjacencies.obj
 0001:00029020       ?Init@AdjacenciesBuilder@physx@@QEAA_NAEBUADJACENCIESCREATE@2@@Z 000000018002a020 f   Adjacencies.obj
 0001:00029340       ??$?_UV?$ReflectionAllocator@VAdjTriangle@physx@@@shdfnd@physx@@@UserAllocated@shdfnd@physx@@SAPEAX_KV?$ReflectionAllocator@VAdjTriangle@physx@@@12@PEBDH@Z 000000018002a340 f i Adjacencies.obj
 0001:000293e0       ??0AdjEdge@@QEAA@XZ        000000018002a3e0 f i Adjacencies.obj
 0001:000293f0       ??0AdjTriangle@physx@@QEAA@XZ 000000018002a3f0 f i Adjacencies.obj
 0001:00029400       ??1AdjEdge@@QEAA@XZ        000000018002a400 f i Adjacencies.obj
 0001:00029410       ??1AdjTriangle@physx@@QEAA@XZ 000000018002a410 f i Adjacencies.obj
 0001:00029420       ??_EAdjEdge@@QEAAPEAXI@Z   000000018002a420 f i Adjacencies.obj
 0001:000294a0       ??_EAdjTriangle@physx@@QEAAPEAXI@Z 000000018002a4a0 f i Adjacencies.obj
 0001:00029520       ??_I@YAXPEAX_K1P6AX0@Z@Z   000000018002a520 f i Adjacencies.obj
 0001:00029b20       PxCreateCooking            000000018002ab20 f   Cooking.obj
 0001:00029c40       ?release@Cooking@physx@@UEAAXXZ 000000018002ac40 f   Cooking.obj
 0001:00029c70       ?setParams@Cooking@physx@@UEAAXAEBUPxCookingParams@2@@Z 000000018002ac70 f   Cooking.obj
 0001:00029cf0       ?getParams@Cooking@physx@@UEBAAEBUPxCookingParams@2@XZ 000000018002acf0 f   Cooking.obj
 0001:00029d00       ?platformMismatch@Cooking@physx@@UEBA_NXZ 000000018002ad00 f   Cooking.obj
 0001:00029d20       ?cookTriangleMesh@Cooking@physx@@UEBA_NAEBVPxTriangleMeshDesc@2@AEAVPxOutputStream@2@PEAW4Enum@PxTriangleMeshCookingResult@2@@Z 000000018002ad20 f   Cooking.obj
 0001:00029e90       ?createTriangleMesh@Cooking@physx@@UEBAPEAVPxTriangleMesh@2@AEBVPxTriangleMeshDesc@2@AEAVPxPhysicsInsertionCallback@2@PEAW4Enum@PxTriangleMeshCookingResult@2@@Z 000000018002ae90 f   Cooking.obj
 0001:0002a000       ?validateTriangleMesh@Cooking@physx@@UEBA_NAEBVPxTriangleMeshDesc@2@@Z 000000018002b000 f   Cooking.obj
 0001:0002a110       ?cookConvexMesh@Cooking@physx@@UEBA_NAEBVPxConvexMeshDesc@2@AEAVPxOutputStream@2@PEAW4Enum@PxConvexMeshCookingResult@2@@Z 000000018002b110 f   Cooking.obj
 0001:0002a380       ?createConvexMesh@Cooking@physx@@UEBAPEAVPxConvexMesh@2@AEBVPxConvexMeshDesc@2@AEAVPxPhysicsInsertionCallback@2@PEAW4Enum@PxConvexMeshCookingResult@2@@Z 000000018002b380 f   Cooking.obj
 0001:0002a690       ?validateConvexMesh@Cooking@physx@@UEBA_NAEBVPxConvexMeshDesc@2@@Z 000000018002b690 f   Cooking.obj
 0001:0002a700       ?computeHullPolygons@Cooking@physx@@UEBA_NAEBVPxSimpleTriangleMesh@2@AEAVPxAllocatorCallback@2@AEAIAEAPEAVPxVec3@2@2AEAPEAI2AEAPEAUPxHullPolygon@2@@Z 000000018002b700 f   Cooking.obj
 0001:0002a8e0       ?cookHeightField@Cooking@physx@@UEBA_NAEBVPxHeightFieldDesc@2@AEAVPxOutputStream@2@@Z 000000018002b8e0 f   Cooking.obj
 0001:0002aa00       ?createHeightField@Cooking@physx@@UEBAPEAVPxHeightField@2@AEBVPxHeightFieldDesc@2@AEAVPxPhysicsInsertionCallback@2@@Z 000000018002ba00 f   Cooking.obj
 0001:0002ab90       ?cookConvexMeshInternal@Cooking@physx@@AEBA_NAEBVPxConvexMeshDesc@2@AEAVConvexMeshBuilder@2@PEAVConvexHullLib@2@PEAW4Enum@PxConvexMeshCookingResult@2@@Z 000000018002bb90 f   Cooking.obj
 0001:0002ae40       ?cookTriangleMesh@Cooking@physx@@AEBA_NAEAVTriangleMeshBuilder@2@AEBVPxTriangleMeshDesc@2@AEAVPxOutputStream@2@PEAW4Enum@PxTriangleMeshCookingResult@2@@Z 000000018002be40 f   Cooking.obj
 0001:0002aee0       ?createTriangleMesh@Cooking@physx@@AEBAPEAVPxTriangleMesh@2@AEAVTriangleMeshBuilder@2@AEBVPxTriangleMeshDesc@2@AEAVPxPhysicsInsertionCallback@2@PEAW4Enum@PxTriangleMeshCookingResult@2@@Z 000000018002bee0 f   Cooking.obj
 0001:0002af90       ??1PxCooking@physx@@MEAA@XZ 000000018002bf90 f i Cooking.obj
 0001:0002afa0       ??_ECooking@physx@@UEAAPEAXI@Z 000000018002bfa0 f i Cooking.obj
 0001:0002afa0       ??_GCooking@physx@@UEAAPEAXI@Z 000000018002bfa0 f i Cooking.obj
 0001:0002aff0       ??_EPxCooking@physx@@MEAAPEAXI@Z 000000018002bff0 f i Cooking.obj
 0001:0002aff0       ??_GPxCooking@physx@@MEAAPEAXI@Z 000000018002bff0 f i Cooking.obj
 0001:0002b020       ??0ReducedVertexCloud@physx@@QEAA@PEBVPxVec3@1@I@Z 000000018002c020 f   CookingUtils.obj
 0001:0002b040       ??1ReducedVertexCloud@physx@@QEAA@XZ 000000018002c040 f   CookingUtils.obj
 0001:0002b050       ?Clean@ReducedVertexCloud@physx@@QEAAAEAV12@XZ 000000018002c050 f   CookingUtils.obj
 0001:0002b0c0       ?Reduce@ReducedVertexCloud@physx@@QEAA_NPEAUREDUCEDCLOUD@2@@Z 000000018002c0c0 f   CookingUtils.obj
 0001:0002b400       ??0EdgeList@Gu@physx@@QEAA@XZ 000000018002c400 f   EdgeList.obj
 0001:0002b420       ??1EdgeList@Gu@physx@@QEAA@XZ 000000018002c420 f   EdgeList.obj
 0001:0002b4d0       ?load@EdgeList@Gu@physx@@QEAA_NAEAVPxInputStream@3@@Z 000000018002c4d0 f   EdgeList.obj
 0001:0002b6c0       ??0EdgeListBuilder@Gu@physx@@QEAA@XZ 000000018002c6c0 f   EdgeList.obj
 0001:0002b6e0       ??1EdgeListBuilder@Gu@physx@@QEAA@XZ 000000018002c6e0 f   EdgeList.obj
 0001:0002b6f0       ?init@EdgeListBuilder@Gu@physx@@QEAA_NAEBUEDGELISTCREATE@23@@Z 000000018002c6f0 f   EdgeList.obj
 0001:0002b820       ?createFacesToEdges@EdgeListBuilder@Gu@physx@@AEAA_NIPEBIPEBG@Z 000000018002c820 f   EdgeList.obj
 0001:0002bc60       ?createEdgesToFaces@EdgeListBuilder@Gu@physx@@AEAA_NIPEBIPEBG@Z 000000018002cc60 f   EdgeList.obj
 0001:0002bec0       ?computeActiveEdges@EdgeListBuilder@Gu@physx@@AEAA_NIPEBIPEBGPEBVPxVec3@3@M@Z 000000018002cec0 f   EdgeList.obj
 0001:0002d550       ??$?_UI@@YAPEAX_KV?$ReflectionAllocator@I@shdfnd@physx@@PEBDH@Z 000000018002e550 f i EdgeList.obj
 0001:0002d5f0       ??0MeshCleaner@physx@@QEAA@IPEBVPxVec3@1@IPEBIM@Z 000000018002e5f0 f   MeshCleaner.obj
 0001:0002dfa0       ??1MeshCleaner@physx@@QEAA@XZ 000000018002efa0 f   MeshCleaner.obj
 0001:0002e030       ?createQuantizer@physx@@YAPEAVQuantizer@1@XZ 000000018002f030 f   Quantizer.obj
 0001:0002e0e0       ?kmeans_cluster3d@@YAIPEBVPxVec3@physx@@IIPEAV12@PEAIMM@Z 000000018002f0e0 f   Quantizer.obj
 0001:0002e0f0       ??$kmeans_cluster@VPxVec3@physx@@M@@YAIPEBVPxVec3@physx@@IIPEAV01@PEAIMM@Z 000000018002f0f0 f i Quantizer.obj
 0001:0002eab0       ??1Quantizer@physx@@MEAA@XZ 000000018002fab0 f i Quantizer.obj
 0001:0002eac0       ??1QuantizerImpl@@EEAA@XZ  000000018002fac0 f i Quantizer.obj
 0001:0002eb40       ??_EQuantizer@physx@@MEAAPEAXI@Z 000000018002fb40 f i Quantizer.obj
 0001:0002eb40       ??_GQuantizer@physx@@MEAAPEAXI@Z 000000018002fb40 f i Quantizer.obj
 0001:0002eb70       ??_EQuantizerImpl@@EEAAPEAXI@Z 000000018002fb70 f i Quantizer.obj
 0001:0002eb70       ??_GQuantizerImpl@@EEAAPEAXI@Z 000000018002fb70 f i Quantizer.obj
 0001:0002ec40       ?getDenormalizeCenter@QuantizerImpl@@UEBAAEBVPxVec3@physx@@XZ 000000018002fc40 f i Quantizer.obj
 0001:0002ec50       ?getDenormalizeScale@QuantizerImpl@@UEBAAEBVPxVec3@physx@@XZ 000000018002fc50 f i Quantizer.obj
 0001:0002ec60       ?kmeansQuantize3D@QuantizerImpl@@UEAAPEBVPxVec3@physx@@IPEBV23@I_NIAEAI@Z 000000018002fc60 f i Quantizer.obj
 0001:0002eec0       ?normalizeInput@QuantizerImpl@@AEAAXIPEBVPxVec3@physx@@I@Z 000000018002fec0 f i Quantizer.obj
 0001:0002f310       ?release@QuantizerImpl@@UEAAXXZ 0000000180030310 f i Quantizer.obj
 0001:0002f322       LoadLibraryA               0000000180030322 f   kernel32:KERNEL32.dll
 0001:0002f328       ?writeWord@physx@@YAXG_NAEAVPxOutputStream@1@@Z 0000000180030328 f   PhysXCommon_64:PhysXCommon_64.dll
 0001:0002f32e       ?writeDword@physx@@YAXI_NAEAVPxOutputStream@1@@Z 000000018003032e f   PhysXCommon_64:PhysXCommon_64.dll
 0001:0002f334       ?writeFloat@physx@@YAXM_NAEAVPxOutputStream@1@@Z 0000000180030334 f   PhysXCommon_64:PhysXCommon_64.dll
 0001:0002f33a       ?writeHeader@physx@@YA_NCCCCI_NAEAVPxOutputStream@1@@Z 000000018003033a f   PhysXCommon_64:PhysXCommon_64.dll
 0001:0002f340       ??0SourceMesh@Gu@physx@@QEAA@XZ 0000000180030340 f   PhysXCommon_64:PhysXCommon_64.dll
 0001:0002f346       ??1SourceMesh@Gu@physx@@QEAA@XZ 0000000180030346 f   PhysXCommon_64:PhysXCommon_64.dll
 0001:0002f34c       ??0BV4Tree@Gu@physx@@QEAA@XZ 000000018003034c f   PhysXCommon_64:PhysXCommon_64.dll
 0001:0002f352       ??1BV4Tree@Gu@physx@@QEAA@XZ 0000000180030352 f   PhysXCommon_64:PhysXCommon_64.dll
 0001:0002f358       ??0BV32Tree@Gu@physx@@QEAA@XZ 0000000180030358 f   PhysXCommon_64:PhysXCommon_64.dll
 0001:0002f35e       ??1BV32Tree@Gu@physx@@QEAA@XZ 000000018003035e f   PhysXCommon_64:PhysXCommon_64.dll
 0001:0002f364       ?writeFloatBuffer@physx@@YAXPEBMI_NAEAVPxOutputStream@1@@Z 0000000180030364 f   PhysXCommon_64:PhysXCommon_64.dll
 0001:0002f36a       ?writeWordBuffer@physx@@YAXPEBGI_NAEAVPxOutputStream@1@@Z 000000018003036a f   PhysXCommon_64:PhysXCommon_64.dll
 0001:0002f370       ?computeMaxIndex@physx@@YAIPEBII@Z 0000000180030370 f   PhysXCommon_64:PhysXCommon_64.dll
 0001:0002f376       ?storeIndices@physx@@YAXIIPEBIAEAVPxOutputStream@1@_N@Z 0000000180030376 f   PhysXCommon_64:PhysXCommon_64.dll
 0001:0002f37c       ?computeBoundsAroundVertices@Gu@physx@@YAXAEAVPxBounds3@2@IPEIBVPxVec3@2@@Z 000000018003037c f   PhysXCommon_64:PhysXCommon_64.dll
 0001:0002f382       ?BuildBV4Ex@Gu@physx@@YA_NAEAVBV4Tree@12@AEAVSourceMesh@12@MI@Z 0000000180030382 f   PhysXCommon_64:PhysXCommon_64.dll
 0001:0002f388       ?BuildBV32Ex@Gu@physx@@YA_NAEAVBV32Tree@12@AEAVSourceMesh@12@MI@Z 0000000180030388 f   PhysXCommon_64:PhysXCommon_64.dll
 0001:0002f38e       ?computeMaxIndex@physx@@YAGPEBGI@Z 000000018003038e f   PhysXCommon_64:PhysXCommon_64.dll
 0001:0002f394       ?WriteHeader@Gu@physx@@YA_NEEEEI_NAEAVPxOutputStream@2@@Z 0000000180030394 f   PhysXCommon_64:PhysXCommon_64.dll
 0001:0002f39a       ?StoreIndices@Gu@physx@@YAXGIPEBGAEAVPxOutputStream@2@_N@Z 000000018003039a f   PhysXCommon_64:PhysXCommon_64.dll
 0001:0002f3a0       ?CreateOffsets@BigConvexData@physx@@IEAAXXZ 00000001800303a0 f   PhysXCommon_64:PhysXCommon_64.dll
 0001:0002f3a6       ??0RadixSortBuffered@Cm@physx@@QEAA@XZ 00000001800303a6 f   PhysXCommon_64:PhysXCommon_64.dll
 0001:0002f3ac       ??1RadixSortBuffered@Cm@physx@@UEAA@XZ 00000001800303ac f   PhysXCommon_64:PhysXCommon_64.dll
 0001:0002f3b2       ?Sort@RadixSortBuffered@Cm@physx@@QEAAAEAV123@PEBIIW4RadixHint@23@@Z 00000001800303b2 f   PhysXCommon_64:PhysXCommon_64.dll
 0001:0002f3b8       ?computeOBBPoints@Gu@physx@@YAXPEIAVPxVec3@2@AEBV32@1111@Z 00000001800303b8 f   PhysXCommon_64:PhysXCommon_64.dll
 0001:0002f3be       ??0BigConvexData@physx@@QEAA@XZ 00000001800303be f   PhysXCommon_64:PhysXCommon_64.dll
 0001:0002f3c4       ??1BigConvexData@physx@@QEAA@XZ 00000001800303c4 f   PhysXCommon_64:PhysXCommon_64.dll
 0001:0002f3ca       ?readDword@physx@@YAI_NAEAVPxInputStream@1@@Z 00000001800303ca f   PhysXCommon_64:PhysXCommon_64.dll
 0001:0002f3d0       ?ReadHeader@Gu@physx@@YA_NEEEEAEAIAEA_NAEAVPxInputStream@2@@Z 00000001800303d0 f   PhysXCommon_64:PhysXCommon_64.dll
 0001:0002f3d6       ??0HeightField@Gu@physx@@QEAA@PEAVGuMeshFactory@2@@Z 00000001800303d6 f   PhysXCommon_64:PhysXCommon_64.dll
 0001:0002f3dc       ?loadFromDesc@HeightField@Gu@physx@@QEAA_NAEBVPxHeightFieldDesc@3@@Z 00000001800303dc f   PhysXCommon_64:PhysXCommon_64.dll
 0001:0002f3e2       ?releaseMemory@HeightField@Gu@physx@@QEAAXXZ 00000001800303e2 f   PhysXCommon_64:PhysXCommon_64.dll
 0001:0002f3e8       ??1HeightField@Gu@physx@@UEAA@XZ 00000001800303e8 f   PhysXCommon_64:PhysXCommon_64.dll
 0001:0002f3ee       PxGetFoundation            00000001800303ee f   PhysXFoundation_64:PhysXFoundation_64.dll
 0001:0002f3f4       ?getAllocator@shdfnd@physx@@YAAEAVPxAllocatorCallback@2@XZ 00000001800303f4 f   PhysXFoundation_64:PhysXFoundation_64.dll
 0001:0002f3fa       ?allocate@TempAllocator@shdfnd@physx@@QEAAPEAX_KPEBDH@Z 00000001800303fa f   PhysXFoundation_64:PhysXFoundation_64.dll
 0001:0002f400       ?deallocate@TempAllocator@shdfnd@physx@@QEAAXPEAX@Z 0000000180030400 f   PhysXFoundation_64:PhysXFoundation_64.dll
 0001:0002f406       ?getInstance@Foundation@shdfnd@physx@@SAAEAV123@XZ 0000000180030406 f   PhysXFoundation_64:PhysXFoundation_64.dll
 0001:0002f40c       ?error@Foundation@shdfnd@physx@@QEAAXW4Enum@PxErrorCode@3@PEBDH1ZZ 000000018003040c f   PhysXFoundation_64:PhysXFoundation_64.dll
 0001:0002f412       ?PxDiagonalize@physx@@YA?AVPxVec3@1@AEBVPxMat33@1@AEAVPxQuat@1@@Z 0000000180030412 f   PhysXFoundation_64:PhysXFoundation_64.dll
 0001:0002f418       ?incRefCount@Foundation@shdfnd@physx@@SAXXZ 0000000180030418 f   PhysXFoundation_64:PhysXFoundation_64.dll
 0001:0002f41e       ?decRefCount@Foundation@shdfnd@physx@@SAXXZ 000000018003041e f   PhysXFoundation_64:PhysXFoundation_64.dll
 0001:0002f424       ??0FPUGuard@shdfnd@physx@@QEAA@XZ 0000000180030424 f   PhysXFoundation_64:PhysXFoundation_64.dll
 0001:0002f42a       ??1FPUGuard@shdfnd@physx@@QEAA@XZ 000000018003042a f   PhysXFoundation_64:PhysXFoundation_64.dll
 0001:0002f440       __chkstk                   0000000180030440 f   LIBCMT:chkstk.obj
 0001:0002f440       _alloca_probe              0000000180030440 f   LIBCMT:chkstk.obj
 0001:0002f490       ??1type_info@@UEAA@XZ      0000000180030490 f   LIBCMT:std_type_info_static.obj
 0001:0002f49c       ??_Etype_info@@UEAAPEAXI@Z 000000018003049c f i LIBCMT:std_type_info_static.obj
 0001:0002f49c       ??_Gtype_info@@UEAAPEAXI@Z 000000018003049c f i LIBCMT:std_type_info_static.obj
 0001:0002f4c8       ?__scrt_initialize_type_info@@YAXXZ 00000001800304c8 f   LIBCMT:tncleanup.obj
 0001:0002f4d8       ?__scrt_uninitialize_type_info@@YAXXZ 00000001800304d8 f   LIBCMT:tncleanup.obj
 0001:0002f4e4       ??3@YAXPEAX_K@Z            00000001800304e4 f   LIBCMT:delete_scalar_size.obj
 0001:0002f4f0       __vdecl_sinf4              00000001800304f0 f   LIBCMT:svml_ssinf4_dispatch.obj
 0001:0002f510       __libm_sse2_sincosf_       0000000180030510 f   LIBCMT:svml_ssinf4_dispatch.obj
 0001:0002f553       __libm_sse2_sincosf4_      0000000180030553 f   LIBCMT:svml_ssinf4_dispatch.obj
 0001:0002f89c       _CRT_INIT                  000000018003089c f   LIBCMT:dll_dllmain.obj
 0001:0002f8a4       _DllMainCRTStartup         00000001800308a4 f   LIBCMT:dll_dllmain.obj
 0001:0002f8e4       ??3@YAXPEAX@Z              00000001800308e4 f   LIBCMT:delete_scalar.obj
 0001:0002f8ec       __isa_available_init       00000001800308ec f   LIBCMT:cpu_disp.obj
 0001:0002faa0       __sse2_sinf4@@16           0000000180030aa0 f   LIBCMT:svml_ssinf4_sse2.obj
 0001:000303e0       __sse4_sinf4@@16           00000001800313e0 f   LIBCMT:svml_ssinf4_sse4.obj
 0001:00030bc0       __security_init_cookie     0000000180031bc0 f   LIBCMT:gs_support.obj
 0001:00030c6c       DllMain                    0000000180031c6c f   LIBCMT:dll_dllmain_stub.obj
 0001:00030c74       __local_stdio_printf_options 0000000180031c74 f i LIBCMT:default_local_stdio_options.obj
 0001:00030c7c       __local_stdio_scanf_options 0000000180031c7c f i LIBCMT:default_local_stdio_options.obj
 0001:00030c84       __scrt_initialize_default_local_stdio_options 0000000180031c84 f   LIBCMT:default_local_stdio_options.obj
 0001:00030ca0       ?configure_argv@__scrt_narrow_argv_policy@@SAHXZ 0000000180031ca0 f i LIBCMT:utility.obj
 0001:00030d00       ?initialize_environment@__scrt_narrow_environment_policy@@SAHXZ 0000000180031d00 f i LIBCMT:utility.obj
 0001:00030d38       NtCurrentTeb               0000000180031d38 f i LIBCMT:utility.obj
 0001:00030d44       __scrt_acquire_startup_lock 0000000180031d44 f   LIBCMT:utility.obj
 0001:00030d80       __scrt_dllmain_after_initialize_c 0000000180031d80 f   LIBCMT:utility.obj
 0001:00030db4       __scrt_dllmain_before_initialize_c 0000000180031db4 f   LIBCMT:utility.obj
 0001:00030dcc       __scrt_dllmain_crt_thread_attach 0000000180031dcc f   LIBCMT:utility.obj
 0001:00030df4       __scrt_dllmain_crt_thread_detach 0000000180031df4 f   LIBCMT:utility.obj
 0001:00030e0c       __scrt_dllmain_exception_filter 0000000180031e0c f   LIBCMT:utility.obj
 0001:00030e6c       __scrt_dllmain_uninitialize_c 0000000180031e6c f   LIBCMT:utility.obj
 0001:00030e9c       __scrt_dllmain_uninitialize_critical 0000000180031e9c f   LIBCMT:utility.obj
 0001:00030eb0       __scrt_initialize_crt      0000000180031eb0 f   LIBCMT:utility.obj
 0001:00030efc       __scrt_initialize_onexit_tables 0000000180031efc f   LIBCMT:utility.obj
 0001:00030f88       __scrt_is_nonwritable_in_current_image 0000000180031f88 f   LIBCMT:utility.obj
 0001:00031020       __scrt_release_startup_lock 0000000180032020 f   LIBCMT:utility.obj
 0001:00031044       __scrt_uninitialize_crt    0000000180032044 f   LIBCMT:utility.obj
 0001:00031070       _onexit                    0000000180032070 f   LIBCMT:utility.obj
 0001:000310ac       at_quick_exit              00000001800320ac f   LIBCMT:utility.obj
 0001:000310cc       atexit                     00000001800320cc f   LIBCMT:utility.obj
 0001:000310e4       __scrt_get_dyn_tls_init_callback 00000001800320e4 f   LIBCMT:dyn_tls_init.obj
 0001:000310ec       __crt_debugger_hook        00000001800320ec f   LIBCMT:utility_desktop.obj
 0001:000310f4       __scrt_fastfail            00000001800320f4 f   LIBCMT:utility_desktop.obj
 0001:00031240       __scrt_get_show_window_mode 0000000180032240 f   LIBCMT:utility_desktop.obj
 0001:0003127c       __scrt_initialize_mta      000000018003227c f   LIBCMT:utility_desktop.obj
 0001:00031284       __scrt_initialize_winrt    0000000180032284 f   LIBCMT:utility_desktop.obj
 0001:00031288       __scrt_is_managed_app      0000000180032288 f   LIBCMT:utility_desktop.obj
 0001:000312dc       __scrt_set_unhandled_exception_filter 00000001800322dc f   LIBCMT:utility_desktop.obj
 0001:000312ec       __scrt_exe_initialize_mta  00000001800322ec f   LIBCMT:utility_desktop.obj
 0001:000312ec       __scrt_stub_for_initialize_mta 00000001800322ec f   LIBCMT:utility_desktop.obj
 0001:000312f0       __scrt_unhandled_exception_filter 00000001800322f0 f   LIBCMT:utility_desktop.obj
 0001:0003134c       _RTC_Initialize            000000018003234c f   LIBCMT:initsect.obj
 0001:00031388       _RTC_Terminate             0000000180032388 f   LIBCMT:initsect.obj
 0001:000313c4       _guard_check_icall_nop     00000001800323c4 f i LIBCMT:guard_support.obj
 0001:000313c8       ReadNoFence64              00000001800323c8 f i LIBCMT:guard_support.obj
 0001:000313cc       ReadPointerNoFence         00000001800323cc f i LIBCMT:guard_support.obj
 0001:000313d0       __castguard_check_failure_debugbreak 00000001800323d0 f i LIBCMT:guard_support.obj
 0001:000313ec       __castguard_check_failure_fastfail 00000001800323ec f i LIBCMT:guard_support.obj
 0001:00031410       __castguard_check_failure_nop 0000000180032410 f i LIBCMT:guard_support.obj
 0001:00031414       __castguard_check_failure_os_handled 0000000180032414 f i LIBCMT:guard_support.obj
 0001:00031490       __castguard_slow_path_check_debugbreak 0000000180032490 f i LIBCMT:guard_support.obj
 0001:000314c4       __castguard_slow_path_check_fastfail 00000001800324c4 f i LIBCMT:guard_support.obj
 0001:00031500       __castguard_slow_path_check_nop 0000000180032500 f i LIBCMT:guard_support.obj
 0001:00031504       __castguard_slow_path_check_os_handled 0000000180032504 f i LIBCMT:guard_support.obj
 0001:00031574       _guard_icall_checks_enforced 0000000180032574 f i LIBCMT:guard_support.obj
 0001:0003158c       _guard_rf_checks_enforced  000000018003258c f i LIBCMT:guard_support.obj
 0001:00031590       __common_ssin_cout_rare    0000000180032590 f   LIBCMT:svml_s_sin_cout.obj
 0001:00031600       _get_startup_argv_mode     0000000180032600 f   LIBCMT:argv_mode.obj
 0001:00031608       __scrt_is_ucrt_dll_in_use  0000000180032608 f   LIBCMT:ucrt_detection.obj
 0001:00031620       strstr                     0000000180032620 f   libvcruntime:strstr.obj
 0001:00031828       ??$?RD@__crt_internal_free_policy@@QEBAXQEBD@Z 0000000180032828 f i libvcruntime:std_type_info.obj
 0001:00031830       ??$?RX@__crt_internal_free_policy@@QEBAXQEBX@Z 0000000180032830 f i libvcruntime:std_type_info.obj
 0001:00031838       ??$__crt_interlocked_compare_exchange_pointer@$$CBDPEAD$$T@@YAPEBDPEDSEBDQEAD$$T@Z 0000000180032838 f i libvcruntime:std_type_info.obj
 0001:00031844       ??$__crt_interlocked_read_pointer@$$CBD@@YAPEBDPEDSEBD@Z 0000000180032844 f i libvcruntime:std_type_info.obj
 0001:0003184c       ??0?$__crt_unique_heap_ptr@DU__crt_internal_free_policy@@@@QEAA@QEAD@Z 000000018003284c f i libvcruntime:std_type_info.obj
 0001:00031854       ??0?$__crt_unique_heap_ptr@XU__crt_internal_free_policy@@@@QEAA@QEAX@Z 0000000180032854 f i libvcruntime:std_type_info.obj
 0001:0003185c       ??1?$__crt_unique_heap_ptr@DU__crt_internal_free_policy@@@@QEAA@XZ 000000018003285c f i libvcruntime:std_type_info.obj
 0001:00031878       ??1?$__crt_unique_heap_ptr@XU__crt_internal_free_policy@@@@QEAA@XZ 0000000180032878 f i libvcruntime:std_type_info.obj
 0001:00031894       ??B?$__crt_unique_heap_ptr@DU__crt_internal_free_policy@@@@QEBA_NXZ 0000000180032894 f i libvcruntime:std_type_info.obj
 0001:0003189c       ??B?$__crt_unique_heap_ptr@XU__crt_internal_free_policy@@@@QEBA_NXZ 000000018003289c f i libvcruntime:std_type_info.obj
 0001:000318c4       ?__crt_interlocked_read_64@@YA_JPED_J@Z 00000001800328c4 f i libvcruntime:std_type_info.obj
 0001:000318cc       ?detach@?$__crt_unique_heap_ptr@XU__crt_internal_free_policy@@@@QEAAPEAXXZ 00000001800328cc f i libvcruntime:std_type_info.obj
 0001:000318d4       ?get@?$__crt_unique_heap_ptr@DU__crt_internal_free_policy@@@@QEBAPEADXZ 00000001800328d4 f i libvcruntime:std_type_info.obj
 0001:000318d8       ?get@?$__crt_unique_heap_ptr@XU__crt_internal_free_policy@@@@QEBAPEAXXZ 00000001800328d8 f i libvcruntime:std_type_info.obj
 0001:000318dc       ?is_valid@?$__crt_unique_heap_ptr@DU__crt_internal_free_policy@@@@QEBA_NXZ 00000001800328dc f i libvcruntime:std_type_info.obj
 0001:000318e4       ?is_valid@?$__crt_unique_heap_ptr@XU__crt_internal_free_policy@@@@QEBA_NXZ 00000001800328e4 f i libvcruntime:std_type_info.obj
 0001:000318ec       ?release@?$__crt_unique_heap_ptr@DU__crt_internal_free_policy@@@@QEAAXXZ 00000001800328ec f i libvcruntime:std_type_info.obj
 0001:00031908       ?release@?$__crt_unique_heap_ptr@XU__crt_internal_free_policy@@@@QEAAXXZ 0000000180032908 f i libvcruntime:std_type_info.obj
 0001:00031924       __std_type_info_compare    0000000180032924 f   libvcruntime:std_type_info.obj
 0001:0003194c       __std_type_info_destroy_list 000000018003294c f   libvcruntime:std_type_info.obj
 0001:00031978       __std_type_info_hash       0000000180032978 f   libvcruntime:std_type_info.obj
 0001:000319b0       __std_type_info_name       00000001800329b0 f   libvcruntime:std_type_info.obj
 0001:00031ae0       memcpy_repmovs             0000000180032ae0 f   libvcruntime:memcpy.obj
 0001:00031b00       memcpy                     0000000180032b00 f   libvcruntime:memcpy.obj
 0001:00031b00       memmove                    0000000180032b00 f   libvcruntime:memcpy.obj
 0001:00032178       ??$__crt_interlocked_exchange_pointer@$$A6AXXZP6AXXZ@@YAP6AXXZPEDS6AXXZQ6AXXZ@Z 0000000180033178 f i libvcruntime:purevirt.obj
 0001:00032180       ??$__crt_interlocked_read_pointer@$$A6AXXZ@@YAP6AXXZPEDS6AXXZ@Z 0000000180033180 f i libvcruntime:purevirt.obj
 0001:00032188       _get_purecall_handler      0000000180033188 f   libvcruntime:purevirt.obj
 0001:00032194       _purecall                  0000000180033194 f   libvcruntime:purevirt.obj
 0001:000321b0       _set_purecall_handler      00000001800331b0 f   libvcruntime:purevirt.obj
 0001:000321d0       memset_repstos             00000001800331d0 f   libvcruntime:memset.obj
 0001:000321f0       memset                     00000001800331f0 f   libvcruntime:memset.obj
 0001:00032578       __C_specific_handler       0000000180033578 f   libvcruntime:riscchandler.obj
 0001:00032770       __vcrt_initialize          0000000180033770 f   libvcruntime:initialization.obj
 0001:00032798       __vcrt_thread_attach       0000000180033798 f   libvcruntime:initialization.obj
 0001:000327ac       __vcrt_thread_detach       00000001800337ac f   libvcruntime:initialization.obj
 0001:000327c0       __vcrt_uninitialize        00000001800337c0 f   libvcruntime:initialization.obj
 0001:000327dc       __vcrt_uninitialize_critical 00000001800337dc f   libvcruntime:initialization.obj
 0001:000327f0       __DestructExceptionObject  00000001800337f0 f   libvcruntime:ehhelpers.obj
 0001:00032860       ?_CallMemberFunction0@@YAXQEAX0@Z 0000000180033860 f i libvcruntime:ehhelpers.obj
 0001:000328bc       ?raw_name@type_info@@QEBAPEBDXZ 00000001800338bc f i libvcruntime:ehhelpers.obj
 0001:000328c4       _IsExceptionObjectToBeDestroyed 00000001800338c4 f   libvcruntime:ehhelpers.obj
 0001:000328f4       _SetWinRTOutOfMemoryExceptionCallback 00000001800338f4 f   libvcruntime:ehhelpers.obj
 0001:000328fc       __AdjustPointer            00000001800338fc f   libvcruntime:ehhelpers.obj
 0001:00032920       __FrameUnwindFilter        0000000180033920 f   libvcruntime:ehhelpers.obj
 0001:00032988       __GetPlatformExceptionInfo 0000000180033988 f   libvcruntime:ehhelpers.obj
 0001:000329e4       __current_exception        00000001800339e4 f   libvcruntime:ehhelpers.obj
 0001:000329f8       __current_exception_context 00000001800339f8 f   libvcruntime:ehhelpers.obj
 0001:00032a0c       __processing_throw         0000000180033a0c f   libvcruntime:ehhelpers.obj
 0001:00032a20       __std_terminate            0000000180033a20 f   libvcruntime:ehhelpers.obj
 0001:00032a2c       _is_exception_typeof       0000000180033a2c f   libvcruntime:ehhelpers.obj
 0001:00032ad4       ??$?0$00@DName@@QEAA@PEBDU?$StringLifeSelector@$00@@@Z 0000000180033ad4 f i libvcruntime:undname.obj
 0001:00032b14       ??$?0$00@pcharNode@@QEAA@PEBDHU?$StringLifeSelector@$00@@@Z 0000000180033b14 f i libvcruntime:undname.obj
 0001:00032b2c       ??$?0$01@DName@@QEAA@PEBDU?$StringLifeSelector@$01@@@Z 0000000180033b2c f i libvcruntime:undname.obj
 0001:00032b6c       ??$?0$01@pcharNode@@QEAA@PEBDHU?$StringLifeSelector@$01@@@Z 0000000180033b6c f i libvcruntime:undname.obj
 0001:00032be0       ??$?0$0A@@DName@@QEAA@PEBDU?$StringLifeSelector@$0A@@@@Z 0000000180033be0 f i libvcruntime:undname.obj
 0001:00032c20       ??$?0$0A@@pcharNode@@QEAA@PEBDHU?$StringLifeSelector@$0A@@@@Z 0000000180033c20 f i libvcruntime:undname.obj
 0001:00032c94       ??$?0_K$0A@@?$optional@_K@std@@QEAA@$$QEA_K@Z 0000000180033c94 f i libvcruntime:undname.obj
 0001:00032ca4       ??$?0_K@?$_Optional_construct_base@_K@std@@QEAA@Uin_place_t@1@$$QEA_K@Z 0000000180033ca4 f i libvcruntime:undname.obj
 0001:00032cb4       ??$?0_K@?$_Optional_destruct_base@_K$00@std@@QEAA@Uin_place_t@1@$$QEA_K@Z 0000000180033cb4 f i libvcruntime:undname.obj
 0001:00032cc4       ??$append@VDNameNode@@@DName@@AEAAXPEBVDNameNode@@@Z 0000000180033cc4 f i libvcruntime:undname.obj
 0001:00032d28       ??$append@VDNameStatusNode@@@DName@@AEAAXPEBVDNameStatusNode@@@Z 0000000180033d28 f i libvcruntime:undname.obj
 0001:00032d8c       ??$append@VcharNode@@@DName@@AEAAXPEBVcharNode@@@Z 0000000180033d8c f i libvcruntime:undname.obj
 0001:00032df0       ??$append@VpDNameNode@@@DName@@AEAAXPEBVpDNameNode@@@Z 0000000180033df0 f i libvcruntime:undname.obj
 0001:00032e54       ??$append@VpcharNode@@@DName@@AEAAXPEBVpcharNode@@@Z 0000000180033e54 f i libvcruntime:undname.obj
 0001:00032eb8       ??$doPchar@$00@DName@@AEAAXPEBDH@Z 0000000180033eb8 f i libvcruntime:undname.obj
 0001:00032f5c       ??$doPchar@$01@DName@@AEAAXPEBDH@Z 0000000180033f5c f i libvcruntime:undname.obj
 0001:00032ff4       ??$doPchar@$0A@@DName@@AEAAXPEBDH@Z 0000000180033ff4 f i libvcruntime:undname.obj
 0001:0003308c       ??$forward@_K@std@@YA$$QEA_KAEA_K@Z 000000018003408c f i libvcruntime:undname.obj
 0001:000331ac       ??$size@D$04@std@@YA_KAEAY04$$CBD@Z 00000001800341ac f i libvcruntime:undname.obj
 0001:000331b4       ??0?$_Optional_construct_base@_K@std@@QEAA@XZ 00000001800341b4 f i libvcruntime:undname.obj
 0001:000331bc       ??0?$_Optional_destruct_base@_K$00@std@@QEAA@XZ 00000001800341bc f i libvcruntime:undname.obj
 0001:000331c4       ??0?$optional@_K@std@@QEAA@XZ 00000001800341c4 f i libvcruntime:undname.obj
 0001:000331cc       ??0Block@_HeapManager@@QEAA@XZ 00000001800341cc f i libvcruntime:undname.obj
 0001:000331d4       ??0DName@@QEAA@AEAPEBDD@Z  00000001800341d4 f   libvcruntime:undname.obj
 0001:00033284       ??0DName@@QEAA@AEBUStringLiteral@@@Z 0000000180034284 f   libvcruntime:undname.obj
 0001:000332b0       ??0DName@@QEAA@AEBV0@@Z    00000001800342b0 f i libvcruntime:undname.obj
 0001:000332c0       ??0DName@@QEAA@D@Z         00000001800342c0 f   libvcruntime:undname.obj
 0001:000332e0       ??0DName@@QEAA@PEAV0@@Z    00000001800342e0 f   libvcruntime:undname.obj
 0001:00033364       ??0DName@@QEAA@W4DNameStatus@@@Z 0000000180034364 f   libvcruntime:undname.obj
 0001:00033394       ??0DName@@QEAA@XZ          0000000180034394 f i libvcruntime:undname.obj
 0001:000333a0       ??0DName@@QEAA@_J@Z        00000001800343a0 f   libvcruntime:undname.obj
 0001:00033448       ??0DName@@QEAA@_K@Z        0000000180034448 f   libvcruntime:undname.obj
 0001:000334d0       ??0DNameNode@@IEAA@XZ      00000001800344d0 f i libvcruntime:undname.obj
 0001:000334e0       ??0Replicator@@QEAA@XZ     00000001800344e0 f i libvcruntime:undname.obj
 0001:000334f4       ??0UnDecorator@@QEAA@PEBDP6APEADJ@ZK@Z 00000001800344f4 f i libvcruntime:undname.obj
 0001:00033544       ??0_Nontrivial_dummy_type@std@@QEAA@XZ 0000000180034544 f i libvcruntime:undname.obj
 0001:00033548       ??0charNode@@QEAA@D@Z      0000000180034548 f i libvcruntime:undname.obj
 0001:0003355c       ??0pDNameNode@@QEAA@PEAVDName@@@Z 000000018003455c f   libvcruntime:undname.obj
 0001:00033584       ??0pairNode@@QEAA@PEBVDNameNode@@0@Z 0000000180034584 f i libvcruntime:undname.obj
 0001:000335a8       ??2@YAPEAX_KAEAV_HeapManager@@H@Z 00000001800345a8 f   libvcruntime:undname.obj
 0001:000335d4       ??4DName@@QEAAAEAV0@AEBUStringLiteral@@@Z 00000001800345d4 f   libvcruntime:undname.obj
 0001:000335fc       ??4DName@@QEAAAEAV0@AEBV0@@Z 00000001800345fc f   libvcruntime:undname.obj
 0001:0003360c       ??4DName@@QEAAAEAV0@D@Z    000000018003460c f i libvcruntime:undname.obj
 0001:0003362c       ??4DName@@QEAAAEAV0@PEAV0@@Z 000000018003462c f   libvcruntime:undname.obj
 0001:000336a4       ??4DName@@QEAAAEAV0@W4DNameStatus@@@Z 00000001800346a4 f   libvcruntime:undname.obj
 0001:000336d4       ??AReplicator@@QEBA?AVDName@@H@Z 00000001800346d4 f   libvcruntime:undname.obj
 0001:00033714       ??B?$optional@_K@std@@QEBA_NXZ 0000000180034714 f i libvcruntime:undname.obj
 0001:00033718       ??D?$_Optional_construct_base@_K@std@@QEGAAAEA_KXZ 0000000180034718 f i libvcruntime:undname.obj
 0001:0003371c       ??H@YA?AVDName@@AEBUStringLiteral@@AEBV0@@Z 000000018003471c f i libvcruntime:undname.obj
 0001:00033754       ??H@YA?AVDName@@DAEBV0@@Z  0000000180034754 f i libvcruntime:undname.obj
 0001:00033798       ??H@YA?AVDName@@W4DNameStatus@@AEBV0@@Z 0000000180034798 f i libvcruntime:undname.obj
 0001:000337e4       ??HDName@@QEBA?AV0@AEBUStringLiteral@@@Z 00000001800347e4 f   libvcruntime:undname.obj
 0001:00033810       ??HDName@@QEBA?AV0@AEBV0@@Z 0000000180034810 f   libvcruntime:undname.obj
 0001:0003383c       ??HDName@@QEBA?AV0@D@Z     000000018003483c f   libvcruntime:undname.obj
 0001:00033868       ??HDName@@QEBA?AV0@PEAV0@@Z 0000000180034868 f   libvcruntime:undname.obj
 0001:00033894       ??HDName@@QEBA?AV0@W4DNameStatus@@@Z 0000000180034894 f   libvcruntime:undname.obj
 0001:000338c0       ??HStringLiteral@@QEBA?AU0@H@Z 00000001800348c0 f i libvcruntime:undname.obj
 0001:000338d8       ??YDName@@QEAAAEAV0@AEBUStringLiteral@@@Z 00000001800348d8 f   libvcruntime:undname.obj
 0001:00033958       ??YDName@@QEAAAEAV0@AEBV0@@Z 0000000180034958 f   libvcruntime:undname.obj
 0001:000339b0       ??YDName@@QEAAAEAV0@D@Z    00000001800349b0 f   libvcruntime:undname.obj
 0001:00033a1c       ??YDName@@QEAAAEAV0@PEAV0@@Z 0000000180034a1c f   libvcruntime:undname.obj
 0001:00033ab0       ??YDName@@QEAAAEAV0@W4DNameStatus@@@Z 0000000180034ab0 f   libvcruntime:undname.obj
 0001:00033b08       ??YReplicator@@QEAAAEAV0@AEBVDName@@@Z 0000000180034b08 f   libvcruntime:undname.obj
 0001:00033b60       ??_5DName@@QEAAAEAV0@AEBV0@@Z 0000000180034b60 f   libvcruntime:undname.obj
 0001:00033b74       ??__K_l@@YA?AUStringLiteral@@PEBD_K@Z 0000000180034b74 f i libvcruntime:undname.obj
 0001:00033b80       ?Constructor@_HeapManager@@QEAAXP6APEAX_K@ZP6AXPEAX@Z@Z 0000000180034b80 f i libvcruntime:undname.obj
 0001:00033b98       ?Destructor@_HeapManager@@QEAAXXZ 0000000180034b98 f i libvcruntime:undname.obj
 0001:00033be4       ?UScore@UnDecorator@@SA?AUStringLiteral@@W4Tokens@@@Z 0000000180034be4 f   libvcruntime:undname.obj
 0001:00033c30       ?composeDeclaration@UnDecorator@@CA?AVDName@@AEBV2@@Z 0000000180034c30 f i libvcruntime:undname.obj
 0001:00034ac4       ?doAccessSpecifiers@UnDecorator@@SAHXZ 0000000180035ac4 f i libvcruntime:undname.obj
 0001:00034ad4       ?doAllocationLanguage@UnDecorator@@SAHXZ 0000000180035ad4 f i libvcruntime:undname.obj
 0001:00034ae4       ?doAllocationModel@UnDecorator@@SAHXZ 0000000180035ae4 f i libvcruntime:undname.obj
 0001:00034af4       ?doEcsu@UnDecorator@@SAHXZ 0000000180035af4 f i libvcruntime:undname.obj
 0001:00034b04       ?doEllipsis@UnDecorator@@SAHXZ 0000000180035b04 f i libvcruntime:undname.obj
 0001:00034b14       ?doFunctionReturns@UnDecorator@@SAHXZ 0000000180035b14 f i libvcruntime:undname.obj
 0001:00034b24       ?doMSKeywords@UnDecorator@@SAHXZ 0000000180035b24 f i libvcruntime:undname.obj
 0001:00034b34       ?doMemberTypes@UnDecorator@@SAHXZ 0000000180035b34 f i libvcruntime:undname.obj
 0001:00034b44       ?doNameOnly@UnDecorator@@SAHXZ 0000000180035b44 f i libvcruntime:undname.obj
 0001:00034b50       ?doNoIdentCharCheck@UnDecorator@@SAHXZ 0000000180035b50 f i libvcruntime:undname.obj
 0001:00034b5c       ?doPchar@DName@@AEAAXD@Z   0000000180035b5c f   libvcruntime:undname.obj
 0001:00034bac       ?doPtr64@UnDecorator@@SAHXZ 0000000180035bac f i libvcruntime:undname.obj
 0001:00034bbc       ?doRestrictionSpec@UnDecorator@@SAHXZ 0000000180035bbc f i libvcruntime:undname.obj
 0001:00034bcc       ?doThisTypes@UnDecorator@@SAHXZ 0000000180035bcc f i libvcruntime:undname.obj
 0001:00034be0       ?doThrowTypes@UnDecorator@@SAHXZ 0000000180035be0 f i libvcruntime:undname.obj
 0001:00034bf0       ?doTypeOnly@UnDecorator@@SAHXZ 0000000180035bf0 f i libvcruntime:undname.obj
 0001:00034bfc       ?doUnderScore@UnDecorator@@SAHXZ 0000000180035bfc f i libvcruntime:undname.obj
 0001:00034c08       ?getAddressOf@UnDecorator@@CA?AVDName@@XZ 0000000180035c08 f   libvcruntime:undname.obj
 0001:00034c98       ?getArgumentList@UnDecorator@@CA?AVDName@@XZ 0000000180035c98 f   libvcruntime:undname.obj
 0001:00034e4c       ?getArgumentTypes@UnDecorator@@CA?AVDName@@XZ 0000000180035e4c f   libvcruntime:undname.obj
 0001:00034f98       ?getArrayAccess@UnDecorator@@CA?AVDName@@XZ 0000000180035f98 f   libvcruntime:undname.obj
 0001:00035034       ?getArrayObject@UnDecorator@@CA?AVDName@@XZ 0000000180036034 f   libvcruntime:undname.obj
 0001:000350f0       ?getArrayType@UnDecorator@@CA?AVDName@@AEBV2@@Z 00000001800360f0 f i libvcruntime:undname.obj
 0001:00035338       ?getBasedType@UnDecorator@@CA?AVDName@@XZ 0000000180036338 f   libvcruntime:undname.obj
 0001:00035430       ?getBasicDataType@UnDecorator@@CA?AVDName@@AEBV2@@Z 0000000180036430 f   libvcruntime:undname.obj
 0001:00035a30       ?getCHPEName@UnDecorator@@QEAAPEADPEADH@Z 0000000180036a30 f i libvcruntime:undname.obj
 0001:00035b50       ?getCallIndex@UnDecorator@@CA?AVDName@@XZ 0000000180036b50 f i libvcruntime:undname.obj
 0001:00035b6c       ?getCallingConvention@UnDecorator@@CA?AVDName@@XZ 0000000180036b6c f   libvcruntime:undname.obj
 0001:00035cb8       ?getDataIndirectType@UnDecorator@@CA?AVDName@@AEBV2@W4IndirectionKind@@0H@Z 0000000180036cb8 f   libvcruntime:undname.obj
 0001:00036580       ?getDataIndirectType@UnDecorator@@CA?AVDName@@XZ 0000000180037580 f i libvcruntime:undname.obj
 0001:000365bc       ?getDataType@UnDecorator@@CA?AVDName@@PEAV2@@Z 00000001800375bc f   libvcruntime:undname.obj
 0001:000366d0       ?getDecoratedName@UnDecorator@@CA?AVDName@@XZ 00000001800376d0 f   libvcruntime:undname.obj
 0001:000369b8       ?getDimension@UnDecorator@@CA?AVDName@@_N@Z 00000001800379b8 f   libvcruntime:undname.obj
 0001:00036b04       ?getDispatchTarget@UnDecorator@@CA?AVDName@@XZ 0000000180037b04 f   libvcruntime:undname.obj
 0001:00036b50       ?getDisplacement@UnDecorator@@CA?AVDName@@XZ 0000000180037b50 f i libvcruntime:undname.obj
 0001:00036b6c       ?getECSUDataType@UnDecorator@@CA?AVDName@@XZ 0000000180037b6c f   libvcruntime:undname.obj
 0001:00036d4c       ?getECSUName@UnDecorator@@CA?AVDName@@XZ 0000000180037d4c f i libvcruntime:undname.obj
 0001:00036d64       ?getEnumType@UnDecorator@@CA?AVDName@@XZ 0000000180037d64 f i libvcruntime:undname.obj
 0001:00036e94       ?getExtendedDataIndirectType@UnDecorator@@CA?AVDName@@AEAW4IndirectionKind@@AEA_NH@Z 0000000180037e94 f   libvcruntime:undname.obj
 0001:00037098       ?getExternalDataType@UnDecorator@@CA?AVDName@@AEBV2@@Z 0000000180038098 f i libvcruntime:undname.obj
 0001:00037158       ?getFloatingPoint@UnDecorator@@CA?AVDName@@H@Z 0000000180038158 f   libvcruntime:undname.obj
 0001:000372bc       ?getFunctionIndirectType@UnDecorator@@CA?AVDName@@AEBV2@@Z 00000001800382bc f   libvcruntime:undname.obj
 0001:000377e4       ?getGuardNumber@UnDecorator@@CA?AVDName@@XZ 00000001800387e4 f i libvcruntime:undname.obj
 0001:00037800       ?getLastChar@DName@@QEBADXZ 0000000180038800 f i libvcruntime:undname.obj
 0001:0003781c       ?getLastChar@DNameStatusNode@@UEBADXZ 000000018003881c f i libvcruntime:undname.obj
 0001:00037828       ?getLastChar@charNode@@UEBADXZ 0000000180038828 f i libvcruntime:undname.obj
 0001:0003782c       ?getLastChar@pDNameNode@@UEBADXZ 000000018003882c f i libvcruntime:undname.obj
 0001:00037858       ?getLastChar@pairNode@@UEBADXZ 0000000180038858 f i libvcruntime:undname.obj
 0001:00037890       ?getLastChar@pcharNode@@UEBADXZ 0000000180038890 f i libvcruntime:undname.obj
 0001:000378a4       ?getLexicalFrame@UnDecorator@@CA?AVDName@@XZ 00000001800388a4 f i libvcruntime:undname.obj
 0001:00037908       ?getMemberAccess@UnDecorator@@CA?AVDName@@XZ 0000000180038908 f   libvcruntime:undname.obj
 0001:0003799c       ?getMemoryWithBuffer@_HeapManager@@QEAAPEAX_K@Z 000000018003899c f   libvcruntime:undname.obj
 0001:00037a2c       ?getMemoryWithoutBuffer@_HeapManager@@QEAAPEAX_K@Z 0000000180038a2c f   libvcruntime:undname.obj
 0001:00037a40       ?getNoexcept@UnDecorator@@CA?AVDName@@XZ 0000000180038a40 f   libvcruntime:undname.obj
 0001:00037aa4       ?getNumberOfDimensions@UnDecorator@@CAHXZ 0000000180038aa4 f   libvcruntime:undname.obj
 0001:00037b10       ?getOperatorName@UnDecorator@@CA?AVDName@@_NPEA_N@Z 0000000180038b10 f i libvcruntime:undname.obj
 0001:0003851c       ?getPointerToMember@UnDecorator@@CA?AVDName@@XZ 000000018003951c f   libvcruntime:undname.obj
 0001:00038614       ?getPointerType@UnDecorator@@CA?AVDName@@AEBV2@0@Z 0000000180039614 f i libvcruntime:undname.obj
 0001:00038634       ?getPointerTypeArray@UnDecorator@@CA?AVDName@@AEBV2@0@Z 0000000180039634 f i libvcruntime:undname.obj
 0001:00038650       ?getPrimaryDataType@UnDecorator@@CA?AVDName@@AEBV2@@Z 0000000180039650 f   libvcruntime:undname.obj
 0001:00038908       ?getPtrRefDataType@UnDecorator@@CA?AVDName@@AEBV2@H@Z 0000000180039908 f   libvcruntime:undname.obj
 0001:00038ad4       ?getPtrRefType@UnDecorator@@CA?AVDName@@AEBV2@0W4IndirectionKind@@@Z 0000000180039ad4 f   libvcruntime:undname.obj
 0001:00038cac       ?getReferenceType@UnDecorator@@CA?AVDName@@AEBV2@0W4IndirectionKind@@@Z 0000000180039cac f i libvcruntime:undname.obj
 0001:00038cc4       ?getRestrictionSpec@UnDecorator@@CA?AVDName@@XZ 0000000180039cc4 f   libvcruntime:undname.obj
 0001:00038ea0       ?getReturnType@UnDecorator@@CA?AVDName@@PEAV2@@Z 0000000180039ea0 f   libvcruntime:undname.obj
 0001:00038ed4       ?getScope@UnDecorator@@CA?AVDName@@XZ 0000000180039ed4 f   libvcruntime:undname.obj
 0001:00039390       ?getScopedName@UnDecorator@@CA?AVDName@@XZ 000000018003a390 f   libvcruntime:undname.obj
 0001:000394d0       ?getSignedDimension@UnDecorator@@CA?AVDName@@XZ 000000018003a4d0 f   libvcruntime:undname.obj
 0001:00039558       ?getStorageConvention@UnDecorator@@CA?AVDName@@XZ 000000018003a558 f i libvcruntime:undname.obj
 0001:00039594       ?getString@DName@@QEBAPEADPEAD0@Z 000000018003a594 f i libvcruntime:undname.obj
 0001:000395b0       ?getString@DName@@QEBAPEADPEADH@Z 000000018003a5b0 f i libvcruntime:undname.obj
 0001:00039644       ?getString@DNameStatusNode@@UEBAPEADPEAD0@Z 000000018003a644 f i libvcruntime:undname.obj
 0001:0003968c       ?getString@charNode@@UEBAPEADPEAD0@Z 000000018003a68c f i libvcruntime:undname.obj
 0001:000396a0       ?getString@pDNameNode@@UEBAPEADPEAD0@Z 000000018003a6a0 f i libvcruntime:undname.obj
 0001:000396d0       ?getString@pairNode@@UEBAPEADPEAD0@Z 000000018003a6d0 f i libvcruntime:undname.obj
 0001:0003971c       ?getString@pcharNode@@UEBAPEADPEAD0@Z 000000018003a71c f i libvcruntime:undname.obj
 0001:00039754       ?getStringEncoding@UnDecorator@@CA?AVDName@@W4PrefixKind@@H@Z 000000018003a754 f   libvcruntime:undname.obj
 0001:00039844       ?getStringHelper@@YAPEADPEADPEBD1H@Z 000000018003a844 f i libvcruntime:undname.obj
 0001:00039874       ?getStringObject@UnDecorator@@CA?AVDName@@XZ 000000018003a874 f   libvcruntime:undname.obj
 0001:000398dc       ?getSymbolName@UnDecorator@@CA?AVDName@@XZ 000000018003a8dc f i libvcruntime:undname.obj
 0001:00039928       ?getTemplateArgumentList@UnDecorator@@CA?AVDName@@XZ 000000018003a928 f   libvcruntime:undname.obj
 0001:00039b44       ?getTemplateName@UnDecorator@@CA?AVDName@@_N@Z 000000018003ab44 f   libvcruntime:undname.obj
 0001:00039dd8       ?getTemplateNonTypeArgument@UnDecorator@@CA?AVDName@@XZ 000000018003add8 f   libvcruntime:undname.obj
 0001:0003a328       ?getTemplateTypeArgument@UnDecorator@@CA?AVDName@@XZ 000000018003b328 f   libvcruntime:undname.obj
 0001:0003a490       ?getThisType@UnDecorator@@CA?AVDName@@XZ 000000018003b490 f i libvcruntime:undname.obj
 0001:0003a4d0       ?getThrowTypes@UnDecorator@@CA?AVDName@@XZ 000000018003b4d0 f   libvcruntime:undname.obj
 0001:0003a4f4       ?getTypeEncoding@UnDecorator@@CAHXZ 000000018003b4f4 f i libvcruntime:undname.obj
 0001:0003a890       ?getUndecoratedName@UnDecorator@@QEAAPEADPEADH@Z 000000018003b890 f i libvcruntime:undname.obj
 0001:0003a9e4       ?getUnionObject@UnDecorator@@CA?AVDName@@XZ 000000018003b9e4 f   libvcruntime:undname.obj
 0001:0003aabc       ?getVCallThunkType@UnDecorator@@CA?AVDName@@XZ 000000018003babc f i libvcruntime:undname.obj
 0001:0003ab34       ?getValue@UnDecorator@@CA?AV?$optional@_K@std@@XZ 000000018003bb34 f   libvcruntime:undname.obj
 0001:0003aba8       ?getValueObject@UnDecorator@@CA?AVDName@@XZ 000000018003bba8 f   libvcruntime:undname.obj
 0001:0003ace8       ?getVbTableType@UnDecorator@@CA?AVDName@@AEBV2@@Z 000000018003bce8 f i libvcruntime:undname.obj
 0001:0003ad00       ?getVdispMapType@UnDecorator@@CA?AVDName@@AEBV2@@Z 000000018003bd00 f i libvcruntime:undname.obj
 0001:0003ad7c       ?getVfTableType@UnDecorator@@CA?AVDName@@AEBV2@@Z 000000018003bd7c f i libvcruntime:undname.obj
 0001:0003af88       ?getZName@UnDecorator@@CA?AVDName@@_N0@Z 000000018003bf88 f   libvcruntime:undname.obj
 0001:0003b268       ?haveTemplateParameters@UnDecorator@@SAHXZ 000000018003c268 f i libvcruntime:undname.obj
 0001:0003b274       ?isArray@DName@@QEBAHXZ    000000018003c274 f i libvcruntime:undname.obj
 0001:0003b280       ?isComArray@DName@@QEBAHXZ 000000018003c280 f i libvcruntime:undname.obj
 0001:0003b28c       ?isEmpty@DName@@QEBAHXZ    000000018003c28c f i libvcruntime:undname.obj
 0001:0003b298       ?isFull@Replicator@@QEBAHXZ 000000018003c298 f i libvcruntime:undname.obj
 0001:0003b2a4       ?isNoTE@DName@@QEBAHXZ     000000018003c2a4 f i libvcruntime:undname.obj
 0001:0003b2b0       ?isPinPtr@DName@@QEBAHXZ   000000018003c2b0 f i libvcruntime:undname.obj
 0001:0003b2bc       ?isPtrRef@DName@@QEBAHXZ   000000018003c2bc f i libvcruntime:undname.obj
 0001:0003b2c8       ?isUDC@DName@@QEBAHXZ      000000018003c2c8 f i libvcruntime:undname.obj
 0001:0003b2e0       ?isUDTThunk@DName@@QEBAHXZ 000000018003c2e0 f i libvcruntime:undname.obj
 0001:0003b2f8       ?isVCallThunk@DName@@QEBAHXZ 000000018003c2f8 f i libvcruntime:undname.obj
 0001:0003b304       ?isValid@DName@@QEBAHXZ    000000018003c304 f i libvcruntime:undname.obj
 0001:0003b310       ?length@DName@@QEBAHXZ     000000018003c310 f i libvcruntime:undname.obj
 0001:0003b328       ?length@DNameStatusNode@@UEBAHXZ 000000018003c328 f i libvcruntime:undname.obj
 0001:0003b32c       ?length@charNode@@UEBAHXZ  000000018003c32c f i libvcruntime:undname.obj
 0001:0003b334       ?length@pDNameNode@@UEBAHXZ 000000018003c334 f i libvcruntime:undname.obj
 0001:0003b35c       ?length@pairNode@@UEBAHXZ  000000018003c35c f i libvcruntime:undname.obj
 0001:0003b3a4       ?length@pcharNode@@UEBAHXZ 000000018003c3a4 f i libvcruntime:undname.obj
 0001:0003b3a8       ?make@DNameStatusNode@@SAPEBV1@W4DNameStatus@@@Z 000000018003c3a8 f i libvcruntime:undname.obj
 0001:0003b3c8       ?parseDecoratedName@UnDecorator@@CA?AVDName@@XZ 000000018003c3c8 f   libvcruntime:undname.obj
 0001:0003b4dc       ?raw_length@DNameStatusNode@@UEBAHXZ 000000018003c4dc f i libvcruntime:undname.obj
 0001:0003b4e0       ?raw_length@charNode@@UEBAHXZ 000000018003c4e0 f i libvcruntime:undname.obj
 0001:0003b4e8       ?raw_length@pDNameNode@@UEBAHXZ 000000018003c4e8 f i libvcruntime:undname.obj
 0001:0003b4ec       ?raw_length@pairNode@@UEBAHXZ 000000018003c4ec f i libvcruntime:undname.obj
 0001:0003b4f0       ?raw_length@pcharNode@@UEBAHXZ 000000018003c4f0 f i libvcruntime:undname.obj
 0001:0003b4f4       ?setIsArray@DName@@QEAAXXZ 000000018003c4f4 f i libvcruntime:undname.obj
 0001:0003b4fc       ?setIsComArray@DName@@QEAAXXZ 000000018003c4fc f i libvcruntime:undname.obj
 0001:0003b504       ?setIsNoTE@DName@@QEAAXXZ  000000018003c504 f i libvcruntime:undname.obj
 0001:0003b50c       ?setIsPinPtr@DName@@QEAAXXZ 000000018003c50c f i libvcruntime:undname.obj
 0001:0003b514       ?setIsUDC@DName@@QEAAXXZ   000000018003c514 f i libvcruntime:undname.obj
 0001:0003b520       ?setIsVCallThunk@DName@@QEAAXXZ 000000018003c520 f i libvcruntime:undname.obj
 0001:0003b528       ?setPtrRef@DName@@QEAAAEAV1@XZ 000000018003c528 f i libvcruntime:undname.obj
 0001:0003b534       ?status@DName@@QEBA?AW4DNameStatus@@XZ 000000018003c534 f i libvcruntime:undname.obj
 0001:0003b598       __unDName                  000000018003c598 f   libvcruntime:undname.obj
 0001:0003b5c0       __unDNameEx                000000018003c5c0 f   libvcruntime:undname.obj
 0001:0003b6f4       _vsprintf_s_l              000000018003c6f4 f i libvcruntime:undname.obj
 0001:0003b758       snprintf                   000000018003c758 f i libvcruntime:undname.obj
 0001:0003b7b0       sprintf_s                  000000018003c7b0 f i libvcruntime:undname.obj
 0001:0003b804       unDNameGenerateCHPE        000000018003c804 f   libvcruntime:undname.obj
 0001:0003b90c       vsnprintf                  000000018003c90c f i libvcruntime:undname.obj
 0001:0003b980       _NLG_Notify                000000018003c980 f   libvcruntime:notify.obj
 0001:0003b9a0       __NLG_Dispatch2            000000018003c9a0 f   libvcruntime:notify.obj
 0001:0003b9b0       __NLG_Return2              000000018003c9b0 f   libvcruntime:notify.obj
 0001:0003b9bc       __except_validate_context_record 000000018003c9bc f   libvcruntime:jbcxrval.obj
 0001:0003b9f4       __except_validate_jump_buffer 000000018003c9f4 f   libvcruntime:jbcxrval.obj
 0001:0003ba34       __except_validate_jump_buffer_common 000000018003ca34 f i libvcruntime:jbcxrval.obj
 0001:0003ba90       ??$?RU__vcrt_ptd@@@__crt_internal_free_policy@@QEBAXQEBU__vcrt_ptd@@@Z 000000018003ca90 f i libvcruntime:per_thread_data.obj
 0001:0003ba98       ??0?$__crt_unique_heap_ptr@U__vcrt_ptd@@U__crt_internal_free_policy@@@@QEAA@QEAU__vcrt_ptd@@@Z 000000018003ca98 f i libvcruntime:per_thread_data.obj
 0001:0003babc       ??1?$__crt_unique_heap_ptr@U__vcrt_ptd@@U__crt_internal_free_policy@@@@QEAA@XZ 000000018003cabc f i libvcruntime:per_thread_data.obj
 0001:0003bae4       ??B?$__crt_unique_heap_ptr@U__vcrt_ptd@@U__crt_internal_free_policy@@@@QEBA_NXZ 000000018003cae4 f i libvcruntime:per_thread_data.obj
 0001:0003baec       ?detach@?$__crt_unique_heap_ptr@U__vcrt_ptd@@U__crt_internal_free_policy@@@@QEAAPEAU__vcrt_ptd@@XZ 000000018003caec f i libvcruntime:per_thread_data.obj
 0001:0003baf4       ?get@?$__crt_unique_heap_ptr@U__vcrt_ptd@@U__crt_internal_free_policy@@@@QEBAPEAU__vcrt_ptd@@XZ 000000018003caf4 f i libvcruntime:per_thread_data.obj
 0001:0003baf8       ?is_valid@?$__crt_unique_heap_ptr@U__vcrt_ptd@@U__crt_internal_free_policy@@@@QEBA_NXZ 000000018003caf8 f i libvcruntime:per_thread_data.obj
 0001:0003bb00       ?release@?$__crt_unique_heap_ptr@U__vcrt_ptd@@U__crt_internal_free_policy@@@@QEAAXXZ 000000018003cb00 f i libvcruntime:per_thread_data.obj
 0001:0003bb48       __vcrt_freefls             000000018003cb48 f   libvcruntime:per_thread_data.obj
 0001:0003bb68       __vcrt_freeptd             000000018003cb68 f   libvcruntime:per_thread_data.obj
 0001:0003bbb8       __vcrt_getptd              000000018003cbb8 f   libvcruntime:per_thread_data.obj
 0001:0003bbd4       __vcrt_getptd_noexit       000000018003cbd4 f   libvcruntime:per_thread_data.obj
 0001:0003bc94       __vcrt_getptd_noinit       000000018003cc94 f   libvcruntime:per_thread_data.obj
 0001:0003bce4       __vcrt_initialize_ptd      000000018003cce4 f   libvcruntime:per_thread_data.obj
 0001:0003bd2c       __vcrt_uninitialize_ptd    000000018003cd2c f   libvcruntime:per_thread_data.obj
 0001:0003bd50       __vcrt_initialize_locks    000000018003cd50 f   libvcruntime:locks.obj
 0001:0003bd98       __vcrt_lock                000000018003cd98 f   libvcruntime:locks.obj
 0001:0003bdb4       __vcrt_uninitialize_locks  000000018003cdb4 f   libvcruntime:locks.obj
 0001:0003bdec       __vcrt_unlock              000000018003cdec f   libvcruntime:locks.obj
 0001:0003be08       ??$?0AEAViterator@TryBlockMap4@FH4@@AEAV012@$0A@@?$pair@Viterator@TryBlockMap4@FH4@@V123@@std@@QEAA@AEAViterator@TryBlockMap4@FH4@@0@Z 000000018003ce08 f i libvcruntime:risctrnsctrl.obj
 0001:0003be1c       ??$?0AEAViterator@TryBlockMap@__FrameHandler3@@AEAV012@$0A@@?$pair@Viterator@TryBlockMap@__FrameHandler3@@V123@@std@@QEAA@AEAViterator@TryBlockMap@__FrameHandler3@@0@Z 000000018003ce1c f i libvcruntime:risctrnsctrl.obj
 0001:0003bf6c       ??$_CallSETranslator@V__FrameHandler3@@@@YAHPEAUEHExceptionRecord@@PEA_KPEAU_CONTEXT@@PEAU_xDISPATCHER_CONTEXT@@PEBU_s_FuncInfo@@K1H@Z 000000018003cf6c f i libvcruntime:risctrnsctrl.obj
 0001:0003bfc0       ??$_CallSETranslator@V__FrameHandler4@@@@YAHPEAUEHExceptionRecord@@PEA_KPEAU_CONTEXT@@PEAU_xDISPATCHER_CONTEXT@@PEAUFuncInfo4@FH4@@K1H@Z 000000018003cfc0 f i libvcruntime:risctrnsctrl.obj
 0001:0003c014       ??$forward@AEAViterator@TryBlockMap4@FH4@@@std@@YAAEAViterator@TryBlockMap4@FH4@@AEAV123@@Z 000000018003d014 f i libvcruntime:risctrnsctrl.obj
 0001:0003c018       ??$forward@AEAViterator@TryBlockMap@__FrameHandler3@@@std@@YAAEAViterator@TryBlockMap@__FrameHandler3@@AEAV123@@Z 000000018003d018 f i libvcruntime:risctrnsctrl.obj
 0001:0003c01c       ??0FuncInfo4@FH4@@QEAA@XZ  000000018003d01c f i libvcruntime:risctrnsctrl.obj
 0001:0003c030       ??0FuncInfoHeader@FH4@@QEAA@XZ 000000018003d030 f i libvcruntime:risctrnsctrl.obj
 0001:0003c038       ??0iterator@TryBlockMap4@FH4@@QEAA@AEAV12@I@Z 000000018003d038 f i libvcruntime:risctrnsctrl.obj
 0001:0003c044       ??0iterator@TryBlockMap@__FrameHandler3@@QEAA@AEAV12@I@Z 000000018003d044 f i libvcruntime:risctrnsctrl.obj
 0001:0003c050       ??4iterator@TryBlockMap4@FH4@@QEAAAEAV012@AEBV012@@Z 000000018003d050 f i libvcruntime:risctrnsctrl.obj
 0001:0003c05c       ??9iterator@TryBlockMap4@FH4@@QEBA_NAEBV012@@Z 000000018003d05c f i libvcruntime:risctrnsctrl.obj
 0001:0003c068       ??Diterator@TryBlockMap4@FH4@@QEAA?AUTryBlockMapEntry4@2@XZ 000000018003d068 f i libvcruntime:risctrnsctrl.obj
 0001:0003c078       ??Eiterator@TryBlockMap4@FH4@@QEAAAEAV012@XZ 000000018003d078 f i libvcruntime:risctrnsctrl.obj
 0001:0003c114       ?CatchTryBlock@__FrameHandler3@@SAPEBU_s_TryBlockMapEntry@@PEBU_s_FuncInfo@@H@Z 000000018003d114 f   libvcruntime:risctrnsctrl.obj
 0001:0003c178       ?DecompFuncInfo@FH4@@YA_JPEAEAEAUFuncInfo4@1@_KH@Z 000000018003d178 f i libvcruntime:risctrnsctrl.obj
 0001:0003c18c       ?DecompFuncInfo@FH4@@YA_JPEAEAEAUFuncInfo4@1@_KH_N@Z 000000018003d18c f i libvcruntime:risctrnsctrl.obj
 0001:0003c2b0       ?DecompTryBlock@TryBlockMap4@FH4@@AEAAXXZ 000000018003d2b0 f i libvcruntime:risctrnsctrl.obj
 0001:0003c344       ?ExecutionInCatch@__FrameHandler3@@SA_NPEAU_xDISPATCHER_CONTEXT@@PEBU_s_FuncInfo@@@Z 000000018003d344 f   libvcruntime:risctrnsctrl.obj
 0001:0003c370       ?ExecutionInCatch@__FrameHandler4@@SA_NPEAU_xDISPATCHER_CONTEXT@@PEAUFuncInfo4@FH4@@@Z 000000018003d370 f   libvcruntime:risctrnsctrl.obj
 0001:0003c378       ?FrameUnwindToEmptyState@__FrameHandler3@@SAXPEA_KPEAU_xDISPATCHER_CONTEXT@@PEBU_s_FuncInfo@@@Z 000000018003d378 f   libvcruntime:risctrnsctrl.obj
 0001:0003c3dc       ?FrameUnwindToEmptyState@__FrameHandler4@@SAXPEA_KPEAU_xDISPATCHER_CONTEXT@@PEAUFuncInfo4@FH4@@@Z 000000018003d3dc f   libvcruntime:risctrnsctrl.obj
 0001:0003c410       ?GetEstablisherFrame@__FrameHandler3@@SAPEA_KPEA_KPEAU_xDISPATCHER_CONTEXT@@PEBU_s_FuncInfo@@0@Z 000000018003d410 f   libvcruntime:risctrnsctrl.obj
 0001:0003c4dc       ?GetEstablisherFrame@__FrameHandler4@@SAPEA_KPEA_KPEAU_xDISPATCHER_CONTEXT@@PEAUFuncInfo4@FH4@@0@Z 000000018003d4dc f   libvcruntime:risctrnsctrl.obj
 0001:0003c500       ?GetRangeOfTrysToCheck@__FrameHandler3@@SA?AU?$pair@Viterator@TryBlockMap@__FrameHandler3@@V123@@std@@AEAVTryBlockMap@1@HPEAU_xDISPATCHER_CONTEXT@@PEBU_s_FuncInfo@@H@Z 000000018003d500 f   libvcruntime:risctrnsctrl.obj
 0001:0003c640       ?GetRangeOfTrysToCheck@__FrameHandler4@@SA?AU?$pair@Viterator@TryBlockMap4@FH4@@V123@@std@@AEAVTryBlockMap4@FH4@@HPEAU_xDISPATCHER_CONTEXT@@PEAUFuncInfo4@5@H@Z 000000018003d640 f   libvcruntime:risctrnsctrl.obj
 0001:0003c7ac       ?ReadInt@FH4@@YAHPEAPEAE@Z 000000018003d7ac f i libvcruntime:risctrnsctrl.obj
 0001:0003c7bc       ?ReadUnsigned@FH4@@YAIPEAPEAE@Z 000000018003d7bc f i libvcruntime:risctrnsctrl.obj
 0001:0003c7ec       ?UnwindNestedFrames@__FrameHandler3@@SAXPEA_KPEAUEHExceptionRecord@@PEAU_CONTEXT@@0PEAXPEBU_s_FuncInfo@@HHPEBU_s_HandlerType@@PEAU_xDISPATCHER_CONTEXT@@E@Z 000000018003d7ec f   libvcruntime:risctrnsctrl.obj
 0001:0003c8f0       ?UnwindNestedFrames@__FrameHandler4@@SAXPEA_KPEAUEHExceptionRecord@@PEAU_CONTEXT@@0PEAXPEAUFuncInfo4@FH4@@HHPEAUHandlerType4@5@PEAU_xDISPATCHER_CONTEXT@@E@Z 000000018003d8f0 f   libvcruntime:risctrnsctrl.obj
 0001:0003ca10       ?begin@TryBlockMap4@FH4@@QEAA?AViterator@12@XZ 000000018003da10 f i libvcruntime:risctrnsctrl.obj
 0001:0003ca1c       ?end@TryBlockMap4@FH4@@QEAA?AViterator@12@XZ 000000018003da1c f i libvcruntime:risctrnsctrl.obj
 0001:0003ca28       ?imageRelToByteBuffer@FH4@@YAPEAE_KH@Z 000000018003da28 f i libvcruntime:risctrnsctrl.obj
 0001:0003ca30       ?incrementToSentinel@iterator@TryBlockMap4@FH4@@QEAAXXZ 000000018003da30 f i libvcruntime:risctrnsctrl.obj
 0001:0003ca34       ?setBuffer@TryBlockMap4@FH4@@QEAAXViterator@12@@Z 000000018003da34 f i libvcruntime:risctrnsctrl.obj
 0001:0003cbf8       _CreateFrameInfo           000000018003dbf8 f   libvcruntime:risctrnsctrl.obj
 0001:0003cc34       _FindAndUnlinkFrame        000000018003dc34 f   libvcruntime:risctrnsctrl.obj
 0001:0003cc88       _GetImageBase              000000018003dc88 f   libvcruntime:risctrnsctrl.obj
 0001:0003cc9c       _GetThrowImageBase         000000018003dc9c f   libvcruntime:risctrnsctrl.obj
 0001:0003ccb0       _SetImageBase              000000018003dcb0 f   libvcruntime:risctrnsctrl.obj
 0001:0003ccc8       _SetThrowImageBase         000000018003dcc8 f   libvcruntime:risctrnsctrl.obj
 0001:0003cce0       __CxxFrameHandler          000000018003dce0 f   libvcruntime:risctrnsctrl.obj
 0001:0003cce8       __CxxFrameHandler2         000000018003dce8 f   libvcruntime:risctrnsctrl.obj
 0001:0003ccf0       __CxxFrameHandler3         000000018003dcf0 f   libvcruntime:risctrnsctrl.obj
 0001:0003cd78       __CxxFrameHandler4         000000018003dd78 f   libvcruntime:risctrnsctrl.obj
 0001:0003ce38       ??$__crt_interlocked_exchange_pointer@UHINSTANCE__@@PEAU1@@@YAPEAUHINSTANCE__@@PEDSEAU0@QEAU0@@Z 000000018003de38 f i libvcruntime:winapi_downlevel.obj
 0001:0003ce40       ??$__crt_interlocked_exchange_pointer@UHINSTANCE__@@PEAX@@YAPEAUHINSTANCE__@@PEDSEAU0@QEAX@Z 000000018003de40 f i libvcruntime:winapi_downlevel.obj
 0001:0003ce48       ??$__crt_interlocked_exchange_pointer@XPEAX@@YAPEAXPEDSEAXQEAX@Z 000000018003de48 f i libvcruntime:winapi_downlevel.obj
 0001:0003ce50       ??$__crt_interlocked_read_pointer@UHINSTANCE__@@@@YAPEAUHINSTANCE__@@PEDSEAU0@@Z 000000018003de50 f i libvcruntime:winapi_downlevel.obj
 0001:0003ce58       ??$__crt_interlocked_read_pointer@X@@YAPEAXPEDSEAX@Z 000000018003de58 f i libvcruntime:winapi_downlevel.obj
 0001:0003d398       __vcrt_FlsAlloc            000000018003e398 f   libvcruntime:winapi_downlevel.obj
 0001:0003d3e0       __vcrt_FlsFree             000000018003e3e0 f   libvcruntime:winapi_downlevel.obj
 0001:0003d428       __vcrt_FlsGetValue         000000018003e428 f   libvcruntime:winapi_downlevel.obj
 0001:0003d470       __vcrt_FlsSetValue         000000018003e470 f   libvcruntime:winapi_downlevel.obj
 0001:0003d4c4       __vcrt_InitializeCriticalSectionEx 000000018003e4c4 f   libvcruntime:winapi_downlevel.obj
 0001:0003d528       ?GetCurrentState@__FrameHandler3@@SAHPEA_KPEAU_xDISPATCHER_CONTEXT@@PEBU_s_FuncInfo@@@Z 000000018003e528 f   libvcruntime:ehstate.obj
 0001:0003d550       ?GetUnwindTryBlock@__FrameHandler3@@SAHPEA_KPEAU_xDISPATCHER_CONTEXT@@PEBU_s_FuncInfo@@@Z 000000018003e550 f   libvcruntime:ehstate.obj
 0001:0003d57c       ?SetState@__FrameHandler3@@SAXPEA_KPEBU_s_FuncInfo@@H@Z 000000018003e57c f   libvcruntime:ehstate.obj
 0001:0003d588       ?SetUnwindTryBlock@__FrameHandler3@@SAXPEA_KPEAU_xDISPATCHER_CONTEXT@@PEBU_s_FuncInfo@@H@Z 000000018003e588 f   libvcruntime:ehstate.obj
 0001:0003d5c4       ?StateFromControlPc@__FrameHandler3@@SAHPEBU_s_FuncInfo@@PEAU_xDISPATCHER_CONTEXT@@@Z 000000018003e5c4 f   libvcruntime:ehstate.obj
 0001:0003d5cc       ?StateFromControlPc@__FrameHandler4@@SAHPEAUFuncInfo4@FH4@@PEAU_xDISPATCHER_CONTEXT@@@Z 000000018003e5cc f   libvcruntime:ehstate.obj
 0001:0003d5d4       ?StateFromIp@__FrameHandler3@@SAHPEBU_s_FuncInfo@@PEAU_xDISPATCHER_CONTEXT@@_K@Z 000000018003e5d4 f   libvcruntime:ehstate.obj
 0001:0003d63c       ?StateFromIp@__FrameHandler4@@SAHPEAUFuncInfo4@FH4@@PEAU_xDISPATCHER_CONTEXT@@_K@Z 000000018003e63c f   libvcruntime:ehstate.obj
 0001:0003d72c       ?__FuncRelToRealOffset@@YA_KPEAU_xDISPATCHER_CONTEXT@@I@Z 000000018003e72c f i libvcruntime:ehstate.obj
 0001:0003d73c       ?__RVAtoRealOffset@@YA_KPEAU_xDISPATCHER_CONTEXT@@H@Z 000000018003e73c f i libvcruntime:ehstate.obj
 0001:0003ed58       ??$TypeMatchHelper@V__FrameHandler3@@@@YAHPEBU_s_HandlerType@@PEBU_s_CatchableType@@PEBU_s_ThrowInfo@@@Z 000000018003fd58 f i libvcruntime:frame.obj
 0001:0003ee98       ??$TypeMatchHelper@V__FrameHandler4@@@@YAHPEAUHandlerType4@FH4@@PEBU_s_CatchableType@@PEBU_s_ThrowInfo@@@Z 000000018003fe98 f i libvcruntime:frame.obj
 0001:0003efdc       ??$__InternalCxxFrameHandler@V__FrameHandler3@@@@YA?AW4_EXCEPTION_DISPOSITION@@PEAUEHExceptionRecord@@PEA_KPEAU_CONTEXT@@PEAU_xDISPATCHER_CONTEXT@@PEBU_s_FuncInfo@@H1E@Z 000000018003ffdc f i libvcruntime:frame.obj
 0001:0003f214       ??$__InternalCxxFrameHandler@V__FrameHandler4@@@@YA?AW4_EXCEPTION_DISPOSITION@@PEAUEHExceptionRecord@@PEA_KPEAU_CONTEXT@@PEAU_xDISPATCHER_CONTEXT@@PEAUFuncInfo4@FH4@@H1E@Z 0000000180040214 f i libvcruntime:frame.obj
 0001:0003f4a8       ??0HandlerMap4@FH4@@QEAA@PEBUTryBlockMapEntry4@1@_KH@Z 00000001800404a8 f i libvcruntime:frame.obj
 0001:0003f524       ??0HandlerMap@__FrameHandler3@@QEAA@PEBU_s_TryBlockMapEntry@@_KI@Z 0000000180040524 f i libvcruntime:frame.obj
 0001:0003f538       ??0HandlerType4@FH4@@QEAA@XZ 0000000180040538 f i libvcruntime:frame.obj
 0001:0003f550       ??0TryBlockMap4@FH4@@QEAA@PEBUFuncInfo4@1@_K@Z 0000000180040550 f i libvcruntime:frame.obj
 0001:0003f628       ??0TryBlockMap@__FrameHandler3@@QEAA@PEBU_s_FuncInfo@@_K@Z 0000000180040628 f i libvcruntime:frame.obj
 0001:0003f634       ??0UWMap4@FH4@@QEAA@PEBUFuncInfo4@1@_K@Z 0000000180040634 f i libvcruntime:frame.obj
 0001:0003f678       ??0bad_exception@std@@QEAA@AEBV01@@Z 0000000180040678 f i libvcruntime:frame.obj
 0001:0003f6b4       ??0bad_exception@std@@QEAA@XZ 00000001800406b4 f i libvcruntime:frame.obj
 0001:0003f6d4       ??0exception@std@@QEAA@AEBV01@@Z 00000001800406d4 f i libvcruntime:frame.obj
 0001:0003f708       ??0exception@std@@QEAA@QEBDH@Z 0000000180040708 f i libvcruntime:frame.obj
 0001:0003f720       ??0iterator@HandlerMap4@FH4@@QEAA@AEAV12@I@Z 0000000180040720 f i libvcruntime:frame.obj
 0001:0003f72c       ??0iterator@HandlerMap@__FrameHandler3@@QEAA@AEAV12@I@Z 000000018004072c f i libvcruntime:frame.obj
 0001:0003f738       ??0iterator@UWMap4@FH4@@QEAA@AEAV12@PEAE@Z 0000000180040738 f i libvcruntime:frame.obj
 0001:0003f744       ??1bad_exception@std@@UEAA@XZ 0000000180040744 f i libvcruntime:frame.obj
 0001:0003f758       ??1exception@std@@UEAA@XZ  0000000180040758 f i libvcruntime:frame.obj
 0001:0003f76c       ??4iterator@UWMap4@FH4@@QEAAAEAV012@AEBV012@@Z 000000018004076c f i libvcruntime:frame.obj
 0001:0003f78c       ??8iterator@HandlerMap4@FH4@@QEBA_NAEBV012@@Z 000000018004078c f i libvcruntime:frame.obj
 0001:0003f798       ??8iterator@HandlerMap@__FrameHandler3@@QEBA_NAEBV012@@Z 0000000180040798 f i libvcruntime:frame.obj
 0001:0003f7a4       ??8type_info@@QEBA_NAEBV0@@Z 00000001800407a4 f i libvcruntime:frame.obj
 0001:0003f7c0       ??9iterator@HandlerMap4@FH4@@QEBA_NAEBV012@@Z 00000001800407c0 f i libvcruntime:frame.obj
 0001:0003f7cc       ??9iterator@HandlerMap@__FrameHandler3@@QEBA_NAEBV012@@Z 00000001800407cc f i libvcruntime:frame.obj
 0001:0003f7d8       ??Diterator@HandlerMap4@FH4@@QEAA?AUHandlerType4@2@XZ 00000001800407d8 f i libvcruntime:frame.obj
 0001:0003f7f8       ??Diterator@HandlerMap@__FrameHandler3@@QEAA?BU_s_HandlerType@@XZ 00000001800407f8 f i libvcruntime:frame.obj
 0001:0003f81c       ??Diterator@TryBlockMap@__FrameHandler3@@QEAA?BU_s_TryBlockMapEntry@@XZ 000000018004081c f i libvcruntime:frame.obj
 0001:0003f84c       ??Diterator@UWMap4@FH4@@QEAA?AUUnwindMapEntry4@2@XZ 000000018004084c f i libvcruntime:frame.obj
 0001:0003f8a0       ??Eiterator@HandlerMap4@FH4@@QEAAAEAV012@XZ 00000001800408a0 f i libvcruntime:frame.obj
 0001:0003f8c0       ??Eiterator@HandlerMap@__FrameHandler3@@QEAAAEAV012@XZ 00000001800408c0 f i libvcruntime:frame.obj
 0001:0003f8c8       ??Eiterator@TryBlockMap@__FrameHandler3@@QEAAAEAV012@XZ 00000001800408c8 f i libvcruntime:frame.obj
 0001:0003f8d0       ??Eiterator@UWMap4@FH4@@QEAAAEAV012@XZ 00000001800408d0 f i libvcruntime:frame.obj
 0001:0003f8f0       ??Giterator@UWMap4@FH4@@QEBA_JAEBV012@@Z 00000001800408f0 f i libvcruntime:frame.obj
 0001:0003f8fc       ??Miterator@TryBlockMap4@FH4@@QEBA_NAEBV012@@Z 00000001800408fc f i libvcruntime:frame.obj
 0001:0003f908       ??Miterator@TryBlockMap@__FrameHandler3@@QEBA_NAEBV012@@Z 0000000180040908 f i libvcruntime:frame.obj
 0001:0003f914       ??Oiterator@UWMap4@FH4@@QEBA_NAEBV012@@Z 0000000180040914 f i libvcruntime:frame.obj
 0001:0003f920       ??Piterator@UWMap4@FH4@@QEBA_NAEBV012@@Z 0000000180040920 f i libvcruntime:frame.obj
 0001:0003f92c       ??_Ebad_exception@std@@UEAAPEAXI@Z 000000018004092c f i libvcruntime:frame.obj
 0001:0003f92c       ??_Gbad_exception@std@@UEAAPEAXI@Z 000000018004092c f i libvcruntime:frame.obj
 0001:0003f970       ??_Eexception@std@@UEAAPEAXI@Z 0000000180040970 f i libvcruntime:frame.obj
 0001:0003f970       ??_Gexception@std@@UEAAPEAXI@Z 0000000180040970 f i libvcruntime:frame.obj
 0001:0003f9b4       ?BuildCatchObject@__FrameHandler3@@SAXPEAUEHExceptionRecord@@PEAXPEBU_s_HandlerType@@PEBU_s_CatchableType@@@Z 00000001800409b4 f   libvcruntime:frame.obj
 0001:0003f9bc       ?BuildCatchObject@__FrameHandler4@@SAXPEAUEHExceptionRecord@@PEAXPEAUHandlerType4@FH4@@PEBU_s_CatchableType@@@Z 00000001800409bc f   libvcruntime:frame.obj
 0001:0003f9c4       ?BuildCatchObjectHelper@__FrameHandler3@@SAHPEAUEHExceptionRecord@@PEAXPEBU_s_HandlerType@@PEBU_s_CatchableType@@@Z 00000001800409c4 f   libvcruntime:frame.obj
 0001:0003f9cc       ?BuildCatchObjectHelper@__FrameHandler4@@SAHPEAUEHExceptionRecord@@PEAXPEAUHandlerType4@FH4@@PEBU_s_CatchableType@@@Z 00000001800409cc f   libvcruntime:frame.obj
 0001:0003f9d4       ?CxxCallCatchBlock@__FrameHandler3@@SAPEAXPEAU_EXCEPTION_RECORD@@@Z 00000001800409d4 f   libvcruntime:frame.obj
 0001:0003fbc0       ?CxxCallCatchBlock@__FrameHandler4@@SAPEAXPEAU_EXCEPTION_RECORD@@@Z 0000000180040bc0 f   libvcruntime:frame.obj
 0001:0003fe10       ?DecompHandler@HandlerMap4@FH4@@AEAAXXZ 0000000180040e10 f i libvcruntime:frame.obj
 0001:0004005c       ?FrameUnwindToState@__FrameHandler3@@SAXPEA_KPEAU_xDISPATCHER_CONTEXT@@PEBU_s_FuncInfo@@H@Z 000000018004105c f   libvcruntime:frame.obj
 0001:000401e8       ?FrameUnwindToState@__FrameHandler4@@SAXPEA_KPEAU_xDISPATCHER_CONTEXT@@PEAUFuncInfo4@FH4@@H@Z 00000001800411e8 f   libvcruntime:frame.obj
 0001:000404e4       ?GetHandlerSearchState@__FrameHandler3@@SAHPEA_KPEAU_xDISPATCHER_CONTEXT@@PEBU_s_FuncInfo@@@Z 00000001800414e4 f i libvcruntime:frame.obj
 0001:0004057c       ?GetHandlerSearchState@__FrameHandler4@@SAHPEA_KPEAU_xDISPATCHER_CONTEXT@@PEAUFuncInfo4@FH4@@@Z 000000018004157c f i libvcruntime:frame.obj
 0001:000405e0       ?GetMaxState@__FrameHandler3@@SAHPEAU_xDISPATCHER_CONTEXT@@PEBU_s_FuncInfo@@@Z 00000001800415e0 f i libvcruntime:frame.obj
 0001:000405e4       ?GetMaxState@__FrameHandler4@@SAHPEAU_xDISPATCHER_CONTEXT@@PEAUFuncInfo4@FH4@@@Z 00000001800415e4 f i libvcruntime:frame.obj
 0001:00040794       ?ReadEntry@UWMap4@FH4@@AEAAXPEAPEAE@Z 0000000180041794 f i libvcruntime:frame.obj
 0001:00040830       ?TypeMatch@__FrameHandler3@@SAHPEBU_s_HandlerType@@PEBU_s_CatchableType@@PEBU_s_ThrowInfo@@@Z 0000000180041830 f   libvcruntime:frame.obj
 0001:00040838       ?TypeMatch@__FrameHandler4@@SAHPEAUHandlerType4@FH4@@PEBU_s_CatchableType@@PEBU_s_ThrowInfo@@@Z 0000000180041838 f   libvcruntime:frame.obj
 0001:00040840       ?WalkBack@UWMap4@FH4@@AEAAXPEAPEAE@Z 0000000180041840 f i libvcruntime:frame.obj
 0001:00040878       ?WalkBack@iterator@UWMap4@FH4@@QEAAXXZ 0000000180041878 f i libvcruntime:frame.obj
 0001:000408b8       ?WalkForward@UWMap4@FH4@@AEAAXPEAPEAE@Z 00000001800418b8 f i libvcruntime:frame.obj
 0001:000408c0       ?_CallMemberFunction1@@YAXQEAX00@Z 00000001800418c0 f i libvcruntime:frame.obj
 0001:000408cc       ?_CallMemberFunction2@@YAXQEAX00H@Z 00000001800418cc f i libvcruntime:frame.obj
 0001:000408f0       ?begin@HandlerMap4@FH4@@QEAA?AViterator@12@XZ 00000001800418f0 f i libvcruntime:frame.obj
 0001:000408fc       ?begin@HandlerMap@__FrameHandler3@@QEAA?AViterator@12@XZ 00000001800418fc f i libvcruntime:frame.obj
 0001:00040908       ?begin@UWMap4@FH4@@QEAA?AViterator@12@XZ 0000000180041908 f i libvcruntime:frame.obj
 0001:00040918       ?end@HandlerMap4@FH4@@QEAA?AViterator@12@XZ 0000000180041918 f i libvcruntime:frame.obj
 0001:00040924       ?end@HandlerMap@__FrameHandler3@@QEAA?AViterator@12@XZ 0000000180041924 f i libvcruntime:frame.obj
 0001:00040930       ?getESTypes@__FrameHandler3@@SAPEBU_s_ESTypeList@@PEBU_s_FuncInfo@@@Z 0000000180041930 f i libvcruntime:frame.obj
 0001:00040958       ?getESTypes@__FrameHandler4@@SAPEBU_s_ESTypeList@@PEAUFuncInfo4@FH4@@@Z 0000000180041958 f i libvcruntime:frame.obj
 0001:0004095c       ?getLastEntry@HandlerMap4@FH4@@QEAAPEAUHandlerType4@2@XZ 000000018004195c f i libvcruntime:frame.obj
 0001:000409ac       ?getLastEntry@HandlerMap@__FrameHandler3@@QEAAPEBU_s_HandlerType@@XZ 00000001800419ac f i libvcruntime:frame.obj
 0001:000409c0       ?getMagicNum@__FrameHandler3@@SAIPEBU_s_FuncInfo@@@Z 00000001800419c0 f i libvcruntime:frame.obj
 0001:000409c8       ?getMagicNum@__FrameHandler4@@SAIPEAUFuncInfo4@FH4@@@Z 00000001800419c8 f i libvcruntime:frame.obj
 0001:000409d0       ?getNumTryBlocks@TryBlockMap4@FH4@@QEAAIXZ 00000001800419d0 f i libvcruntime:frame.obj
 0001:000409d4       ?getNumTryBlocks@TryBlockMap@__FrameHandler3@@QEAAIXZ 00000001800419d4 f i libvcruntime:frame.obj
 0001:000409dc       ?getStartStop@UWMap4@FH4@@QEAAXHHAEAViterator@12@0@Z 00000001800419dc f i libvcruntime:frame.obj
 0001:00040aac       ?getStateFromIterators@UWMap4@FH4@@SAHAEBViterator@12@H0H0@Z 0000000180041aac f i libvcruntime:frame.obj
 0001:00040b78       ?isEHs@__FrameHandler3@@SA_NPEBU_s_FuncInfo@@@Z 0000000180041b78 f i libvcruntime:frame.obj
 0001:00040b80       ?isEHs@__FrameHandler4@@SA_NPEAUFuncInfo4@FH4@@@Z 0000000180041b80 f i libvcruntime:frame.obj
 0001:00040b88       ?isNoExcept@__FrameHandler3@@SA_NPEBU_s_FuncInfo@@@Z 0000000180041b88 f i libvcruntime:frame.obj
 0001:00040b94       ?isNoExcept@__FrameHandler4@@SA_NPEAUFuncInfo4@FH4@@@Z 0000000180041b94 f i libvcruntime:frame.obj
 0001:00040b9c       ?reset@HandlerType4@FH4@@QEAAXXZ 0000000180041b9c f i libvcruntime:frame.obj
 0001:00040bb0       ?resetBuffer@HandlerMap4@FH4@@QEAAXXZ 0000000180041bb0 f i libvcruntime:frame.obj
 0001:00040bc0       ?setBuffer@HandlerMap4@FH4@@QEAAXI@Z 0000000180041bc0 f i libvcruntime:frame.obj
 0001:00040bfc       ?what@exception@std@@UEBAPEBDXZ 0000000180041bfc f i libvcruntime:frame.obj
 0001:00040c10       __BuildCatchObject         0000000180041c10 f   libvcruntime:frame.obj
 0001:00040c18       __BuildCatchObjectHelper   0000000180041c18 f   libvcruntime:frame.obj
 0001:00040c20       __TypeMatch                0000000180041c20 f   libvcruntime:frame.obj
 0001:00040c28       __vcrt_EncodePointer       0000000180041c28 f i libvcruntime:frame.obj
 0001:00040c40       _CallSettingFrame          0000000180041c40 f   libvcruntime:handlers.obj
 0001:00040c90       _CallSettingFrame_LookupContinuationIndex 0000000180041c90 f   libvcruntime:handlers.obj
 0001:00040cc0       _CallSettingFrame_NotifyContinuationAddr 0000000180041cc0 f   libvcruntime:handlers.obj
 0001:00040cf0       _CallSettingFrameEncoded   0000000180041cf0 f   libvcruntime:handlers.obj
 0001:00040d38       ??$?RD@__crt_public_free_policy@@QEBAXQEBD@Z 0000000180041d38 f i libvcruntime:std_exception.obj
 0001:00040d40       ??0?$__crt_unique_heap_ptr@DU__crt_public_free_policy@@@@QEAA@QEAD@Z 0000000180041d40 f i libvcruntime:std_exception.obj
 0001:00040d48       ??1?$__crt_unique_heap_ptr@DU__crt_public_free_policy@@@@QEAA@XZ 0000000180041d48 f i libvcruntime:std_exception.obj
 0001:00040d64       ??B?$__crt_unique_heap_ptr@DU__crt_public_free_policy@@@@QEBA_NXZ 0000000180041d64 f i libvcruntime:std_exception.obj
 0001:00040d6c       ?detach@?$__crt_unique_heap_ptr@DU__crt_public_free_policy@@@@QEAAPEADXZ 0000000180041d6c f i libvcruntime:std_exception.obj
 0001:00040d74       ?get@?$__crt_unique_heap_ptr@DU__crt_public_free_policy@@@@QEBAPEADXZ 0000000180041d74 f i libvcruntime:std_exception.obj
 0001:00040d78       ?is_valid@?$__crt_unique_heap_ptr@DU__crt_public_free_policy@@@@QEBA_NXZ 0000000180041d78 f i libvcruntime:std_exception.obj
 0001:00040d80       ?release@?$__crt_unique_heap_ptr@DU__crt_public_free_policy@@@@QEAAXXZ 0000000180041d80 f i libvcruntime:std_exception.obj
 0001:00040d9c       __std_exception_copy       0000000180041d9c f   libvcruntime:std_exception.obj
 0001:00040e2c       __std_exception_destroy    0000000180041e2c f   libvcruntime:std_exception.obj
 0001:00040e54       _CxxThrowException         0000000180041e54 f   libvcruntime:throw.obj
 0001:00040f00       cosf                       0000000180041f00 f   libucrt:cosf.obj
 0001:00041400       sinf                       0000000180042400 f   libucrt:sinf.obj
 0001:00041af8       _fpclass                   0000000180042af8 f   libucrt:ieeemisc.obj
 0001:00041b80       _fpclassf                  0000000180042b80 f   libucrt:ieeemisc.obj
 0001:00041bec       _isnan                     0000000180042bec f   libucrt:ieeemisc.obj
 0001:00041c18       _isnanf                    0000000180042c18 f   libucrt:ieeemisc.obj
 0001:00041c34       _nextafter                 0000000180042c34 f   libucrt:ieeemisc.obj
 0001:00041c3c       _nextafterf                0000000180042c3c f   libucrt:ieeemisc.obj
 0001:00041c44       _scalb                     0000000180042c44 f   libucrt:ieeemisc.obj
 0001:00041df0       _scalbf                    0000000180042df0 f   libucrt:ieeemisc.obj
 0001:00041f90       atan2f                     0000000180042f90 f   libucrt:atan2f.obj
 0001:000424d8       _initterm                  00000001800434d8 f   libucrt:initterm.obj
 0001:0004251c       _initterm_e                000000018004351c f   libucrt:initterm.obj
 0001:00042564       free                       0000000180043564 f   libucrt:free.obj
 0001:00042598       _seh_filter_dll            0000000180043598 f   libucrt:exception_filter.obj
 0001:000425ac       _seh_filter_exe            00000001800435ac f   libucrt:exception_filter.obj
 0001:00042730       ??$?B$$A6AXPEAXK0@Z@__crt_fast_encoded_nullptr_t@@QEBAP6AXPEAXK0@ZXZ 0000000180043730 f i libucrt:exit.obj
 0001:000427a0       ??$__crt_fast_decode_pointer@P6AXPEAXK0@Z@@YAP6AXPEAXK0@ZQ6AX0K0@Z@Z 00000001800437a0 f i libucrt:exit.obj
 0001:000427b8       ??$__crt_fast_encode_pointer@P6AXPEAXK0@Z@@YAP6AXPEAXK0@ZQ6AX0K0@Z@Z 00000001800437b8 f i libucrt:exit.obj
 0001:000427d8       ??$__crt_get_proc_address@P6AXI@Z@@YAP6AXI@ZQEAUHINSTANCE__@@QEBD@Z 00000001800437d8 f i libucrt:exit.obj
 0001:000427e0       ??$__crt_interlocked_read@J@@YAJPEDJ@Z 00000001800437e0 f i libucrt:exit.obj
 0001:00042804       ??0?$__crt_unique_handle_t@U__crt_hmodule_traits@@@@QEAA@QEAUHINSTANCE__@@@Z 0000000180043804 f i libucrt:exit.obj
 0001:0004280c       ??1?$__crt_unique_handle_t@U__crt_hmodule_traits@@@@QEAA@XZ 000000018004380c f i libucrt:exit.obj
 0001:0004290c       ?__acrt_select_exit_lock@@YA?AW4__acrt_lock_id@@XZ 000000018004390c f i libucrt:exit.obj
 0001:00042914       ?__crt_fast_encode_pointer@@YA?AU__crt_fast_encoded_nullptr_t@@$$T@Z 0000000180043914 f i libucrt:exit.obj
 0001:0004291c       ?__crt_interlocked_read_32@@YAHPEDH@Z 000000018004391c f i libucrt:exit.obj
 0001:00042920       ?__crt_rotate_pointer_value@@YA_K_KH@Z 0000000180043920 f i libucrt:exit.obj
 0001:00042938       ?close@?$__crt_unique_handle_t@U__crt_hmodule_traits@@@@QEAAXXZ 0000000180043938 f i libucrt:exit.obj
 0001:0004295c       ?close@__crt_hmodule_traits@@SA_NPEAUHINSTANCE__@@@Z 000000018004395c f i libucrt:exit.obj
 0001:00042a6c       ?get@?$__crt_unique_handle_t@U__crt_hmodule_traits@@@@QEBAPEAUHINSTANCE__@@XZ 0000000180043a6c f i libucrt:exit.obj
 0001:00042a70       ?get_address_of@?$__crt_unique_handle_t@U__crt_hmodule_traits@@@@QEAAPEAPEAUHINSTANCE__@@XZ 0000000180043a70 f i libucrt:exit.obj
 0001:00042a74       ?get_invalid_value@__crt_hmodule_traits@@SAPEAUHINSTANCE__@@XZ 0000000180043a74 f i libucrt:exit.obj
 0001:00042b6c       _Exit                      0000000180043b6c f   libucrt:exit.obj
 0001:00042b78       __acrt_initialize_thread_local_exit_callback 0000000180043b78 f   libucrt:exit.obj
 0001:00042b80       _c_exit                    0000000180043b80 f   libucrt:exit.obj
 0001:00042b90       _cexit                     0000000180043b90 f   libucrt:exit.obj
 0001:00042ba0       _exit                      0000000180043ba0 f   libucrt:exit.obj
 0001:00042bac       _is_c_termination_complete 0000000180043bac f   libucrt:exit.obj
 0001:00042bb4       _register_thread_local_exe_atexit_callback 0000000180043bb4 f   libucrt:exit.obj
 0001:00042bf4       exit                       0000000180043bf4 f   libucrt:exit.obj
 0001:00042c00       quick_exit                 0000000180043c00 f   libucrt:exit.obj
 0001:00042c0c       ??$?RE@__crt_internal_free_policy@@QEBAXQEBE@Z 0000000180043c0c f i libucrt:argv_parsing.obj
 0001:00042c14       ??$?RPEAD@__crt_internal_free_policy@@QEBAXQEBQEAD@Z 0000000180043c14 f i libucrt:argv_parsing.obj
 0001:00042c1c       ??$?RPEA_W@__crt_internal_free_policy@@QEBAXQEBQEA_W@Z 0000000180043c1c f i libucrt:argv_parsing.obj
 0001:00042f18       ??$get_module_file_name@$$TAEAY0BAF@DH@?$__crt_char_traits@D@@SAK$$QEA$$TAEAY0BAF@D$$QEAH@Z 0000000180043f18 f i libucrt:argv_parsing.obj
 0001:00042f24       ??$get_module_file_name@$$TAEAY0BAF@_WH@?$__crt_char_traits@_W@@SAK$$QEA$$TAEAY0BAF@_W$$QEAH@Z 0000000180043f24 f i libucrt:argv_parsing.obj
 0001:00043298       ??$set_program_name@PEAD@?$__crt_char_traits@D@@SAX$$QEAPEAD@Z 0000000180044298 f i libucrt:argv_parsing.obj
 0001:000432a4       ??$set_program_name@PEA_W@?$__crt_char_traits@_W@@SAX$$QEAPEA_W@Z 00000001800442a4 f i libucrt:argv_parsing.obj
 0001:000432c0       ??0?$__crt_unique_heap_ptr@EU__crt_internal_free_policy@@@@QEAA@QEAE@Z 00000001800442c0 f i libucrt:argv_parsing.obj
 0001:000432c8       ??0?$__crt_unique_heap_ptr@PEADU__crt_internal_free_policy@@@@QEAA@QEAPEAD@Z 00000001800442c8 f i libucrt:argv_parsing.obj
 0001:000432d0       ??0?$__crt_unique_heap_ptr@PEA_WU__crt_internal_free_policy@@@@QEAA@QEAPEA_W@Z 00000001800442d0 f i libucrt:argv_parsing.obj
 0001:000432d8       ??1?$__crt_unique_heap_ptr@EU__crt_internal_free_policy@@@@QEAA@XZ 00000001800442d8 f i libucrt:argv_parsing.obj
 0001:000432f4       ??1?$__crt_unique_heap_ptr@PEADU__crt_internal_free_policy@@@@QEAA@XZ 00000001800442f4 f i libucrt:argv_parsing.obj
 0001:00043310       ??1?$__crt_unique_heap_ptr@PEA_WU__crt_internal_free_policy@@@@QEAA@XZ 0000000180044310 f i libucrt:argv_parsing.obj
 0001:0004332c       ??B?$__crt_unique_heap_ptr@EU__crt_internal_free_policy@@@@QEBA_NXZ 000000018004432c f i libucrt:argv_parsing.obj
 0001:0004336c       ?detach@?$__crt_unique_heap_ptr@EU__crt_internal_free_policy@@@@QEAAPEAEXZ 000000018004436c f i libucrt:argv_parsing.obj
 0001:00043374       ?detach@?$__crt_unique_heap_ptr@PEADU__crt_internal_free_policy@@@@QEAAPEAPEADXZ 0000000180044374 f i libucrt:argv_parsing.obj
 0001:0004337c       ?detach@?$__crt_unique_heap_ptr@PEA_WU__crt_internal_free_policy@@@@QEAAPEAPEA_WXZ 000000018004437c f i libucrt:argv_parsing.obj
 0001:000433a0       ?get@?$__crt_unique_heap_ptr@EU__crt_internal_free_policy@@@@QEBAPEAEXZ 00000001800443a0 f i libucrt:argv_parsing.obj
 0001:000433a4       ?get@?$__crt_unique_heap_ptr@PEADU__crt_internal_free_policy@@@@QEBAPEAPEADXZ 00000001800443a4 f i libucrt:argv_parsing.obj
 0001:000433a8       ?get@?$__crt_unique_heap_ptr@PEA_WU__crt_internal_free_policy@@@@QEBAPEAPEA_WXZ 00000001800443a8 f i libucrt:argv_parsing.obj
 0001:000433ac       ?get_address_of@?$__crt_unique_heap_ptr@PEADU__crt_internal_free_policy@@@@QEAAPEAPEAPEADXZ 00000001800443ac f i libucrt:argv_parsing.obj
 0001:000433b0       ?get_address_of@?$__crt_unique_heap_ptr@PEA_WU__crt_internal_free_policy@@@@QEAAPEAPEAPEA_WXZ 00000001800443b0 f i libucrt:argv_parsing.obj
 0001:000433d4       ?is_valid@?$__crt_unique_heap_ptr@EU__crt_internal_free_policy@@@@QEBA_NXZ 00000001800443d4 f i libucrt:argv_parsing.obj
 0001:000433dc       ?release@?$__crt_unique_heap_ptr@EU__crt_internal_free_policy@@@@QEAAXXZ 00000001800443dc f i libucrt:argv_parsing.obj
 0001:000433f8       ?release@?$__crt_unique_heap_ptr@PEADU__crt_internal_free_policy@@@@QEAAXXZ 00000001800443f8 f i libucrt:argv_parsing.obj
 0001:00043414       ?release@?$__crt_unique_heap_ptr@PEA_WU__crt_internal_free_policy@@@@QEAAXXZ 0000000180044414 f i libucrt:argv_parsing.obj
 0001:0004344c       __acrt_allocate_buffer_for_argv 000000018004444c f   libucrt:argv_parsing.obj
 0001:000434ac       _configure_narrow_argv     00000001800444ac f   libucrt:argv_parsing.obj
 0001:00043634       _configure_wide_argv       0000000180044634 f   libucrt:argv_parsing.obj
 0001:000437b8       _set_pgmptr                00000001800447b8 f i libucrt:argv_parsing.obj
 0001:000437c0       _set_wpgmptr               00000001800447c0 f i libucrt:argv_parsing.obj
 0001:000437c8       ??$?R_W@__crt_internal_free_policy@@QEBAXQEB_W@Z 00000001800447c8 f i libucrt:environment_initialization.obj
 0001:00043cf0       ??$get_environment_from_os@$$V@?$__crt_char_traits@D@@SAPEADXZ 0000000180044cf0 f i libucrt:environment_initialization.obj
 0001:00043cf8       ??$get_environment_from_os@$$V@?$__crt_char_traits@_W@@SAPEA_WXZ 0000000180044cf8 f i libucrt:environment_initialization.obj
 0001:00043e9c       ??$set_variable_in_environment_nolock@PEADH@?$__crt_char_traits@D@@SAH$$QEAPEAD$$QEAH@Z 0000000180044e9c f i libucrt:environment_initialization.obj
 0001:00043ea8       ??$set_variable_in_environment_nolock@PEA_WH@?$__crt_char_traits@_W@@SAH$$QEAPEA_W$$QEAH@Z 0000000180044ea8 f i libucrt:environment_initialization.obj
 0001:00043eb4       ??$tcscpy_s@PEADAEB_KAEAPEAD@?$__crt_char_traits@D@@SAH$$QEAPEADAEB_KAEAPEAD@Z 0000000180044eb4 f i libucrt:environment_initialization.obj
 0001:00043ec4       ??$tcscpy_s@PEA_WAEB_KAEAPEA_W@?$__crt_char_traits@_W@@SAH$$QEAPEA_WAEB_KAEAPEA_W@Z 0000000180044ec4 f i libucrt:environment_initialization.obj
 0001:00043ed4       ??$tcslen@AEAPEAD@?$__crt_char_traits@D@@SA_KAEAPEAD@Z 0000000180044ed4 f i libucrt:environment_initialization.obj
 0001:00043ee8       ??$tcslen@AEAPEA_W@?$__crt_char_traits@_W@@SA_KAEAPEA_W@Z 0000000180044ee8 f i libucrt:environment_initialization.obj
 0001:00043efc       ??$uninitialize@A6AXAEAPEAPEAD@_E@?$dual_state_global@PEAPEAD@__crt_state_management@@QEAAXA6AXAEAPEAPEAD@_E@Z 0000000180044efc f i libucrt:environment_initialization.obj
 0001:00043f54       ??$uninitialize@A6AXAEAPEAPEA_W@_E@?$dual_state_global@PEAPEA_W@__crt_state_management@@QEAAXA6AXAEAPEAPEA_W@_E@Z 0000000180044f54 f i libucrt:environment_initialization.obj
 0001:00043fe4       ??0?$__crt_unique_heap_ptr@_WU__crt_internal_free_policy@@@@QEAA@QEA_W@Z 0000000180044fe4 f i libucrt:environment_initialization.obj
 0001:00043fec       ??1?$__crt_unique_heap_ptr@_WU__crt_internal_free_policy@@@@QEAA@XZ 0000000180044fec f i libucrt:environment_initialization.obj
 0001:00044008       ??B?$__crt_unique_heap_ptr@PEADU__crt_internal_free_policy@@@@QEBA_NXZ 0000000180045008 f i libucrt:environment_initialization.obj
 0001:00044010       ??B?$__crt_unique_heap_ptr@PEA_WU__crt_internal_free_policy@@@@QEBA_NXZ 0000000180045010 f i libucrt:environment_initialization.obj
 0001:00044018       ??B?$__crt_unique_heap_ptr@_WU__crt_internal_free_policy@@@@QEBA_NXZ 0000000180045018 f i libucrt:environment_initialization.obj
 0001:00044020       ?__crt_compute_required_transform_buffer_count@@YA_KIQEBD@Z 0000000180045020 f i libucrt:environment_initialization.obj
 0001:00044044       ?__crt_compute_required_transform_buffer_count@@YA_KIQEB_W@Z 0000000180045044 f i libucrt:environment_initialization.obj
 0001:00044074       ?__crt_transform_string@@YA_KIQEBDQEA_W_K@Z 0000000180045074 f i libucrt:environment_initialization.obj
 0001:00044098       ?__crt_transform_string@@YA_KIQEB_WQEAD_K@Z 0000000180045098 f i libucrt:environment_initialization.obj
 0001:000440c8       ?detach@?$__crt_unique_heap_ptr@DU__crt_internal_free_policy@@@@QEAAPEADXZ 00000001800450c8 f i libucrt:environment_initialization.obj
 0001:000440d0       ?detach@?$__crt_unique_heap_ptr@_WU__crt_internal_free_policy@@@@QEAAPEA_WXZ 00000001800450d0 f i libucrt:environment_initialization.obj
 0001:000440d8       ?get@?$__crt_unique_heap_ptr@_WU__crt_internal_free_policy@@@@QEBAPEA_WXZ 00000001800450d8 f i libucrt:environment_initialization.obj
 0001:000440dc       ?get_current_state_index@__crt_state_management@@YA_KXZ 00000001800450dc f i libucrt:environment_initialization.obj
 0001:00044110       ?initialize@?$dual_state_global@PEAPEAD@__crt_state_management@@QEAAXQEAPEAD@Z 0000000180045110 f i libucrt:environment_initialization.obj
 0001:00044120       ?initialize@?$dual_state_global@PEAPEA_W@__crt_state_management@@QEAAXQEAPEA_W@Z 0000000180045120 f i libucrt:environment_initialization.obj
 0001:00044130       ?is_valid@?$__crt_unique_heap_ptr@PEADU__crt_internal_free_policy@@@@QEBA_NXZ 0000000180045130 f i libucrt:environment_initialization.obj
 0001:00044138       ?is_valid@?$__crt_unique_heap_ptr@PEA_WU__crt_internal_free_policy@@@@QEBA_NXZ 0000000180045138 f i libucrt:environment_initialization.obj
 0001:00044140       ?is_valid@?$__crt_unique_heap_ptr@_WU__crt_internal_free_policy@@@@QEBA_NXZ 0000000180045140 f i libucrt:environment_initialization.obj
 0001:00044154       ?release@?$__crt_unique_heap_ptr@_WU__crt_internal_free_policy@@@@QEAAXXZ 0000000180045154 f i libucrt:environment_initialization.obj
 0001:00044170       ?value@?$dual_state_global@PEAPEAD@__crt_state_management@@QEAAAEAPEAPEADXZ 0000000180045170 f i libucrt:environment_initialization.obj
 0001:00044174       ?value@?$dual_state_global@PEAPEA_W@__crt_state_management@@QEAAAEAPEAPEA_WXZ 0000000180045174 f i libucrt:environment_initialization.obj
 0001:00044178       __dcrt_get_or_create_narrow_environment_nolock 0000000180045178 f   libucrt:environment_initialization.obj
 0001:000441b4       __dcrt_get_or_create_wide_environment_nolock 00000001800451b4 f   libucrt:environment_initialization.obj
 0001:000441f0       __dcrt_uninitialize_environments_nolock 00000001800451f0 f   libucrt:environment_initialization.obj
 0001:00044234       __p__environ               0000000180045234 f   libucrt:environment_initialization.obj
 0001:0004423c       __p__wenviron              000000018004523c f   libucrt:environment_initialization.obj
 0001:00044244       _get_initial_narrow_environment 0000000180045244 f   libucrt:environment_initialization.obj
 0001:00044294       _get_initial_wide_environment 0000000180045294 f   libucrt:environment_initialization.obj
 0001:000442e4       _initialize_narrow_environment 00000001800452e4 f   libucrt:environment_initialization.obj
 0001:000442ec       _initialize_wide_environment 00000001800452ec f   libucrt:environment_initialization.obj
 0001:000442f4       _invoke_watson_if_error    00000001800452f4 f i libucrt:environment_initialization.obj
 0001:00044328       ??$?B$$A6AXXZ@__crt_fast_encoded_nullptr_t@@QEBAP6AXXZXZ 0000000180045328 f i libucrt:onexit.obj
 0001:00044330       ??$?BP6AXXZ@__crt_fast_encoded_nullptr_t@@QEBAPEAP6AXXZXZ 0000000180045330 f i libucrt:onexit.obj
 0001:00044338       ??$?RP6AXXZ@__crt_internal_free_policy@@QEBAXQEBQ6AXXZ@Z 0000000180045338 f i libucrt:onexit.obj
 0001:00044410       ??$__crt_fast_decode_pointer@P6AXXZ@@YAP6AXXZQ6AXXZ@Z 0000000180045410 f i libucrt:onexit.obj
 0001:00044428       ??$__crt_fast_decode_pointer@PEAP6AXXZ@@YAPEAP6AXXZQEAP6AXXZ@Z 0000000180045428 f i libucrt:onexit.obj
 0001:00044440       ??$__crt_fast_encode_pointer@P6AHXZ@@YAP6AHXZQ6AHXZ@Z 0000000180045440 f i libucrt:onexit.obj
 0001:00044460       ??$__crt_fast_encode_pointer@P6AXXZ@@YAP6AXXZQ6AXXZ@Z 0000000180045460 f i libucrt:onexit.obj
 0001:00044480       ??$__crt_fast_encode_pointer@PEAP6AXXZ@@YAPEAP6AXXZQEAP6AXXZ@Z 0000000180045480 f i libucrt:onexit.obj
 0001:000444d4       ??0?$__crt_unique_heap_ptr@P6AXXZU__crt_internal_free_policy@@@@QEAA@QEAP6AXXZ@Z 00000001800454d4 f i libucrt:onexit.obj
 0001:000444dc       ??1?$__crt_unique_heap_ptr@P6AXXZU__crt_internal_free_policy@@@@QEAA@XZ 00000001800454dc f i libucrt:onexit.obj
 0001:000444f8       ??1scoped_global_state_reset@__crt_state_management@@QEAA@XZ 00000001800454f8 f i libucrt:onexit.obj
 0001:000447ec       ?detach@?$__crt_unique_heap_ptr@P6AXXZU__crt_internal_free_policy@@@@QEAAPEAP6AXXZXZ 00000001800457ec f i libucrt:onexit.obj
 0001:000447f4       ?release@?$__crt_unique_heap_ptr@P6AXXZU__crt_internal_free_policy@@@@QEAAXXZ 00000001800457f4 f i libucrt:onexit.obj
 0001:00044810       _crt_at_quick_exit         0000000180045810 f   libucrt:onexit.obj
 0001:00044820       _crt_atexit                0000000180045820 f   libucrt:onexit.obj
 0001:00044830       _execute_onexit_table      0000000180045830 f   libucrt:onexit.obj
 0001:00044874       _initialize_onexit_table   0000000180045874 f   libucrt:onexit.obj
 0001:0004489c       _register_onexit_function  000000018004589c f   libucrt:onexit.obj
 0001:00044a24       ??$?BX@__crt_fast_encoded_nullptr_t@@QEBAPEAXXZ 0000000180045a24 f i libucrt:initialization.obj
 0001:00044a2c       ??$__crt_fast_encode_pointer@PEAX@@YAPEAXQEAX@Z 0000000180045a2c f i libucrt:initialization.obj
 0001:00044ae8       ?__acrt_stdio_is_initialized@@YA_NXZ 0000000180045ae8 f i libucrt:initialization.obj
 0001:00044af4       ?initialize@?$dual_state_global@PEAU__crt_locale_data@@@__crt_state_management@@QEAAXQEAU__crt_locale_data@@@Z 0000000180045af4 f i libucrt:initialization.obj
 0001:00044b04       __acrt_initialize          0000000180045b04 f   libucrt:initialization.obj
 0001:00044b18       __acrt_thread_attach       0000000180045b18 f   libucrt:initialization.obj
 0001:00044b2c       __acrt_thread_detach       0000000180045b2c f   libucrt:initialization.obj
 0001:00044b3c       __acrt_uninitialize        0000000180045b3c f   libucrt:initialization.obj
 0001:00044b74       __acrt_uninitialize_critical 0000000180045b74 f   libucrt:initialization.obj
 0001:00044b98       _get_terminate             0000000180045b98 f   libucrt:terminate.obj
 0001:00044bbc       set_terminate              0000000180045bbc f   libucrt:terminate.obj
 0001:00044be8       terminate                  0000000180045be8 f   libucrt:terminate.obj
 0001:00044c14       malloc                     0000000180045c14 f   libucrt:malloc.obj
 0001:00044c80       strcpy_s                   0000000180045c80 f   libucrt:strcpy_s.obj
 0001:00044ce0       _set_abort_behavior        0000000180045ce0 f   libucrt:abort.obj
 0001:00044cfc       abort                      0000000180045cfc f   libucrt:abort.obj
 0001:00044d54       ??$?0AEBV?$stream_output_adapter@D@__crt_stdio_output@@AEB_KAEBQEBDAEAV__crt_cached_ptd_host@@AEBQEAD@?$format_validation_base@DV?$stream_output_adapter@D@__crt_stdio_output@@@__crt_stdio_output@@IEAA@AEBV?$stream_output_adapter@D@1@AEB_KAEBQEBDAEAV__crt_cached_ptd_host@@AEBQEAD@Z 0000000180045d54 f i libucrt:output.obj
 0001:00044dc4       ??$?0AEBV?$stream_output_adapter@D@__crt_stdio_output@@AEB_KAEBQEBDAEAV__crt_cached_ptd_host@@AEBQEAD@?$positional_parameter_base@DV?$stream_output_adapter@D@__crt_stdio_output@@@__crt_stdio_output@@IEAA@AEBV?$stream_output_adapter@D@1@AEB_KAEBQEBDAEAV__crt_cached_ptd_host@@AEBQEAD@Z 0000000180045dc4 f i libucrt:output.obj
 0001:00044e54       ??$?0AEBV?$stream_output_adapter@D@__crt_stdio_output@@AEB_KAEBQEBDAEAV__crt_cached_ptd_host@@AEBQEAD@?$standard_base@DV?$stream_output_adapter@D@__crt_stdio_output@@@__crt_stdio_output@@IEAA@AEBV?$stream_output_adapter@D@1@AEB_KAEBQEBDAEAV__crt_cached_ptd_host@@AEBQEAD@Z 0000000180045e54 f i libucrt:output.obj
 0001:00044ec4       ??$?0AEBV?$stream_output_adapter@_W@__crt_stdio_output@@AEB_KAEBQEB_WAEAV__crt_cached_ptd_host@@AEBQEAD@?$format_validation_base@_WV?$stream_output_adapter@_W@__crt_stdio_output@@@__crt_stdio_output@@IEAA@AEBV?$stream_output_adapter@_W@1@AEB_KAEBQEB_WAEAV__crt_cached_ptd_host@@AEBQEAD@Z 0000000180045ec4 f i libucrt:output.obj
 0001:00044f38       ??$?0AEBV?$stream_output_adapter@_W@__crt_stdio_output@@AEB_KAEBQEB_WAEAV__crt_cached_ptd_host@@AEBQEAD@?$positional_parameter_base@_WV?$stream_output_adapter@_W@__crt_stdio_output@@@__crt_stdio_output@@IEAA@AEBV?$stream_output_adapter@_W@1@AEB_KAEBQEB_WAEAV__crt_cached_ptd_host@@AEBQEAD@Z 0000000180045f38 f i libucrt:output.obj
 0001:00044fcc       ??$?0AEBV?$stream_output_adapter@_W@__crt_stdio_output@@AEB_KAEBQEB_WAEAV__crt_cached_ptd_host@@AEBQEAD@?$standard_base@_WV?$stream_output_adapter@_W@__crt_stdio_output@@@__crt_stdio_output@@IEAA@AEBV?$stream_output_adapter@_W@1@AEB_KAEBQEB_WAEAV__crt_cached_ptd_host@@AEBQEAD@Z 0000000180045fcc f i libucrt:output.obj
 0001:00045040       ??$?0AEBV?$string_output_adapter@D@__crt_stdio_output@@AEB_KAEBQEBDAEAV__crt_cached_ptd_host@@AEBQEAD@?$format_validation_base@DV?$string_output_adapter@D@__crt_stdio_output@@@__crt_stdio_output@@IEAA@AEBV?$string_output_adapter@D@1@AEB_KAEBQEBDAEAV__crt_cached_ptd_host@@AEBQEAD@Z 0000000180046040 f i libucrt:output.obj
 0001:000450b0       ??$?0AEBV?$string_output_adapter@D@__crt_stdio_output@@AEB_KAEBQEBDAEAV__crt_cached_ptd_host@@AEBQEAD@?$positional_parameter_base@DV?$string_output_adapter@D@__crt_stdio_output@@@__crt_stdio_output@@IEAA@AEBV?$string_output_adapter@D@1@AEB_KAEBQEBDAEAV__crt_cached_ptd_host@@AEBQEAD@Z 00000001800460b0 f i libucrt:output.obj
 0001:00045140       ??$?0AEBV?$string_output_adapter@D@__crt_stdio_output@@AEB_KAEBQEBDAEAV__crt_cached_ptd_host@@AEBQEAD@?$standard_base@DV?$string_output_adapter@D@__crt_stdio_output@@@__crt_stdio_output@@IEAA@AEBV?$string_output_adapter@D@1@AEB_KAEBQEBDAEAV__crt_cached_ptd_host@@AEBQEAD@Z 0000000180046140 f i libucrt:output.obj
 0001:000451b0       ??$?0AEBV?$string_output_adapter@_W@__crt_stdio_output@@AEB_KAEBQEB_WAEAV__crt_cached_ptd_host@@AEBQEAD@?$format_validation_base@_WV?$string_output_adapter@_W@__crt_stdio_output@@@__crt_stdio_output@@IEAA@AEBV?$string_output_adapter@_W@1@AEB_KAEBQEB_WAEAV__crt_cached_ptd_host@@AEBQEAD@Z 00000001800461b0 f i libucrt:output.obj
 0001:00045224       ??$?0AEBV?$string_output_adapter@_W@__crt_stdio_output@@AEB_KAEBQEB_WAEAV__crt_cached_ptd_host@@AEBQEAD@?$positional_parameter_base@_WV?$string_output_adapter@_W@__crt_stdio_output@@@__crt_stdio_output@@IEAA@AEBV?$string_output_adapter@_W@1@AEB_KAEBQEB_WAEAV__crt_cached_ptd_host@@AEBQEAD@Z 0000000180046224 f i libucrt:output.obj
 0001:000452b8       ??$?0AEBV?$string_output_adapter@_W@__crt_stdio_output@@AEB_KAEBQEB_WAEAV__crt_cached_ptd_host@@AEBQEAD@?$standard_base@_WV?$string_output_adapter@_W@__crt_stdio_output@@@__crt_stdio_output@@IEAA@AEBV?$string_output_adapter@_W@1@AEB_KAEBQEB_WAEAV__crt_cached_ptd_host@@AEBQEAD@Z 00000001800462b8 f i libucrt:output.obj
 0001:0004559c       ??$_tcstol_internal@DPEAPEAD$0A@@@YAJAEAV__crt_cached_ptd_host@@QEBDQEAPEADH@Z 000000018004659c f i libucrt:output.obj
 0001:000455cc       ??$_tcstol_internal@_WPEAPEA_W$0A@@@YAJAEAV__crt_cached_ptd_host@@QEB_WQEAPEA_WH@Z 00000001800465cc f i libucrt:output.obj
 0001:0004670c       ??$count@D@formatting_buffer@__crt_stdio_output@@QEBA_KXZ 000000018004770c f i libucrt:output.obj
 0001:00046728       ??$count@_W@formatting_buffer@__crt_stdio_output@@QEBA_KXZ 0000000180047728 f i libucrt:output.obj
 0001:00046744       ??$data@D@formatting_buffer@__crt_stdio_output@@QEAAPEADXZ 0000000180047744 f i libucrt:output.obj
 0001:00046754       ??$data@_W@formatting_buffer@__crt_stdio_output@@QEAAPEA_WXZ 0000000180047754 f i libucrt:output.obj
 0001:00046764       ??$ensure_buffer_is_big_enough@D@formatting_buffer@__crt_stdio_output@@QEAA_N_KAEAV__crt_cached_ptd_host@@@Z 0000000180047764 f i libucrt:output.obj
 0001:0004680c       ??$ensure_buffer_is_big_enough@_W@formatting_buffer@__crt_stdio_output@@QEAA_N_KAEAV__crt_cached_ptd_host@@@Z 000000018004780c f i libucrt:output.obj
 0001:000468b8       ??$extract_argument_from_va_list@C_J@?$positional_parameter_base@DV?$stream_output_adapter@D@__crt_stdio_output@@@__crt_stdio_output@@IEAA_NAEA_J@Z 00000001800478b8 f i libucrt:output.obj
 0001:000469c0       ??$extract_argument_from_va_list@C_J@?$positional_parameter_base@DV?$string_output_adapter@D@__crt_stdio_output@@@__crt_stdio_output@@IEAA_NAEA_J@Z 00000001800479c0 f i libucrt:output.obj
 0001:00046ac8       ??$extract_argument_from_va_list@C_J@?$positional_parameter_base@_WV?$stream_output_adapter@_W@__crt_stdio_output@@@__crt_stdio_output@@IEAA_NAEA_J@Z 0000000180047ac8 f i libucrt:output.obj
 0001:00046bd4       ??$extract_argument_from_va_list@C_J@?$positional_parameter_base@_WV?$string_output_adapter@_W@__crt_stdio_output@@@__crt_stdio_output@@IEAA_NAEA_J@Z 0000000180047bd4 f i libucrt:output.obj
 0001:00046ce0       ??$extract_argument_from_va_list@C_J@?$standard_base@DV?$stream_output_adapter@D@__crt_stdio_output@@@__crt_stdio_output@@IEAA_NAEA_J@Z 0000000180047ce0 f i libucrt:output.obj
 0001:00046cf4       ??$extract_argument_from_va_list@C_J@?$standard_base@DV?$string_output_adapter@D@__crt_stdio_output@@@__crt_stdio_output@@IEAA_NAEA_J@Z 0000000180047cf4 f i libucrt:output.obj
 0001:00046d08       ??$extract_argument_from_va_list@C_J@?$standard_base@_WV?$stream_output_adapter@_W@__crt_stdio_output@@@__crt_stdio_output@@IEAA_NAEA_J@Z 0000000180047d08 f i libucrt:output.obj
 0001:00046d1c       ??$extract_argument_from_va_list@C_J@?$standard_base@_WV?$string_output_adapter@_W@__crt_stdio_output@@@__crt_stdio_output@@IEAA_NAEA_J@Z 0000000180047d1c f i libucrt:output.obj
 0001:00046d30       ??$extract_argument_from_va_list@E_J@?$positional_parameter_base@DV?$stream_output_adapter@D@__crt_stdio_output@@@__crt_stdio_output@@IEAA_NAEA_J@Z 0000000180047d30 f i libucrt:output.obj
 0001:00046e38       ??$extract_argument_from_va_list@E_J@?$positional_parameter_base@DV?$string_output_adapter@D@__crt_stdio_output@@@__crt_stdio_output@@IEAA_NAEA_J@Z 0000000180047e38 f i libucrt:output.obj
 0001:00046f40       ??$extract_argument_from_va_list@E_J@?$positional_parameter_base@_WV?$stream_output_adapter@_W@__crt_stdio_output@@@__crt_stdio_output@@IEAA_NAEA_J@Z 0000000180047f40 f i libucrt:output.obj
 0001:00047048       ??$extract_argument_from_va_list@E_J@?$positional_parameter_base@_WV?$string_output_adapter@_W@__crt_stdio_output@@@__crt_stdio_output@@IEAA_NAEA_J@Z 0000000180048048 f i libucrt:output.obj
 0001:00047150       ??$extract_argument_from_va_list@E_J@?$standard_base@DV?$stream_output_adapter@D@__crt_stdio_output@@@__crt_stdio_output@@IEAA_NAEA_J@Z 0000000180048150 f i libucrt:output.obj
 0001:00047164       ??$extract_argument_from_va_list@E_J@?$standard_base@DV?$string_output_adapter@D@__crt_stdio_output@@@__crt_stdio_output@@IEAA_NAEA_J@Z 0000000180048164 f i libucrt:output.obj
 0001:00047178       ??$extract_argument_from_va_list@E_J@?$standard_base@_WV?$stream_output_adapter@_W@__crt_stdio_output@@@__crt_stdio_output@@IEAA_NAEA_J@Z 0000000180048178 f i libucrt:output.obj
 0001:0004718c       ??$extract_argument_from_va_list@E_J@?$standard_base@_WV?$string_output_adapter@_W@__crt_stdio_output@@@__crt_stdio_output@@IEAA_NAEA_J@Z 000000018004818c f i libucrt:output.obj
 0001:000471a0       ??$extract_argument_from_va_list@F_J@?$positional_parameter_base@DV?$stream_output_adapter@D@__crt_stdio_output@@@__crt_stdio_output@@IEAA_NAEA_J@Z 00000001800481a0 f i libucrt:output.obj
 0001:000472a8       ??$extract_argument_from_va_list@F_J@?$positional_parameter_base@DV?$string_output_adapter@D@__crt_stdio_output@@@__crt_stdio_output@@IEAA_NAEA_J@Z 00000001800482a8 f i libucrt:output.obj
 0001:000473b0       ??$extract_argument_from_va_list@F_J@?$positional_parameter_base@_WV?$stream_output_adapter@_W@__crt_stdio_output@@@__crt_stdio_output@@IEAA_NAEA_J@Z 00000001800483b0 f i libucrt:output.obj
 0001:000474bc       ??$extract_argument_from_va_list@F_J@?$positional_parameter_base@_WV?$string_output_adapter@_W@__crt_stdio_output@@@__crt_stdio_output@@IEAA_NAEA_J@Z 00000001800484bc f i libucrt:output.obj
 0001:000475c8       ??$extract_argument_from_va_list@F_J@?$standard_base@DV?$stream_output_adapter@D@__crt_stdio_output@@@__crt_stdio_output@@IEAA_NAEA_J@Z 00000001800485c8 f i libucrt:output.obj
 0001:000475dc       ??$extract_argument_from_va_list@F_J@?$standard_base@DV?$string_output_adapter@D@__crt_stdio_output@@@__crt_stdio_output@@IEAA_NAEA_J@Z 00000001800485dc f i libucrt:output.obj
 0001:000475f0       ??$extract_argument_from_va_list@F_J@?$standard_base@_WV?$stream_output_adapter@_W@__crt_stdio_output@@@__crt_stdio_output@@IEAA_NAEA_J@Z 00000001800485f0 f i libucrt:output.obj
 0001:00047604       ??$extract_argument_from_va_list@F_J@?$standard_base@_WV?$string_output_adapter@_W@__crt_stdio_output@@@__crt_stdio_output@@IEAA_NAEA_J@Z 0000000180048604 f i libucrt:output.obj
 0001:00047618       ??$extract_argument_from_va_list@GD@?$positional_parameter_base@DV?$stream_output_adapter@D@__crt_stdio_output@@@__crt_stdio_output@@IEAA_NAEAD@Z 0000000180048618 f i libucrt:output.obj
 0001:0004771c       ??$extract_argument_from_va_list@GD@?$positional_parameter_base@DV?$string_output_adapter@D@__crt_stdio_output@@@__crt_stdio_output@@IEAA_NAEAD@Z 000000018004871c f i libucrt:output.obj
 0001:00047820       ??$extract_argument_from_va_list@GD@?$standard_base@DV?$stream_output_adapter@D@__crt_stdio_output@@@__crt_stdio_output@@IEAA_NAEAD@Z 0000000180048820 f i libucrt:output.obj
 0001:00047834       ??$extract_argument_from_va_list@GD@?$standard_base@DV?$string_output_adapter@D@__crt_stdio_output@@@__crt_stdio_output@@IEAA_NAEAD@Z 0000000180048834 f i libucrt:output.obj
 0001:00047848       ??$extract_argument_from_va_list@G_J@?$positional_parameter_base@DV?$stream_output_adapter@D@__crt_stdio_output@@@__crt_stdio_output@@IEAA_NAEA_J@Z 0000000180048848 f i libucrt:output.obj
 0001:00047950       ??$extract_argument_from_va_list@G_J@?$positional_parameter_base@DV?$string_output_adapter@D@__crt_stdio_output@@@__crt_stdio_output@@IEAA_NAEA_J@Z 0000000180048950 f i libucrt:output.obj
 0001:00047a58       ??$extract_argument_from_va_list@G_J@?$positional_parameter_base@_WV?$stream_output_adapter@_W@__crt_stdio_output@@@__crt_stdio_output@@IEAA_NAEA_J@Z 0000000180048a58 f i libucrt:output.obj
 0001:00047b60       ??$extract_argument_from_va_list@G_J@?$positional_parameter_base@_WV?$string_output_adapter@_W@__crt_stdio_output@@@__crt_stdio_output@@IEAA_NAEA_J@Z 0000000180048b60 f i libucrt:output.obj
 0001:00047c68       ??$extract_argument_from_va_list@G_J@?$standard_base@DV?$stream_output_adapter@D@__crt_stdio_output@@@__crt_stdio_output@@IEAA_NAEA_J@Z 0000000180048c68 f i libucrt:output.obj
 0001:00047c7c       ??$extract_argument_from_va_list@G_J@?$standard_base@DV?$string_output_adapter@D@__crt_stdio_output@@@__crt_stdio_output@@IEAA_NAEA_J@Z 0000000180048c7c f i libucrt:output.obj
 0001:00047c90       ??$extract_argument_from_va_list@G_J@?$standard_base@_WV?$stream_output_adapter@_W@__crt_stdio_output@@@__crt_stdio_output@@IEAA_NAEA_J@Z 0000000180048c90 f i libucrt:output.obj
 0001:00047ca4       ??$extract_argument_from_va_list@G_J@?$standard_base@_WV?$string_output_adapter@_W@__crt_stdio_output@@@__crt_stdio_output@@IEAA_NAEA_J@Z 0000000180048ca4 f i libucrt:output.obj
 0001:00047cb8       ??$extract_argument_from_va_list@H_J@?$positional_parameter_base@DV?$stream_output_adapter@D@__crt_stdio_output@@@__crt_stdio_output@@IEAA_NAEA_J@Z 0000000180048cb8 f i libucrt:output.obj
 0001:00047dc0       ??$extract_argument_from_va_list@H_J@?$positional_parameter_base@DV?$string_output_adapter@D@__crt_stdio_output@@@__crt_stdio_output@@IEAA_NAEA_J@Z 0000000180048dc0 f i libucrt:output.obj
 0001:00047ec8       ??$extract_argument_from_va_list@H_J@?$positional_parameter_base@_WV?$stream_output_adapter@_W@__crt_stdio_output@@@__crt_stdio_output@@IEAA_NAEA_J@Z 0000000180048ec8 f i libucrt:output.obj
 0001:00047fd0       ??$extract_argument_from_va_list@H_J@?$positional_parameter_base@_WV?$string_output_adapter@_W@__crt_stdio_output@@@__crt_stdio_output@@IEAA_NAEA_J@Z 0000000180048fd0 f i libucrt:output.obj
 0001:000480d8       ??$extract_argument_from_va_list@H_J@?$standard_base@DV?$stream_output_adapter@D@__crt_stdio_output@@@__crt_stdio_output@@IEAA_NAEA_J@Z 00000001800490d8 f i libucrt:output.obj
 0001:000480ec       ??$extract_argument_from_va_list@H_J@?$standard_base@DV?$string_output_adapter@D@__crt_stdio_output@@@__crt_stdio_output@@IEAA_NAEA_J@Z 00000001800490ec f i libucrt:output.obj
 0001:00048100       ??$extract_argument_from_va_list@H_J@?$standard_base@_WV?$stream_output_adapter@_W@__crt_stdio_output@@@__crt_stdio_output@@IEAA_NAEA_J@Z 0000000180049100 f i libucrt:output.obj
 0001:00048114       ??$extract_argument_from_va_list@H_J@?$standard_base@_WV?$string_output_adapter@_W@__crt_stdio_output@@@__crt_stdio_output@@IEAA_NAEA_J@Z 0000000180049114 f i libucrt:output.obj
 0001:00048128       ??$extract_argument_from_va_list@I_J@?$positional_parameter_base@DV?$stream_output_adapter@D@__crt_stdio_output@@@__crt_stdio_output@@IEAA_NAEA_J@Z 0000000180049128 f i libucrt:output.obj
 0001:0004822c       ??$extract_argument_from_va_list@I_J@?$positional_parameter_base@DV?$string_output_adapter@D@__crt_stdio_output@@@__crt_stdio_output@@IEAA_NAEA_J@Z 000000018004922c f i libucrt:output.obj
 0001:00048330       ??$extract_argument_from_va_list@I_J@?$positional_parameter_base@_WV?$stream_output_adapter@_W@__crt_stdio_output@@@__crt_stdio_output@@IEAA_NAEA_J@Z 0000000180049330 f i libucrt:output.obj
 0001:00048438       ??$extract_argument_from_va_list@I_J@?$positional_parameter_base@_WV?$string_output_adapter@_W@__crt_stdio_output@@@__crt_stdio_output@@IEAA_NAEA_J@Z 0000000180049438 f i libucrt:output.obj
 0001:00048540       ??$extract_argument_from_va_list@I_J@?$standard_base@DV?$stream_output_adapter@D@__crt_stdio_output@@@__crt_stdio_output@@IEAA_NAEA_J@Z 0000000180049540 f i libucrt:output.obj
 0001:00048554       ??$extract_argument_from_va_list@I_J@?$standard_base@DV?$string_output_adapter@D@__crt_stdio_output@@@__crt_stdio_output@@IEAA_NAEA_J@Z 0000000180049554 f i libucrt:output.obj
 0001:00048568       ??$extract_argument_from_va_list@I_J@?$standard_base@_WV?$stream_output_adapter@_W@__crt_stdio_output@@@__crt_stdio_output@@IEAA_NAEA_J@Z 0000000180049568 f i libucrt:output.obj
 0001:0004857c       ??$extract_argument_from_va_list@I_J@?$standard_base@_WV?$string_output_adapter@_W@__crt_stdio_output@@@__crt_stdio_output@@IEAA_NAEA_J@Z 000000018004957c f i libucrt:output.obj
 0001:00048590       ??$extract_argument_from_va_list@PEADPEAD@?$positional_parameter_base@DV?$stream_output_adapter@D@__crt_stdio_output@@@__crt_stdio_output@@IEAA_NAEAPEAD@Z 0000000180049590 f i libucrt:output.obj
 0001:00048698       ??$extract_argument_from_va_list@PEADPEAD@?$positional_parameter_base@DV?$string_output_adapter@D@__crt_stdio_output@@@__crt_stdio_output@@IEAA_NAEAPEAD@Z 0000000180049698 f i libucrt:output.obj
 0001:000487a0       ??$extract_argument_from_va_list@PEADPEAD@?$positional_parameter_base@_WV?$stream_output_adapter@_W@__crt_stdio_output@@@__crt_stdio_output@@IEAA_NAEAPEAD@Z 00000001800497a0 f i libucrt:output.obj
 0001:000488a8       ??$extract_argument_from_va_list@PEADPEAD@?$positional_parameter_base@_WV?$string_output_adapter@_W@__crt_stdio_output@@@__crt_stdio_output@@IEAA_NAEAPEAD@Z 00000001800498a8 f i libucrt:output.obj
 0001:000489b0       ??$extract_argument_from_va_list@PEADPEAD@?$standard_base@DV?$stream_output_adapter@D@__crt_stdio_output@@@__crt_stdio_output@@IEAA_NAEAPEAD@Z 00000001800499b0 f i libucrt:output.obj
 0001:000489c4       ??$extract_argument_from_va_list@PEADPEAD@?$standard_base@DV?$string_output_adapter@D@__crt_stdio_output@@@__crt_stdio_output@@IEAA_NAEAPEAD@Z 00000001800499c4 f i libucrt:output.obj
 0001:000489d8       ??$extract_argument_from_va_list@PEADPEAD@?$standard_base@_WV?$stream_output_adapter@_W@__crt_stdio_output@@@__crt_stdio_output@@IEAA_NAEAPEAD@Z 00000001800499d8 f i libucrt:output.obj
 0001:000489ec       ??$extract_argument_from_va_list@PEADPEAD@?$standard_base@_WV?$string_output_adapter@_W@__crt_stdio_output@@@__crt_stdio_output@@IEAA_NAEAPEAD@Z 00000001800499ec f i libucrt:output.obj
 0001:00048a00       ??$extract_argument_from_va_list@PEAUansi_string@?1??type_case_Z@?$output_processor@DV?$stream_output_adapter@D@__crt_stdio_output@@V?$format_validation_base@DV?$stream_output_adapter@D@__crt_stdio_output@@@2@@__crt_stdio_output@@AEAA_NXZ@PEAU1?1??234@AEAA_NXZ@@?$standard_base@DV?$stream_output_adapter@D@__crt_stdio_output@@@__crt_stdio_output@@IEAA_NAEAPEAUansi_string@?1??type_case_Z@?$output_processor@DV?$stream_output_adapter@D@__crt_stdio_output@@V?$format_validation_base@DV?$stream_output_adapter@D@__crt_stdio_output@@@2@@1@AEAA_NXZ@@Z 0000000180049a00 f i libucrt:output.obj
 0001:00048a14       ??$extract_argument_from_va_list@PEAUansi_string@?1??type_case_Z@?$output_processor@DV?$stream_output_adapter@D@__crt_stdio_output@@V?$positional_parameter_base@DV?$stream_output_adapter@D@__crt_stdio_output@@@2@@__crt_stdio_output@@AEAA_NXZ@PEAU1?1??234@AEAA_NXZ@@?$positional_parameter_base@DV?$stream_output_adapter@D@__crt_stdio_output@@@__crt_stdio_output@@IEAA_NAEAPEAUansi_string@?1??type_case_Z@?$output_processor@DV?$stream_output_adapter@D@__crt_stdio_output@@V?$positional_parameter_base@DV?$stream_output_adapter@D@__crt_stdio_output@@@2@@1@AEAA_NXZ@@Z 0000000180049a14 f i libucrt:output.obj
 0001:00048b1c       ??$extract_argument_from_va_list@PEAUansi_string@?1??type_case_Z@?$output_processor@DV?$stream_output_adapter@D@__crt_stdio_output@@V?$positional_parameter_base@DV?$stream_output_adapter@D@__crt_stdio_output@@@2@@__crt_stdio_output@@AEAA_NXZ@PEAU1?1??234@AEAA_NXZ@@?$standard_base@DV?$stream_output_adapter@D@__crt_stdio_output@@@__crt_stdio_output@@IEAA_NAEAPEAUansi_string@?1??type_case_Z@?$output_processor@DV?$stream_output_adapter@D@__crt_stdio_output@@V?$positional_parameter_base@DV?$stream_output_adapter@D@__crt_stdio_output@@@2@@1@AEAA_NXZ@@Z 0000000180049b1c f i libucrt:output.obj
 0001:00048b30       ??$extract_argument_from_va_list@PEAUansi_string@?1??type_case_Z@?$output_processor@DV?$stream_output_adapter@D@__crt_stdio_output@@V?$standard_base@DV?$stream_output_adapter@D@__crt_stdio_output@@@2@@__crt_stdio_output@@AEAA_NXZ@PEAU1?1??234@AEAA_NXZ@@?$standard_base@DV?$stream_output_adapter@D@__crt_stdio_output@@@__crt_stdio_output@@IEAA_NAEAPEAUansi_string@?1??type_case_Z@?$output_processor@DV?$stream_output_adapter@D@__crt_stdio_output@@V?$standard_base@DV?$stream_output_adapter@D@__crt_stdio_output@@@2@@1@AEAA_NXZ@@Z 0000000180049b30 f i libucrt:output.obj
 0001:00048b44       ??$extract_argument_from_va_list@PEAUansi_string@?1??type_case_Z@?$output_processor@DV?$string_output_adapter@D@__crt_stdio_output@@V?$format_validation_base@DV?$string_output_adapter@D@__crt_stdio_output@@@2@@__crt_stdio_output@@AEAA_NXZ@PEAU1?1??234@AEAA_NXZ@@?$standard_base@DV?$string_output_adapter@D@__crt_stdio_output@@@__crt_stdio_output@@IEAA_NAEAPEAUansi_string@?1??type_case_Z@?$output_processor@DV?$string_output_adapter@D@__crt_stdio_output@@V?$format_validation_base@DV?$string_output_adapter@D@__crt_stdio_output@@@2@@1@AEAA_NXZ@@Z 0000000180049b44 f i libucrt:output.obj
 0001:00048b58       ??$extract_argument_from_va_list@PEAUansi_string@?1??type_case_Z@?$output_processor@DV?$string_output_adapter@D@__crt_stdio_output@@V?$positional_parameter_base@DV?$string_output_adapter@D@__crt_stdio_output@@@2@@__crt_stdio_output@@AEAA_NXZ@PEAU1?1??234@AEAA_NXZ@@?$positional_parameter_base@DV?$string_output_adapter@D@__crt_stdio_output@@@__crt_stdio_output@@IEAA_NAEAPEAUansi_string@?1??type_case_Z@?$output_processor@DV?$string_output_adapter@D@__crt_stdio_output@@V?$positional_parameter_base@DV?$string_output_adapter@D@__crt_stdio_output@@@2@@1@AEAA_NXZ@@Z 0000000180049b58 f i libucrt:output.obj
 0001:00048c60       ??$extract_argument_from_va_list@PEAUansi_string@?1??type_case_Z@?$output_processor@DV?$string_output_adapter@D@__crt_stdio_output@@V?$positional_parameter_base@DV?$string_output_adapter@D@__crt_stdio_output@@@2@@__crt_stdio_output@@AEAA_NXZ@PEAU1?1??234@AEAA_NXZ@@?$standard_base@DV?$string_output_adapter@D@__crt_stdio_output@@@__crt_stdio_output@@IEAA_NAEAPEAUansi_string@?1??type_case_Z@?$output_processor@DV?$string_output_adapter@D@__crt_stdio_output@@V?$positional_parameter_base@DV?$string_output_adapter@D@__crt_stdio_output@@@2@@1@AEAA_NXZ@@Z 0000000180049c60 f i libucrt:output.obj
 0001:00048c74       ??$extract_argument_from_va_list@PEAUansi_string@?1??type_case_Z@?$output_processor@DV?$string_output_adapter@D@__crt_stdio_output@@V?$standard_base@DV?$string_output_adapter@D@__crt_stdio_output@@@2@@__crt_stdio_output@@AEAA_NXZ@PEAU1?1??234@AEAA_NXZ@@?$standard_base@DV?$string_output_adapter@D@__crt_stdio_output@@@__crt_stdio_output@@IEAA_NAEAPEAUansi_string@?1??type_case_Z@?$output_processor@DV?$string_output_adapter@D@__crt_stdio_output@@V?$standard_base@DV?$string_output_adapter@D@__crt_stdio_output@@@2@@1@AEAA_NXZ@@Z 0000000180049c74 f i libucrt:output.obj
 0001:00048c88       ??$extract_argument_from_va_list@PEAUansi_string@?1??type_case_Z@?$output_processor@_WV?$stream_output_adapter@_W@__crt_stdio_output@@V?$format_validation_base@_WV?$stream_output_adapter@_W@__crt_stdio_output@@@2@@__crt_stdio_output@@AEAA_NXZ@PEAU1?1??234@AEAA_NXZ@@?$standard_base@_WV?$stream_output_adapter@_W@__crt_stdio_output@@@__crt_stdio_output@@IEAA_NAEAPEAUansi_string@?1??type_case_Z@?$output_processor@_WV?$stream_output_adapter@_W@__crt_stdio_output@@V?$format_validation_base@_WV?$stream_output_adapter@_W@__crt_stdio_output@@@2@@1@AEAA_NXZ@@Z 0000000180049c88 f i libucrt:output.obj
 0001:00048c9c       ??$extract_argument_from_va_list@PEAUansi_string@?1??type_case_Z@?$output_processor@_WV?$stream_output_adapter@_W@__crt_stdio_output@@V?$positional_parameter_base@_WV?$stream_output_adapter@_W@__crt_stdio_output@@@2@@__crt_stdio_output@@AEAA_NXZ@PEAU1?1??234@AEAA_NXZ@@?$positional_parameter_base@_WV?$stream_output_adapter@_W@__crt_stdio_output@@@__crt_stdio_output@@IEAA_NAEAPEAUansi_string@?1??type_case_Z@?$output_processor@_WV?$stream_output_adapter@_W@__crt_stdio_output@@V?$positional_parameter_base@_WV?$stream_output_adapter@_W@__crt_stdio_output@@@2@@1@AEAA_NXZ@@Z 0000000180049c9c f i libucrt:output.obj
 0001:00048da4       ??$extract_argument_from_va_list@PEAUansi_string@?1??type_case_Z@?$output_processor@_WV?$stream_output_adapter@_W@__crt_stdio_output@@V?$positional_parameter_base@_WV?$stream_output_adapter@_W@__crt_stdio_output@@@2@@__crt_stdio_output@@AEAA_NXZ@PEAU1?1??234@AEAA_NXZ@@?$standard_base@_WV?$stream_output_adapter@_W@__crt_stdio_output@@@__crt_stdio_output@@IEAA_NAEAPEAUansi_string@?1??type_case_Z@?$output_processor@_WV?$stream_output_adapter@_W@__crt_stdio_output@@V?$positional_parameter_base@_WV?$stream_output_adapter@_W@__crt_stdio_output@@@2@@1@AEAA_NXZ@@Z 0000000180049da4 f i libucrt:output.obj
 0001:00048db8       ??$extract_argument_from_va_list@PEAUansi_string@?1??type_case_Z@?$output_processor@_WV?$stream_output_adapter@_W@__crt_stdio_output@@V?$standard_base@_WV?$stream_output_adapter@_W@__crt_stdio_output@@@2@@__crt_stdio_output@@AEAA_NXZ@PEAU1?1??234@AEAA_NXZ@@?$standard_base@_WV?$stream_output_adapter@_W@__crt_stdio_output@@@__crt_stdio_output@@IEAA_NAEAPEAUansi_string@?1??type_case_Z@?$output_processor@_WV?$stream_output_adapter@_W@__crt_stdio_output@@V?$standard_base@_WV?$stream_output_adapter@_W@__crt_stdio_output@@@2@@1@AEAA_NXZ@@Z 0000000180049db8 f i libucrt:output.obj
 0001:00048dcc       ??$extract_argument_from_va_list@PEAUansi_string@?1??type_case_Z@?$output_processor@_WV?$string_output_adapter@_W@__crt_stdio_output@@V?$format_validation_base@_WV?$string_output_adapter@_W@__crt_stdio_output@@@2@@__crt_stdio_output@@AEAA_NXZ@PEAU1?1??234@AEAA_NXZ@@?$standard_base@_WV?$string_output_adapter@_W@__crt_stdio_output@@@__crt_stdio_output@@IEAA_NAEAPEAUansi_string@?1??type_case_Z@?$output_processor@_WV?$string_output_adapter@_W@__crt_stdio_output@@V?$format_validation_base@_WV?$string_output_adapter@_W@__crt_stdio_output@@@2@@1@AEAA_NXZ@@Z 0000000180049dcc f i libucrt:output.obj
 0001:00048de0       ??$extract_argument_from_va_list@PEAUansi_string@?1??type_case_Z@?$output_processor@_WV?$string_output_adapter@_W@__crt_stdio_output@@V?$positional_parameter_base@_WV?$string_output_adapter@_W@__crt_stdio_output@@@2@@__crt_stdio_output@@AEAA_NXZ@PEAU1?1??234@AEAA_NXZ@@?$positional_parameter_base@_WV?$string_output_adapter@_W@__crt_stdio_output@@@__crt_stdio_output@@IEAA_NAEAPEAUansi_string@?1??type_case_Z@?$output_processor@_WV?$string_output_adapter@_W@__crt_stdio_output@@V?$positional_parameter_base@_WV?$string_output_adapter@_W@__crt_stdio_output@@@2@@1@AEAA_NXZ@@Z 0000000180049de0 f i libucrt:output.obj
 0001:00048ee8       ??$extract_argument_from_va_list@PEAUansi_string@?1??type_case_Z@?$output_processor@_WV?$string_output_adapter@_W@__crt_stdio_output@@V?$positional_parameter_base@_WV?$string_output_adapter@_W@__crt_stdio_output@@@2@@__crt_stdio_output@@AEAA_NXZ@PEAU1?1??234@AEAA_NXZ@@?$standard_base@_WV?$string_output_adapter@_W@__crt_stdio_output@@@__crt_stdio_output@@IEAA_NAEAPEAUansi_string@?1??type_case_Z@?$output_processor@_WV?$string_output_adapter@_W@__crt_stdio_output@@V?$positional_parameter_base@_WV?$string_output_adapter@_W@__crt_stdio_output@@@2@@1@AEAA_NXZ@@Z 0000000180049ee8 f i libucrt:output.obj
 0001:00048efc       ??$extract_argument_from_va_list@PEAUansi_string@?1??type_case_Z@?$output_processor@_WV?$string_output_adapter@_W@__crt_stdio_output@@V?$standard_base@_WV?$string_output_adapter@_W@__crt_stdio_output@@@2@@__crt_stdio_output@@AEAA_NXZ@PEAU1?1??234@AEAA_NXZ@@?$standard_base@_WV?$string_output_adapter@_W@__crt_stdio_output@@@__crt_stdio_output@@IEAA_NAEAPEAUansi_string@?1??type_case_Z@?$output_processor@_WV?$string_output_adapter@_W@__crt_stdio_output@@V?$standard_base@_WV?$string_output_adapter@_W@__crt_stdio_output@@@2@@1@AEAA_NXZ@@Z 0000000180049efc f i libucrt:output.obj
 0001:00048f10       ??$extract_argument_from_va_list@PEAXPEAX@?$positional_parameter_base@DV?$stream_output_adapter@D@__crt_stdio_output@@@__crt_stdio_output@@IEAA_NAEAPEAX@Z 0000000180049f10 f i libucrt:output.obj
 0001:00049018       ??$extract_argument_from_va_list@PEAXPEAX@?$positional_parameter_base@DV?$string_output_adapter@D@__crt_stdio_output@@@__crt_stdio_output@@IEAA_NAEAPEAX@Z 000000018004a018 f i libucrt:output.obj
 0001:00049120       ??$extract_argument_from_va_list@PEAXPEAX@?$positional_parameter_base@_WV?$stream_output_adapter@_W@__crt_stdio_output@@@__crt_stdio_output@@IEAA_NAEAPEAX@Z 000000018004a120 f i libucrt:output.obj
 0001:00049228       ??$extract_argument_from_va_list@PEAXPEAX@?$positional_parameter_base@_WV?$string_output_adapter@_W@__crt_stdio_output@@@__crt_stdio_output@@IEAA_NAEAPEAX@Z 000000018004a228 f i libucrt:output.obj
 0001:00049330       ??$extract_argument_from_va_list@PEAXPEAX@?$standard_base@DV?$stream_output_adapter@D@__crt_stdio_output@@@__crt_stdio_output@@IEAA_NAEAPEAX@Z 000000018004a330 f i libucrt:output.obj
 0001:00049344       ??$extract_argument_from_va_list@PEAXPEAX@?$standard_base@DV?$string_output_adapter@D@__crt_stdio_output@@@__crt_stdio_output@@IEAA_NAEAPEAX@Z 000000018004a344 f i libucrt:output.obj
 0001:00049358       ??$extract_argument_from_va_list@PEAXPEAX@?$standard_base@_WV?$stream_output_adapter@_W@__crt_stdio_output@@@__crt_stdio_output@@IEAA_NAEAPEAX@Z 000000018004a358 f i libucrt:output.obj
 0001:0004936c       ??$extract_argument_from_va_list@PEAXPEAX@?$standard_base@_WV?$string_output_adapter@_W@__crt_stdio_output@@@__crt_stdio_output@@IEAA_NAEAPEAX@Z 000000018004a36c f i libucrt:output.obj
 0001:00049380       ??$extract_argument_from_va_list@U_CRT_DOUBLE@@U1@@?$positional_parameter_base@DV?$stream_output_adapter@D@__crt_stdio_output@@@__crt_stdio_output@@IEAA_NAEAU_CRT_DOUBLE@@@Z 000000018004a380 f i libucrt:output.obj
 0001:00049488       ??$extract_argument_from_va_list@U_CRT_DOUBLE@@U1@@?$positional_parameter_base@DV?$string_output_adapter@D@__crt_stdio_output@@@__crt_stdio_output@@IEAA_NAEAU_CRT_DOUBLE@@@Z 000000018004a488 f i libucrt:output.obj
 0001:00049590       ??$extract_argument_from_va_list@U_CRT_DOUBLE@@U1@@?$positional_parameter_base@_WV?$stream_output_adapter@_W@__crt_stdio_output@@@__crt_stdio_output@@IEAA_NAEAU_CRT_DOUBLE@@@Z 000000018004a590 f i libucrt:output.obj
 0001:00049698       ??$extract_argument_from_va_list@U_CRT_DOUBLE@@U1@@?$positional_parameter_base@_WV?$string_output_adapter@_W@__crt_stdio_output@@@__crt_stdio_output@@IEAA_NAEAU_CRT_DOUBLE@@@Z 000000018004a698 f i libucrt:output.obj
 0001:000497a0       ??$extract_argument_from_va_list@U_CRT_DOUBLE@@U1@@?$standard_base@DV?$stream_output_adapter@D@__crt_stdio_output@@@__crt_stdio_output@@IEAA_NAEAU_CRT_DOUBLE@@@Z 000000018004a7a0 f i libucrt:output.obj
 0001:000497b8       ??$extract_argument_from_va_list@U_CRT_DOUBLE@@U1@@?$standard_base@DV?$string_output_adapter@D@__crt_stdio_output@@@__crt_stdio_output@@IEAA_NAEAU_CRT_DOUBLE@@@Z 000000018004a7b8 f i libucrt:output.obj
 0001:000497d0       ??$extract_argument_from_va_list@U_CRT_DOUBLE@@U1@@?$standard_base@_WV?$stream_output_adapter@_W@__crt_stdio_output@@@__crt_stdio_output@@IEAA_NAEAU_CRT_DOUBLE@@@Z 000000018004a7d0 f i libucrt:output.obj
 0001:000497e8       ??$extract_argument_from_va_list@U_CRT_DOUBLE@@U1@@?$standard_base@_WV?$string_output_adapter@_W@__crt_stdio_output@@@__crt_stdio_output@@IEAA_NAEAU_CRT_DOUBLE@@@Z 000000018004a7e8 f i libucrt:output.obj
 0001:00049800       ??$extract_argument_from_va_list@_J_J@?$positional_parameter_base@DV?$stream_output_adapter@D@__crt_stdio_output@@@__crt_stdio_output@@IEAA_NAEA_J@Z 000000018004a800 f i libucrt:output.obj
 0001:00049908       ??$extract_argument_from_va_list@_J_J@?$positional_parameter_base@DV?$string_output_adapter@D@__crt_stdio_output@@@__crt_stdio_output@@IEAA_NAEA_J@Z 000000018004a908 f i libucrt:output.obj
 0001:00049a10       ??$extract_argument_from_va_list@_J_J@?$positional_parameter_base@_WV?$stream_output_adapter@_W@__crt_stdio_output@@@__crt_stdio_output@@IEAA_NAEA_J@Z 000000018004aa10 f i libucrt:output.obj
 0001:00049b18       ??$extract_argument_from_va_list@_J_J@?$positional_parameter_base@_WV?$string_output_adapter@_W@__crt_stdio_output@@@__crt_stdio_output@@IEAA_NAEA_J@Z 000000018004ab18 f i libucrt:output.obj
 0001:00049c20       ??$extract_argument_from_va_list@_J_J@?$standard_base@DV?$stream_output_adapter@D@__crt_stdio_output@@@__crt_stdio_output@@IEAA_NAEA_J@Z 000000018004ac20 f i libucrt:output.obj
 0001:00049c34       ??$extract_argument_from_va_list@_J_J@?$standard_base@DV?$string_output_adapter@D@__crt_stdio_output@@@__crt_stdio_output@@IEAA_NAEA_J@Z 000000018004ac34 f i libucrt:output.obj
 0001:00049c48       ??$extract_argument_from_va_list@_J_J@?$standard_base@_WV?$stream_output_adapter@_W@__crt_stdio_output@@@__crt_stdio_output@@IEAA_NAEA_J@Z 000000018004ac48 f i libucrt:output.obj
 0001:00049c5c       ??$extract_argument_from_va_list@_J_J@?$standard_base@_WV?$string_output_adapter@_W@__crt_stdio_output@@@__crt_stdio_output@@IEAA_NAEA_J@Z 000000018004ac5c f i libucrt:output.obj
 0001:00049c70       ??$extract_argument_from_va_list@_K_J@?$positional_parameter_base@DV?$stream_output_adapter@D@__crt_stdio_output@@@__crt_stdio_output@@IEAA_NAEA_J@Z 000000018004ac70 f i libucrt:output.obj
 0001:00049d78       ??$extract_argument_from_va_list@_K_J@?$positional_parameter_base@DV?$string_output_adapter@D@__crt_stdio_output@@@__crt_stdio_output@@IEAA_NAEA_J@Z 000000018004ad78 f i libucrt:output.obj
 0001:00049e80       ??$extract_argument_from_va_list@_K_J@?$positional_parameter_base@_WV?$stream_output_adapter@_W@__crt_stdio_output@@@__crt_stdio_output@@IEAA_NAEA_J@Z 000000018004ae80 f i libucrt:output.obj
 0001:00049f88       ??$extract_argument_from_va_list@_K_J@?$positional_parameter_base@_WV?$string_output_adapter@_W@__crt_stdio_output@@@__crt_stdio_output@@IEAA_NAEA_J@Z 000000018004af88 f i libucrt:output.obj
 0001:0004a090       ??$extract_argument_from_va_list@_K_J@?$standard_base@DV?$stream_output_adapter@D@__crt_stdio_output@@@__crt_stdio_output@@IEAA_NAEA_J@Z 000000018004b090 f i libucrt:output.obj
 0001:0004a0a4       ??$extract_argument_from_va_list@_K_J@?$standard_base@DV?$string_output_adapter@D@__crt_stdio_output@@@__crt_stdio_output@@IEAA_NAEA_J@Z 000000018004b0a4 f i libucrt:output.obj
 0001:0004a0b8       ??$extract_argument_from_va_list@_K_J@?$standard_base@_WV?$stream_output_adapter@_W@__crt_stdio_output@@@__crt_stdio_output@@IEAA_NAEA_J@Z 000000018004b0b8 f i libucrt:output.obj
 0001:0004a0cc       ??$extract_argument_from_va_list@_K_J@?$standard_base@_WV?$string_output_adapter@_W@__crt_stdio_output@@@__crt_stdio_output@@IEAA_NAEA_J@Z 000000018004b0cc f i libucrt:output.obj
 0001:0004a0e0       ??$extract_argument_from_va_list@_W_W@?$positional_parameter_base@DV?$stream_output_adapter@D@__crt_stdio_output@@@__crt_stdio_output@@IEAA_NAEA_W@Z 000000018004b0e0 f i libucrt:output.obj
 0001:0004a1e8       ??$extract_argument_from_va_list@_W_W@?$positional_parameter_base@DV?$string_output_adapter@D@__crt_stdio_output@@@__crt_stdio_output@@IEAA_NAEA_W@Z 000000018004b1e8 f i libucrt:output.obj
 0001:0004a2f0       ??$extract_argument_from_va_list@_W_W@?$positional_parameter_base@_WV?$stream_output_adapter@_W@__crt_stdio_output@@@__crt_stdio_output@@IEAA_NAEA_W@Z 000000018004b2f0 f i libucrt:output.obj
 0001:0004a3fc       ??$extract_argument_from_va_list@_W_W@?$positional_parameter_base@_WV?$string_output_adapter@_W@__crt_stdio_output@@@__crt_stdio_output@@IEAA_NAEA_W@Z 000000018004b3fc f i libucrt:output.obj
 0001:0004a508       ??$extract_argument_from_va_list@_W_W@?$standard_base@DV?$stream_output_adapter@D@__crt_stdio_output@@@__crt_stdio_output@@IEAA_NAEA_W@Z 000000018004b508 f i libucrt:output.obj
 0001:0004a51c       ??$extract_argument_from_va_list@_W_W@?$standard_base@DV?$string_output_adapter@D@__crt_stdio_output@@@__crt_stdio_output@@IEAA_NAEA_W@Z 000000018004b51c f i libucrt:output.obj
 0001:0004a530       ??$extract_argument_from_va_list@_W_W@?$standard_base@_WV?$stream_output_adapter@_W@__crt_stdio_output@@@__crt_stdio_output@@IEAA_NAEA_W@Z 000000018004b530 f i libucrt:output.obj
 0001:0004a544       ??$extract_argument_from_va_list@_W_W@?$standard_base@_WV?$string_output_adapter@_W@__crt_stdio_output@@@__crt_stdio_output@@IEAA_NAEA_W@Z 000000018004b544 f i libucrt:output.obj
 0001:0004a558       ??$get_parameter_type@D@?$positional_parameter_base@DV?$stream_output_adapter@D@__crt_stdio_output@@@__crt_stdio_output@@CA?AW4parameter_type@01@PEAD@Z 000000018004b558 f i libucrt:output.obj
 0001:0004a560       ??$get_parameter_type@D@?$positional_parameter_base@DV?$string_output_adapter@D@__crt_stdio_output@@@__crt_stdio_output@@CA?AW4parameter_type@01@PEAD@Z 000000018004b560 f i libucrt:output.obj
 0001:0004a568       ??$get_parameter_type@D@?$positional_parameter_base@_WV?$stream_output_adapter@_W@__crt_stdio_output@@@__crt_stdio_output@@CA?AW4parameter_type@01@PEAD@Z 000000018004b568 f i libucrt:output.obj
 0001:0004a570       ??$get_parameter_type@D@?$positional_parameter_base@_WV?$string_output_adapter@_W@__crt_stdio_output@@@__crt_stdio_output@@CA?AW4parameter_type@01@PEAD@Z 000000018004b570 f i libucrt:output.obj
 0001:0004a578       ??$get_parameter_type@Uansi_string@?1??type_case_Z@?$output_processor@DV?$stream_output_adapter@D@__crt_stdio_output@@V?$positional_parameter_base@DV?$stream_output_adapter@D@__crt_stdio_output@@@2@@__crt_stdio_output@@AEAA_NXZ@@?$positional_parameter_base@DV?$stream_output_adapter@D@__crt_stdio_output@@@__crt_stdio_output@@CA?AW4parameter_type@01@PEAUansi_string@?1??type_case_Z@?$output_processor@DV?$stream_output_adapter@D@__crt_stdio_output@@V?$positional_parameter_base@DV?$stream_output_adapter@D@__crt_stdio_output@@@2@@1@AEAA_NXZ@@Z 000000018004b578 f i libucrt:output.obj
 0001:0004a580       ??$get_parameter_type@Uansi_string@?1??type_case_Z@?$output_processor@DV?$string_output_adapter@D@__crt_stdio_output@@V?$positional_parameter_base@DV?$string_output_adapter@D@__crt_stdio_output@@@2@@__crt_stdio_output@@AEAA_NXZ@@?$positional_parameter_base@DV?$string_output_adapter@D@__crt_stdio_output@@@__crt_stdio_output@@CA?AW4parameter_type@01@PEAUansi_string@?1??type_case_Z@?$output_processor@DV?$string_output_adapter@D@__crt_stdio_output@@V?$positional_parameter_base@DV?$string_output_adapter@D@__crt_stdio_output@@@2@@1@AEAA_NXZ@@Z 000000018004b580 f i libucrt:output.obj
 0001:0004a588       ??$get_parameter_type@Uansi_string@?1??type_case_Z@?$output_processor@_WV?$stream_output_adapter@_W@__crt_stdio_output@@V?$positional_parameter_base@_WV?$stream_output_adapter@_W@__crt_stdio_output@@@2@@__crt_stdio_output@@AEAA_NXZ@@?$positional_parameter_base@_WV?$stream_output_adapter@_W@__crt_stdio_output@@@__crt_stdio_output@@CA?AW4parameter_type@01@PEAUansi_string@?1??type_case_Z@?$output_processor@_WV?$stream_output_adapter@_W@__crt_stdio_output@@V?$positional_parameter_base@_WV?$stream_output_adapter@_W@__crt_stdio_output@@@2@@1@AEAA_NXZ@@Z 000000018004b588 f i libucrt:output.obj
 0001:0004a590       ??$get_parameter_type@Uansi_string@?1??type_case_Z@?$output_processor@_WV?$string_output_adapter@_W@__crt_stdio_output@@V?$positional_parameter_base@_WV?$string_output_adapter@_W@__crt_stdio_output@@@2@@__crt_stdio_output@@AEAA_NXZ@@?$positional_parameter_base@_WV?$string_output_adapter@_W@__crt_stdio_output@@@__crt_stdio_output@@CA?AW4parameter_type@01@PEAUansi_string@?1??type_case_Z@?$output_processor@_WV?$string_output_adapter@_W@__crt_stdio_output@@V?$positional_parameter_base@_WV?$string_output_adapter@_W@__crt_stdio_output@@@2@@1@AEAA_NXZ@@Z 000000018004b590 f i libucrt:output.obj
 0001:0004a598       ??$get_parameter_type@X@?$positional_parameter_base@DV?$stream_output_adapter@D@__crt_stdio_output@@@__crt_stdio_output@@CA?AW4parameter_type@01@PEAX@Z 000000018004b598 f i libucrt:output.obj
 0001:0004a5a0       ??$get_parameter_type@X@?$positional_parameter_base@DV?$string_output_adapter@D@__crt_stdio_output@@@__crt_stdio_output@@CA?AW4parameter_type@01@PEAX@Z 000000018004b5a0 f i libucrt:output.obj
 0001:0004a5a8       ??$get_parameter_type@X@?$positional_parameter_base@_WV?$stream_output_adapter@_W@__crt_stdio_output@@@__crt_stdio_output@@CA?AW4parameter_type@01@PEAX@Z 000000018004b5a8 f i libucrt:output.obj
 0001:0004a5b0       ??$get_parameter_type@X@?$positional_parameter_base@_WV?$string_output_adapter@_W@__crt_stdio_output@@@__crt_stdio_output@@CA?AW4parameter_type@01@PEAX@Z 000000018004b5b0 f i libucrt:output.obj
 0001:0004a5b8       ??$is_character_specifier@D@?$positional_parameter_base@DV?$stream_output_adapter@D@__crt_stdio_output@@@__crt_stdio_output@@CA_ND@Z 000000018004b5b8 f i libucrt:output.obj
 0001:0004a5c4       ??$is_character_specifier@D@?$positional_parameter_base@DV?$string_output_adapter@D@__crt_stdio_output@@@__crt_stdio_output@@CA_ND@Z 000000018004b5c4 f i libucrt:output.obj
 0001:0004a5d0       ??$is_character_specifier@_W@?$positional_parameter_base@_WV?$stream_output_adapter@_W@__crt_stdio_output@@@__crt_stdio_output@@CA_N_W@Z 000000018004b5d0 f i libucrt:output.obj
 0001:0004a5e0       ??$is_character_specifier@_W@?$positional_parameter_base@_WV?$string_output_adapter@_W@__crt_stdio_output@@@__crt_stdio_output@@CA_N_W@Z 000000018004b5e0 f i libucrt:output.obj
 0001:0004a5f0       ??$is_integral_specifier@D@?$positional_parameter_base@DV?$stream_output_adapter@D@__crt_stdio_output@@@__crt_stdio_output@@CA_ND@Z 000000018004b5f0 f i libucrt:output.obj
 0001:0004a614       ??$is_integral_specifier@D@?$positional_parameter_base@DV?$string_output_adapter@D@__crt_stdio_output@@@__crt_stdio_output@@CA_ND@Z 000000018004b614 f i libucrt:output.obj
 0001:0004a638       ??$is_integral_specifier@_W@?$positional_parameter_base@_WV?$stream_output_adapter@_W@__crt_stdio_output@@@__crt_stdio_output@@CA_N_W@Z 000000018004b638 f i libucrt:output.obj
 0001:0004a660       ??$is_integral_specifier@_W@?$positional_parameter_base@_WV?$string_output_adapter@_W@__crt_stdio_output@@@__crt_stdio_output@@CA_N_W@Z 000000018004b660 f i libucrt:output.obj
 0001:0004a688       ??$is_overflow_condition@K@__crt_strtox@@YA_NIK@Z 000000018004b688 f i libucrt:output.obj
 0001:0004a6ac       ??$is_pointer_specifier@D@?$positional_parameter_base@DV?$stream_output_adapter@D@__crt_stdio_output@@@__crt_stdio_output@@CA_ND@Z 000000018004b6ac f i libucrt:output.obj
 0001:0004a6b4       ??$is_pointer_specifier@D@?$positional_parameter_base@DV?$string_output_adapter@D@__crt_stdio_output@@@__crt_stdio_output@@CA_ND@Z 000000018004b6b4 f i libucrt:output.obj
 0001:0004a6bc       ??$is_pointer_specifier@_W@?$positional_parameter_base@_WV?$stream_output_adapter@_W@__crt_stdio_output@@@__crt_stdio_output@@CA_N_W@Z 000000018004b6bc f i libucrt:output.obj
 0001:0004a6c4       ??$is_pointer_specifier@_W@?$positional_parameter_base@_WV?$string_output_adapter@_W@__crt_stdio_output@@@__crt_stdio_output@@CA_N_W@Z 000000018004b6c4 f i libucrt:output.obj
 0001:0004a6cc       ??$is_string_specifier@D@?$positional_parameter_base@DV?$stream_output_adapter@D@__crt_stdio_output@@@__crt_stdio_output@@CA_ND@Z 000000018004b6cc f i libucrt:output.obj
 0001:0004a6d8       ??$is_string_specifier@D@?$positional_parameter_base@DV?$string_output_adapter@D@__crt_stdio_output@@@__crt_stdio_output@@CA_ND@Z 000000018004b6d8 f i libucrt:output.obj
 0001:0004a6e4       ??$is_string_specifier@_W@?$positional_parameter_base@_WV?$stream_output_adapter@_W@__crt_stdio_output@@@__crt_stdio_output@@CA_N_W@Z 000000018004b6e4 f i libucrt:output.obj
 0001:0004a6f4       ??$is_string_specifier@_W@?$positional_parameter_base@_WV?$string_output_adapter@_W@__crt_stdio_output@@@__crt_stdio_output@@CA_N_W@Z 000000018004b6f4 f i libucrt:output.obj
 0001:0004a704       ??$is_wide_character_specifier@D@__crt_stdio_output@@YA_N_KDW4length_modifier@0@@Z 000000018004b704 f i libucrt:output.obj
 0001:0004a72c       ??$is_wide_character_specifier@_W@__crt_stdio_output@@YA_N_K_WW4length_modifier@0@@Z 000000018004b72c f i libucrt:output.obj
 0001:0004a76c       ??$make_c_string_character_source@DPEAPEAD@__crt_strtox@@YA?AV?$c_string_character_source@D@0@QEBDQEAPEAD@Z 000000018004b76c f i libucrt:output.obj
 0001:0004a780       ??$make_c_string_character_source@_WPEAPEA_W@__crt_strtox@@YA?AV?$c_string_character_source@_W@0@QEB_WQEAPEA_W@Z 000000018004b780 f i libucrt:output.obj
 0001:0004a794       ??$parse_integer@KV?$c_string_character_source@D@__crt_strtox@@$0A@@__crt_strtox@@YAKAEAV__crt_cached_ptd_host@@V?$c_string_character_source@D@0@H_N@Z 000000018004b794 f i libucrt:output.obj
 0001:0004aa44       ??$parse_integer@KV?$c_string_character_source@_W@__crt_strtox@@$0A@@__crt_strtox@@YAKAEAV__crt_cached_ptd_host@@V?$c_string_character_source@_W@0@H_N@Z 000000018004ba44 f i libucrt:output.obj
 0001:0004b19c       ??$peek_va_arg@C@__crt_stdio_output@@YACPEAD@Z 000000018004c19c f i libucrt:output.obj
 0001:0004b1a0       ??$peek_va_arg@E@__crt_stdio_output@@YAEPEAD@Z 000000018004c1a0 f i libucrt:output.obj
 0001:0004b1a4       ??$peek_va_arg@F@__crt_stdio_output@@YAFPEAD@Z 000000018004c1a4 f i libucrt:output.obj
 0001:0004b1a8       ??$peek_va_arg@G@__crt_stdio_output@@YAGPEAD@Z 000000018004c1a8 f i libucrt:output.obj
 0001:0004b1ac       ??$peek_va_arg@H@__crt_stdio_output@@YAHPEAD@Z 000000018004c1ac f i libucrt:output.obj
 0001:0004b1b0       ??$peek_va_arg@I@__crt_stdio_output@@YAIPEAD@Z 000000018004c1b0 f i libucrt:output.obj
 0001:0004b1b4       ??$peek_va_arg@PEAD@__crt_stdio_output@@YAPEADPEAD@Z 000000018004c1b4 f i libucrt:output.obj
 0001:0004b1b8       ??$peek_va_arg@PEAUansi_string@?1??type_case_Z@?$output_processor@DV?$stream_output_adapter@D@__crt_stdio_output@@V?$positional_parameter_base@DV?$stream_output_adapter@D@__crt_stdio_output@@@2@@__crt_stdio_output@@AEAA_NXZ@@__crt_stdio_output@@YAPEAUansi_string@?1??type_case_Z@?$output_processor@DV?$stream_output_adapter@D@__crt_stdio_output@@V?$positional_parameter_base@DV?$stream_output_adapter@D@__crt_stdio_output@@@2@@0@AEAA_NXZ@PEAD@Z 000000018004c1b8 f i libucrt:output.obj
 0001:0004b1bc       ??$peek_va_arg@PEAUansi_string@?1??type_case_Z@?$output_processor@DV?$string_output_adapter@D@__crt_stdio_output@@V?$positional_parameter_base@DV?$string_output_adapter@D@__crt_stdio_output@@@2@@__crt_stdio_output@@AEAA_NXZ@@__crt_stdio_output@@YAPEAUansi_string@?1??type_case_Z@?$output_processor@DV?$string_output_adapter@D@__crt_stdio_output@@V?$positional_parameter_base@DV?$string_output_adapter@D@__crt_stdio_output@@@2@@0@AEAA_NXZ@PEAD@Z 000000018004c1bc f i libucrt:output.obj
 0001:0004b1c0       ??$peek_va_arg@PEAUansi_string@?1??type_case_Z@?$output_processor@_WV?$stream_output_adapter@_W@__crt_stdio_output@@V?$positional_parameter_base@_WV?$stream_output_adapter@_W@__crt_stdio_output@@@2@@__crt_stdio_output@@AEAA_NXZ@@__crt_stdio_output@@YAPEAUansi_string@?1??type_case_Z@?$output_processor@_WV?$stream_output_adapter@_W@__crt_stdio_output@@V?$positional_parameter_base@_WV?$stream_output_adapter@_W@__crt_stdio_output@@@2@@0@AEAA_NXZ@PEAD@Z 000000018004c1c0 f i libucrt:output.obj
 0001:0004b1c4       ??$peek_va_arg@PEAUansi_string@?1??type_case_Z@?$output_processor@_WV?$string_output_adapter@_W@__crt_stdio_output@@V?$positional_parameter_base@_WV?$string_output_adapter@_W@__crt_stdio_output@@@2@@__crt_stdio_output@@AEAA_NXZ@@__crt_stdio_output@@YAPEAUansi_string@?1??type_case_Z@?$output_processor@_WV?$string_output_adapter@_W@__crt_stdio_output@@V?$positional_parameter_base@_WV?$string_output_adapter@_W@__crt_stdio_output@@@2@@0@AEAA_NXZ@PEAD@Z 000000018004c1c4 f i libucrt:output.obj
 0001:0004b1c8       ??$peek_va_arg@PEAX@__crt_stdio_output@@YAPEAXPEAD@Z 000000018004c1c8 f i libucrt:output.obj
 0001:0004b1cc       ??$peek_va_arg@U_CRT_DOUBLE@@@__crt_stdio_output@@YA?AU_CRT_DOUBLE@@PEAD@Z 000000018004c1cc f i libucrt:output.obj
 0001:0004b1d0       ??$peek_va_arg@_J@__crt_stdio_output@@YA_JPEAD@Z 000000018004c1d0 f i libucrt:output.obj
 0001:0004b1d4       ??$peek_va_arg@_K@__crt_stdio_output@@YA_KPEAD@Z 000000018004c1d4 f i libucrt:output.obj
 0001:0004b1d8       ??$peek_va_arg@_W@__crt_stdio_output@@YA_WPEAD@Z 000000018004c1d8 f i libucrt:output.obj
 0001:0004b1dc       ??$puttc_nolock_internal@AEBDPEAU_iobuf@@AEAV__crt_cached_ptd_host@@@?$__crt_char_traits@D@@SAHAEBD$$QEAPEAU_iobuf@@AEAV__crt_cached_ptd_host@@@Z 000000018004c1dc f i libucrt:output.obj
 0001:0004b1e8       ??$puttc_nolock_internal@AEB_WPEAU_iobuf@@AEAV__crt_cached_ptd_host@@@?$__crt_char_traits@_W@@SAGAEB_W$$QEAPEAU_iobuf@@AEAV__crt_cached_ptd_host@@@Z 000000018004c1e8 f i libucrt:output.obj
 0001:0004b1f4       ??$read_va_arg@C@__crt_stdio_output@@YACAEAPEAD@Z 000000018004c1f4 f i libucrt:output.obj
 0001:0004b200       ??$read_va_arg@E@__crt_stdio_output@@YAEAEAPEAD@Z 000000018004c200 f i libucrt:output.obj
 0001:0004b20c       ??$read_va_arg@F@__crt_stdio_output@@YAFAEAPEAD@Z 000000018004c20c f i libucrt:output.obj
 0001:0004b218       ??$read_va_arg@G@__crt_stdio_output@@YAGAEAPEAD@Z 000000018004c218 f i libucrt:output.obj
 0001:0004b224       ??$read_va_arg@H@__crt_stdio_output@@YAHAEAPEAD@Z 000000018004c224 f i libucrt:output.obj
 0001:0004b230       ??$read_va_arg@I@__crt_stdio_output@@YAIAEAPEAD@Z 000000018004c230 f i libucrt:output.obj
 0001:0004b23c       ??$read_va_arg@PEAD@__crt_stdio_output@@YAPEADAEAPEAD@Z 000000018004c23c f i libucrt:output.obj
 0001:0004b248       ??$read_va_arg@PEAUansi_string@?1??type_case_Z@?$output_processor@DV?$stream_output_adapter@D@__crt_stdio_output@@V?$format_validation_base@DV?$stream_output_adapter@D@__crt_stdio_output@@@2@@__crt_stdio_output@@AEAA_NXZ@@__crt_stdio_output@@YAPEAUansi_string@?1??type_case_Z@?$output_processor@DV?$stream_output_adapter@D@__crt_stdio_output@@V?$format_validation_base@DV?$stream_output_adapter@D@__crt_stdio_output@@@2@@0@AEAA_NXZ@AEAPEAD@Z 000000018004c248 f i libucrt:output.obj
 0001:0004b254       ??$read_va_arg@PEAUansi_string@?1??type_case_Z@?$output_processor@DV?$stream_output_adapter@D@__crt_stdio_output@@V?$positional_parameter_base@DV?$stream_output_adapter@D@__crt_stdio_output@@@2@@__crt_stdio_output@@AEAA_NXZ@@__crt_stdio_output@@YAPEAUansi_string@?1??type_case_Z@?$output_processor@DV?$stream_output_adapter@D@__crt_stdio_output@@V?$positional_parameter_base@DV?$stream_output_adapter@D@__crt_stdio_output@@@2@@0@AEAA_NXZ@AEAPEAD@Z 000000018004c254 f i libucrt:output.obj
 0001:0004b260       ??$read_va_arg@PEAUansi_string@?1??type_case_Z@?$output_processor@DV?$stream_output_adapter@D@__crt_stdio_output@@V?$standard_base@DV?$stream_output_adapter@D@__crt_stdio_output@@@2@@__crt_stdio_output@@AEAA_NXZ@@__crt_stdio_output@@YAPEAUansi_string@?1??type_case_Z@?$output_processor@DV?$stream_output_adapter@D@__crt_stdio_output@@V?$standard_base@DV?$stream_output_adapter@D@__crt_stdio_output@@@2@@0@AEAA_NXZ@AEAPEAD@Z 000000018004c260 f i libucrt:output.obj
 0001:0004b26c       ??$read_va_arg@PEAUansi_string@?1??type_case_Z@?$output_processor@DV?$string_output_adapter@D@__crt_stdio_output@@V?$format_validation_base@DV?$string_output_adapter@D@__crt_stdio_output@@@2@@__crt_stdio_output@@AEAA_NXZ@@__crt_stdio_output@@YAPEAUansi_string@?1??type_case_Z@?$output_processor@DV?$string_output_adapter@D@__crt_stdio_output@@V?$format_validation_base@DV?$string_output_adapter@D@__crt_stdio_output@@@2@@0@AEAA_NXZ@AEAPEAD@Z 000000018004c26c f i libucrt:output.obj
 0001:0004b278       ??$read_va_arg@PEAUansi_string@?1??type_case_Z@?$output_processor@DV?$string_output_adapter@D@__crt_stdio_output@@V?$positional_parameter_base@DV?$string_output_adapter@D@__crt_stdio_output@@@2@@__crt_stdio_output@@AEAA_NXZ@@__crt_stdio_output@@YAPEAUansi_string@?1??type_case_Z@?$output_processor@DV?$string_output_adapter@D@__crt_stdio_output@@V?$positional_parameter_base@DV?$string_output_adapter@D@__crt_stdio_output@@@2@@0@AEAA_NXZ@AEAPEAD@Z 000000018004c278 f i libucrt:output.obj
 0001:0004b284       ??$read_va_arg@PEAUansi_string@?1??type_case_Z@?$output_processor@DV?$string_output_adapter@D@__crt_stdio_output@@V?$standard_base@DV?$string_output_adapter@D@__crt_stdio_output@@@2@@__crt_stdio_output@@AEAA_NXZ@@__crt_stdio_output@@YAPEAUansi_string@?1??type_case_Z@?$output_processor@DV?$string_output_adapter@D@__crt_stdio_output@@V?$standard_base@DV?$string_output_adapter@D@__crt_stdio_output@@@2@@0@AEAA_NXZ@AEAPEAD@Z 000000018004c284 f i libucrt:output.obj
 0001:0004b290       ??$read_va_arg@PEAUansi_string@?1??type_case_Z@?$output_processor@_WV?$stream_output_adapter@_W@__crt_stdio_output@@V?$format_validation_base@_WV?$stream_output_adapter@_W@__crt_stdio_output@@@2@@__crt_stdio_output@@AEAA_NXZ@@__crt_stdio_output@@YAPEAUansi_string@?1??type_case_Z@?$output_processor@_WV?$stream_output_adapter@_W@__crt_stdio_output@@V?$format_validation_base@_WV?$stream_output_adapter@_W@__crt_stdio_output@@@2@@0@AEAA_NXZ@AEAPEAD@Z 000000018004c290 f i libucrt:output.obj
 0001:0004b29c       ??$read_va_arg@PEAUansi_string@?1??type_case_Z@?$output_processor@_WV?$stream_output_adapter@_W@__crt_stdio_output@@V?$positional_parameter_base@_WV?$stream_output_adapter@_W@__crt_stdio_output@@@2@@__crt_stdio_output@@AEAA_NXZ@@__crt_stdio_output@@YAPEAUansi_string@?1??type_case_Z@?$output_processor@_WV?$stream_output_adapter@_W@__crt_stdio_output@@V?$positional_parameter_base@_WV?$stream_output_adapter@_W@__crt_stdio_output@@@2@@0@AEAA_NXZ@AEAPEAD@Z 000000018004c29c f i libucrt:output.obj
 0001:0004b2a8       ??$read_va_arg@PEAUansi_string@?1??type_case_Z@?$output_processor@_WV?$stream_output_adapter@_W@__crt_stdio_output@@V?$standard_base@_WV?$stream_output_adapter@_W@__crt_stdio_output@@@2@@__crt_stdio_output@@AEAA_NXZ@@__crt_stdio_output@@YAPEAUansi_string@?1??type_case_Z@?$output_processor@_WV?$stream_output_adapter@_W@__crt_stdio_output@@V?$standard_base@_WV?$stream_output_adapter@_W@__crt_stdio_output@@@2@@0@AEAA_NXZ@AEAPEAD@Z 000000018004c2a8 f i libucrt:output.obj
 0001:0004b2b4       ??$read_va_arg@PEAUansi_string@?1??type_case_Z@?$output_processor@_WV?$string_output_adapter@_W@__crt_stdio_output@@V?$format_validation_base@_WV?$string_output_adapter@_W@__crt_stdio_output@@@2@@__crt_stdio_output@@AEAA_NXZ@@__crt_stdio_output@@YAPEAUansi_string@?1??type_case_Z@?$output_processor@_WV?$string_output_adapter@_W@__crt_stdio_output@@V?$format_validation_base@_WV?$string_output_adapter@_W@__crt_stdio_output@@@2@@0@AEAA_NXZ@AEAPEAD@Z 000000018004c2b4 f i libucrt:output.obj
 0001:0004b2c0       ??$read_va_arg@PEAUansi_string@?1??type_case_Z@?$output_processor@_WV?$string_output_adapter@_W@__crt_stdio_output@@V?$positional_parameter_base@_WV?$string_output_adapter@_W@__crt_stdio_output@@@2@@__crt_stdio_output@@AEAA_NXZ@@__crt_stdio_output@@YAPEAUansi_string@?1??type_case_Z@?$output_processor@_WV?$string_output_adapter@_W@__crt_stdio_output@@V?$positional_parameter_base@_WV?$string_output_adapter@_W@__crt_stdio_output@@@2@@0@AEAA_NXZ@AEAPEAD@Z 000000018004c2c0 f i libucrt:output.obj
 0001:0004b2cc       ??$read_va_arg@PEAUansi_string@?1??type_case_Z@?$output_processor@_WV?$string_output_adapter@_W@__crt_stdio_output@@V?$standard_base@_WV?$string_output_adapter@_W@__crt_stdio_output@@@2@@__crt_stdio_output@@AEAA_NXZ@@__crt_stdio_output@@YAPEAUansi_string@?1??type_case_Z@?$output_processor@_WV?$string_output_adapter@_W@__crt_stdio_output@@V?$standard_base@_WV?$string_output_adapter@_W@__crt_stdio_output@@@2@@0@AEAA_NXZ@AEAPEAD@Z 000000018004c2cc f i libucrt:output.obj
 0001:0004b2d8       ??$read_va_arg@PEAX@__crt_stdio_output@@YAPEAXAEAPEAD@Z 000000018004c2d8 f i libucrt:output.obj
 0001:0004b2e4       ??$read_va_arg@U_CRT_DOUBLE@@@__crt_stdio_output@@YA?AU_CRT_DOUBLE@@AEAPEAD@Z 000000018004c2e4 f i libucrt:output.obj
 0001:0004b2f4       ??$read_va_arg@_J@__crt_stdio_output@@YA_JAEAPEAD@Z 000000018004c2f4 f i libucrt:output.obj
 0001:0004b300       ??$read_va_arg@_K@__crt_stdio_output@@YA_KAEAPEAD@Z 000000018004c300 f i libucrt:output.obj
 0001:0004b30c       ??$read_va_arg@_W@__crt_stdio_output@@YA_WAEAPEAD@Z 000000018004c30c f i libucrt:output.obj
 0001:0004b318       ??$scratch_count@D@formatting_buffer@__crt_stdio_output@@QEBA_KXZ 000000018004c318 f i libucrt:output.obj
 0001:0004b334       ??$scratch_data@D@formatting_buffer@__crt_stdio_output@@QEAAPEADXZ 000000018004c334 f i libucrt:output.obj
 0001:0004b358       ??$type_case_integer@$07@?$output_processor@DV?$stream_output_adapter@D@__crt_stdio_output@@V?$format_validation_base@DV?$stream_output_adapter@D@__crt_stdio_output@@@2@@__crt_stdio_output@@AEAA_N_N@Z 000000018004c358 f i libucrt:output.obj
 0001:0004b540       ??$type_case_integer@$07@?$output_processor@DV?$stream_output_adapter@D@__crt_stdio_output@@V?$positional_parameter_base@DV?$stream_output_adapter@D@__crt_stdio_output@@@2@@__crt_stdio_output@@AEAA_N_N@Z 000000018004c540 f i libucrt:output.obj
 0001:0004b76c       ??$type_case_integer@$07@?$output_processor@DV?$stream_output_adapter@D@__crt_stdio_output@@V?$standard_base@DV?$stream_output_adapter@D@__crt_stdio_output@@@2@@__crt_stdio_output@@AEAA_N_N@Z 000000018004c76c f i libucrt:output.obj
 0001:0004b954       ??$type_case_integer@$07@?$output_processor@DV?$string_output_adapter@D@__crt_stdio_output@@V?$format_validation_base@DV?$string_output_adapter@D@__crt_stdio_output@@@2@@__crt_stdio_output@@AEAA_N_N@Z 000000018004c954 f i libucrt:output.obj
 0001:0004bb3c       ??$type_case_integer@$07@?$output_processor@DV?$string_output_adapter@D@__crt_stdio_output@@V?$positional_parameter_base@DV?$string_output_adapter@D@__crt_stdio_output@@@2@@__crt_stdio_output@@AEAA_N_N@Z 000000018004cb3c f i libucrt:output.obj
 0001:0004bd68       ??$type_case_integer@$07@?$output_processor@DV?$string_output_adapter@D@__crt_stdio_output@@V?$standard_base@DV?$string_output_adapter@D@__crt_stdio_output@@@2@@__crt_stdio_output@@AEAA_N_N@Z 000000018004cd68 f i libucrt:output.obj
 0001:0004bf50       ??$type_case_integer@$07@?$output_processor@_WV?$stream_output_adapter@_W@__crt_stdio_output@@V?$format_validation_base@_WV?$stream_output_adapter@_W@__crt_stdio_output@@@2@@__crt_stdio_output@@AEAA_N_N@Z 000000018004cf50 f i libucrt:output.obj
 0001:0004c13c       ??$type_case_integer@$07@?$output_processor@_WV?$stream_output_adapter@_W@__crt_stdio_output@@V?$positional_parameter_base@_WV?$stream_output_adapter@_W@__crt_stdio_output@@@2@@__crt_stdio_output@@AEAA_N_N@Z 000000018004d13c f i libucrt:output.obj
 0001:0004c36c       ??$type_case_integer@$07@?$output_processor@_WV?$stream_output_adapter@_W@__crt_stdio_output@@V?$standard_base@_WV?$stream_output_adapter@_W@__crt_stdio_output@@@2@@__crt_stdio_output@@AEAA_N_N@Z 000000018004d36c f i libucrt:output.obj
 0001:0004c558       ??$type_case_integer@$07@?$output_processor@_WV?$string_output_adapter@_W@__crt_stdio_output@@V?$format_validation_base@_WV?$string_output_adapter@_W@__crt_stdio_output@@@2@@__crt_stdio_output@@AEAA_N_N@Z 000000018004d558 f i libucrt:output.obj
 0001:0004c744       ??$type_case_integer@$07@?$output_processor@_WV?$string_output_adapter@_W@__crt_stdio_output@@V?$positional_parameter_base@_WV?$string_output_adapter@_W@__crt_stdio_output@@@2@@__crt_stdio_output@@AEAA_N_N@Z 000000018004d744 f i libucrt:output.obj
 0001:0004c974       ??$type_case_integer@$07@?$output_processor@_WV?$string_output_adapter@_W@__crt_stdio_output@@V?$standard_base@_WV?$string_output_adapter@_W@__crt_stdio_output@@@2@@__crt_stdio_output@@AEAA_N_N@Z 000000018004d974 f i libucrt:output.obj
 0001:0004cb60       ??$type_case_integer@$09@?$output_processor@DV?$stream_output_adapter@D@__crt_stdio_output@@V?$format_validation_base@DV?$stream_output_adapter@D@__crt_stdio_output@@@2@@__crt_stdio_output@@AEAA_N_N@Z 000000018004db60 f i libucrt:output.obj
 0001:0004cd48       ??$type_case_integer@$09@?$output_processor@DV?$stream_output_adapter@D@__crt_stdio_output@@V?$positional_parameter_base@DV?$stream_output_adapter@D@__crt_stdio_output@@@2@@__crt_stdio_output@@AEAA_N_N@Z 000000018004dd48 f i libucrt:output.obj
 0001:0004cf74       ??$type_case_integer@$09@?$output_processor@DV?$stream_output_adapter@D@__crt_stdio_output@@V?$standard_base@DV?$stream_output_adapter@D@__crt_stdio_output@@@2@@__crt_stdio_output@@AEAA_N_N@Z 000000018004df74 f i libucrt:output.obj
 0001:0004d15c       ??$type_case_integer@$09@?$output_processor@DV?$string_output_adapter@D@__crt_stdio_output@@V?$format_validation_base@DV?$string_output_adapter@D@__crt_stdio_output@@@2@@__crt_stdio_output@@AEAA_N_N@Z 000000018004e15c f i libucrt:output.obj
 0001:0004d344       ??$type_case_integer@$09@?$output_processor@DV?$string_output_adapter@D@__crt_stdio_output@@V?$positional_parameter_base@DV?$string_output_adapter@D@__crt_stdio_output@@@2@@__crt_stdio_output@@AEAA_N_N@Z 000000018004e344 f i libucrt:output.obj
 0001:0004d570       ??$type_case_integer@$09@?$output_processor@DV?$string_output_adapter@D@__crt_stdio_output@@V?$standard_base@DV?$string_output_adapter@D@__crt_stdio_output@@@2@@__crt_stdio_output@@AEAA_N_N@Z 000000018004e570 f i libucrt:output.obj
 0001:0004d758       ??$type_case_integer@$09@?$output_processor@_WV?$stream_output_adapter@_W@__crt_stdio_output@@V?$format_validation_base@_WV?$stream_output_adapter@_W@__crt_stdio_output@@@2@@__crt_stdio_output@@AEAA_N_N@Z 000000018004e758 f i libucrt:output.obj
 0001:0004d944       ??$type_case_integer@$09@?$output_processor@_WV?$stream_output_adapter@_W@__crt_stdio_output@@V?$positional_parameter_base@_WV?$stream_output_adapter@_W@__crt_stdio_output@@@2@@__crt_stdio_output@@AEAA_N_N@Z 000000018004e944 f i libucrt:output.obj
 0001:0004db74       ??$type_case_integer@$09@?$output_processor@_WV?$stream_output_adapter@_W@__crt_stdio_output@@V?$standard_base@_WV?$stream_output_adapter@_W@__crt_stdio_output@@@2@@__crt_stdio_output@@AEAA_N_N@Z 000000018004eb74 f i libucrt:output.obj
 0001:0004dd60       ??$type_case_integer@$09@?$output_processor@_WV?$string_output_adapter@_W@__crt_stdio_output@@V?$format_validation_base@_WV?$string_output_adapter@_W@__crt_stdio_output@@@2@@__crt_stdio_output@@AEAA_N_N@Z 000000018004ed60 f i libucrt:output.obj
 0001:0004df4c       ??$type_case_integer@$09@?$output_processor@_WV?$string_output_adapter@_W@__crt_stdio_output@@V?$positional_parameter_base@_WV?$string_output_adapter@_W@__crt_stdio_output@@@2@@__crt_stdio_output@@AEAA_N_N@Z 000000018004ef4c f i libucrt:output.obj
 0001:0004e17c       ??$type_case_integer@$09@?$output_processor@_WV?$string_output_adapter@_W@__crt_stdio_output@@V?$standard_base@_WV?$string_output_adapter@_W@__crt_stdio_output@@@2@@__crt_stdio_output@@AEAA_N_N@Z 000000018004f17c f i libucrt:output.obj
 0001:0004e368       ??$type_case_integer@$0BA@@?$output_processor@DV?$stream_output_adapter@D@__crt_stdio_output@@V?$format_validation_base@DV?$stream_output_adapter@D@__crt_stdio_output@@@2@@__crt_stdio_output@@AEAA_N_N@Z 000000018004f368 f i libucrt:output.obj
 0001:0004e550       ??$type_case_integer@$0BA@@?$output_processor@DV?$stream_output_adapter@D@__crt_stdio_output@@V?$positional_parameter_base@DV?$stream_output_adapter@D@__crt_stdio_output@@@2@@__crt_stdio_output@@AEAA_N_N@Z 000000018004f550 f i libucrt:output.obj
 0001:0004e77c       ??$type_case_integer@$0BA@@?$output_processor@DV?$stream_output_adapter@D@__crt_stdio_output@@V?$standard_base@DV?$stream_output_adapter@D@__crt_stdio_output@@@2@@__crt_stdio_output@@AEAA_N_N@Z 000000018004f77c f i libucrt:output.obj
 0001:0004e964       ??$type_case_integer@$0BA@@?$output_processor@DV?$string_output_adapter@D@__crt_stdio_output@@V?$format_validation_base@DV?$string_output_adapter@D@__crt_stdio_output@@@2@@__crt_stdio_output@@AEAA_N_N@Z 000000018004f964 f i libucrt:output.obj
 0001:0004eb4c       ??$type_case_integer@$0BA@@?$output_processor@DV?$string_output_adapter@D@__crt_stdio_output@@V?$positional_parameter_base@DV?$string_output_adapter@D@__crt_stdio_output@@@2@@__crt_stdio_output@@AEAA_N_N@Z 000000018004fb4c f i libucrt:output.obj
 0001:0004ed78       ??$type_case_integer@$0BA@@?$output_processor@DV?$string_output_adapter@D@__crt_stdio_output@@V?$standard_base@DV?$string_output_adapter@D@__crt_stdio_output@@@2@@__crt_stdio_output@@AEAA_N_N@Z 000000018004fd78 f i libucrt:output.obj
 0001:0004ef60       ??$type_case_integer@$0BA@@?$output_processor@_WV?$stream_output_adapter@_W@__crt_stdio_output@@V?$format_validation_base@_WV?$stream_output_adapter@_W@__crt_stdio_output@@@2@@__crt_stdio_output@@AEAA_N_N@Z 000000018004ff60 f i libucrt:output.obj
 0001:0004f14c       ??$type_case_integer@$0BA@@?$output_processor@_WV?$stream_output_adapter@_W@__crt_stdio_output@@V?$positional_parameter_base@_WV?$stream_output_adapter@_W@__crt_stdio_output@@@2@@__crt_stdio_output@@AEAA_N_N@Z 000000018005014c f i libucrt:output.obj
 0001:0004f37c       ??$type_case_integer@$0BA@@?$output_processor@_WV?$stream_output_adapter@_W@__crt_stdio_output@@V?$standard_base@_WV?$stream_output_adapter@_W@__crt_stdio_output@@@2@@__crt_stdio_output@@AEAA_N_N@Z 000000018005037c f i libucrt:output.obj
 0001:0004f568       ??$type_case_integer@$0BA@@?$output_processor@_WV?$string_output_adapter@_W@__crt_stdio_output@@V?$format_validation_base@_WV?$string_output_adapter@_W@__crt_stdio_output@@@2@@__crt_stdio_output@@AEAA_N_N@Z 0000000180050568 f i libucrt:output.obj
 0001:0004f754       ??$type_case_integer@$0BA@@?$output_processor@_WV?$string_output_adapter@_W@__crt_stdio_output@@V?$positional_parameter_base@_WV?$string_output_adapter@_W@__crt_stdio_output@@@2@@__crt_stdio_output@@AEAA_N_N@Z 0000000180050754 f i libucrt:output.obj
 0001:0004f984       ??$type_case_integer@$0BA@@?$output_processor@_WV?$string_output_adapter@_W@__crt_stdio_output@@V?$standard_base@_WV?$string_output_adapter@_W@__crt_stdio_output@@@2@@__crt_stdio_output@@AEAA_N_N@Z 0000000180050984 f i libucrt:output.obj
 0001:0004fb70       ??$type_case_integer_parse_into_buffer@I$07@?$output_processor@DV?$stream_output_adapter@D@__crt_stdio_output@@V?$format_validation_base@DV?$stream_output_adapter@D@__crt_stdio_output@@@2@@__crt_stdio_output@@AEAAXI_N@Z 0000000180050b70 f i libucrt:output.obj
 0001:0004fbec       ??$type_case_integer_parse_into_buffer@I$07@?$output_processor@DV?$stream_output_adapter@D@__crt_stdio_output@@V?$positional_parameter_base@DV?$stream_output_adapter@D@__crt_stdio_output@@@2@@__crt_stdio_output@@AEAAXI_N@Z 0000000180050bec f i libucrt:output.obj
 0001:0004fc68       ??$type_case_integer_parse_into_buffer@I$07@?$output_processor@DV?$stream_output_adapter@D@__crt_stdio_output@@V?$standard_base@DV?$stream_output_adapter@D@__crt_stdio_output@@@2@@__crt_stdio_output@@AEAAXI_N@Z 0000000180050c68 f i libucrt:output.obj
 0001:0004fce4       ??$type_case_integer_parse_into_buffer@I$07@?$output_processor@DV?$string_output_adapter@D@__crt_stdio_output@@V?$format_validation_base@DV?$string_output_adapter@D@__crt_stdio_output@@@2@@__crt_stdio_output@@AEAAXI_N@Z 0000000180050ce4 f i libucrt:output.obj
 0001:0004fd60       ??$type_case_integer_parse_into_buffer@I$07@?$output_processor@DV?$string_output_adapter@D@__crt_stdio_output@@V?$positional_parameter_base@DV?$string_output_adapter@D@__crt_stdio_output@@@2@@__crt_stdio_output@@AEAAXI_N@Z 0000000180050d60 f i libucrt:output.obj
 0001:0004fddc       ??$type_case_integer_parse_into_buffer@I$07@?$output_processor@DV?$string_output_adapter@D@__crt_stdio_output@@V?$standard_base@DV?$string_output_adapter@D@__crt_stdio_output@@@2@@__crt_stdio_output@@AEAAXI_N@Z 0000000180050ddc f i libucrt:output.obj
 0001:0004fe58       ??$type_case_integer_parse_into_buffer@I$07@?$output_processor@_WV?$stream_output_adapter@_W@__crt_stdio_output@@V?$format_validation_base@_WV?$stream_output_adapter@_W@__crt_stdio_output@@@2@@__crt_stdio_output@@AEAAXI_N@Z 0000000180050e58 f i libucrt:output.obj
 0001:0004fee0       ??$type_case_integer_parse_into_buffer@I$07@?$output_processor@_WV?$stream_output_adapter@_W@__crt_stdio_output@@V?$positional_parameter_base@_WV?$stream_output_adapter@_W@__crt_stdio_output@@@2@@__crt_stdio_output@@AEAAXI_N@Z 0000000180050ee0 f i libucrt:output.obj
 0001:0004ff68       ??$type_case_integer_parse_into_buffer@I$07@?$output_processor@_WV?$stream_output_adapter@_W@__crt_stdio_output@@V?$standard_base@_WV?$stream_output_adapter@_W@__crt_stdio_output@@@2@@__crt_stdio_output@@AEAAXI_N@Z 0000000180050f68 f i libucrt:output.obj
 0001:0004fff0       ??$type_case_integer_parse_into_buffer@I$07@?$output_processor@_WV?$string_output_adapter@_W@__crt_stdio_output@@V?$format_validation_base@_WV?$string_output_adapter@_W@__crt_stdio_output@@@2@@__crt_stdio_output@@AEAAXI_N@Z 0000000180050ff0 f i libucrt:output.obj
 0001:00050078       ??$type_case_integer_parse_into_buffer@I$07@?$output_processor@_WV?$string_output_adapter@_W@__crt_stdio_output@@V?$positional_parameter_base@_WV?$string_output_adapter@_W@__crt_stdio_output@@@2@@__crt_stdio_output@@AEAAXI_N@Z 0000000180051078 f i libucrt:output.obj
 0001:00050100       ??$type_case_integer_parse_into_buffer@I$07@?$output_processor@_WV?$string_output_adapter@_W@__crt_stdio_output@@V?$standard_base@_WV?$string_output_adapter@_W@__crt_stdio_output@@@2@@__crt_stdio_output@@AEAAXI_N@Z 0000000180051100 f i libucrt:output.obj
 0001:00050188       ??$type_case_integer_parse_into_buffer@I$09@?$output_processor@DV?$stream_output_adapter@D@__crt_stdio_output@@V?$format_validation_base@DV?$stream_output_adapter@D@__crt_stdio_output@@@2@@__crt_stdio_output@@AEAAXI_N@Z 0000000180051188 f i libucrt:output.obj
 0001:00050230       ??$type_case_integer_parse_into_buffer@I$09@?$output_processor@DV?$stream_output_adapter@D@__crt_stdio_output@@V?$positional_parameter_base@DV?$stream_output_adapter@D@__crt_stdio_output@@@2@@__crt_stdio_output@@AEAAXI_N@Z 0000000180051230 f i libucrt:output.obj
 0001:000502d8       ??$type_case_integer_parse_into_buffer@I$09@?$output_processor@DV?$stream_output_adapter@D@__crt_stdio_output@@V?$standard_base@DV?$stream_output_adapter@D@__crt_stdio_output@@@2@@__crt_stdio_output@@AEAAXI_N@Z 00000001800512d8 f i libucrt:output.obj
 0001:00050380       ??$type_case_integer_parse_into_buffer@I$09@?$output_processor@DV?$string_output_adapter@D@__crt_stdio_output@@V?$format_validation_base@DV?$string_output_adapter@D@__crt_stdio_output@@@2@@__crt_stdio_output@@AEAAXI_N@Z 0000000180051380 f i libucrt:output.obj
 0001:00050428       ??$type_case_integer_parse_into_buffer@I$09@?$output_processor@DV?$string_output_adapter@D@__crt_stdio_output@@V?$positional_parameter_base@DV?$string_output_adapter@D@__crt_stdio_output@@@2@@__crt_stdio_output@@AEAAXI_N@Z 0000000180051428 f i libucrt:output.obj
 0001:000504d0       ??$type_case_integer_parse_into_buffer@I$09@?$output_processor@DV?$string_output_adapter@D@__crt_stdio_output@@V?$standard_base@DV?$string_output_adapter@D@__crt_stdio_output@@@2@@__crt_stdio_output@@AEAAXI_N@Z 00000001800514d0 f i libucrt:output.obj
 0001:00050578       ??$type_case_integer_parse_into_buffer@I$09@?$output_processor@_WV?$stream_output_adapter@_W@__crt_stdio_output@@V?$format_validation_base@_WV?$stream_output_adapter@_W@__crt_stdio_output@@@2@@__crt_stdio_output@@AEAAXI_N@Z 0000000180051578 f i libucrt:output.obj
 0001:00050630       ??$type_case_integer_parse_into_buffer@I$09@?$output_processor@_WV?$stream_output_adapter@_W@__crt_stdio_output@@V?$positional_parameter_base@_WV?$stream_output_adapter@_W@__crt_stdio_output@@@2@@__crt_stdio_output@@AEAAXI_N@Z 0000000180051630 f i libucrt:output.obj
 0001:000506e8       ??$type_case_integer_parse_into_buffer@I$09@?$output_processor@_WV?$stream_output_adapter@_W@__crt_stdio_output@@V?$standard_base@_WV?$stream_output_adapter@_W@__crt_stdio_output@@@2@@__crt_stdio_output@@AEAAXI_N@Z 00000001800516e8 f i libucrt:output.obj
 0001:000507a0       ??$type_case_integer_parse_into_buffer@I$09@?$output_processor@_WV?$string_output_adapter@_W@__crt_stdio_output@@V?$format_validation_base@_WV?$string_output_adapter@_W@__crt_stdio_output@@@2@@__crt_stdio_output@@AEAAXI_N@Z 00000001800517a0 f i libucrt:output.obj
 0001:00050858       ??$type_case_integer_parse_into_buffer@I$09@?$output_processor@_WV?$string_output_adapter@_W@__crt_stdio_output@@V?$positional_parameter_base@_WV?$string_output_adapter@_W@__crt_stdio_output@@@2@@__crt_stdio_output@@AEAAXI_N@Z 0000000180051858 f i libucrt:output.obj
 0001:00050910       ??$type_case_integer_parse_into_buffer@I$09@?$output_processor@_WV?$string_output_adapter@_W@__crt_stdio_output@@V?$standard_base@_WV?$string_output_adapter@_W@__crt_stdio_output@@@2@@__crt_stdio_output@@AEAAXI_N@Z 0000000180051910 f i libucrt:output.obj
 0001:000509c8       ??$type_case_integer_parse_into_buffer@I$0BA@@?$output_processor@DV?$stream_output_adapter@D@__crt_stdio_output@@V?$format_validation_base@DV?$stream_output_adapter@D@__crt_stdio_output@@@2@@__crt_stdio_output@@AEAAXI_N@Z 00000001800519c8 f i libucrt:output.obj
 0001:00050a54       ??$type_case_integer_parse_into_buffer@I$0BA@@?$output_processor@DV?$stream_output_adapter@D@__crt_stdio_output@@V?$positional_parameter_base@DV?$stream_output_adapter@D@__crt_stdio_output@@@2@@__crt_stdio_output@@AEAAXI_N@Z 0000000180051a54 f i libucrt:output.obj
 0001:00050ae0       ??$type_case_integer_parse_into_buffer@I$0BA@@?$output_processor@DV?$stream_output_adapter@D@__crt_stdio_output@@V?$standard_base@DV?$stream_output_adapter@D@__crt_stdio_output@@@2@@__crt_stdio_output@@AEAAXI_N@Z 0000000180051ae0 f i libucrt:output.obj
 0001:00050b6c       ??$type_case_integer_parse_into_buffer@I$0BA@@?$output_processor@DV?$string_output_adapter@D@__crt_stdio_output@@V?$format_validation_base@DV?$string_output_adapter@D@__crt_stdio_output@@@2@@__crt_stdio_output@@AEAAXI_N@Z 0000000180051b6c f i libucrt:output.obj
 0001:00050bf8       ??$type_case_integer_parse_into_buffer@I$0BA@@?$output_processor@DV?$string_output_adapter@D@__crt_stdio_output@@V?$positional_parameter_base@DV?$string_output_adapter@D@__crt_stdio_output@@@2@@__crt_stdio_output@@AEAAXI_N@Z 0000000180051bf8 f i libucrt:output.obj
 0001:00050c84       ??$type_case_integer_parse_into_buffer@I$0BA@@?$output_processor@DV?$string_output_adapter@D@__crt_stdio_output@@V?$standard_base@DV?$string_output_adapter@D@__crt_stdio_output@@@2@@__crt_stdio_output@@AEAAXI_N@Z 0000000180051c84 f i libucrt:output.obj
 0001:00050d10       ??$type_case_integer_parse_into_buffer@I$0BA@@?$output_processor@_WV?$stream_output_adapter@_W@__crt_stdio_output@@V?$format_validation_base@_WV?$stream_output_adapter@_W@__crt_stdio_output@@@2@@__crt_stdio_output@@AEAAXI_N@Z 0000000180051d10 f i libucrt:output.obj
 0001:00050db4       ??$type_case_integer_parse_into_buffer@I$0BA@@?$output_processor@_WV?$stream_output_adapter@_W@__crt_stdio_output@@V?$positional_parameter_base@_WV?$stream_output_adapter@_W@__crt_stdio_output@@@2@@__crt_stdio_output@@AEAAXI_N@Z 0000000180051db4 f i libucrt:output.obj
 0001:00050e58       ??$type_case_integer_parse_into_buffer@I$0BA@@?$output_processor@_WV?$stream_output_adapter@_W@__crt_stdio_output@@V?$standard_base@_WV?$stream_output_adapter@_W@__crt_stdio_output@@@2@@__crt_stdio_output@@AEAAXI_N@Z 0000000180051e58 f i libucrt:output.obj
 0001:00050efc       ??$type_case_integer_parse_into_buffer@I$0BA@@?$output_processor@_WV?$string_output_adapter@_W@__crt_stdio_output@@V?$format_validation_base@_WV?$string_output_adapter@_W@__crt_stdio_output@@@2@@__crt_stdio_output@@AEAAXI_N@Z 0000000180051efc f i libucrt:output.obj
 0001:00050fa0       ??$type_case_integer_parse_into_buffer@I$0BA@@?$output_processor@_WV?$string_output_adapter@_W@__crt_stdio_output@@V?$positional_parameter_base@_WV?$string_output_adapter@_W@__crt_stdio_output@@@2@@__crt_stdio_output@@AEAAXI_N@Z 0000000180051fa0 f i libucrt:output.obj
 0001:00051044       ??$type_case_integer_parse_into_buffer@I$0BA@@?$output_processor@_WV?$string_output_adapter@_W@__crt_stdio_output@@V?$standard_base@_WV?$string_output_adapter@_W@__crt_stdio_output@@@2@@__crt_stdio_output@@AEAAXI_N@Z 0000000180052044 f i libucrt:output.obj
 0001:000510e8       ??$type_case_integer_parse_into_buffer@_K$07@?$output_processor@DV?$stream_output_adapter@D@__crt_stdio_output@@V?$format_validation_base@DV?$stream_output_adapter@D@__crt_stdio_output@@@2@@__crt_stdio_output@@AEAAX_K_N@Z 00000001800520e8 f i libucrt:output.obj
 0001:00051164       ??$type_case_integer_parse_into_buffer@_K$07@?$output_processor@DV?$stream_output_adapter@D@__crt_stdio_output@@V?$positional_parameter_base@DV?$stream_output_adapter@D@__crt_stdio_output@@@2@@__crt_stdio_output@@AEAAX_K_N@Z 0000000180052164 f i libucrt:output.obj
 0001:000511e0       ??$type_case_integer_parse_into_buffer@_K$07@?$output_processor@DV?$stream_output_adapter@D@__crt_stdio_output@@V?$standard_base@DV?$stream_output_adapter@D@__crt_stdio_output@@@2@@__crt_stdio_output@@AEAAX_K_N@Z 00000001800521e0 f i libucrt:output.obj
 0001:0005125c       ??$type_case_integer_parse_into_buffer@_K$07@?$output_processor@DV?$string_output_adapter@D@__crt_stdio_output@@V?$format_validation_base@DV?$string_output_adapter@D@__crt_stdio_output@@@2@@__crt_stdio_output@@AEAAX_K_N@Z 000000018005225c f i libucrt:output.obj
 0001:000512d8       ??$type_case_integer_parse_into_buffer@_K$07@?$output_processor@DV?$string_output_adapter@D@__crt_stdio_output@@V?$positional_parameter_base@DV?$string_output_adapter@D@__crt_stdio_output@@@2@@__crt_stdio_output@@AEAAX_K_N@Z 00000001800522d8 f i libucrt:output.obj
 0001:00051354       ??$type_case_integer_parse_into_buffer@_K$07@?$output_processor@DV?$string_output_adapter@D@__crt_stdio_output@@V?$standard_base@DV?$string_output_adapter@D@__crt_stdio_output@@@2@@__crt_stdio_output@@AEAAX_K_N@Z 0000000180052354 f i libucrt:output.obj
 0001:000513d0       ??$type_case_integer_parse_into_buffer@_K$07@?$output_processor@_WV?$stream_output_adapter@_W@__crt_stdio_output@@V?$format_validation_base@_WV?$stream_output_adapter@_W@__crt_stdio_output@@@2@@__crt_stdio_output@@AEAAX_K_N@Z 00000001800523d0 f i libucrt:output.obj
 0001:00051458       ??$type_case_integer_parse_into_buffer@_K$07@?$output_processor@_WV?$stream_output_adapter@_W@__crt_stdio_output@@V?$positional_parameter_base@_WV?$stream_output_adapter@_W@__crt_stdio_output@@@2@@__crt_stdio_output@@AEAAX_K_N@Z 0000000180052458 f i libucrt:output.obj
 0001:000514e0       ??$type_case_integer_parse_into_buffer@_K$07@?$output_processor@_WV?$stream_output_adapter@_W@__crt_stdio_output@@V?$standard_base@_WV?$stream_output_adapter@_W@__crt_stdio_output@@@2@@__crt_stdio_output@@AEAAX_K_N@Z 00000001800524e0 f i libucrt:output.obj
 0001:00051568       ??$type_case_integer_parse_into_buffer@_K$07@?$output_processor@_WV?$string_output_adapter@_W@__crt_stdio_output@@V?$format_validation_base@_WV?$string_output_adapter@_W@__crt_stdio_output@@@2@@__crt_stdio_output@@AEAAX_K_N@Z 0000000180052568 f i libucrt:output.obj
 0001:000515f0       ??$type_case_integer_parse_into_buffer@_K$07@?$output_processor@_WV?$string_output_adapter@_W@__crt_stdio_output@@V?$positional_parameter_base@_WV?$string_output_adapter@_W@__crt_stdio_output@@@2@@__crt_stdio_output@@AEAAX_K_N@Z 00000001800525f0 f i libucrt:output.obj
 0001:00051678       ??$type_case_integer_parse_into_buffer@_K$07@?$output_processor@_WV?$string_output_adapter@_W@__crt_stdio_output@@V?$standard_base@_WV?$string_output_adapter@_W@__crt_stdio_output@@@2@@__crt_stdio_output@@AEAAX_K_N@Z 0000000180052678 f i libucrt:output.obj
 0001:00051700       ??$type_case_integer_parse_into_buffer@_K$09@?$output_processor@DV?$stream_output_adapter@D@__crt_stdio_output@@V?$format_validation_base@DV?$stream_output_adapter@D@__crt_stdio_output@@@2@@__crt_stdio_output@@AEAAX_K_N@Z 0000000180052700 f i libucrt:output.obj
 0001:000517ac       ??$type_case_integer_parse_into_buffer@_K$09@?$output_processor@DV?$stream_output_adapter@D@__crt_stdio_output@@V?$positional_parameter_base@DV?$stream_output_adapter@D@__crt_stdio_output@@@2@@__crt_stdio_output@@AEAAX_K_N@Z 00000001800527ac f i libucrt:output.obj
 0001:00051858       ??$type_case_integer_parse_into_buffer@_K$09@?$output_processor@DV?$stream_output_adapter@D@__crt_stdio_output@@V?$standard_base@DV?$stream_output_adapter@D@__crt_stdio_output@@@2@@__crt_stdio_output@@AEAAX_K_N@Z 0000000180052858 f i libucrt:output.obj
 0001:00051904       ??$type_case_integer_parse_into_buffer@_K$09@?$output_processor@DV?$string_output_adapter@D@__crt_stdio_output@@V?$format_validation_base@DV?$string_output_adapter@D@__crt_stdio_output@@@2@@__crt_stdio_output@@AEAAX_K_N@Z 0000000180052904 f i libucrt:output.obj
 0001:000519b0       ??$type_case_integer_parse_into_buffer@_K$09@?$output_processor@DV?$string_output_adapter@D@__crt_stdio_output@@V?$positional_parameter_base@DV?$string_output_adapter@D@__crt_stdio_output@@@2@@__crt_stdio_output@@AEAAX_K_N@Z 00000001800529b0 f i libucrt:output.obj
 0001:00051a5c       ??$type_case_integer_parse_into_buffer@_K$09@?$output_processor@DV?$string_output_adapter@D@__crt_stdio_output@@V?$standard_base@DV?$string_output_adapter@D@__crt_stdio_output@@@2@@__crt_stdio_output@@AEAAX_K_N@Z 0000000180052a5c f i libucrt:output.obj
 0001:00051b08       ??$type_case_integer_parse_into_buffer@_K$09@?$output_processor@_WV?$stream_output_adapter@_W@__crt_stdio_output@@V?$format_validation_base@_WV?$stream_output_adapter@_W@__crt_stdio_output@@@2@@__crt_stdio_output@@AEAAX_K_N@Z 0000000180052b08 f i libucrt:output.obj
 0001:00051bc8       ??$type_case_integer_parse_into_buffer@_K$09@?$output_processor@_WV?$stream_output_adapter@_W@__crt_stdio_output@@V?$positional_parameter_base@_WV?$stream_output_adapter@_W@__crt_stdio_output@@@2@@__crt_stdio_output@@AEAAX_K_N@Z 0000000180052bc8 f i libucrt:output.obj
 0001:00051c88       ??$type_case_integer_parse_into_buffer@_K$09@?$output_processor@_WV?$stream_output_adapter@_W@__crt_stdio_output@@V?$standard_base@_WV?$stream_output_adapter@_W@__crt_stdio_output@@@2@@__crt_stdio_output@@AEAAX_K_N@Z 0000000180052c88 f i libucrt:output.obj
 0001:00051d48       ??$type_case_integer_parse_into_buffer@_K$09@?$output_processor@_WV?$string_output_adapter@_W@__crt_stdio_output@@V?$format_validation_base@_WV?$string_output_adapter@_W@__crt_stdio_output@@@2@@__crt_stdio_output@@AEAAX_K_N@Z 0000000180052d48 f i libucrt:output.obj
 0001:00051e08       ??$type_case_integer_parse_into_buffer@_K$09@?$output_processor@_WV?$string_output_adapter@_W@__crt_stdio_output@@V?$positional_parameter_base@_WV?$string_output_adapter@_W@__crt_stdio_output@@@2@@__crt_stdio_output@@AEAAX_K_N@Z 0000000180052e08 f i libucrt:output.obj
 0001:00051ec8       ??$type_case_integer_parse_into_buffer@_K$09@?$output_processor@_WV?$string_output_adapter@_W@__crt_stdio_output@@V?$standard_base@_WV?$string_output_adapter@_W@__crt_stdio_output@@@2@@__crt_stdio_output@@AEAAX_K_N@Z 0000000180052ec8 f i libucrt:output.obj
 0001:00051f88       ??$type_case_integer_parse_into_buffer@_K$0BA@@?$output_processor@DV?$stream_output_adapter@D@__crt_stdio_output@@V?$format_validation_base@DV?$stream_output_adapter@D@__crt_stdio_output@@@2@@__crt_stdio_output@@AEAAX_K_N@Z 0000000180052f88 f i libucrt:output.obj
 0001:00052014       ??$type_case_integer_parse_into_buffer@_K$0BA@@?$output_processor@DV?$stream_output_adapter@D@__crt_stdio_output@@V?$positional_parameter_base@DV?$stream_output_adapter@D@__crt_stdio_output@@@2@@__crt_stdio_output@@AEAAX_K_N@Z 0000000180053014 f i libucrt:output.obj
 0001:000520a0       ??$type_case_integer_parse_into_buffer@_K$0BA@@?$output_processor@DV?$stream_output_adapter@D@__crt_stdio_output@@V?$standard_base@DV?$stream_output_adapter@D@__crt_stdio_output@@@2@@__crt_stdio_output@@AEAAX_K_N@Z 00000001800530a0 f i libucrt:output.obj
 0001:0005212c       ??$type_case_integer_parse_into_buffer@_K$0BA@@?$output_processor@DV?$string_output_adapter@D@__crt_stdio_output@@V?$format_validation_base@DV?$string_output_adapter@D@__crt_stdio_output@@@2@@__crt_stdio_output@@AEAAX_K_N@Z 000000018005312c f i libucrt:output.obj
 0001:000521b8       ??$type_case_integer_parse_into_buffer@_K$0BA@@?$output_processor@DV?$string_output_adapter@D@__crt_stdio_output@@V?$positional_parameter_base@DV?$string_output_adapter@D@__crt_stdio_output@@@2@@__crt_stdio_output@@AEAAX_K_N@Z 00000001800531b8 f i libucrt:output.obj
 0001:00052244       ??$type_case_integer_parse_into_buffer@_K$0BA@@?$output_processor@DV?$string_output_adapter@D@__crt_stdio_output@@V?$standard_base@DV?$string_output_adapter@D@__crt_stdio_output@@@2@@__crt_stdio_output@@AEAAX_K_N@Z 0000000180053244 f i libucrt:output.obj
 0001:000522d0       ??$type_case_integer_parse_into_buffer@_K$0BA@@?$output_processor@_WV?$stream_output_adapter@_W@__crt_stdio_output@@V?$format_validation_base@_WV?$stream_output_adapter@_W@__crt_stdio_output@@@2@@__crt_stdio_output@@AEAAX_K_N@Z 00000001800532d0 f i libucrt:output.obj
 0001:00052374       ??$type_case_integer_parse_into_buffer@_K$0BA@@?$output_processor@_WV?$stream_output_adapter@_W@__crt_stdio_output@@V?$positional_parameter_base@_WV?$stream_output_adapter@_W@__crt_stdio_output@@@2@@__crt_stdio_output@@AEAAX_K_N@Z 0000000180053374 f i libucrt:output.obj
 0001:00052418       ??$type_case_integer_parse_into_buffer@_K$0BA@@?$output_processor@_WV?$stream_output_adapter@_W@__crt_stdio_output@@V?$standard_base@_WV?$stream_output_adapter@_W@__crt_stdio_output@@@2@@__crt_stdio_output@@AEAAX_K_N@Z 0000000180053418 f i libucrt:output.obj
 0001:000524bc       ??$type_case_integer_parse_into_buffer@_K$0BA@@?$output_processor@_WV?$string_output_adapter@_W@__crt_stdio_output@@V?$format_validation_base@_WV?$string_output_adapter@_W@__crt_stdio_output@@@2@@__crt_stdio_output@@AEAAX_K_N@Z 00000001800534bc f i libucrt:output.obj
 0001:00052560       ??$type_case_integer_parse_into_buffer@_K$0BA@@?$output_processor@_WV?$string_output_adapter@_W@__crt_stdio_output@@V?$positional_parameter_base@_WV?$string_output_adapter@_W@__crt_stdio_output@@@2@@__crt_stdio_output@@AEAAX_K_N@Z 0000000180053560 f i libucrt:output.obj
 0001:00052604       ??$type_case_integer_parse_into_buffer@_K$0BA@@?$output_processor@_WV?$string_output_adapter@_W@__crt_stdio_output@@V?$standard_base@_WV?$string_output_adapter@_W@__crt_stdio_output@@@2@@__crt_stdio_output@@AEAAX_K_N@Z 0000000180053604 f i libucrt:output.obj
 0001:000526a8       ??$write_multiple_characters@V?$stream_output_adapter@D@__crt_stdio_output@@D@__crt_stdio_output@@YAXAEBV?$stream_output_adapter@D@0@DHQEAHAEAV__crt_cached_ptd_host@@@Z 00000001800536a8 f i libucrt:output.obj
 0001:00052738       ??$write_multiple_characters@V?$stream_output_adapter@_W@__crt_stdio_output@@D@__crt_stdio_output@@YAXAEBV?$stream_output_adapter@_W@0@DHQEAHAEAV__crt_cached_ptd_host@@@Z 0000000180053738 f i libucrt:output.obj
 0001:000527d0       ??$write_multiple_characters@V?$string_output_adapter@D@__crt_stdio_output@@D@__crt_stdio_output@@YAXAEBV?$string_output_adapter@D@0@DHQEAHAEAV__crt_cached_ptd_host@@@Z 00000001800537d0 f i libucrt:output.obj
 0001:00052848       ??$write_multiple_characters@V?$string_output_adapter@_W@__crt_stdio_output@@D@__crt_stdio_output@@YAXAEBV?$string_output_adapter@_W@0@DHQEAHAEAV__crt_cached_ptd_host@@@Z 0000000180053848 f i libucrt:output.obj
 0001:00052a28       ??0?$c_string_character_source@D@__crt_strtox@@QEAA@QEBDQEAPEBD@Z 0000000180053a28 f i libucrt:output.obj
 0001:00052a3c       ??0?$c_string_character_source@_W@__crt_strtox@@QEAA@QEB_WQEAPEB_W@Z 0000000180053a3c f i libucrt:output.obj
 0001:00052a50       ??0?$cached@H@__crt_cached_ptd_host@@QEAA@XZ 0000000180053a50 f i libucrt:output.obj
 0001:00052a58       ??0?$cached@K@__crt_cached_ptd_host@@QEAA@XZ 0000000180053a58 f i libucrt:output.obj
 0001:00052a60       ??0?$common_data@D@__crt_stdio_output@@IEAA@AEAV__crt_cached_ptd_host@@@Z 0000000180053a60 f i libucrt:output.obj
 0001:00052a9c       ??0?$common_data@_W@__crt_stdio_output@@IEAA@AEAV__crt_cached_ptd_host@@@Z 0000000180053a9c f i libucrt:output.obj
 0001:00052adc       ??0?$output_adapter_data@DV?$stream_output_adapter@D@__crt_stdio_output@@@__crt_stdio_output@@IEAA@AEBV?$stream_output_adapter@D@1@_KQEBDAEAV__crt_cached_ptd_host@@QEAD@Z 0000000180053adc f i libucrt:output.obj
 0001:00052b3c       ??0?$output_adapter_data@DV?$string_output_adapter@D@__crt_stdio_output@@@__crt_stdio_output@@IEAA@AEBV?$string_output_adapter@D@1@_KQEBDAEAV__crt_cached_ptd_host@@QEAD@Z 0000000180053b3c f i libucrt:output.obj
 0001:00052b9c       ??0?$output_adapter_data@_WV?$stream_output_adapter@_W@__crt_stdio_output@@@__crt_stdio_output@@IEAA@AEBV?$stream_output_adapter@_W@1@_KQEB_WAEAV__crt_cached_ptd_host@@QEAD@Z 0000000180053b9c f i libucrt:output.obj
 0001:00052c00       ??0?$output_adapter_data@_WV?$string_output_adapter@_W@__crt_stdio_output@@@__crt_stdio_output@@IEAA@AEBV?$string_output_adapter@_W@1@_KQEB_WAEAV__crt_cached_ptd_host@@QEAD@Z 0000000180053c00 f i libucrt:output.obj
 0001:00052c64       ??0?$output_processor@DV?$stream_output_adapter@D@__crt_stdio_output@@V?$format_validation_base@DV?$stream_output_adapter@D@__crt_stdio_output@@@2@@__crt_stdio_output@@QEAA@AEBV?$stream_output_adapter@D@1@_KQEBDAEAV__crt_cached_ptd_host@@QEAD@Z 0000000180053c64 f i libucrt:output.obj
 0001:00052ccc       ??0?$output_processor@DV?$stream_output_adapter@D@__crt_stdio_output@@V?$positional_parameter_base@DV?$stream_output_adapter@D@__crt_stdio_output@@@2@@__crt_stdio_output@@QEAA@AEBV?$stream_output_adapter@D@1@_KQEBDAEAV__crt_cached_ptd_host@@QEAD@Z 0000000180053ccc f i libucrt:output.obj
 0001:00052d50       ??0?$output_processor@DV?$stream_output_adapter@D@__crt_stdio_output@@V?$standard_base@DV?$stream_output_adapter@D@__crt_stdio_output@@@2@@__crt_stdio_output@@QEAA@AEBV?$stream_output_adapter@D@1@_KQEBDAEAV__crt_cached_ptd_host@@QEAD@Z 0000000180053d50 f i libucrt:output.obj
 0001:00052db8       ??0?$output_processor@DV?$string_output_adapter@D@__crt_stdio_output@@V?$format_validation_base@DV?$string_output_adapter@D@__crt_stdio_output@@@2@@__crt_stdio_output@@QEAA@AEBV?$string_output_adapter@D@1@_KQEBDAEAV__crt_cached_ptd_host@@QEAD@Z 0000000180053db8 f i libucrt:output.obj
 0001:00052e20       ??0?$output_processor@DV?$string_output_adapter@D@__crt_stdio_output@@V?$positional_parameter_base@DV?$string_output_adapter@D@__crt_stdio_output@@@2@@__crt_stdio_output@@QEAA@AEBV?$string_output_adapter@D@1@_KQEBDAEAV__crt_cached_ptd_host@@QEAD@Z 0000000180053e20 f i libucrt:output.obj
 0001:00052ea4       ??0?$output_processor@DV?$string_output_adapter@D@__crt_stdio_output@@V?$standard_base@DV?$string_output_adapter@D@__crt_stdio_output@@@2@@__crt_stdio_output@@QEAA@AEBV?$string_output_adapter@D@1@_KQEBDAEAV__crt_cached_ptd_host@@QEAD@Z 0000000180053ea4 f i libucrt:output.obj
 0001:00052f0c       ??0?$output_processor@_WV?$stream_output_adapter@_W@__crt_stdio_output@@V?$format_validation_base@_WV?$stream_output_adapter@_W@__crt_stdio_output@@@2@@__crt_stdio_output@@QEAA@AEBV?$stream_output_adapter@_W@1@_KQEB_WAEAV__crt_cached_ptd_host@@QEAD@Z 0000000180053f0c f i libucrt:output.obj
 0001:00052f78       ??0?$output_processor@_WV?$stream_output_adapter@_W@__crt_stdio_output@@V?$positional_parameter_base@_WV?$stream_output_adapter@_W@__crt_stdio_output@@@2@@__crt_stdio_output@@QEAA@AEBV?$stream_output_adapter@_W@1@_KQEB_WAEAV__crt_cached_ptd_host@@QEAD@Z 0000000180053f78 f i libucrt:output.obj
 0001:00053000       ??0?$output_processor@_WV?$stream_output_adapter@_W@__crt_stdio_output@@V?$standard_base@_WV?$stream_output_adapter@_W@__crt_stdio_output@@@2@@__crt_stdio_output@@QEAA@AEBV?$stream_output_adapter@_W@1@_KQEB_WAEAV__crt_cached_ptd_host@@QEAD@Z 0000000180054000 f i libucrt:output.obj
 0001:0005306c       ??0?$output_processor@_WV?$string_output_adapter@_W@__crt_stdio_output@@V?$format_validation_base@_WV?$string_output_adapter@_W@__crt_stdio_output@@@2@@__crt_stdio_output@@QEAA@AEBV?$string_output_adapter@_W@1@_KQEB_WAEAV__crt_cached_ptd_host@@QEAD@Z 000000018005406c f i libucrt:output.obj
 0001:000530d8       ??0?$output_processor@_WV?$string_output_adapter@_W@__crt_stdio_output@@V?$positional_parameter_base@_WV?$string_output_adapter@_W@__crt_stdio_output@@@2@@__crt_stdio_output@@QEAA@AEBV?$string_output_adapter@_W@1@_KQEB_WAEAV__crt_cached_ptd_host@@QEAD@Z 00000001800540d8 f i libucrt:output.obj
 0001:00053160       ??0?$output_processor@_WV?$string_output_adapter@_W@__crt_stdio_output@@V?$standard_base@_WV?$string_output_adapter@_W@__crt_stdio_output@@@2@@__crt_stdio_output@@QEAA@AEBV?$string_output_adapter@_W@1@_KQEB_WAEAV__crt_cached_ptd_host@@QEAD@Z 0000000180054160 f i libucrt:output.obj
 0001:000531cc       ??0?$stream_output_adapter@D@__crt_stdio_output@@QEAA@QEAU_iobuf@@@Z 00000001800541cc f i libucrt:output.obj
 0001:000531d4       ??0?$stream_output_adapter@_W@__crt_stdio_output@@QEAA@QEAU_iobuf@@@Z 00000001800541d4 f i libucrt:output.obj
 0001:000531dc       ??0?$string_output_adapter@D@__crt_stdio_output@@QEAA@QEAU?$string_output_adapter_context@D@1@@Z 00000001800541dc f i libucrt:output.obj
 0001:000531e4       ??0?$string_output_adapter@_W@__crt_stdio_output@@QEAA@QEAU?$string_output_adapter_context@_W@1@@Z 00000001800541e4 f i libucrt:output.obj
 0001:000531ec       ??0__acrt_stdio_temporary_buffering_guard@@QEAA@QEAU_iobuf@@AEAV__crt_cached_ptd_host@@@Z 00000001800541ec f i libucrt:output.obj
 0001:00053210       ??0__crt_cached_ptd_host@@QEAA@QEAU__crt_locale_pointers@@@Z 0000000180054210 f i libucrt:output.obj
 0001:00053258       ??0__crt_scoped_get_last_error_reset@@QEAA@XZ 0000000180054258 f i libucrt:output.obj
 0001:00053274       ??0__crt_stdio_stream@@QEAA@QEAU_iobuf@@@Z 0000000180054274 f i libucrt:output.obj
 0001:0005327c       ??0formatting_buffer@__crt_stdio_output@@QEAA@XZ 000000018005427c f i libucrt:output.obj
 0001:00053290       ??0guard@?$cached@H@__crt_cached_ptd_host@@QEAA@AEAU12@@Z 0000000180054290 f i libucrt:output.obj
 0001:000532a4       ??1?$c_string_character_source@D@__crt_strtox@@QEAA@XZ 00000001800542a4 f i libucrt:output.obj
 0001:000532b4       ??1?$c_string_character_source@_W@__crt_strtox@@QEAA@XZ 00000001800542b4 f i libucrt:output.obj
 0001:000532c4       ??1?$common_data@D@__crt_stdio_output@@QEAA@XZ 00000001800542c4 f i libucrt:output.obj
 0001:000532e8       ??1?$common_data@_W@__crt_stdio_output@@QEAA@XZ 00000001800542e8 f i libucrt:output.obj
 0001:0005330c       ??1?$format_validation_base@DV?$stream_output_adapter@D@__crt_stdio_output@@@__crt_stdio_output@@QEAA@XZ 000000018005430c f i libucrt:output.obj
 0001:00053330       ??1?$format_validation_base@DV?$string_output_adapter@D@__crt_stdio_output@@@__crt_stdio_output@@QEAA@XZ 0000000180054330 f i libucrt:output.obj
 0001:00053354       ??1?$format_validation_base@_WV?$stream_output_adapter@_W@__crt_stdio_output@@@__crt_stdio_output@@QEAA@XZ 0000000180054354 f i libucrt:output.obj
 0001:00053378       ??1?$format_validation_base@_WV?$string_output_adapter@_W@__crt_stdio_output@@@__crt_stdio_output@@QEAA@XZ 0000000180054378 f i libucrt:output.obj
 0001:0005339c       ??1?$output_adapter_data@DV?$stream_output_adapter@D@__crt_stdio_output@@@__crt_stdio_output@@QEAA@XZ 000000018005439c f i libucrt:output.obj
 0001:000533c0       ??1?$output_adapter_data@DV?$string_output_adapter@D@__crt_stdio_output@@@__crt_stdio_output@@QEAA@XZ 00000001800543c0 f i libucrt:output.obj
 0001:000533e4       ??1?$output_adapter_data@_WV?$stream_output_adapter@_W@__crt_stdio_output@@@__crt_stdio_output@@QEAA@XZ 00000001800543e4 f i libucrt:output.obj
 0001:00053408       ??1?$output_adapter_data@_WV?$string_output_adapter@_W@__crt_stdio_output@@@__crt_stdio_output@@QEAA@XZ 0000000180054408 f i libucrt:output.obj
 0001:0005342c       ??1?$output_processor@DV?$stream_output_adapter@D@__crt_stdio_output@@V?$format_validation_base@DV?$stream_output_adapter@D@__crt_stdio_output@@@2@@__crt_stdio_output@@QEAA@XZ 000000018005442c f i libucrt:output.obj
 0001:00053450       ??1?$output_processor@DV?$stream_output_adapter@D@__crt_stdio_output@@V?$positional_parameter_base@DV?$stream_output_adapter@D@__crt_stdio_output@@@2@@__crt_stdio_output@@QEAA@XZ 0000000180054450 f i libucrt:output.obj
 0001:00053474       ??1?$output_processor@DV?$stream_output_adapter@D@__crt_stdio_output@@V?$standard_base@DV?$stream_output_adapter@D@__crt_stdio_output@@@2@@__crt_stdio_output@@QEAA@XZ 0000000180054474 f i libucrt:output.obj
 0001:00053498       ??1?$output_processor@DV?$string_output_adapter@D@__crt_stdio_output@@V?$format_validation_base@DV?$string_output_adapter@D@__crt_stdio_output@@@2@@__crt_stdio_output@@QEAA@XZ 0000000180054498 f i libucrt:output.obj
 0001:000534bc       ??1?$output_processor@DV?$string_output_adapter@D@__crt_stdio_output@@V?$positional_parameter_base@DV?$string_output_adapter@D@__crt_stdio_output@@@2@@__crt_stdio_output@@QEAA@XZ 00000001800544bc f i libucrt:output.obj
 0001:000534e0       ??1?$output_processor@DV?$string_output_adapter@D@__crt_stdio_output@@V?$standard_base@DV?$string_output_adapter@D@__crt_stdio_output@@@2@@__crt_stdio_output@@QEAA@XZ 00000001800544e0 f i libucrt:output.obj
 0001:00053504       ??1?$output_processor@_WV?$stream_output_adapter@_W@__crt_stdio_output@@V?$format_validation_base@_WV?$stream_output_adapter@_W@__crt_stdio_output@@@2@@__crt_stdio_output@@QEAA@XZ 0000000180054504 f i libucrt:output.obj
 0001:00053528       ??1?$output_processor@_WV?$stream_output_adapter@_W@__crt_stdio_output@@V?$positional_parameter_base@_WV?$stream_output_adapter@_W@__crt_stdio_output@@@2@@__crt_stdio_output@@QEAA@XZ 0000000180054528 f i libucrt:output.obj
 0001:0005354c       ??1?$output_processor@_WV?$stream_output_adapter@_W@__crt_stdio_output@@V?$standard_base@_WV?$stream_output_adapter@_W@__crt_stdio_output@@@2@@__crt_stdio_output@@QEAA@XZ 000000018005454c f i libucrt:output.obj
 0001:00053570       ??1?$output_processor@_WV?$string_output_adapter@_W@__crt_stdio_output@@V?$format_validation_base@_WV?$string_output_adapter@_W@__crt_stdio_output@@@2@@__crt_stdio_output@@QEAA@XZ 0000000180054570 f i libucrt:output.obj
 0001:00053594       ??1?$output_processor@_WV?$string_output_adapter@_W@__crt_stdio_output@@V?$positional_parameter_base@_WV?$string_output_adapter@_W@__crt_stdio_output@@@2@@__crt_stdio_output@@QEAA@XZ 0000000180054594 f i libucrt:output.obj
 0001:000535b8       ??1?$output_processor@_WV?$string_output_adapter@_W@__crt_stdio_output@@V?$standard_base@_WV?$string_output_adapter@_W@__crt_stdio_output@@@2@@__crt_stdio_output@@QEAA@XZ 00000001800545b8 f i libucrt:output.obj
 0001:000535dc       ??1?$positional_parameter_base@DV?$stream_output_adapter@D@__crt_stdio_output@@@__crt_stdio_output@@QEAA@XZ 00000001800545dc f i libucrt:output.obj
 0001:00053600       ??1?$positional_parameter_base@DV?$string_output_adapter@D@__crt_stdio_output@@@__crt_stdio_output@@QEAA@XZ 0000000180054600 f i libucrt:output.obj
 0001:00053624       ??1?$positional_parameter_base@_WV?$stream_output_adapter@_W@__crt_stdio_output@@@__crt_stdio_output@@QEAA@XZ 0000000180054624 f i libucrt:output.obj
 0001:00053648       ??1?$positional_parameter_base@_WV?$string_output_adapter@_W@__crt_stdio_output@@@__crt_stdio_output@@QEAA@XZ 0000000180054648 f i libucrt:output.obj
 0001:0005366c       ??1?$standard_base@DV?$stream_output_adapter@D@__crt_stdio_output@@@__crt_stdio_output@@QEAA@XZ 000000018005466c f i libucrt:output.obj
 0001:00053690       ??1?$standard_base@DV?$string_output_adapter@D@__crt_stdio_output@@@__crt_stdio_output@@QEAA@XZ 0000000180054690 f i libucrt:output.obj
 0001:000536b4       ??1?$standard_base@_WV?$stream_output_adapter@_W@__crt_stdio_output@@@__crt_stdio_output@@QEAA@XZ 00000001800546b4 f i libucrt:output.obj
 0001:000536d8       ??1?$standard_base@_WV?$string_output_adapter@_W@__crt_stdio_output@@@__crt_stdio_output@@QEAA@XZ 00000001800546d8 f i libucrt:output.obj
 0001:000536fc       ??1__acrt_stdio_temporary_buffering_guard@@QEAA@XZ 00000001800546fc f i libucrt:output.obj
 0001:00053710       ??1__crt_cached_ptd_host@@QEAA@XZ 0000000180054710 f i libucrt:output.obj
 0001:00053760       ??1__crt_scoped_get_last_error_reset@@QEAA@XZ 0000000180054760 f i libucrt:output.obj
 0001:0005376c       ??1formatting_buffer@__crt_stdio_output@@QEAA@XZ 000000018005476c f i libucrt:output.obj
 0001:00053790       ??1guard@?$cached@H@__crt_cached_ptd_host@@QEAA@XZ 0000000180054790 f i libucrt:output.obj
 0001:000537a4       ??4?$__crt_unique_heap_ptr@DU__crt_internal_free_policy@@@@QEAAAEAV0@$$QEAV0@@Z 00000001800547a4 f i libucrt:output.obj
 0001:000537d8       ??A?$spectre_mitigated_lookup_table@Ustate_transition_pair@__crt_stdio_output@@$0IA@@__crt_stdio_output@@QEBAAEBUstate_transition_pair@1@_K@Z 00000001800547d8 f i libucrt:output.obj
 0001:000537e0       ??C__crt_stdio_stream@@QEBAPEAU__crt_stdio_stream_data@@XZ 00000001800547e0 f i libucrt:output.obj
 0001:00053f28       ?adjust_hexit@?$output_processor@DV?$stream_output_adapter@D@__crt_stdio_output@@V?$format_validation_base@DV?$stream_output_adapter@D@__crt_stdio_output@@@2@@__crt_stdio_output@@CADH_N@Z 0000000180054f28 f i libucrt:output.obj
 0001:00053f34       ?adjust_hexit@?$output_processor@DV?$stream_output_adapter@D@__crt_stdio_output@@V?$positional_parameter_base@DV?$stream_output_adapter@D@__crt_stdio_output@@@2@@__crt_stdio_output@@CADH_N@Z 0000000180054f34 f i libucrt:output.obj
 0001:00053f40       ?adjust_hexit@?$output_processor@DV?$stream_output_adapter@D@__crt_stdio_output@@V?$standard_base@DV?$stream_output_adapter@D@__crt_stdio_output@@@2@@__crt_stdio_output@@CADH_N@Z 0000000180054f40 f i libucrt:output.obj
 0001:00053f4c       ?adjust_hexit@?$output_processor@DV?$string_output_adapter@D@__crt_stdio_output@@V?$format_validation_base@DV?$string_output_adapter@D@__crt_stdio_output@@@2@@__crt_stdio_output@@CADH_N@Z 0000000180054f4c f i libucrt:output.obj
 0001:00053f58       ?adjust_hexit@?$output_processor@DV?$string_output_adapter@D@__crt_stdio_output@@V?$positional_parameter_base@DV?$string_output_adapter@D@__crt_stdio_output@@@2@@__crt_stdio_output@@CADH_N@Z 0000000180054f58 f i libucrt:output.obj
 0001:00053f64       ?adjust_hexit@?$output_processor@DV?$string_output_adapter@D@__crt_stdio_output@@V?$standard_base@DV?$string_output_adapter@D@__crt_stdio_output@@@2@@__crt_stdio_output@@CADH_N@Z 0000000180054f64 f i libucrt:output.obj
 0001:00053f70       ?adjust_hexit@?$output_processor@_WV?$stream_output_adapter@_W@__crt_stdio_output@@V?$format_validation_base@_WV?$stream_output_adapter@_W@__crt_stdio_output@@@2@@__crt_stdio_output@@CADH_N@Z 0000000180054f70 f i libucrt:output.obj
 0001:00053f7c       ?adjust_hexit@?$output_processor@_WV?$stream_output_adapter@_W@__crt_stdio_output@@V?$positional_parameter_base@_WV?$stream_output_adapter@_W@__crt_stdio_output@@@2@@__crt_stdio_output@@CADH_N@Z 0000000180054f7c f i libucrt:output.obj
 0001:00053f88       ?adjust_hexit@?$output_processor@_WV?$stream_output_adapter@_W@__crt_stdio_output@@V?$standard_base@_WV?$stream_output_adapter@_W@__crt_stdio_output@@@2@@__crt_stdio_output@@CADH_N@Z 0000000180054f88 f i libucrt:output.obj
 0001:00053f94       ?adjust_hexit@?$output_processor@_WV?$string_output_adapter@_W@__crt_stdio_output@@V?$format_validation_base@_WV?$string_output_adapter@_W@__crt_stdio_output@@@2@@__crt_stdio_output@@CADH_N@Z 0000000180054f94 f i libucrt:output.obj
 0001:00053fa0       ?adjust_hexit@?$output_processor@_WV?$string_output_adapter@_W@__crt_stdio_output@@V?$positional_parameter_base@_WV?$string_output_adapter@_W@__crt_stdio_output@@@2@@__crt_stdio_output@@CADH_N@Z 0000000180054fa0 f i libucrt:output.obj
 0001:00053fac       ?adjust_hexit@?$output_processor@_WV?$string_output_adapter@_W@__crt_stdio_output@@V?$standard_base@_WV?$string_output_adapter@_W@__crt_stdio_output@@@2@@__crt_stdio_output@@CADH_N@Z 0000000180054fac f i libucrt:output.obj
 0001:00053fb8       ?advance_to_next_pass@?$positional_parameter_base@DV?$stream_output_adapter@D@__crt_stdio_output@@@__crt_stdio_output@@IEAA_NXZ 0000000180054fb8 f i libucrt:output.obj
 0001:00054008       ?advance_to_next_pass@?$positional_parameter_base@DV?$string_output_adapter@D@__crt_stdio_output@@@__crt_stdio_output@@IEAA_NXZ 0000000180055008 f i libucrt:output.obj
 0001:00054058       ?advance_to_next_pass@?$positional_parameter_base@_WV?$stream_output_adapter@_W@__crt_stdio_output@@@__crt_stdio_output@@IEAA_NXZ 0000000180055058 f i libucrt:output.obj
 0001:000540a8       ?advance_to_next_pass@?$positional_parameter_base@_WV?$string_output_adapter@_W@__crt_stdio_output@@@__crt_stdio_output@@IEAA_NXZ 00000001800550a8 f i libucrt:output.obj
 0001:000540f8       ?advance_to_next_pass@?$standard_base@DV?$stream_output_adapter@D@__crt_stdio_output@@@__crt_stdio_output@@IEAA_NXZ 00000001800550f8 f i libucrt:output.obj
 0001:0005410c       ?advance_to_next_pass@?$standard_base@DV?$string_output_adapter@D@__crt_stdio_output@@@__crt_stdio_output@@IEAA_NXZ 000000018005510c f i libucrt:output.obj
 0001:00054120       ?advance_to_next_pass@?$standard_base@_WV?$stream_output_adapter@_W@__crt_stdio_output@@@__crt_stdio_output@@IEAA_NXZ 0000000180055120 f i libucrt:output.obj
 0001:00054134       ?advance_to_next_pass@?$standard_base@_WV?$string_output_adapter@_W@__crt_stdio_output@@@__crt_stdio_output@@IEAA_NXZ 0000000180055134 f i libucrt:output.obj
 0001:00054148       ?check@?$cached@H@__crt_cached_ptd_host@@QEBA_NH@Z 0000000180055148 f i libucrt:output.obj
 0001:00054160       ?check_synchronize_global_state_index@__crt_cached_ptd_host@@AEAA_KAEBV__crt_scoped_get_last_error_reset@@@Z 0000000180055160 f i libucrt:output.obj
 0001:00054180       ?check_synchronize_per_thread_data@__crt_cached_ptd_host@@AEAAPEAU__acrt_ptd@@XZ 0000000180055180 f i libucrt:output.obj
 0001:000541e8       ?create_guard@?$cached@H@__crt_cached_ptd_host@@QEAA?AVguard@12@XZ 00000001800551e8 f i libucrt:output.obj
 0001:000541fc       ?crop_zeroes@__crt_stdio_output@@YAXPEADQEAU__crt_locale_pointers@@@Z 00000001800551fc f i libucrt:output.obj
 0001:00054268       ?disable@guard@?$cached@H@__crt_cached_ptd_host@@QEAAXXZ 0000000180055268 f i libucrt:output.obj
 0001:00054270       ?enable@guard@?$cached@H@__crt_cached_ptd_host@@QEAAXXZ 0000000180055270 f i libucrt:output.obj
 0001:00054278       ?find_next_state@?$output_processor@DV?$stream_output_adapter@D@__crt_stdio_output@@V?$format_validation_base@DV?$stream_output_adapter@D@__crt_stdio_output@@@2@@__crt_stdio_output@@AEBA?AW4state@2@DW432@@Z 0000000180055278 f i libucrt:output.obj
 0001:000542b0       ?find_next_state@?$output_processor@DV?$stream_output_adapter@D@__crt_stdio_output@@V?$positional_parameter_base@DV?$stream_output_adapter@D@__crt_stdio_output@@@2@@__crt_stdio_output@@AEBA?AW4state@2@DW432@@Z 00000001800552b0 f i libucrt:output.obj
 0001:000542e8       ?find_next_state@?$output_processor@DV?$stream_output_adapter@D@__crt_stdio_output@@V?$standard_base@DV?$stream_output_adapter@D@__crt_stdio_output@@@2@@__crt_stdio_output@@AEBA?AW4state@2@DW432@@Z 00000001800552e8 f i libucrt:output.obj
 0001:0005431c       ?find_next_state@?$output_processor@DV?$string_output_adapter@D@__crt_stdio_output@@V?$format_validation_base@DV?$string_output_adapter@D@__crt_stdio_output@@@2@@__crt_stdio_output@@AEBA?AW4state@2@DW432@@Z 000000018005531c f i libucrt:output.obj
 0001:00054354       ?find_next_state@?$output_processor@DV?$string_output_adapter@D@__crt_stdio_output@@V?$positional_parameter_base@DV?$string_output_adapter@D@__crt_stdio_output@@@2@@__crt_stdio_output@@AEBA?AW4state@2@DW432@@Z 0000000180055354 f i libucrt:output.obj
 0001:0005438c       ?find_next_state@?$output_processor@DV?$string_output_adapter@D@__crt_stdio_output@@V?$standard_base@DV?$string_output_adapter@D@__crt_stdio_output@@@2@@__crt_stdio_output@@AEBA?AW4state@2@DW432@@Z 000000018005538c f i libucrt:output.obj
 0001:000543c0       ?find_next_state@?$output_processor@_WV?$stream_output_adapter@_W@__crt_stdio_output@@V?$format_validation_base@_WV?$stream_output_adapter@_W@__crt_stdio_output@@@2@@__crt_stdio_output@@AEBA?AW4state@2@_WW432@@Z 00000001800553c0 f i libucrt:output.obj
 0001:00054400       ?find_next_state@?$output_processor@_WV?$stream_output_adapter@_W@__crt_stdio_output@@V?$positional_parameter_base@_WV?$stream_output_adapter@_W@__crt_stdio_output@@@2@@__crt_stdio_output@@AEBA?AW4state@2@_WW432@@Z 0000000180055400 f i libucrt:output.obj
 0001:00054440       ?find_next_state@?$output_processor@_WV?$stream_output_adapter@_W@__crt_stdio_output@@V?$standard_base@_WV?$stream_output_adapter@_W@__crt_stdio_output@@@2@@__crt_stdio_output@@AEBA?AW4state@2@_WW432@@Z 0000000180055440 f i libucrt:output.obj
 0001:0005447c       ?find_next_state@?$output_processor@_WV?$string_output_adapter@_W@__crt_stdio_output@@V?$format_validation_base@_WV?$string_output_adapter@_W@__crt_stdio_output@@@2@@__crt_stdio_output@@AEBA?AW4state@2@_WW432@@Z 000000018005547c f i libucrt:output.obj
 0001:000544bc       ?find_next_state@?$output_processor@_WV?$string_output_adapter@_W@__crt_stdio_output@@V?$positional_parameter_base@_WV?$string_output_adapter@_W@__crt_stdio_output@@@2@@__crt_stdio_output@@AEBA?AW4state@2@_WW432@@Z 00000001800554bc f i libucrt:output.obj
 0001:000544fc       ?find_next_state@?$output_processor@_WV?$string_output_adapter@_W@__crt_stdio_output@@V?$standard_base@_WV?$string_output_adapter@_W@__crt_stdio_output@@@2@@__crt_stdio_output@@AEBA?AW4state@2@_WW432@@Z 00000001800554fc f i libucrt:output.obj
 0001:00054538       ?force_decimal_point@__crt_stdio_output@@YAXPEADQEAU__crt_locale_pointers@@@Z 0000000180055538 f i libucrt:output.obj
 0001:000545a0       ?force_synchronize_global_state_index@__crt_cached_ptd_host@@AEAA_KAEBV__crt_scoped_get_last_error_reset@@@Z 00000001800555a0 f i libucrt:output.obj
 0001:000545b0       ?force_synchronize_per_thread_data@__crt_cached_ptd_host@@AEAAPEAU__acrt_ptd@@XZ 00000001800555b0 f i libucrt:output.obj
 0001:00054608       ?get@?$c_string_character_source@D@__crt_strtox@@QEAADXZ 0000000180055608 f i libucrt:output.obj
 0001:00054614       ?get@?$c_string_character_source@_W@__crt_strtox@@QEAA_WXZ 0000000180055614 f i libucrt:output.obj
 0001:00054624       ?get_current_state_index@__crt_state_management@@YA_KAEBV__crt_scoped_get_last_error_reset@@@Z 0000000180055624 f i libucrt:output.obj
 0001:00054630       ?get_errno@__crt_cached_ptd_host@@QEAAAEAU?$cached@H@1@XZ 0000000180055630 f i libucrt:output.obj
 0001:00054638       ?get_flags@__crt_stdio_stream@@QEBAJXZ 0000000180055638 f i libucrt:output.obj
 0001:00054640       ?get_locale@__crt_cached_ptd_host@@QEAAPEAU__crt_locale_pointers@@XZ 0000000180055640 f i libucrt:output.obj
 0001:00054668       ?get_parameter_type@?$positional_parameter_base@DV?$stream_output_adapter@D@__crt_stdio_output@@@__crt_stdio_output@@CA?AW4parameter_type@12@F@Z 0000000180055668 f i libucrt:output.obj
 0001:00054670       ?get_parameter_type@?$positional_parameter_base@DV?$stream_output_adapter@D@__crt_stdio_output@@@__crt_stdio_output@@CA?AW4parameter_type@12@G@Z 0000000180055670 f i libucrt:output.obj
 0001:00054678       ?get_parameter_type@?$positional_parameter_base@DV?$stream_output_adapter@D@__crt_stdio_output@@@__crt_stdio_output@@CA?AW4parameter_type@12@H@Z 0000000180055678 f i libucrt:output.obj
 0001:00054680       ?get_parameter_type@?$positional_parameter_base@DV?$stream_output_adapter@D@__crt_stdio_output@@@__crt_stdio_output@@CA?AW4parameter_type@12@I@Z 0000000180055680 f i libucrt:output.obj
 0001:00054688       ?get_parameter_type@?$positional_parameter_base@DV?$stream_output_adapter@D@__crt_stdio_output@@@__crt_stdio_output@@CA?AW4parameter_type@12@U_CRT_DOUBLE@@@Z 0000000180055688 f i libucrt:output.obj
 0001:00054690       ?get_parameter_type@?$positional_parameter_base@DV?$stream_output_adapter@D@__crt_stdio_output@@@__crt_stdio_output@@CA?AW4parameter_type@12@_J@Z 0000000180055690 f i libucrt:output.obj
 0001:00054698       ?get_parameter_type@?$positional_parameter_base@DV?$stream_output_adapter@D@__crt_stdio_output@@@__crt_stdio_output@@CA?AW4parameter_type@12@_K@Z 0000000180055698 f i libucrt:output.obj
 0001:000546a0       ?get_parameter_type@?$positional_parameter_base@DV?$stream_output_adapter@D@__crt_stdio_output@@@__crt_stdio_output@@CA?AW4parameter_type@12@_W@Z 00000001800556a0 f i libucrt:output.obj
 0001:000546a8       ?get_parameter_type@?$positional_parameter_base@DV?$string_output_adapter@D@__crt_stdio_output@@@__crt_stdio_output@@CA?AW4parameter_type@12@F@Z 00000001800556a8 f i libucrt:output.obj
 0001:000546b0       ?get_parameter_type@?$positional_parameter_base@DV?$string_output_adapter@D@__crt_stdio_output@@@__crt_stdio_output@@CA?AW4parameter_type@12@G@Z 00000001800556b0 f i libucrt:output.obj
 0001:000546b8       ?get_parameter_type@?$positional_parameter_base@DV?$string_output_adapter@D@__crt_stdio_output@@@__crt_stdio_output@@CA?AW4parameter_type@12@H@Z 00000001800556b8 f i libucrt:output.obj
 0001:000546c0       ?get_parameter_type@?$positional_parameter_base@DV?$string_output_adapter@D@__crt_stdio_output@@@__crt_stdio_output@@CA?AW4parameter_type@12@I@Z 00000001800556c0 f i libucrt:output.obj
 0001:000546c8       ?get_parameter_type@?$positional_parameter_base@DV?$string_output_adapter@D@__crt_stdio_output@@@__crt_stdio_output@@CA?AW4parameter_type@12@U_CRT_DOUBLE@@@Z 00000001800556c8 f i libucrt:output.obj
 0001:000546d0       ?get_parameter_type@?$positional_parameter_base@DV?$string_output_adapter@D@__crt_stdio_output@@@__crt_stdio_output@@CA?AW4parameter_type@12@_J@Z 00000001800556d0 f i libucrt:output.obj
 0001:000546d8       ?get_parameter_type@?$positional_parameter_base@DV?$string_output_adapter@D@__crt_stdio_output@@@__crt_stdio_output@@CA?AW4parameter_type@12@_K@Z 00000001800556d8 f i libucrt:output.obj
 0001:000546e0       ?get_parameter_type@?$positional_parameter_base@DV?$string_output_adapter@D@__crt_stdio_output@@@__crt_stdio_output@@CA?AW4parameter_type@12@_W@Z 00000001800556e0 f i libucrt:output.obj
 0001:000546e8       ?get_parameter_type@?$positional_parameter_base@_WV?$stream_output_adapter@_W@__crt_stdio_output@@@__crt_stdio_output@@CA?AW4parameter_type@12@F@Z 00000001800556e8 f i libucrt:output.obj
 0001:000546f0       ?get_parameter_type@?$positional_parameter_base@_WV?$stream_output_adapter@_W@__crt_stdio_output@@@__crt_stdio_output@@CA?AW4parameter_type@12@G@Z 00000001800556f0 f i libucrt:output.obj
 0001:000546f8       ?get_parameter_type@?$positional_parameter_base@_WV?$stream_output_adapter@_W@__crt_stdio_output@@@__crt_stdio_output@@CA?AW4parameter_type@12@H@Z 00000001800556f8 f i libucrt:output.obj
 0001:00054700       ?get_parameter_type@?$positional_parameter_base@_WV?$stream_output_adapter@_W@__crt_stdio_output@@@__crt_stdio_output@@CA?AW4parameter_type@12@I@Z 0000000180055700 f i libucrt:output.obj
 0001:00054708       ?get_parameter_type@?$positional_parameter_base@_WV?$stream_output_adapter@_W@__crt_stdio_output@@@__crt_stdio_output@@CA?AW4parameter_type@12@U_CRT_DOUBLE@@@Z 0000000180055708 f i libucrt:output.obj
 0001:00054710       ?get_parameter_type@?$positional_parameter_base@_WV?$stream_output_adapter@_W@__crt_stdio_output@@@__crt_stdio_output@@CA?AW4parameter_type@12@_J@Z 0000000180055710 f i libucrt:output.obj
 0001:00054718       ?get_parameter_type@?$positional_parameter_base@_WV?$stream_output_adapter@_W@__crt_stdio_output@@@__crt_stdio_output@@CA?AW4parameter_type@12@_K@Z 0000000180055718 f i libucrt:output.obj
 0001:00054720       ?get_parameter_type@?$positional_parameter_base@_WV?$stream_output_adapter@_W@__crt_stdio_output@@@__crt_stdio_output@@CA?AW4parameter_type@12@_W@Z 0000000180055720 f i libucrt:output.obj
 0001:00054728       ?get_parameter_type@?$positional_parameter_base@_WV?$string_output_adapter@_W@__crt_stdio_output@@@__crt_stdio_output@@CA?AW4parameter_type@12@F@Z 0000000180055728 f i libucrt:output.obj
 0001:00054730       ?get_parameter_type@?$positional_parameter_base@_WV?$string_output_adapter@_W@__crt_stdio_output@@@__crt_stdio_output@@CA?AW4parameter_type@12@G@Z 0000000180055730 f i libucrt:output.obj
 0001:00054738       ?get_parameter_type@?$positional_parameter_base@_WV?$string_output_adapter@_W@__crt_stdio_output@@@__crt_stdio_output@@CA?AW4parameter_type@12@H@Z 0000000180055738 f i libucrt:output.obj
 0001:00054740       ?get_parameter_type@?$positional_parameter_base@_WV?$string_output_adapter@_W@__crt_stdio_output@@@__crt_stdio_output@@CA?AW4parameter_type@12@I@Z 0000000180055740 f i libucrt:output.obj
 0001:00054748       ?get_parameter_type@?$positional_parameter_base@_WV?$string_output_adapter@_W@__crt_stdio_output@@@__crt_stdio_output@@CA?AW4parameter_type@12@U_CRT_DOUBLE@@@Z 0000000180055748 f i libucrt:output.obj
 0001:00054750       ?get_parameter_type@?$positional_parameter_base@_WV?$string_output_adapter@_W@__crt_stdio_output@@@__crt_stdio_output@@CA?AW4parameter_type@12@_J@Z 0000000180055750 f i libucrt:output.obj
 0001:00054758       ?get_parameter_type@?$positional_parameter_base@_WV?$string_output_adapter@_W@__crt_stdio_output@@@__crt_stdio_output@@CA?AW4parameter_type@12@_K@Z 0000000180055758 f i libucrt:output.obj
 0001:00054760       ?get_parameter_type@?$positional_parameter_base@_WV?$string_output_adapter@_W@__crt_stdio_output@@@__crt_stdio_output@@CA?AW4parameter_type@12@_W@Z 0000000180055760 f i libucrt:output.obj
 0001:00054770       ?get_raw_ptd@__crt_cached_ptd_host@@QEAAPEAU__acrt_ptd@@XZ 0000000180055770 f i libucrt:output.obj
 0001:000547d8       ?has_flag@?$output_processor@DV?$stream_output_adapter@D@__crt_stdio_output@@V?$format_validation_base@DV?$stream_output_adapter@D@__crt_stdio_output@@@2@@__crt_stdio_output@@AEBA_NI@Z 00000001800557d8 f i libucrt:output.obj
 0001:000547e0       ?has_flag@?$output_processor@DV?$stream_output_adapter@D@__crt_stdio_output@@V?$positional_parameter_base@DV?$stream_output_adapter@D@__crt_stdio_output@@@2@@__crt_stdio_output@@AEBA_NI@Z 00000001800557e0 f i libucrt:output.obj
 0001:000547e8       ?has_flag@?$output_processor@DV?$stream_output_adapter@D@__crt_stdio_output@@V?$standard_base@DV?$stream_output_adapter@D@__crt_stdio_output@@@2@@__crt_stdio_output@@AEBA_NI@Z 00000001800557e8 f i libucrt:output.obj
 0001:000547f0       ?has_flag@?$output_processor@DV?$string_output_adapter@D@__crt_stdio_output@@V?$format_validation_base@DV?$string_output_adapter@D@__crt_stdio_output@@@2@@__crt_stdio_output@@AEBA_NI@Z 00000001800557f0 f i libucrt:output.obj
 0001:000547f8       ?has_flag@?$output_processor@DV?$string_output_adapter@D@__crt_stdio_output@@V?$positional_parameter_base@DV?$string_output_adapter@D@__crt_stdio_output@@@2@@__crt_stdio_output@@AEBA_NI@Z 00000001800557f8 f i libucrt:output.obj
 0001:00054800       ?has_flag@?$output_processor@DV?$string_output_adapter@D@__crt_stdio_output@@V?$standard_base@DV?$string_output_adapter@D@__crt_stdio_output@@@2@@__crt_stdio_output@@AEBA_NI@Z 0000000180055800 f i libucrt:output.obj
 0001:00054808       ?has_flag@?$output_processor@_WV?$stream_output_adapter@_W@__crt_stdio_output@@V?$format_validation_base@_WV?$stream_output_adapter@_W@__crt_stdio_output@@@2@@__crt_stdio_output@@AEBA_NI@Z 0000000180055808 f i libucrt:output.obj
 0001:00054810       ?has_flag@?$output_processor@_WV?$stream_output_adapter@_W@__crt_stdio_output@@V?$positional_parameter_base@_WV?$stream_output_adapter@_W@__crt_stdio_output@@@2@@__crt_stdio_output@@AEBA_NI@Z 0000000180055810 f i libucrt:output.obj
 0001:00054818       ?has_flag@?$output_processor@_WV?$stream_output_adapter@_W@__crt_stdio_output@@V?$standard_base@_WV?$stream_output_adapter@_W@__crt_stdio_output@@@2@@__crt_stdio_output@@AEBA_NI@Z 0000000180055818 f i libucrt:output.obj
 0001:00054820       ?has_flag@?$output_processor@_WV?$string_output_adapter@_W@__crt_stdio_output@@V?$format_validation_base@_WV?$string_output_adapter@_W@__crt_stdio_output@@@2@@__crt_stdio_output@@AEBA_NI@Z 0000000180055820 f i libucrt:output.obj
 0001:00054828       ?has_flag@?$output_processor@_WV?$string_output_adapter@_W@__crt_stdio_output@@V?$positional_parameter_base@_WV?$string_output_adapter@_W@__crt_stdio_output@@@2@@__crt_stdio_output@@AEBA_NI@Z 0000000180055828 f i libucrt:output.obj
 0001:00054830       ?has_flag@?$output_processor@_WV?$string_output_adapter@_W@__crt_stdio_output@@V?$standard_base@_WV?$string_output_adapter@_W@__crt_stdio_output@@@2@@__crt_stdio_output@@AEBA_NI@Z 0000000180055830 f i libucrt:output.obj
 0001:00054838       ?is_positional_parameter_reappearance_consistent@?$positional_parameter_base@DV?$stream_output_adapter@D@__crt_stdio_output@@@__crt_stdio_output@@AEAA_NAEBUparameter_data@12@W4parameter_type@12@DW4length_modifier@2@@Z 0000000180055838 f i libucrt:output.obj
 0001:00054a6c       ?is_positional_parameter_reappearance_consistent@?$positional_parameter_base@DV?$string_output_adapter@D@__crt_stdio_output@@@__crt_stdio_output@@AEAA_NAEBUparameter_data@12@W4parameter_type@12@DW4length_modifier@2@@Z 0000000180055a6c f i libucrt:output.obj
 0001:00054ca0       ?is_positional_parameter_reappearance_consistent@?$positional_parameter_base@_WV?$stream_output_adapter@_W@__crt_stdio_output@@@__crt_stdio_output@@AEAA_NAEBUparameter_data@12@W4parameter_type@12@_WW4length_modifier@2@@Z 0000000180055ca0 f i libucrt:output.obj
 0001:00054ea4       ?is_positional_parameter_reappearance_consistent@?$positional_parameter_base@_WV?$string_output_adapter@_W@__crt_stdio_output@@@__crt_stdio_output@@AEAA_NAEBUparameter_data@12@W4parameter_type@12@_WW4length_modifier@2@@Z 0000000180055ea4 f i libucrt:output.obj
 0001:000550a8       ?is_string_backed@__crt_stdio_stream@@QEBA_NXZ 00000001800560a8 f i libucrt:output.obj
 0001:000550b4       ?maximum_signed_value@__crt_strtox@@YAJK@Z 00000001800560b4 f i libucrt:output.obj
 0001:000550bc       ?minimum_signed_value@__crt_strtox@@YAJK@Z 00000001800560bc f i libucrt:output.obj
 0001:000550c4       ?narrow_null_string@?$output_processor@DV?$stream_output_adapter@D@__crt_stdio_output@@V?$format_validation_base@DV?$stream_output_adapter@D@__crt_stdio_output@@@2@@__crt_stdio_output@@CAPEADXZ 00000001800560c4 f i libucrt:output.obj
 0001:000550cc       ?narrow_null_string@?$output_processor@DV?$stream_output_adapter@D@__crt_stdio_output@@V?$positional_parameter_base@DV?$stream_output_adapter@D@__crt_stdio_output@@@2@@__crt_stdio_output@@CAPEADXZ 00000001800560cc f i libucrt:output.obj
 0001:000550d4       ?narrow_null_string@?$output_processor@DV?$stream_output_adapter@D@__crt_stdio_output@@V?$standard_base@DV?$stream_output_adapter@D@__crt_stdio_output@@@2@@__crt_stdio_output@@CAPEADXZ 00000001800560d4 f i libucrt:output.obj
 0001:000550dc       ?narrow_null_string@?$output_processor@DV?$string_output_adapter@D@__crt_stdio_output@@V?$format_validation_base@DV?$string_output_adapter@D@__crt_stdio_output@@@2@@__crt_stdio_output@@CAPEADXZ 00000001800560dc f i libucrt:output.obj
 0001:000550e4       ?narrow_null_string@?$output_processor@DV?$string_output_adapter@D@__crt_stdio_output@@V?$positional_parameter_base@DV?$string_output_adapter@D@__crt_stdio_output@@@2@@__crt_stdio_output@@CAPEADXZ 00000001800560e4 f i libucrt:output.obj
 0001:000550ec       ?narrow_null_string@?$output_processor@DV?$string_output_adapter@D@__crt_stdio_output@@V?$standard_base@DV?$string_output_adapter@D@__crt_stdio_output@@@2@@__crt_stdio_output@@CAPEADXZ 00000001800560ec f i libucrt:output.obj
 0001:000550f4       ?narrow_null_string@?$output_processor@_WV?$stream_output_adapter@_W@__crt_stdio_output@@V?$format_validation_base@_WV?$stream_output_adapter@_W@__crt_stdio_output@@@2@@__crt_stdio_output@@CAPEADXZ 00000001800560f4 f i libucrt:output.obj
 0001:000550fc       ?narrow_null_string@?$output_processor@_WV?$stream_output_adapter@_W@__crt_stdio_output@@V?$positional_parameter_base@_WV?$stream_output_adapter@_W@__crt_stdio_output@@@2@@__crt_stdio_output@@CAPEADXZ 00000001800560fc f i libucrt:output.obj
 0001:00055104       ?narrow_null_string@?$output_processor@_WV?$stream_output_adapter@_W@__crt_stdio_output@@V?$standard_base@_WV?$stream_output_adapter@_W@__crt_stdio_output@@@2@@__crt_stdio_output@@CAPEADXZ 0000000180056104 f i libucrt:output.obj
 0001:0005510c       ?narrow_null_string@?$output_processor@_WV?$string_output_adapter@_W@__crt_stdio_output@@V?$format_validation_base@_WV?$string_output_adapter@_W@__crt_stdio_output@@@2@@__crt_stdio_output@@CAPEADXZ 000000018005610c f i libucrt:output.obj
 0001:00055114       ?narrow_null_string@?$output_processor@_WV?$string_output_adapter@_W@__crt_stdio_output@@V?$positional_parameter_base@_WV?$string_output_adapter@_W@__crt_stdio_output@@@2@@__crt_stdio_output@@CAPEADXZ 0000000180056114 f i libucrt:output.obj
 0001:0005511c       ?narrow_null_string@?$output_processor@_WV?$string_output_adapter@_W@__crt_stdio_output@@V?$standard_base@_WV?$string_output_adapter@_W@__crt_stdio_output@@@2@@__crt_stdio_output@@CAPEADXZ 000000018005611c f i libucrt:output.obj
 0001:00055124       ?parse_digit@__crt_strtox@@YAID@Z 0000000180056124 f i libucrt:output.obj
 0001:00055154       ?parse_digit@__crt_strtox@@YAI_W@Z 0000000180056154 f i libucrt:output.obj
 0001:00055310       ?parse_int_from_format_string@?$output_processor@DV?$stream_output_adapter@D@__crt_stdio_output@@V?$format_validation_base@DV?$stream_output_adapter@D@__crt_stdio_output@@@2@@__crt_stdio_output@@AEAA_NQEAH@Z 0000000180056310 f i libucrt:output.obj
 0001:000553a0       ?parse_int_from_format_string@?$output_processor@DV?$stream_output_adapter@D@__crt_stdio_output@@V?$positional_parameter_base@DV?$stream_output_adapter@D@__crt_stdio_output@@@2@@__crt_stdio_output@@AEAA_NQEAH@Z 00000001800563a0 f i libucrt:output.obj
 0001:00055430       ?parse_int_from_format_string@?$output_processor@DV?$stream_output_adapter@D@__crt_stdio_output@@V?$standard_base@DV?$stream_output_adapter@D@__crt_stdio_output@@@2@@__crt_stdio_output@@AEAA_NQEAH@Z 0000000180056430 f i libucrt:output.obj
 0001:000554c0       ?parse_int_from_format_string@?$output_processor@DV?$string_output_adapter@D@__crt_stdio_output@@V?$format_validation_base@DV?$string_output_adapter@D@__crt_stdio_output@@@2@@__crt_stdio_output@@AEAA_NQEAH@Z 00000001800564c0 f i libucrt:output.obj
 0001:00055550       ?parse_int_from_format_string@?$output_processor@DV?$string_output_adapter@D@__crt_stdio_output@@V?$positional_parameter_base@DV?$string_output_adapter@D@__crt_stdio_output@@@2@@__crt_stdio_output@@AEAA_NQEAH@Z 0000000180056550 f i libucrt:output.obj
 0001:000555e0       ?parse_int_from_format_string@?$output_processor@DV?$string_output_adapter@D@__crt_stdio_output@@V?$standard_base@DV?$string_output_adapter@D@__crt_stdio_output@@@2@@__crt_stdio_output@@AEAA_NQEAH@Z 00000001800565e0 f i libucrt:output.obj
 0001:00055670       ?parse_int_from_format_string@?$output_processor@_WV?$stream_output_adapter@_W@__crt_stdio_output@@V?$format_validation_base@_WV?$stream_output_adapter@_W@__crt_stdio_output@@@2@@__crt_stdio_output@@AEAA_NQEAH@Z 0000000180056670 f i libucrt:output.obj
 0001:00055700       ?parse_int_from_format_string@?$output_processor@_WV?$stream_output_adapter@_W@__crt_stdio_output@@V?$positional_parameter_base@_WV?$stream_output_adapter@_W@__crt_stdio_output@@@2@@__crt_stdio_output@@AEAA_NQEAH@Z 0000000180056700 f i libucrt:output.obj
 0001:00055790       ?parse_int_from_format_string@?$output_processor@_WV?$stream_output_adapter@_W@__crt_stdio_output@@V?$standard_base@_WV?$stream_output_adapter@_W@__crt_stdio_output@@@2@@__crt_stdio_output@@AEAA_NQEAH@Z 0000000180056790 f i libucrt:output.obj
 0001:00055820       ?parse_int_from_format_string@?$output_processor@_WV?$string_output_adapter@_W@__crt_stdio_output@@V?$format_validation_base@_WV?$string_output_adapter@_W@__crt_stdio_output@@@2@@__crt_stdio_output@@AEAA_NQEAH@Z 0000000180056820 f i libucrt:output.obj
 0001:000558b0       ?parse_int_from_format_string@?$output_processor@_WV?$string_output_adapter@_W@__crt_stdio_output@@V?$positional_parameter_base@_WV?$string_output_adapter@_W@__crt_stdio_output@@@2@@__crt_stdio_output@@AEAA_NQEAH@Z 00000001800568b0 f i libucrt:output.obj
 0001:00055940       ?parse_int_from_format_string@?$output_processor@_WV?$string_output_adapter@_W@__crt_stdio_output@@V?$standard_base@_WV?$string_output_adapter@_W@__crt_stdio_output@@@2@@__crt_stdio_output@@AEAA_NQEAH@Z 0000000180056940 f i libucrt:output.obj
 0001:000559d0       ?process@?$output_processor@DV?$stream_output_adapter@D@__crt_stdio_output@@V?$format_validation_base@DV?$stream_output_adapter@D@__crt_stdio_output@@@2@@__crt_stdio_output@@QEAAHXZ 00000001800569d0 f i libucrt:output.obj
 0001:00055d64       ?process@?$output_processor@DV?$stream_output_adapter@D@__crt_stdio_output@@V?$positional_parameter_base@DV?$stream_output_adapter@D@__crt_stdio_output@@@2@@__crt_stdio_output@@QEAAHXZ 0000000180056d64 f i libucrt:output.obj
 0001:0005618c       ?process@?$output_processor@DV?$stream_output_adapter@D@__crt_stdio_output@@V?$standard_base@DV?$stream_output_adapter@D@__crt_stdio_output@@@2@@__crt_stdio_output@@QEAAHXZ 000000018005718c f i libucrt:output.obj
 0001:00056518       ?process@?$output_processor@DV?$string_output_adapter@D@__crt_stdio_output@@V?$format_validation_base@DV?$string_output_adapter@D@__crt_stdio_output@@@2@@__crt_stdio_output@@QEAAHXZ 0000000180057518 f i libucrt:output.obj
 0001:000568a8       ?process@?$output_processor@DV?$string_output_adapter@D@__crt_stdio_output@@V?$positional_parameter_base@DV?$string_output_adapter@D@__crt_stdio_output@@@2@@__crt_stdio_output@@QEAAHXZ 00000001800578a8 f i libucrt:output.obj
 0001:00056cb4       ?process@?$output_processor@DV?$string_output_adapter@D@__crt_stdio_output@@V?$standard_base@DV?$string_output_adapter@D@__crt_stdio_output@@@2@@__crt_stdio_output@@QEAAHXZ 0000000180057cb4 f i libucrt:output.obj
 0001:00057038       ?process@?$output_processor@_WV?$stream_output_adapter@_W@__crt_stdio_output@@V?$format_validation_base@_WV?$stream_output_adapter@_W@__crt_stdio_output@@@2@@__crt_stdio_output@@QEAAHXZ 0000000180058038 f i libucrt:output.obj
 0001:0005731c       ?process@?$output_processor@_WV?$stream_output_adapter@_W@__crt_stdio_output@@V?$positional_parameter_base@_WV?$stream_output_adapter@_W@__crt_stdio_output@@@2@@__crt_stdio_output@@QEAAHXZ 000000018005831c f i libucrt:output.obj
 0001:00057698       ?process@?$output_processor@_WV?$stream_output_adapter@_W@__crt_stdio_output@@V?$standard_base@_WV?$stream_output_adapter@_W@__crt_stdio_output@@@2@@__crt_stdio_output@@QEAAHXZ 0000000180058698 f i libucrt:output.obj
 0001:00057954       ?process@?$output_processor@_WV?$string_output_adapter@_W@__crt_stdio_output@@V?$format_validation_base@_WV?$string_output_adapter@_W@__crt_stdio_output@@@2@@__crt_stdio_output@@QEAAHXZ 0000000180058954 f i libucrt:output.obj
 0001:00057c30       ?process@?$output_processor@_WV?$string_output_adapter@_W@__crt_stdio_output@@V?$positional_parameter_base@_WV?$string_output_adapter@_W@__crt_stdio_output@@@2@@__crt_stdio_output@@QEAAHXZ 0000000180058c30 f i libucrt:output.obj
 0001:00057fac       ?process@?$output_processor@_WV?$string_output_adapter@_W@__crt_stdio_output@@V?$standard_base@_WV?$string_output_adapter@_W@__crt_stdio_output@@@2@@__crt_stdio_output@@QEAAHXZ 0000000180058fac f i libucrt:output.obj
 0001:00058270       ?public_stream@__crt_stdio_stream@@QEBAPEAU_iobuf@@XZ 0000000180059270 f i libucrt:output.obj
 0001:00058274       ?restore_state@?$c_string_character_source@D@__crt_strtox@@QEAA_NQEBD@Z 0000000180059274 f i libucrt:output.obj
 0001:0005827c       ?restore_state@?$c_string_character_source@_W@__crt_strtox@@QEAA_NQEB_W@Z 000000018005927c f i libucrt:output.obj
 0001:00058284       ?save_state@?$c_string_character_source@D@__crt_strtox@@QEBAPEBDXZ 0000000180059284 f i libucrt:output.obj
 0001:00058288       ?save_state@?$c_string_character_source@_W@__crt_strtox@@QEBAPEB_WXZ 0000000180059288 f i libucrt:output.obj
 0001:0005828c       ?set@?$cached@H@__crt_cached_ptd_host@@QEAAHH@Z 000000018005928c f i libucrt:output.obj
 0001:00058298       ?set_flag@?$output_processor@DV?$stream_output_adapter@D@__crt_stdio_output@@V?$format_validation_base@DV?$stream_output_adapter@D@__crt_stdio_output@@@2@@__crt_stdio_output@@AEAAXI@Z 0000000180059298 f i libucrt:output.obj
 0001:0005829c       ?set_flag@?$output_processor@DV?$stream_output_adapter@D@__crt_stdio_output@@V?$positional_parameter_base@DV?$stream_output_adapter@D@__crt_stdio_output@@@2@@__crt_stdio_output@@AEAAXI@Z 000000018005929c f i libucrt:output.obj
 0001:000582a0       ?set_flag@?$output_processor@DV?$stream_output_adapter@D@__crt_stdio_output@@V?$standard_base@DV?$stream_output_adapter@D@__crt_stdio_output@@@2@@__crt_stdio_output@@AEAAXI@Z 00000001800592a0 f i libucrt:output.obj
 0001:000582a4       ?set_flag@?$output_processor@DV?$string_output_adapter@D@__crt_stdio_output@@V?$format_validation_base@DV?$string_output_adapter@D@__crt_stdio_output@@@2@@__crt_stdio_output@@AEAAXI@Z 00000001800592a4 f i libucrt:output.obj
 0001:000582a8       ?set_flag@?$output_processor@DV?$string_output_adapter@D@__crt_stdio_output@@V?$positional_parameter_base@DV?$string_output_adapter@D@__crt_stdio_output@@@2@@__crt_stdio_output@@AEAAXI@Z 00000001800592a8 f i libucrt:output.obj
 0001:000582ac       ?set_flag@?$output_processor@DV?$string_output_adapter@D@__crt_stdio_output@@V?$standard_base@DV?$string_output_adapter@D@__crt_stdio_output@@@2@@__crt_stdio_output@@AEAAXI@Z 00000001800592ac f i libucrt:output.obj
 0001:000582b0       ?set_flag@?$output_processor@_WV?$stream_output_adapter@_W@__crt_stdio_output@@V?$format_validation_base@_WV?$stream_output_adapter@_W@__crt_stdio_output@@@2@@__crt_stdio_output@@AEAAXI@Z 00000001800592b0 f i libucrt:output.obj
 0001:000582b4       ?set_flag@?$output_processor@_WV?$stream_output_adapter@_W@__crt_stdio_output@@V?$positional_parameter_base@_WV?$stream_output_adapter@_W@__crt_stdio_output@@@2@@__crt_stdio_output@@AEAAXI@Z 00000001800592b4 f i libucrt:output.obj
 0001:000582b8       ?set_flag@?$output_processor@_WV?$stream_output_adapter@_W@__crt_stdio_output@@V?$standard_base@_WV?$stream_output_adapter@_W@__crt_stdio_output@@@2@@__crt_stdio_output@@AEAAXI@Z 00000001800592b8 f i libucrt:output.obj
 0001:000582bc       ?set_flag@?$output_processor@_WV?$string_output_adapter@_W@__crt_stdio_output@@V?$format_validation_base@_WV?$string_output_adapter@_W@__crt_stdio_output@@@2@@__crt_stdio_output@@AEAAXI@Z 00000001800592bc f i libucrt:output.obj
 0001:000582c0       ?set_flag@?$output_processor@_WV?$string_output_adapter@_W@__crt_stdio_output@@V?$positional_parameter_base@_WV?$string_output_adapter@_W@__crt_stdio_output@@@2@@__crt_stdio_output@@AEAAXI@Z 00000001800592c0 f i libucrt:output.obj
 0001:000582c4       ?set_flag@?$output_processor@_WV?$string_output_adapter@_W@__crt_stdio_output@@V?$standard_base@_WV?$string_output_adapter@_W@__crt_stdio_output@@@2@@__crt_stdio_output@@AEAAXI@Z 00000001800592c4 f i libucrt:output.obj
 0001:000582c8       ?should_format@?$positional_parameter_base@DV?$stream_output_adapter@D@__crt_stdio_output@@@__crt_stdio_output@@IEAA_NXZ 00000001800592c8 f i libucrt:output.obj
 0001:000582e0       ?should_format@?$positional_parameter_base@DV?$string_output_adapter@D@__crt_stdio_output@@@__crt_stdio_output@@IEAA_NXZ 00000001800592e0 f i libucrt:output.obj
 0001:000582f8       ?should_format@?$positional_parameter_base@_WV?$stream_output_adapter@_W@__crt_stdio_output@@@__crt_stdio_output@@IEAA_NXZ 00000001800592f8 f i libucrt:output.obj
 0001:00058310       ?should_format@?$positional_parameter_base@_WV?$string_output_adapter@_W@__crt_stdio_output@@@__crt_stdio_output@@IEAA_NXZ 0000000180059310 f i libucrt:output.obj
 0001:00058328       ?should_format@?$standard_base@DV?$stream_output_adapter@D@__crt_stdio_output@@@__crt_stdio_output@@IEAA_NXZ 0000000180059328 f i libucrt:output.obj
 0001:0005832c       ?should_format@?$standard_base@DV?$string_output_adapter@D@__crt_stdio_output@@@__crt_stdio_output@@IEAA_NXZ 000000018005932c f i libucrt:output.obj
 0001:00058330       ?should_format@?$standard_base@_WV?$stream_output_adapter@_W@__crt_stdio_output@@@__crt_stdio_output@@IEAA_NXZ 0000000180059330 f i libucrt:output.obj
 0001:00058334       ?should_format@?$standard_base@_WV?$string_output_adapter@_W@__crt_stdio_output@@@__crt_stdio_output@@IEAA_NXZ 0000000180059334 f i libucrt:output.obj
 0001:00058338       ?should_skip_normal_state_processing@?$positional_parameter_base@DV?$stream_output_adapter@D@__crt_stdio_output@@@__crt_stdio_output@@IEAA_NXZ 0000000180059338 f i libucrt:output.obj
 0001:00058360       ?should_skip_normal_state_processing@?$positional_parameter_base@DV?$string_output_adapter@D@__crt_stdio_output@@@__crt_stdio_output@@IEAA_NXZ 0000000180059360 f i libucrt:output.obj
 0001:00058388       ?should_skip_normal_state_processing@?$positional_parameter_base@_WV?$stream_output_adapter@_W@__crt_stdio_output@@@__crt_stdio_output@@IEAA_NXZ 0000000180059388 f i libucrt:output.obj
 0001:000583b0       ?should_skip_normal_state_processing@?$positional_parameter_base@_WV?$string_output_adapter@_W@__crt_stdio_output@@@__crt_stdio_output@@IEAA_NXZ 00000001800593b0 f i libucrt:output.obj
 0001:000583d8       ?should_skip_normal_state_processing@?$standard_base@DV?$stream_output_adapter@D@__crt_stdio_output@@@__crt_stdio_output@@IEAA_NXZ 00000001800593d8 f i libucrt:output.obj
 0001:000583dc       ?should_skip_normal_state_processing@?$standard_base@DV?$string_output_adapter@D@__crt_stdio_output@@@__crt_stdio_output@@IEAA_NXZ 00000001800593dc f i libucrt:output.obj
 0001:000583e0       ?should_skip_normal_state_processing@?$standard_base@_WV?$stream_output_adapter@_W@__crt_stdio_output@@@__crt_stdio_output@@IEAA_NXZ 00000001800593e0 f i libucrt:output.obj
 0001:000583e4       ?should_skip_normal_state_processing@?$standard_base@_WV?$string_output_adapter@_W@__crt_stdio_output@@@__crt_stdio_output@@IEAA_NXZ 00000001800593e4 f i libucrt:output.obj
 0001:000583e8       ?should_skip_type_state_output@?$positional_parameter_base@DV?$stream_output_adapter@D@__crt_stdio_output@@@__crt_stdio_output@@IEBA_NXZ 00000001800593e8 f i libucrt:output.obj
 0001:00058404       ?should_skip_type_state_output@?$positional_parameter_base@DV?$string_output_adapter@D@__crt_stdio_output@@@__crt_stdio_output@@IEBA_NXZ 0000000180059404 f i libucrt:output.obj
 0001:00058420       ?should_skip_type_state_output@?$positional_parameter_base@_WV?$stream_output_adapter@_W@__crt_stdio_output@@@__crt_stdio_output@@IEBA_NXZ 0000000180059420 f i libucrt:output.obj
 0001:0005843c       ?should_skip_type_state_output@?$positional_parameter_base@_WV?$string_output_adapter@_W@__crt_stdio_output@@@__crt_stdio_output@@IEBA_NXZ 000000018005943c f i libucrt:output.obj
 0001:00058458       ?should_skip_type_state_output@?$standard_base@DV?$stream_output_adapter@D@__crt_stdio_output@@@__crt_stdio_output@@IEBA_NXZ 0000000180059458 f i libucrt:output.obj
 0001:0005845c       ?should_skip_type_state_output@?$standard_base@DV?$string_output_adapter@D@__crt_stdio_output@@@__crt_stdio_output@@IEBA_NXZ 000000018005945c f i libucrt:output.obj
 0001:00058460       ?should_skip_type_state_output@?$standard_base@_WV?$stream_output_adapter@_W@__crt_stdio_output@@@__crt_stdio_output@@IEBA_NXZ 0000000180059460 f i libucrt:output.obj
 0001:00058464       ?should_skip_type_state_output@?$standard_base@_WV?$string_output_adapter@_W@__crt_stdio_output@@@__crt_stdio_output@@IEBA_NXZ 0000000180059464 f i libucrt:output.obj
 0001:00058468       ?state_case_dot@?$output_processor@DV?$stream_output_adapter@D@__crt_stdio_output@@V?$format_validation_base@DV?$stream_output_adapter@D@__crt_stdio_output@@@2@@__crt_stdio_output@@AEAA_NXZ 0000000180059468 f i libucrt:output.obj
 0001:00058470       ?state_case_dot@?$output_processor@DV?$stream_output_adapter@D@__crt_stdio_output@@V?$positional_parameter_base@DV?$stream_output_adapter@D@__crt_stdio_output@@@2@@__crt_stdio_output@@AEAA_NXZ 0000000180059470 f i libucrt:output.obj
 0001:00058478       ?state_case_dot@?$output_processor@DV?$stream_output_adapter@D@__crt_stdio_output@@V?$standard_base@DV?$stream_output_adapter@D@__crt_stdio_output@@@2@@__crt_stdio_output@@AEAA_NXZ 0000000180059478 f i libucrt:output.obj
 0001:00058480       ?state_case_dot@?$output_processor@DV?$string_output_adapter@D@__crt_stdio_output@@V?$format_validation_base@DV?$string_output_adapter@D@__crt_stdio_output@@@2@@__crt_stdio_output@@AEAA_NXZ 0000000180059480 f i libucrt:output.obj
 0001:00058488       ?state_case_dot@?$output_processor@DV?$string_output_adapter@D@__crt_stdio_output@@V?$positional_parameter_base@DV?$string_output_adapter@D@__crt_stdio_output@@@2@@__crt_stdio_output@@AEAA_NXZ 0000000180059488 f i libucrt:output.obj
 0001:00058490       ?state_case_dot@?$output_processor@DV?$string_output_adapter@D@__crt_stdio_output@@V?$standard_base@DV?$string_output_adapter@D@__crt_stdio_output@@@2@@__crt_stdio_output@@AEAA_NXZ 0000000180059490 f i libucrt:output.obj
 0001:00058498       ?state_case_dot@?$output_processor@_WV?$stream_output_adapter@_W@__crt_stdio_output@@V?$format_validation_base@_WV?$stream_output_adapter@_W@__crt_stdio_output@@@2@@__crt_stdio_output@@AEAA_NXZ 0000000180059498 f i libucrt:output.obj
 0001:000584a0       ?state_case_dot@?$output_processor@_WV?$stream_output_adapter@_W@__crt_stdio_output@@V?$positional_parameter_base@_WV?$stream_output_adapter@_W@__crt_stdio_output@@@2@@__crt_stdio_output@@AEAA_NXZ 00000001800594a0 f i libucrt:output.obj
 0001:000584a8       ?state_case_dot@?$output_processor@_WV?$stream_output_adapter@_W@__crt_stdio_output@@V?$standard_base@_WV?$stream_output_adapter@_W@__crt_stdio_output@@@2@@__crt_stdio_output@@AEAA_NXZ 00000001800594a8 f i libucrt:output.obj
 0001:000584b0       ?state_case_dot@?$output_processor@_WV?$string_output_adapter@_W@__crt_stdio_output@@V?$format_validation_base@_WV?$string_output_adapter@_W@__crt_stdio_output@@@2@@__crt_stdio_output@@AEAA_NXZ 00000001800594b0 f i libucrt:output.obj
 0001:000584b8       ?state_case_dot@?$output_processor@_WV?$string_output_adapter@_W@__crt_stdio_output@@V?$positional_parameter_base@_WV?$string_output_adapter@_W@__crt_stdio_output@@@2@@__crt_stdio_output@@AEAA_NXZ 00000001800594b8 f i libucrt:output.obj
 0001:000584c0       ?state_case_dot@?$output_processor@_WV?$string_output_adapter@_W@__crt_stdio_output@@V?$standard_base@_WV?$string_output_adapter@_W@__crt_stdio_output@@@2@@__crt_stdio_output@@AEAA_NXZ 00000001800594c0 f i libucrt:output.obj
 0001:000584c8       ?state_case_flag@?$output_processor@DV?$stream_output_adapter@D@__crt_stdio_output@@V?$format_validation_base@DV?$stream_output_adapter@D@__crt_stdio_output@@@2@@__crt_stdio_output@@AEAA_NXZ 00000001800594c8 f i libucrt:output.obj
 0001:00058500       ?state_case_flag@?$output_processor@DV?$stream_output_adapter@D@__crt_stdio_output@@V?$positional_parameter_base@DV?$stream_output_adapter@D@__crt_stdio_output@@@2@@__crt_stdio_output@@AEAA_NXZ 0000000180059500 f i libucrt:output.obj
 0001:00058538       ?state_case_flag@?$output_processor@DV?$stream_output_adapter@D@__crt_stdio_output@@V?$standard_base@DV?$stream_output_adapter@D@__crt_stdio_output@@@2@@__crt_stdio_output@@AEAA_NXZ 0000000180059538 f i libucrt:output.obj
 0001:00058570       ?state_case_flag@?$output_processor@DV?$string_output_adapter@D@__crt_stdio_output@@V?$format_validation_base@DV?$string_output_adapter@D@__crt_stdio_output@@@2@@__crt_stdio_output@@AEAA_NXZ 0000000180059570 f i libucrt:output.obj
 0001:000585a8       ?state_case_flag@?$output_processor@DV?$string_output_adapter@D@__crt_stdio_output@@V?$positional_parameter_base@DV?$string_output_adapter@D@__crt_stdio_output@@@2@@__crt_stdio_output@@AEAA_NXZ 00000001800595a8 f i libucrt:output.obj
 0001:000585e0       ?state_case_flag@?$output_processor@DV?$string_output_adapter@D@__crt_stdio_output@@V?$standard_base@DV?$string_output_adapter@D@__crt_stdio_output@@@2@@__crt_stdio_output@@AEAA_NXZ 00000001800595e0 f i libucrt:output.obj
 0001:00058618       ?state_case_flag@?$output_processor@_WV?$stream_output_adapter@_W@__crt_stdio_output@@V?$format_validation_base@_WV?$stream_output_adapter@_W@__crt_stdio_output@@@2@@__crt_stdio_output@@AEAA_NXZ 0000000180059618 f i libucrt:output.obj
 0001:0005865c       ?state_case_flag@?$output_processor@_WV?$stream_output_adapter@_W@__crt_stdio_output@@V?$positional_parameter_base@_WV?$stream_output_adapter@_W@__crt_stdio_output@@@2@@__crt_stdio_output@@AEAA_NXZ 000000018005965c f i libucrt:output.obj
 0001:000586a0       ?state_case_flag@?$output_processor@_WV?$stream_output_adapter@_W@__crt_stdio_output@@V?$standard_base@_WV?$stream_output_adapter@_W@__crt_stdio_output@@@2@@__crt_stdio_output@@AEAA_NXZ 00000001800596a0 f i libucrt:output.obj
 0001:000586e4       ?state_case_flag@?$output_processor@_WV?$string_output_adapter@_W@__crt_stdio_output@@V?$format_validation_base@_WV?$string_output_adapter@_W@__crt_stdio_output@@@2@@__crt_stdio_output@@AEAA_NXZ 00000001800596e4 f i libucrt:output.obj
 0001:00058728       ?state_case_flag@?$output_processor@_WV?$string_output_adapter@_W@__crt_stdio_output@@V?$positional_parameter_base@_WV?$string_output_adapter@_W@__crt_stdio_output@@@2@@__crt_stdio_output@@AEAA_NXZ 0000000180059728 f i libucrt:output.obj
 0001:0005876c       ?state_case_flag@?$output_processor@_WV?$string_output_adapter@_W@__crt_stdio_output@@V?$standard_base@_WV?$string_output_adapter@_W@__crt_stdio_output@@@2@@__crt_stdio_output@@AEAA_NXZ 000000018005976c f i libucrt:output.obj
 0001:000587b0       ?state_case_normal@?$output_processor@DV?$stream_output_adapter@D@__crt_stdio_output@@V?$format_validation_base@DV?$stream_output_adapter@D@__crt_stdio_output@@@2@@__crt_stdio_output@@AEAA_NXZ 00000001800597b0 f i libucrt:output.obj
 0001:00058904       ?state_case_normal@?$output_processor@DV?$stream_output_adapter@D@__crt_stdio_output@@V?$positional_parameter_base@DV?$stream_output_adapter@D@__crt_stdio_output@@@2@@__crt_stdio_output@@AEAA_NXZ 0000000180059904 f i libucrt:output.obj
 0001:00058a80       ?state_case_normal@?$output_processor@DV?$stream_output_adapter@D@__crt_stdio_output@@V?$standard_base@DV?$stream_output_adapter@D@__crt_stdio_output@@@2@@__crt_stdio_output@@AEAA_NXZ 0000000180059a80 f i libucrt:output.obj
 0001:00058bd4       ?state_case_normal@?$output_processor@DV?$string_output_adapter@D@__crt_stdio_output@@V?$format_validation_base@DV?$string_output_adapter@D@__crt_stdio_output@@@2@@__crt_stdio_output@@AEAA_NXZ 0000000180059bd4 f i libucrt:output.obj
 0001:00058d20       ?state_case_normal@?$output_processor@DV?$string_output_adapter@D@__crt_stdio_output@@V?$positional_parameter_base@DV?$string_output_adapter@D@__crt_stdio_output@@@2@@__crt_stdio_output@@AEAA_NXZ 0000000180059d20 f i libucrt:output.obj
 0001:00058e98       ?state_case_normal@?$output_processor@DV?$string_output_adapter@D@__crt_stdio_output@@V?$standard_base@DV?$string_output_adapter@D@__crt_stdio_output@@@2@@__crt_stdio_output@@AEAA_NXZ 0000000180059e98 f i libucrt:output.obj
 0001:00058fe4       ?state_case_normal@?$output_processor@_WV?$stream_output_adapter@_W@__crt_stdio_output@@V?$format_validation_base@_WV?$stream_output_adapter@_W@__crt_stdio_output@@@2@@__crt_stdio_output@@AEAA_NXZ 0000000180059fe4 f i libucrt:output.obj
 0001:00059040       ?state_case_normal@?$output_processor@_WV?$stream_output_adapter@_W@__crt_stdio_output@@V?$positional_parameter_base@_WV?$stream_output_adapter@_W@__crt_stdio_output@@@2@@__crt_stdio_output@@AEAA_NXZ 000000018005a040 f i libucrt:output.obj
 0001:000590c0       ?state_case_normal@?$output_processor@_WV?$stream_output_adapter@_W@__crt_stdio_output@@V?$standard_base@_WV?$stream_output_adapter@_W@__crt_stdio_output@@@2@@__crt_stdio_output@@AEAA_NXZ 000000018005a0c0 f i libucrt:output.obj
 0001:0005911c       ?state_case_normal@?$output_processor@_WV?$string_output_adapter@_W@__crt_stdio_output@@V?$format_validation_base@_WV?$string_output_adapter@_W@__crt_stdio_output@@@2@@__crt_stdio_output@@AEAA_NXZ 000000018005a11c f i libucrt:output.obj
 0001:00059170       ?state_case_normal@?$output_processor@_WV?$string_output_adapter@_W@__crt_stdio_output@@V?$positional_parameter_base@_WV?$string_output_adapter@_W@__crt_stdio_output@@@2@@__crt_stdio_output@@AEAA_NXZ 000000018005a170 f i libucrt:output.obj
 0001:000591e8       ?state_case_normal@?$output_processor@_WV?$string_output_adapter@_W@__crt_stdio_output@@V?$standard_base@_WV?$string_output_adapter@_W@__crt_stdio_output@@@2@@__crt_stdio_output@@AEAA_NXZ 000000018005a1e8 f i libucrt:output.obj
 0001:0005923c       ?state_case_normal_common@?$output_processor@DV?$stream_output_adapter@D@__crt_stdio_output@@V?$format_validation_base@DV?$stream_output_adapter@D@__crt_stdio_output@@@2@@__crt_stdio_output@@AEAA_NXZ 000000018005a23c f i libucrt:output.obj
 0001:00059364       ?state_case_normal_common@?$output_processor@DV?$stream_output_adapter@D@__crt_stdio_output@@V?$positional_parameter_base@DV?$stream_output_adapter@D@__crt_stdio_output@@@2@@__crt_stdio_output@@AEAA_NXZ 000000018005a364 f i libucrt:output.obj
 0001:0005948c       ?state_case_normal_common@?$output_processor@DV?$stream_output_adapter@D@__crt_stdio_output@@V?$standard_base@DV?$stream_output_adapter@D@__crt_stdio_output@@@2@@__crt_stdio_output@@AEAA_NXZ 000000018005a48c f i libucrt:output.obj
 0001:000595b4       ?state_case_normal_common@?$output_processor@DV?$string_output_adapter@D@__crt_stdio_output@@V?$format_validation_base@DV?$string_output_adapter@D@__crt_stdio_output@@@2@@__crt_stdio_output@@AEAA_NXZ 000000018005a5b4 f i libucrt:output.obj
 0001:000596d8       ?state_case_normal_common@?$output_processor@DV?$string_output_adapter@D@__crt_stdio_output@@V?$positional_parameter_base@DV?$string_output_adapter@D@__crt_stdio_output@@@2@@__crt_stdio_output@@AEAA_NXZ 000000018005a6d8 f i libucrt:output.obj
 0001:000597fc       ?state_case_normal_common@?$output_processor@DV?$string_output_adapter@D@__crt_stdio_output@@V?$standard_base@DV?$string_output_adapter@D@__crt_stdio_output@@@2@@__crt_stdio_output@@AEAA_NXZ 000000018005a7fc f i libucrt:output.obj
 0001:00059920       ?state_case_normal_common@?$output_processor@_WV?$stream_output_adapter@_W@__crt_stdio_output@@V?$format_validation_base@_WV?$stream_output_adapter@_W@__crt_stdio_output@@@2@@__crt_stdio_output@@AEAA_NXZ 000000018005a920 f i libucrt:output.obj
 0001:0005997c       ?state_case_normal_common@?$output_processor@_WV?$stream_output_adapter@_W@__crt_stdio_output@@V?$positional_parameter_base@_WV?$stream_output_adapter@_W@__crt_stdio_output@@@2@@__crt_stdio_output@@AEAA_NXZ 000000018005a97c f i libucrt:output.obj
 0001:000599d8       ?state_case_normal_common@?$output_processor@_WV?$stream_output_adapter@_W@__crt_stdio_output@@V?$standard_base@_WV?$stream_output_adapter@_W@__crt_stdio_output@@@2@@__crt_stdio_output@@AEAA_NXZ 000000018005a9d8 f i libucrt:output.obj
 0001:00059a34       ?state_case_normal_common@?$output_processor@_WV?$string_output_adapter@_W@__crt_stdio_output@@V?$format_validation_base@_WV?$string_output_adapter@_W@__crt_stdio_output@@@2@@__crt_stdio_output@@AEAA_NXZ 000000018005aa34 f i libucrt:output.obj
 0001:00059a88       ?state_case_normal_common@?$output_processor@_WV?$string_output_adapter@_W@__crt_stdio_output@@V?$positional_parameter_base@_WV?$string_output_adapter@_W@__crt_stdio_output@@@2@@__crt_stdio_output@@AEAA_NXZ 000000018005aa88 f i libucrt:output.obj
 0001:00059adc       ?state_case_normal_common@?$output_processor@_WV?$string_output_adapter@_W@__crt_stdio_output@@V?$standard_base@_WV?$string_output_adapter@_W@__crt_stdio_output@@@2@@__crt_stdio_output@@AEAA_NXZ 000000018005aadc f i libucrt:output.obj
 0001:00059b30       ?state_case_normal_tchar@?$output_processor@DV?$stream_output_adapter@D@__crt_stdio_output@@V?$format_validation_base@DV?$stream_output_adapter@D@__crt_stdio_output@@@2@@__crt_stdio_output@@AEAA_ND@Z 000000018005ab30 f i libucrt:output.obj
 0001:00059c0c       ?state_case_normal_tchar@?$output_processor@DV?$stream_output_adapter@D@__crt_stdio_output@@V?$positional_parameter_base@DV?$stream_output_adapter@D@__crt_stdio_output@@@2@@__crt_stdio_output@@AEAA_ND@Z 000000018005ac0c f i libucrt:output.obj
 0001:00059ce8       ?state_case_normal_tchar@?$output_processor@DV?$stream_output_adapter@D@__crt_stdio_output@@V?$standard_base@DV?$stream_output_adapter@D@__crt_stdio_output@@@2@@__crt_stdio_output@@AEAA_ND@Z 000000018005ace8 f i libucrt:output.obj
 0001:00059dc4       ?state_case_normal_tchar@?$output_processor@DV?$string_output_adapter@D@__crt_stdio_output@@V?$format_validation_base@DV?$string_output_adapter@D@__crt_stdio_output@@@2@@__crt_stdio_output@@AEAA_ND@Z 000000018005adc4 f i libucrt:output.obj
 0001:00059ea0       ?state_case_normal_tchar@?$output_processor@DV?$string_output_adapter@D@__crt_stdio_output@@V?$positional_parameter_base@DV?$string_output_adapter@D@__crt_stdio_output@@@2@@__crt_stdio_output@@AEAA_ND@Z 000000018005aea0 f i libucrt:output.obj
 0001:00059f7c       ?state_case_normal_tchar@?$output_processor@DV?$string_output_adapter@D@__crt_stdio_output@@V?$standard_base@DV?$string_output_adapter@D@__crt_stdio_output@@@2@@__crt_stdio_output@@AEAA_ND@Z 000000018005af7c f i libucrt:output.obj
 0001:0005a058       ?state_case_normal_tchar@?$output_processor@_WV?$stream_output_adapter@_W@__crt_stdio_output@@V?$format_validation_base@_WV?$stream_output_adapter@_W@__crt_stdio_output@@@2@@__crt_stdio_output@@AEAA_N_W@Z 000000018005b058 f i libucrt:output.obj
 0001:0005a060       ?state_case_normal_tchar@?$output_processor@_WV?$stream_output_adapter@_W@__crt_stdio_output@@V?$positional_parameter_base@_WV?$stream_output_adapter@_W@__crt_stdio_output@@@2@@__crt_stdio_output@@AEAA_N_W@Z 000000018005b060 f i libucrt:output.obj
 0001:0005a068       ?state_case_normal_tchar@?$output_processor@_WV?$stream_output_adapter@_W@__crt_stdio_output@@V?$standard_base@_WV?$stream_output_adapter@_W@__crt_stdio_output@@@2@@__crt_stdio_output@@AEAA_N_W@Z 000000018005b068 f i libucrt:output.obj
 0001:0005a070       ?state_case_normal_tchar@?$output_processor@_WV?$string_output_adapter@_W@__crt_stdio_output@@V?$format_validation_base@_WV?$string_output_adapter@_W@__crt_stdio_output@@@2@@__crt_stdio_output@@AEAA_N_W@Z 000000018005b070 f i libucrt:output.obj
 0001:0005a078       ?state_case_normal_tchar@?$output_processor@_WV?$string_output_adapter@_W@__crt_stdio_output@@V?$positional_parameter_base@_WV?$string_output_adapter@_W@__crt_stdio_output@@@2@@__crt_stdio_output@@AEAA_N_W@Z 000000018005b078 f i libucrt:output.obj
 0001:0005a080       ?state_case_normal_tchar@?$output_processor@_WV?$string_output_adapter@_W@__crt_stdio_output@@V?$standard_base@_WV?$string_output_adapter@_W@__crt_stdio_output@@@2@@__crt_stdio_output@@AEAA_N_W@Z 000000018005b080 f i libucrt:output.obj
 0001:0005a088       ?state_case_percent@?$output_processor@DV?$stream_output_adapter@D@__crt_stdio_output@@V?$format_validation_base@DV?$stream_output_adapter@D@__crt_stdio_output@@@2@@__crt_stdio_output@@AEAA_NXZ 000000018005b088 f i libucrt:output.obj
 0001:0005a0a0       ?state_case_percent@?$output_processor@DV?$stream_output_adapter@D@__crt_stdio_output@@V?$positional_parameter_base@DV?$stream_output_adapter@D@__crt_stdio_output@@@2@@__crt_stdio_output@@AEAA_NXZ 000000018005b0a0 f i libucrt:output.obj
 0001:0005a0b8       ?state_case_percent@?$output_processor@DV?$stream_output_adapter@D@__crt_stdio_output@@V?$standard_base@DV?$stream_output_adapter@D@__crt_stdio_output@@@2@@__crt_stdio_output@@AEAA_NXZ 000000018005b0b8 f i libucrt:output.obj
 0001:0005a0d0       ?state_case_percent@?$output_processor@DV?$string_output_adapter@D@__crt_stdio_output@@V?$format_validation_base@DV?$string_output_adapter@D@__crt_stdio_output@@@2@@__crt_stdio_output@@AEAA_NXZ 000000018005b0d0 f i libucrt:output.obj
 0001:0005a0e8       ?state_case_percent@?$output_processor@DV?$string_output_adapter@D@__crt_stdio_output@@V?$positional_parameter_base@DV?$string_output_adapter@D@__crt_stdio_output@@@2@@__crt_stdio_output@@AEAA_NXZ 000000018005b0e8 f i libucrt:output.obj
 0001:0005a100       ?state_case_percent@?$output_processor@DV?$string_output_adapter@D@__crt_stdio_output@@V?$standard_base@DV?$string_output_adapter@D@__crt_stdio_output@@@2@@__crt_stdio_output@@AEAA_NXZ 000000018005b100 f i libucrt:output.obj
 0001:0005a118       ?state_case_percent@?$output_processor@_WV?$stream_output_adapter@_W@__crt_stdio_output@@V?$format_validation_base@_WV?$stream_output_adapter@_W@__crt_stdio_output@@@2@@__crt_stdio_output@@AEAA_NXZ 000000018005b118 f i libucrt:output.obj
 0001:0005a130       ?state_case_percent@?$output_processor@_WV?$stream_output_adapter@_W@__crt_stdio_output@@V?$positional_parameter_base@_WV?$stream_output_adapter@_W@__crt_stdio_output@@@2@@__crt_stdio_output@@AEAA_NXZ 000000018005b130 f i libucrt:output.obj
 0001:0005a148       ?state_case_percent@?$output_processor@_WV?$stream_output_adapter@_W@__crt_stdio_output@@V?$standard_base@_WV?$stream_output_adapter@_W@__crt_stdio_output@@@2@@__crt_stdio_output@@AEAA_NXZ 000000018005b148 f i libucrt:output.obj
 0001:0005a160       ?state_case_percent@?$output_processor@_WV?$string_output_adapter@_W@__crt_stdio_output@@V?$format_validation_base@_WV?$string_output_adapter@_W@__crt_stdio_output@@@2@@__crt_stdio_output@@AEAA_NXZ 000000018005b160 f i libucrt:output.obj
 0001:0005a178       ?state_case_percent@?$output_processor@_WV?$string_output_adapter@_W@__crt_stdio_output@@V?$positional_parameter_base@_WV?$string_output_adapter@_W@__crt_stdio_output@@@2@@__crt_stdio_output@@AEAA_NXZ 000000018005b178 f i libucrt:output.obj
 0001:0005a190       ?state_case_percent@?$output_processor@_WV?$string_output_adapter@_W@__crt_stdio_output@@V?$standard_base@_WV?$string_output_adapter@_W@__crt_stdio_output@@@2@@__crt_stdio_output@@AEAA_NXZ 000000018005b190 f i libucrt:output.obj
 0001:0005a1a8       ?state_case_precision@?$output_processor@DV?$stream_output_adapter@D@__crt_stdio_output@@V?$format_validation_base@DV?$stream_output_adapter@D@__crt_stdio_output@@@2@@__crt_stdio_output@@AEAA_NXZ 000000018005b1a8 f i libucrt:output.obj
 0001:0005a1d0       ?state_case_precision@?$output_processor@DV?$stream_output_adapter@D@__crt_stdio_output@@V?$positional_parameter_base@DV?$stream_output_adapter@D@__crt_stdio_output@@@2@@__crt_stdio_output@@AEAA_NXZ 000000018005b1d0 f i libucrt:output.obj
 0001:0005a21c       ?state_case_precision@?$output_processor@DV?$stream_output_adapter@D@__crt_stdio_output@@V?$standard_base@DV?$stream_output_adapter@D@__crt_stdio_output@@@2@@__crt_stdio_output@@AEAA_NXZ 000000018005b21c f i libucrt:output.obj
 0001:0005a244       ?state_case_precision@?$output_processor@DV?$string_output_adapter@D@__crt_stdio_output@@V?$format_validation_base@DV?$string_output_adapter@D@__crt_stdio_output@@@2@@__crt_stdio_output@@AEAA_NXZ 000000018005b244 f i libucrt:output.obj
 0001:0005a26c       ?state_case_precision@?$output_processor@DV?$string_output_adapter@D@__crt_stdio_output@@V?$positional_parameter_base@DV?$string_output_adapter@D@__crt_stdio_output@@@2@@__crt_stdio_output@@AEAA_NXZ 000000018005b26c f i libucrt:output.obj
 0001:0005a2b8       ?state_case_precision@?$output_processor@DV?$string_output_adapter@D@__crt_stdio_output@@V?$standard_base@DV?$string_output_adapter@D@__crt_stdio_output@@@2@@__crt_stdio_output@@AEAA_NXZ 000000018005b2b8 f i libucrt:output.obj
 0001:0005a2e0       ?state_case_precision@?$output_processor@_WV?$stream_output_adapter@_W@__crt_stdio_output@@V?$format_validation_base@_WV?$stream_output_adapter@_W@__crt_stdio_output@@@2@@__crt_stdio_output@@AEAA_NXZ 000000018005b2e0 f i libucrt:output.obj
 0001:0005a308       ?state_case_precision@?$output_processor@_WV?$stream_output_adapter@_W@__crt_stdio_output@@V?$positional_parameter_base@_WV?$stream_output_adapter@_W@__crt_stdio_output@@@2@@__crt_stdio_output@@AEAA_NXZ 000000018005b308 f i libucrt:output.obj
 0001:0005a354       ?state_case_precision@?$output_processor@_WV?$stream_output_adapter@_W@__crt_stdio_output@@V?$standard_base@_WV?$stream_output_adapter@_W@__crt_stdio_output@@@2@@__crt_stdio_output@@AEAA_NXZ 000000018005b354 f i libucrt:output.obj
 0001:0005a37c       ?state_case_precision@?$output_processor@_WV?$string_output_adapter@_W@__crt_stdio_output@@V?$format_validation_base@_WV?$string_output_adapter@_W@__crt_stdio_output@@@2@@__crt_stdio_output@@AEAA_NXZ 000000018005b37c f i libucrt:output.obj
 0001:0005a3a4       ?state_case_precision@?$output_processor@_WV?$string_output_adapter@_W@__crt_stdio_output@@V?$positional_parameter_base@_WV?$string_output_adapter@_W@__crt_stdio_output@@@2@@__crt_stdio_output@@AEAA_NXZ 000000018005b3a4 f i libucrt:output.obj
 0001:0005a3f0       ?state_case_precision@?$output_processor@_WV?$string_output_adapter@_W@__crt_stdio_output@@V?$standard_base@_WV?$string_output_adapter@_W@__crt_stdio_output@@@2@@__crt_stdio_output@@AEAA_NXZ 000000018005b3f0 f i libucrt:output.obj
 0001:0005a418       ?state_case_size@?$output_processor@DV?$stream_output_adapter@D@__crt_stdio_output@@V?$format_validation_base@DV?$stream_output_adapter@D@__crt_stdio_output@@@2@@__crt_stdio_output@@AEAA_NXZ 000000018005b418 f i libucrt:output.obj
 0001:0005a59c       ?state_case_size@?$output_processor@DV?$stream_output_adapter@D@__crt_stdio_output@@V?$positional_parameter_base@DV?$stream_output_adapter@D@__crt_stdio_output@@@2@@__crt_stdio_output@@AEAA_NXZ 000000018005b59c f i libucrt:output.obj
 0001:0005a720       ?state_case_size@?$output_processor@DV?$stream_output_adapter@D@__crt_stdio_output@@V?$standard_base@DV?$stream_output_adapter@D@__crt_stdio_output@@@2@@__crt_stdio_output@@AEAA_NXZ 000000018005b720 f i libucrt:output.obj
 0001:0005a8a4       ?state_case_size@?$output_processor@DV?$string_output_adapter@D@__crt_stdio_output@@V?$format_validation_base@DV?$string_output_adapter@D@__crt_stdio_output@@@2@@__crt_stdio_output@@AEAA_NXZ 000000018005b8a4 f i libucrt:output.obj
 0001:0005aa28       ?state_case_size@?$output_processor@DV?$string_output_adapter@D@__crt_stdio_output@@V?$positional_parameter_base@DV?$string_output_adapter@D@__crt_stdio_output@@@2@@__crt_stdio_output@@AEAA_NXZ 000000018005ba28 f i libucrt:output.obj
 0001:0005abac       ?state_case_size@?$output_processor@DV?$string_output_adapter@D@__crt_stdio_output@@V?$standard_base@DV?$string_output_adapter@D@__crt_stdio_output@@@2@@__crt_stdio_output@@AEAA_NXZ 000000018005bbac f i libucrt:output.obj
 0001:0005ad30       ?state_case_size@?$output_processor@_WV?$stream_output_adapter@_W@__crt_stdio_output@@V?$format_validation_base@_WV?$stream_output_adapter@_W@__crt_stdio_output@@@2@@__crt_stdio_output@@AEAA_NXZ 000000018005bd30 f i libucrt:output.obj
 0001:0005aedc       ?state_case_size@?$output_processor@_WV?$stream_output_adapter@_W@__crt_stdio_output@@V?$positional_parameter_base@_WV?$stream_output_adapter@_W@__crt_stdio_output@@@2@@__crt_stdio_output@@AEAA_NXZ 000000018005bedc f i libucrt:output.obj
 0001:0005b088       ?state_case_size@?$output_processor@_WV?$stream_output_adapter@_W@__crt_stdio_output@@V?$standard_base@_WV?$stream_output_adapter@_W@__crt_stdio_output@@@2@@__crt_stdio_output@@AEAA_NXZ 000000018005c088 f i libucrt:output.obj
 0001:0005b234       ?state_case_size@?$output_processor@_WV?$string_output_adapter@_W@__crt_stdio_output@@V?$format_validation_base@_WV?$string_output_adapter@_W@__crt_stdio_output@@@2@@__crt_stdio_output@@AEAA_NXZ 000000018005c234 f i libucrt:output.obj
 0001:0005b3e0       ?state_case_size@?$output_processor@_WV?$string_output_adapter@_W@__crt_stdio_output@@V?$positional_parameter_base@_WV?$string_output_adapter@_W@__crt_stdio_output@@@2@@__crt_stdio_output@@AEAA_NXZ 000000018005c3e0 f i libucrt:output.obj
 0001:0005b58c       ?state_case_size@?$output_processor@_WV?$string_output_adapter@_W@__crt_stdio_output@@V?$standard_base@_WV?$string_output_adapter@_W@__crt_stdio_output@@@2@@__crt_stdio_output@@AEAA_NXZ 000000018005c58c f i libucrt:output.obj
 0001:0005b738       ?state_case_type@?$output_processor@DV?$stream_output_adapter@D@__crt_stdio_output@@V?$format_validation_base@DV?$stream_output_adapter@D@__crt_stdio_output@@@2@@__crt_stdio_output@@AEAA_NXZ 000000018005c738 f i libucrt:output.obj
 0001:0005bb6c       ?state_case_type@?$output_processor@DV?$stream_output_adapter@D@__crt_stdio_output@@V?$positional_parameter_base@DV?$stream_output_adapter@D@__crt_stdio_output@@@2@@__crt_stdio_output@@AEAA_NXZ 000000018005cb6c f i libucrt:output.obj
 0001:0005bfb8       ?state_case_type@?$output_processor@DV?$stream_output_adapter@D@__crt_stdio_output@@V?$standard_base@DV?$stream_output_adapter@D@__crt_stdio_output@@@2@@__crt_stdio_output@@AEAA_NXZ 000000018005cfb8 f i libucrt:output.obj
 0001:0005c3ec       ?state_case_type@?$output_processor@DV?$string_output_adapter@D@__crt_stdio_output@@V?$format_validation_base@DV?$string_output_adapter@D@__crt_stdio_output@@@2@@__crt_stdio_output@@AEAA_NXZ 000000018005d3ec f i libucrt:output.obj
 0001:0005c7b8       ?state_case_type@?$output_processor@DV?$string_output_adapter@D@__crt_stdio_output@@V?$positional_parameter_base@DV?$string_output_adapter@D@__crt_stdio_output@@@2@@__crt_stdio_output@@AEAA_NXZ 000000018005d7b8 f i libucrt:output.obj
 0001:0005cb9c       ?state_case_type@?$output_processor@DV?$string_output_adapter@D@__crt_stdio_output@@V?$standard_base@DV?$string_output_adapter@D@__crt_stdio_output@@@2@@__crt_stdio_output@@AEAA_NXZ 000000018005db9c f i libucrt:output.obj
 0001:0005cf68       ?state_case_type@?$output_processor@_WV?$stream_output_adapter@_W@__crt_stdio_output@@V?$format_validation_base@_WV?$stream_output_adapter@_W@__crt_stdio_output@@@2@@__crt_stdio_output@@AEAA_NXZ 000000018005df68 f i libucrt:output.obj
 0001:0005d438       ?state_case_type@?$output_processor@_WV?$stream_output_adapter@_W@__crt_stdio_output@@V?$positional_parameter_base@_WV?$stream_output_adapter@_W@__crt_stdio_output@@@2@@__crt_stdio_output@@AEAA_NXZ 000000018005e438 f i libucrt:output.obj
 0001:0005d91c       ?state_case_type@?$output_processor@_WV?$stream_output_adapter@_W@__crt_stdio_output@@V?$standard_base@_WV?$stream_output_adapter@_W@__crt_stdio_output@@@2@@__crt_stdio_output@@AEAA_NXZ 000000018005e91c f i libucrt:output.obj
 0001:0005ddec       ?state_case_type@?$output_processor@_WV?$string_output_adapter@_W@__crt_stdio_output@@V?$format_validation_base@_WV?$string_output_adapter@_W@__crt_stdio_output@@@2@@__crt_stdio_output@@AEAA_NXZ 000000018005edec f i libucrt:output.obj
 0001:0005e248       ?state_case_type@?$output_processor@_WV?$string_output_adapter@_W@__crt_stdio_output@@V?$positional_parameter_base@_WV?$string_output_adapter@_W@__crt_stdio_output@@@2@@__crt_stdio_output@@AEAA_NXZ 000000018005f248 f i libucrt:output.obj
 0001:0005e6bc       ?state_case_type@?$output_processor@_WV?$string_output_adapter@_W@__crt_stdio_output@@V?$standard_base@_WV?$string_output_adapter@_W@__crt_stdio_output@@@2@@__crt_stdio_output@@AEAA_NXZ 000000018005f6bc f i libucrt:output.obj
 0001:0005eb18       ?state_case_width@?$output_processor@DV?$stream_output_adapter@D@__crt_stdio_output@@V?$format_validation_base@DV?$stream_output_adapter@D@__crt_stdio_output@@@2@@__crt_stdio_output@@AEAA_NXZ 000000018005fb18 f i libucrt:output.obj
 0001:0005eb4c       ?state_case_width@?$output_processor@DV?$stream_output_adapter@D@__crt_stdio_output@@V?$positional_parameter_base@DV?$stream_output_adapter@D@__crt_stdio_output@@@2@@__crt_stdio_output@@AEAA_NXZ 000000018005fb4c f i libucrt:output.obj
 0001:0005eb9c       ?state_case_width@?$output_processor@DV?$stream_output_adapter@D@__crt_stdio_output@@V?$standard_base@DV?$stream_output_adapter@D@__crt_stdio_output@@@2@@__crt_stdio_output@@AEAA_NXZ 000000018005fb9c f i libucrt:output.obj
 0001:0005ebd0       ?state_case_width@?$output_processor@DV?$string_output_adapter@D@__crt_stdio_output@@V?$format_validation_base@DV?$string_output_adapter@D@__crt_stdio_output@@@2@@__crt_stdio_output@@AEAA_NXZ 000000018005fbd0 f i libucrt:output.obj
 0001:0005ec04       ?state_case_width@?$output_processor@DV?$string_output_adapter@D@__crt_stdio_output@@V?$positional_parameter_base@DV?$string_output_adapter@D@__crt_stdio_output@@@2@@__crt_stdio_output@@AEAA_NXZ 000000018005fc04 f i libucrt:output.obj
 0001:0005ec54       ?state_case_width@?$output_processor@DV?$string_output_adapter@D@__crt_stdio_output@@V?$standard_base@DV?$string_output_adapter@D@__crt_stdio_output@@@2@@__crt_stdio_output@@AEAA_NXZ 000000018005fc54 f i libucrt:output.obj
 0001:0005ec88       ?state_case_width@?$output_processor@_WV?$stream_output_adapter@_W@__crt_stdio_output@@V?$format_validation_base@_WV?$stream_output_adapter@_W@__crt_stdio_output@@@2@@__crt_stdio_output@@AEAA_NXZ 000000018005fc88 f i libucrt:output.obj
 0001:0005ecbc       ?state_case_width@?$output_processor@_WV?$stream_output_adapter@_W@__crt_stdio_output@@V?$positional_parameter_base@_WV?$stream_output_adapter@_W@__crt_stdio_output@@@2@@__crt_stdio_output@@AEAA_NXZ 000000018005fcbc f i libucrt:output.obj
 0001:0005ed10       ?state_case_width@?$output_processor@_WV?$stream_output_adapter@_W@__crt_stdio_output@@V?$standard_base@_WV?$stream_output_adapter@_W@__crt_stdio_output@@@2@@__crt_stdio_output@@AEAA_NXZ 000000018005fd10 f i libucrt:output.obj
 0001:0005ed44       ?state_case_width@?$output_processor@_WV?$string_output_adapter@_W@__crt_stdio_output@@V?$format_validation_base@_WV?$string_output_adapter@_W@__crt_stdio_output@@@2@@__crt_stdio_output@@AEAA_NXZ 000000018005fd44 f i libucrt:output.obj
 0001:0005ed78       ?state_case_width@?$output_processor@_WV?$string_output_adapter@_W@__crt_stdio_output@@V?$positional_parameter_base@_WV?$string_output_adapter@_W@__crt_stdio_output@@@2@@__crt_stdio_output@@AEAA_NXZ 000000018005fd78 f i libucrt:output.obj
 0001:0005edcc       ?state_case_width@?$output_processor@_WV?$string_output_adapter@_W@__crt_stdio_output@@V?$standard_base@_WV?$string_output_adapter@_W@__crt_stdio_output@@@2@@__crt_stdio_output@@AEAA_NXZ 000000018005fdcc f i libucrt:output.obj
 0001:0005ee00       ?state_count@?$format_validation_base@DV?$stream_output_adapter@D@__crt_stdio_output@@@__crt_stdio_output@@KAIXZ 000000018005fe00 f i libucrt:output.obj
 0001:0005ee08       ?state_count@?$format_validation_base@DV?$string_output_adapter@D@__crt_stdio_output@@@__crt_stdio_output@@KAIXZ 000000018005fe08 f i libucrt:output.obj
 0001:0005ee10       ?state_count@?$format_validation_base@_WV?$stream_output_adapter@_W@__crt_stdio_output@@@__crt_stdio_output@@KAIXZ 000000018005fe10 f i libucrt:output.obj
 0001:0005ee18       ?state_count@?$format_validation_base@_WV?$string_output_adapter@_W@__crt_stdio_output@@@__crt_stdio_output@@KAIXZ 000000018005fe18 f i libucrt:output.obj
 0001:0005ee20       ?state_count@?$standard_base@DV?$stream_output_adapter@D@__crt_stdio_output@@@__crt_stdio_output@@KAIXZ 000000018005fe20 f i libucrt:output.obj
 0001:0005ee28       ?state_count@?$standard_base@DV?$string_output_adapter@D@__crt_stdio_output@@@__crt_stdio_output@@KAIXZ 000000018005fe28 f i libucrt:output.obj
 0001:0005ee30       ?state_count@?$standard_base@_WV?$stream_output_adapter@_W@__crt_stdio_output@@@__crt_stdio_output@@KAIXZ 000000018005fe30 f i libucrt:output.obj
 0001:0005ee38       ?state_count@?$standard_base@_WV?$string_output_adapter@_W@__crt_stdio_output@@@__crt_stdio_output@@KAIXZ 000000018005fe38 f i libucrt:output.obj
 0001:0005ee40       ?state_transition_table@?$format_validation_base@DV?$stream_output_adapter@D@__crt_stdio_output@@@__crt_stdio_output@@KAAEBV?$spectre_mitigated_lookup_table@Ustate_transition_pair@__crt_stdio_output@@$0IA@@2@XZ 000000018005fe40 f i libucrt:output.obj
 0001:0005ee48       ?state_transition_table@?$format_validation_base@DV?$string_output_adapter@D@__crt_stdio_output@@@__crt_stdio_output@@KAAEBV?$spectre_mitigated_lookup_table@Ustate_transition_pair@__crt_stdio_output@@$0IA@@2@XZ 000000018005fe48 f i libucrt:output.obj
 0001:0005ee50       ?state_transition_table@?$format_validation_base@_WV?$stream_output_adapter@_W@__crt_stdio_output@@@__crt_stdio_output@@KAAEBV?$spectre_mitigated_lookup_table@Ustate_transition_pair@__crt_stdio_output@@$0IA@@2@XZ 000000018005fe50 f i libucrt:output.obj
 0001:0005ee58       ?state_transition_table@?$format_validation_base@_WV?$string_output_adapter@_W@__crt_stdio_output@@@__crt_stdio_output@@KAAEBV?$spectre_mitigated_lookup_table@Ustate_transition_pair@__crt_stdio_output@@$0IA@@2@XZ 000000018005fe58 f i libucrt:output.obj
 0001:0005ee60       ?state_transition_table@?$standard_base@DV?$stream_output_adapter@D@__crt_stdio_output@@@__crt_stdio_output@@KAAEBV?$spectre_mitigated_lookup_table@Ustate_transition_pair@__crt_stdio_output@@$0IA@@2@XZ 000000018005fe60 f i libucrt:output.obj
 0001:0005ee68       ?state_transition_table@?$standard_base@DV?$string_output_adapter@D@__crt_stdio_output@@@__crt_stdio_output@@KAAEBV?$spectre_mitigated_lookup_table@Ustate_transition_pair@__crt_stdio_output@@$0IA@@2@XZ 000000018005fe68 f i libucrt:output.obj
 0001:0005ee70       ?state_transition_table@?$standard_base@_WV?$stream_output_adapter@_W@__crt_stdio_output@@@__crt_stdio_output@@KAAEBV?$spectre_mitigated_lookup_table@Ustate_transition_pair@__crt_stdio_output@@$0IA@@2@XZ 000000018005fe70 f i libucrt:output.obj
 0001:0005ee78       ?state_transition_table@?$standard_base@_WV?$string_output_adapter@_W@__crt_stdio_output@@@__crt_stdio_output@@KAAEBV?$spectre_mitigated_lookup_table@Ustate_transition_pair@__crt_stdio_output@@$0IA@@2@XZ 000000018005fe78 f i libucrt:output.obj
 0001:0005ee80       ?tchar_string@?$common_data@D@__crt_stdio_output@@IEAAAEAPEADD@Z 000000018005fe80 f i libucrt:output.obj
 0001:0005ee88       ?tchar_string@?$common_data@D@__crt_stdio_output@@IEAAAEAPEADXZ 000000018005fe88 f i libucrt:output.obj
 0001:0005ee90       ?tchar_string@?$common_data@_W@__crt_stdio_output@@IEAAAEAPEA_WXZ 000000018005fe90 f i libucrt:output.obj
 0001:0005ee98       ?tchar_string@?$common_data@_W@__crt_stdio_output@@IEAAAEAPEA_W_W@Z 000000018005fe98 f i libucrt:output.obj
 0001:0005eea0       ?to_integer_size@__crt_stdio_output@@YA_KW4length_modifier@1@@Z 000000018005fea0 f i libucrt:output.obj
 0001:0005eee8       ?type_case_X@?$output_processor@DV?$stream_output_adapter@D@__crt_stdio_output@@V?$format_validation_base@DV?$stream_output_adapter@D@__crt_stdio_output@@@2@@__crt_stdio_output@@AEAA_NXZ 000000018005fee8 f i libucrt:output.obj
 0001:0005eef0       ?type_case_X@?$output_processor@DV?$stream_output_adapter@D@__crt_stdio_output@@V?$positional_parameter_base@DV?$stream_output_adapter@D@__crt_stdio_output@@@2@@__crt_stdio_output@@AEAA_NXZ 000000018005fef0 f i libucrt:output.obj
 0001:0005eef8       ?type_case_X@?$output_processor@DV?$stream_output_adapter@D@__crt_stdio_output@@V?$standard_base@DV?$stream_output_adapter@D@__crt_stdio_output@@@2@@__crt_stdio_output@@AEAA_NXZ 000000018005fef8 f i libucrt:output.obj
 0001:0005ef00       ?type_case_X@?$output_processor@DV?$string_output_adapter@D@__crt_stdio_output@@V?$format_validation_base@DV?$string_output_adapter@D@__crt_stdio_output@@@2@@__crt_stdio_output@@AEAA_NXZ 000000018005ff00 f i libucrt:output.obj
 0001:0005ef08       ?type_case_X@?$output_processor@DV?$string_output_adapter@D@__crt_stdio_output@@V?$positional_parameter_base@DV?$string_output_adapter@D@__crt_stdio_output@@@2@@__crt_stdio_output@@AEAA_NXZ 000000018005ff08 f i libucrt:output.obj
 0001:0005ef10       ?type_case_X@?$output_processor@DV?$string_output_adapter@D@__crt_stdio_output@@V?$standard_base@DV?$string_output_adapter@D@__crt_stdio_output@@@2@@__crt_stdio_output@@AEAA_NXZ 000000018005ff10 f i libucrt:output.obj
 0001:0005ef18       ?type_case_X@?$output_processor@_WV?$stream_output_adapter@_W@__crt_stdio_output@@V?$format_validation_base@_WV?$stream_output_adapter@_W@__crt_stdio_output@@@2@@__crt_stdio_output@@AEAA_NXZ 000000018005ff18 f i libucrt:output.obj
 0001:0005ef20       ?type_case_X@?$output_processor@_WV?$stream_output_adapter@_W@__crt_stdio_output@@V?$positional_parameter_base@_WV?$stream_output_adapter@_W@__crt_stdio_output@@@2@@__crt_stdio_output@@AEAA_NXZ 000000018005ff20 f i libucrt:output.obj
 0001:0005ef28       ?type_case_X@?$output_processor@_WV?$stream_output_adapter@_W@__crt_stdio_output@@V?$standard_base@_WV?$stream_output_adapter@_W@__crt_stdio_output@@@2@@__crt_stdio_output@@AEAA_NXZ 000000018005ff28 f i libucrt:output.obj
 0001:0005ef30       ?type_case_X@?$output_processor@_WV?$string_output_adapter@_W@__crt_stdio_output@@V?$format_validation_base@_WV?$string_output_adapter@_W@__crt_stdio_output@@@2@@__crt_stdio_output@@AEAA_NXZ 000000018005ff30 f i libucrt:output.obj
 0001:0005ef38       ?type_case_X@?$output_processor@_WV?$string_output_adapter@_W@__crt_stdio_output@@V?$positional_parameter_base@_WV?$string_output_adapter@_W@__crt_stdio_output@@@2@@__crt_stdio_output@@AEAA_NXZ 000000018005ff38 f i libucrt:output.obj
 0001:0005ef40       ?type_case_X@?$output_processor@_WV?$string_output_adapter@_W@__crt_stdio_output@@V?$standard_base@_WV?$string_output_adapter@_W@__crt_stdio_output@@@2@@__crt_stdio_output@@AEAA_NXZ 000000018005ff40 f i libucrt:output.obj
 0001:0005ef48       ?type_case_Z@?$output_processor@DV?$stream_output_adapter@D@__crt_stdio_output@@V?$format_validation_base@DV?$stream_output_adapter@D@__crt_stdio_output@@@2@@__crt_stdio_output@@AEAA_NXZ 000000018005ff48 f i libucrt:output.obj
 0001:0005efbc       ?type_case_Z@?$output_processor@DV?$stream_output_adapter@D@__crt_stdio_output@@V?$positional_parameter_base@DV?$stream_output_adapter@D@__crt_stdio_output@@@2@@__crt_stdio_output@@AEAA_NXZ 000000018005ffbc f i libucrt:output.obj
 0001:0005f05c       ?type_case_Z@?$output_processor@DV?$stream_output_adapter@D@__crt_stdio_output@@V?$standard_base@DV?$stream_output_adapter@D@__crt_stdio_output@@@2@@__crt_stdio_output@@AEAA_NXZ 000000018006005c f i libucrt:output.obj
 0001:0005f0d0       ?type_case_Z@?$output_processor@DV?$string_output_adapter@D@__crt_stdio_output@@V?$format_validation_base@DV?$string_output_adapter@D@__crt_stdio_output@@@2@@__crt_stdio_output@@AEAA_NXZ 00000001800600d0 f i libucrt:output.obj
 0001:0005f144       ?type_case_Z@?$output_processor@DV?$string_output_adapter@D@__crt_stdio_output@@V?$positional_parameter_base@DV?$string_output_adapter@D@__crt_stdio_output@@@2@@__crt_stdio_output@@AEAA_NXZ 0000000180060144 f i libucrt:output.obj
 0001:0005f1e4       ?type_case_Z@?$output_processor@DV?$string_output_adapter@D@__crt_stdio_output@@V?$standard_base@DV?$string_output_adapter@D@__crt_stdio_output@@@2@@__crt_stdio_output@@AEAA_NXZ 00000001800601e4 f i libucrt:output.obj
 0001:0005f258       ?type_case_Z@?$output_processor@_WV?$stream_output_adapter@_W@__crt_stdio_output@@V?$format_validation_base@_WV?$stream_output_adapter@_W@__crt_stdio_output@@@2@@__crt_stdio_output@@AEAA_NXZ 0000000180060258 f i libucrt:output.obj
 0001:0005f2d4       ?type_case_Z@?$output_processor@_WV?$stream_output_adapter@_W@__crt_stdio_output@@V?$positional_parameter_base@_WV?$stream_output_adapter@_W@__crt_stdio_output@@@2@@__crt_stdio_output@@AEAA_NXZ 00000001800602d4 f i libucrt:output.obj
 0001:0005f36c       ?type_case_Z@?$output_processor@_WV?$stream_output_adapter@_W@__crt_stdio_output@@V?$standard_base@_WV?$stream_output_adapter@_W@__crt_stdio_output@@@2@@__crt_stdio_output@@AEAA_NXZ 000000018006036c f i libucrt:output.obj
 0001:0005f3e8       ?type_case_Z@?$output_processor@_WV?$string_output_adapter@_W@__crt_stdio_output@@V?$format_validation_base@_WV?$string_output_adapter@_W@__crt_stdio_output@@@2@@__crt_stdio_output@@AEAA_NXZ 00000001800603e8 f i libucrt:output.obj
 0001:0005f464       ?type_case_Z@?$output_processor@_WV?$string_output_adapter@_W@__crt_stdio_output@@V?$positional_parameter_base@_WV?$string_output_adapter@_W@__crt_stdio_output@@@2@@__crt_stdio_output@@AEAA_NXZ 0000000180060464 f i libucrt:output.obj
 0001:0005f4fc       ?type_case_Z@?$output_processor@_WV?$string_output_adapter@_W@__crt_stdio_output@@V?$standard_base@_WV?$string_output_adapter@_W@__crt_stdio_output@@@2@@__crt_stdio_output@@AEAA_NXZ 00000001800604fc f i libucrt:output.obj
 0001:0005f578       ?type_case_a@?$output_processor@DV?$stream_output_adapter@D@__crt_stdio_output@@V?$format_validation_base@DV?$stream_output_adapter@D@__crt_stdio_output@@@2@@__crt_stdio_output@@AEAA_NXZ 0000000180060578 f i libucrt:output.obj
 0001:0005f7c4       ?type_case_a@?$output_processor@DV?$stream_output_adapter@D@__crt_stdio_output@@V?$positional_parameter_base@DV?$stream_output_adapter@D@__crt_stdio_output@@@2@@__crt_stdio_output@@AEAA_NXZ 00000001800607c4 f i libucrt:output.obj
 0001:0005fa40       ?type_case_a@?$output_processor@DV?$stream_output_adapter@D@__crt_stdio_output@@V?$standard_base@DV?$stream_output_adapter@D@__crt_stdio_output@@@2@@__crt_stdio_output@@AEAA_NXZ 0000000180060a40 f i libucrt:output.obj
 0001:0005fc8c       ?type_case_a@?$output_processor@DV?$string_output_adapter@D@__crt_stdio_output@@V?$format_validation_base@DV?$string_output_adapter@D@__crt_stdio_output@@@2@@__crt_stdio_output@@AEAA_NXZ 0000000180060c8c f i libucrt:output.obj
 0001:0005fed8       ?type_case_a@?$output_processor@DV?$string_output_adapter@D@__crt_stdio_output@@V?$positional_parameter_base@DV?$string_output_adapter@D@__crt_stdio_output@@@2@@__crt_stdio_output@@AEAA_NXZ 0000000180060ed8 f i libucrt:output.obj
 0001:00060154       ?type_case_a@?$output_processor@DV?$string_output_adapter@D@__crt_stdio_output@@V?$standard_base@DV?$string_output_adapter@D@__crt_stdio_output@@@2@@__crt_stdio_output@@AEAA_NXZ 0000000180061154 f i libucrt:output.obj
 0001:000603a0       ?type_case_a@?$output_processor@_WV?$stream_output_adapter@_W@__crt_stdio_output@@V?$format_validation_base@_WV?$stream_output_adapter@_W@__crt_stdio_output@@@2@@__crt_stdio_output@@AEAA_NXZ 00000001800613a0 f i libucrt:output.obj
 0001:00060600       ?type_case_a@?$output_processor@_WV?$stream_output_adapter@_W@__crt_stdio_output@@V?$positional_parameter_base@_WV?$stream_output_adapter@_W@__crt_stdio_output@@@2@@__crt_stdio_output@@AEAA_NXZ 0000000180061600 f i libucrt:output.obj
 0001:00060894       ?type_case_a@?$output_processor@_WV?$stream_output_adapter@_W@__crt_stdio_output@@V?$standard_base@_WV?$stream_output_adapter@_W@__crt_stdio_output@@@2@@__crt_stdio_output@@AEAA_NXZ 0000000180061894 f i libucrt:output.obj
 0001:00060af4       ?type_case_a@?$output_processor@_WV?$string_output_adapter@_W@__crt_stdio_output@@V?$format_validation_base@_WV?$string_output_adapter@_W@__crt_stdio_output@@@2@@__crt_stdio_output@@AEAA_NXZ 0000000180061af4 f i libucrt:output.obj
 0001:00060d54       ?type_case_a@?$output_processor@_WV?$string_output_adapter@_W@__crt_stdio_output@@V?$positional_parameter_base@_WV?$string_output_adapter@_W@__crt_stdio_output@@@2@@__crt_stdio_output@@AEAA_NXZ 0000000180061d54 f i libucrt:output.obj
 0001:00060fe8       ?type_case_a@?$output_processor@_WV?$string_output_adapter@_W@__crt_stdio_output@@V?$standard_base@_WV?$string_output_adapter@_W@__crt_stdio_output@@@2@@__crt_stdio_output@@AEAA_NXZ 0000000180061fe8 f i libucrt:output.obj
 0001:00061248       ?type_case_c@?$output_processor@DV?$stream_output_adapter@D@__crt_stdio_output@@V?$format_validation_base@DV?$stream_output_adapter@D@__crt_stdio_output@@@2@@__crt_stdio_output@@AEAA_NXZ 0000000180062248 f i libucrt:output.obj
 0001:00061250       ?type_case_c@?$output_processor@DV?$stream_output_adapter@D@__crt_stdio_output@@V?$positional_parameter_base@DV?$stream_output_adapter@D@__crt_stdio_output@@@2@@__crt_stdio_output@@AEAA_NXZ 0000000180062250 f i libucrt:output.obj
 0001:00061258       ?type_case_c@?$output_processor@DV?$stream_output_adapter@D@__crt_stdio_output@@V?$standard_base@DV?$stream_output_adapter@D@__crt_stdio_output@@@2@@__crt_stdio_output@@AEAA_NXZ 0000000180062258 f i libucrt:output.obj
 0001:00061260       ?type_case_c@?$output_processor@DV?$string_output_adapter@D@__crt_stdio_output@@V?$format_validation_base@DV?$string_output_adapter@D@__crt_stdio_output@@@2@@__crt_stdio_output@@AEAA_NXZ 0000000180062260 f i libucrt:output.obj
 0001:00061268       ?type_case_c@?$output_processor@DV?$string_output_adapter@D@__crt_stdio_output@@V?$positional_parameter_base@DV?$string_output_adapter@D@__crt_stdio_output@@@2@@__crt_stdio_output@@AEAA_NXZ 0000000180062268 f i libucrt:output.obj
 0001:00061270       ?type_case_c@?$output_processor@DV?$string_output_adapter@D@__crt_stdio_output@@V?$standard_base@DV?$string_output_adapter@D@__crt_stdio_output@@@2@@__crt_stdio_output@@AEAA_NXZ 0000000180062270 f i libucrt:output.obj
 0001:00061278       ?type_case_c@?$output_processor@_WV?$stream_output_adapter@_W@__crt_stdio_output@@V?$format_validation_base@_WV?$stream_output_adapter@_W@__crt_stdio_output@@@2@@__crt_stdio_output@@AEAA_NXZ 0000000180062278 f i libucrt:output.obj
 0001:00061280       ?type_case_c@?$output_processor@_WV?$stream_output_adapter@_W@__crt_stdio_output@@V?$positional_parameter_base@_WV?$stream_output_adapter@_W@__crt_stdio_output@@@2@@__crt_stdio_output@@AEAA_NXZ 0000000180062280 f i libucrt:output.obj
 0001:00061288       ?type_case_c@?$output_processor@_WV?$stream_output_adapter@_W@__crt_stdio_output@@V?$standard_base@_WV?$stream_output_adapter@_W@__crt_stdio_output@@@2@@__crt_stdio_output@@AEAA_NXZ 0000000180062288 f i libucrt:output.obj
 0001:00061290       ?type_case_c@?$output_processor@_WV?$string_output_adapter@_W@__crt_stdio_output@@V?$format_validation_base@_WV?$string_output_adapter@_W@__crt_stdio_output@@@2@@__crt_stdio_output@@AEAA_NXZ 0000000180062290 f i libucrt:output.obj
 0001:00061298       ?type_case_c@?$output_processor@_WV?$string_output_adapter@_W@__crt_stdio_output@@V?$positional_parameter_base@_WV?$string_output_adapter@_W@__crt_stdio_output@@@2@@__crt_stdio_output@@AEAA_NXZ 0000000180062298 f i libucrt:output.obj
 0001:000612a0       ?type_case_c@?$output_processor@_WV?$string_output_adapter@_W@__crt_stdio_output@@V?$standard_base@_WV?$string_output_adapter@_W@__crt_stdio_output@@@2@@__crt_stdio_output@@AEAA_NXZ 00000001800622a0 f i libucrt:output.obj
 0001:000612a8       ?type_case_c_tchar@?$output_processor@DV?$stream_output_adapter@D@__crt_stdio_output@@V?$format_validation_base@DV?$stream_output_adapter@D@__crt_stdio_output@@@2@@__crt_stdio_output@@AEAA_ND@Z 00000001800622a8 f i libucrt:output.obj
 0001:0006136c       ?type_case_c_tchar@?$output_processor@DV?$stream_output_adapter@D@__crt_stdio_output@@V?$positional_parameter_base@DV?$stream_output_adapter@D@__crt_stdio_output@@@2@@__crt_stdio_output@@AEAA_ND@Z 000000018006236c f i libucrt:output.obj
 0001:00061474       ?type_case_c_tchar@?$output_processor@DV?$stream_output_adapter@D@__crt_stdio_output@@V?$standard_base@DV?$stream_output_adapter@D@__crt_stdio_output@@@2@@__crt_stdio_output@@AEAA_ND@Z 0000000180062474 f i libucrt:output.obj
 0001:00061538       ?type_case_c_tchar@?$output_processor@DV?$string_output_adapter@D@__crt_stdio_output@@V?$format_validation_base@DV?$string_output_adapter@D@__crt_stdio_output@@@2@@__crt_stdio_output@@AEAA_ND@Z 0000000180062538 f i libucrt:output.obj
 0001:000615fc       ?type_case_c_tchar@?$output_processor@DV?$string_output_adapter@D@__crt_stdio_output@@V?$positional_parameter_base@DV?$string_output_adapter@D@__crt_stdio_output@@@2@@__crt_stdio_output@@AEAA_ND@Z 00000001800625fc f i libucrt:output.obj
 0001:00061704       ?type_case_c_tchar@?$output_processor@DV?$string_output_adapter@D@__crt_stdio_output@@V?$standard_base@DV?$string_output_adapter@D@__crt_stdio_output@@@2@@__crt_stdio_output@@AEAA_ND@Z 0000000180062704 f i libucrt:output.obj
 0001:000617c8       ?type_case_c_tchar@?$output_processor@_WV?$stream_output_adapter@_W@__crt_stdio_output@@V?$format_validation_base@_WV?$stream_output_adapter@_W@__crt_stdio_output@@@2@@__crt_stdio_output@@AEAA_N_W@Z 00000001800627c8 f i libucrt:output.obj
 0001:0006188c       ?type_case_c_tchar@?$output_processor@_WV?$stream_output_adapter@_W@__crt_stdio_output@@V?$positional_parameter_base@_WV?$stream_output_adapter@_W@__crt_stdio_output@@@2@@__crt_stdio_output@@AEAA_N_W@Z 000000018006288c f i libucrt:output.obj
 0001:00061984       ?type_case_c_tchar@?$output_processor@_WV?$stream_output_adapter@_W@__crt_stdio_output@@V?$standard_base@_WV?$stream_output_adapter@_W@__crt_stdio_output@@@2@@__crt_stdio_output@@AEAA_N_W@Z 0000000180062984 f i libucrt:output.obj
 0001:00061a48       ?type_case_c_tchar@?$output_processor@_WV?$string_output_adapter@_W@__crt_stdio_output@@V?$format_validation_base@_WV?$string_output_adapter@_W@__crt_stdio_output@@@2@@__crt_stdio_output@@AEAA_N_W@Z 0000000180062a48 f i libucrt:output.obj
 0001:00061b0c       ?type_case_c_tchar@?$output_processor@_WV?$string_output_adapter@_W@__crt_stdio_output@@V?$positional_parameter_base@_WV?$string_output_adapter@_W@__crt_stdio_output@@@2@@__crt_stdio_output@@AEAA_N_W@Z 0000000180062b0c f i libucrt:output.obj
 0001:00061c04       ?type_case_c_tchar@?$output_processor@_WV?$string_output_adapter@_W@__crt_stdio_output@@V?$standard_base@_WV?$string_output_adapter@_W@__crt_stdio_output@@@2@@__crt_stdio_output@@AEAA_N_W@Z 0000000180062c04 f i libucrt:output.obj
 0001:00061cc8       ?type_case_d@?$output_processor@DV?$stream_output_adapter@D@__crt_stdio_output@@V?$format_validation_base@DV?$stream_output_adapter@D@__crt_stdio_output@@@2@@__crt_stdio_output@@AEAA_NXZ 0000000180062cc8 f i libucrt:output.obj
 0001:00061cd4       ?type_case_d@?$output_processor@DV?$stream_output_adapter@D@__crt_stdio_output@@V?$positional_parameter_base@DV?$stream_output_adapter@D@__crt_stdio_output@@@2@@__crt_stdio_output@@AEAA_NXZ 0000000180062cd4 f i libucrt:output.obj
 0001:00061ce0       ?type_case_d@?$output_processor@DV?$stream_output_adapter@D@__crt_stdio_output@@V?$standard_base@DV?$stream_output_adapter@D@__crt_stdio_output@@@2@@__crt_stdio_output@@AEAA_NXZ 0000000180062ce0 f i libucrt:output.obj
 0001:00061cec       ?type_case_d@?$output_processor@DV?$string_output_adapter@D@__crt_stdio_output@@V?$format_validation_base@DV?$string_output_adapter@D@__crt_stdio_output@@@2@@__crt_stdio_output@@AEAA_NXZ 0000000180062cec f i libucrt:output.obj
 0001:00061cf8       ?type_case_d@?$output_processor@DV?$string_output_adapter@D@__crt_stdio_output@@V?$positional_parameter_base@DV?$string_output_adapter@D@__crt_stdio_output@@@2@@__crt_stdio_output@@AEAA_NXZ 0000000180062cf8 f i libucrt:output.obj
 0001:00061d04       ?type_case_d@?$output_processor@DV?$string_output_adapter@D@__crt_stdio_output@@V?$standard_base@DV?$string_output_adapter@D@__crt_stdio_output@@@2@@__crt_stdio_output@@AEAA_NXZ 0000000180062d04 f i libucrt:output.obj
 0001:00061d10       ?type_case_d@?$output_processor@_WV?$stream_output_adapter@_W@__crt_stdio_output@@V?$format_validation_base@_WV?$stream_output_adapter@_W@__crt_stdio_output@@@2@@__crt_stdio_output@@AEAA_NXZ 0000000180062d10 f i libucrt:output.obj
 0001:00061d1c       ?type_case_d@?$output_processor@_WV?$stream_output_adapter@_W@__crt_stdio_output@@V?$positional_parameter_base@_WV?$stream_output_adapter@_W@__crt_stdio_output@@@2@@__crt_stdio_output@@AEAA_NXZ 0000000180062d1c f i libucrt:output.obj
 0001:00061d28       ?type_case_d@?$output_processor@_WV?$stream_output_adapter@_W@__crt_stdio_output@@V?$standard_base@_WV?$stream_output_adapter@_W@__crt_stdio_output@@@2@@__crt_stdio_output@@AEAA_NXZ 0000000180062d28 f i libucrt:output.obj
 0001:00061d34       ?type_case_d@?$output_processor@_WV?$string_output_adapter@_W@__crt_stdio_output@@V?$format_validation_base@_WV?$string_output_adapter@_W@__crt_stdio_output@@@2@@__crt_stdio_output@@AEAA_NXZ 0000000180062d34 f i libucrt:output.obj
 0001:00061d40       ?type_case_d@?$output_processor@_WV?$string_output_adapter@_W@__crt_stdio_output@@V?$positional_parameter_base@_WV?$string_output_adapter@_W@__crt_stdio_output@@@2@@__crt_stdio_output@@AEAA_NXZ 0000000180062d40 f i libucrt:output.obj
 0001:00061d4c       ?type_case_d@?$output_processor@_WV?$string_output_adapter@_W@__crt_stdio_output@@V?$standard_base@_WV?$string_output_adapter@_W@__crt_stdio_output@@@2@@__crt_stdio_output@@AEAA_NXZ 0000000180062d4c f i libucrt:output.obj
 0001:00061d58       ?type_case_n@?$output_processor@DV?$stream_output_adapter@D@__crt_stdio_output@@V?$format_validation_base@DV?$stream_output_adapter@D@__crt_stdio_output@@@2@@__crt_stdio_output@@AEAA_NXZ 0000000180062d58 f i libucrt:output.obj
 0001:00061e0c       ?type_case_n@?$output_processor@DV?$stream_output_adapter@D@__crt_stdio_output@@V?$positional_parameter_base@DV?$stream_output_adapter@D@__crt_stdio_output@@@2@@__crt_stdio_output@@AEAA_NXZ 0000000180062e0c f i libucrt:output.obj
 0001:00061ef0       ?type_case_n@?$output_processor@DV?$stream_output_adapter@D@__crt_stdio_output@@V?$standard_base@DV?$stream_output_adapter@D@__crt_stdio_output@@@2@@__crt_stdio_output@@AEAA_NXZ 0000000180062ef0 f i libucrt:output.obj
 0001:00061fa4       ?type_case_n@?$output_processor@DV?$string_output_adapter@D@__crt_stdio_output@@V?$format_validation_base@DV?$string_output_adapter@D@__crt_stdio_output@@@2@@__crt_stdio_output@@AEAA_NXZ 0000000180062fa4 f i libucrt:output.obj
 0001:00062058       ?type_case_n@?$output_processor@DV?$string_output_adapter@D@__crt_stdio_output@@V?$positional_parameter_base@DV?$string_output_adapter@D@__crt_stdio_output@@@2@@__crt_stdio_output@@AEAA_NXZ 0000000180063058 f i libucrt:output.obj
 0001:0006213c       ?type_case_n@?$output_processor@DV?$string_output_adapter@D@__crt_stdio_output@@V?$standard_base@DV?$string_output_adapter@D@__crt_stdio_output@@@2@@__crt_stdio_output@@AEAA_NXZ 000000018006313c f i libucrt:output.obj
 0001:000621f0       ?type_case_n@?$output_processor@_WV?$stream_output_adapter@_W@__crt_stdio_output@@V?$format_validation_base@_WV?$stream_output_adapter@_W@__crt_stdio_output@@@2@@__crt_stdio_output@@AEAA_NXZ 00000001800631f0 f i libucrt:output.obj
 0001:000622a4       ?type_case_n@?$output_processor@_WV?$stream_output_adapter@_W@__crt_stdio_output@@V?$positional_parameter_base@_WV?$stream_output_adapter@_W@__crt_stdio_output@@@2@@__crt_stdio_output@@AEAA_NXZ 00000001800632a4 f i libucrt:output.obj
 0001:00062388       ?type_case_n@?$output_processor@_WV?$stream_output_adapter@_W@__crt_stdio_output@@V?$standard_base@_WV?$stream_output_adapter@_W@__crt_stdio_output@@@2@@__crt_stdio_output@@AEAA_NXZ 0000000180063388 f i libucrt:output.obj
 0001:0006243c       ?type_case_n@?$output_processor@_WV?$string_output_adapter@_W@__crt_stdio_output@@V?$format_validation_base@_WV?$string_output_adapter@_W@__crt_stdio_output@@@2@@__crt_stdio_output@@AEAA_NXZ 000000018006343c f i libucrt:output.obj
 0001:000624f0       ?type_case_n@?$output_processor@_WV?$string_output_adapter@_W@__crt_stdio_output@@V?$positional_parameter_base@_WV?$string_output_adapter@_W@__crt_stdio_output@@@2@@__crt_stdio_output@@AEAA_NXZ 00000001800634f0 f i libucrt:output.obj
 0001:000625d4       ?type_case_n@?$output_processor@_WV?$string_output_adapter@_W@__crt_stdio_output@@V?$standard_base@_WV?$string_output_adapter@_W@__crt_stdio_output@@@2@@__crt_stdio_output@@AEAA_NXZ 00000001800635d4 f i libucrt:output.obj
 0001:00062688       ?type_case_o@?$output_processor@DV?$stream_output_adapter@D@__crt_stdio_output@@V?$format_validation_base@DV?$stream_output_adapter@D@__crt_stdio_output@@@2@@__crt_stdio_output@@AEAA_NXZ 0000000180063688 f i libucrt:output.obj
 0001:000626a4       ?type_case_o@?$output_processor@DV?$stream_output_adapter@D@__crt_stdio_output@@V?$positional_parameter_base@DV?$stream_output_adapter@D@__crt_stdio_output@@@2@@__crt_stdio_output@@AEAA_NXZ 00000001800636a4 f i libucrt:output.obj
 0001:000626c0       ?type_case_o@?$output_processor@DV?$stream_output_adapter@D@__crt_stdio_output@@V?$standard_base@DV?$stream_output_adapter@D@__crt_stdio_output@@@2@@__crt_stdio_output@@AEAA_NXZ 00000001800636c0 f i libucrt:output.obj
 0001:000626dc       ?type_case_o@?$output_processor@DV?$string_output_adapter@D@__crt_stdio_output@@V?$format_validation_base@DV?$string_output_adapter@D@__crt_stdio_output@@@2@@__crt_stdio_output@@AEAA_NXZ 00000001800636dc f i libucrt:output.obj
 0001:000626f8       ?type_case_o@?$output_processor@DV?$string_output_adapter@D@__crt_stdio_output@@V?$positional_parameter_base@DV?$string_output_adapter@D@__crt_stdio_output@@@2@@__crt_stdio_output@@AEAA_NXZ 00000001800636f8 f i libucrt:output.obj
 0001:00062714       ?type_case_o@?$output_processor@DV?$string_output_adapter@D@__crt_stdio_output@@V?$standard_base@DV?$string_output_adapter@D@__crt_stdio_output@@@2@@__crt_stdio_output@@AEAA_NXZ 0000000180063714 f i libucrt:output.obj
 0001:00062730       ?type_case_o@?$output_processor@_WV?$stream_output_adapter@_W@__crt_stdio_output@@V?$format_validation_base@_WV?$stream_output_adapter@_W@__crt_stdio_output@@@2@@__crt_stdio_output@@AEAA_NXZ 0000000180063730 f i libucrt:output.obj
 0001:0006274c       ?type_case_o@?$output_processor@_WV?$stream_output_adapter@_W@__crt_stdio_output@@V?$positional_parameter_base@_WV?$stream_output_adapter@_W@__crt_stdio_output@@@2@@__crt_stdio_output@@AEAA_NXZ 000000018006374c f i libucrt:output.obj
 0001:00062768       ?type_case_o@?$output_processor@_WV?$stream_output_adapter@_W@__crt_stdio_output@@V?$standard_base@_WV?$stream_output_adapter@_W@__crt_stdio_output@@@2@@__crt_stdio_output@@AEAA_NXZ 0000000180063768 f i libucrt:output.obj
 0001:00062784       ?type_case_o@?$output_processor@_WV?$string_output_adapter@_W@__crt_stdio_output@@V?$format_validation_base@_WV?$string_output_adapter@_W@__crt_stdio_output@@@2@@__crt_stdio_output@@AEAA_NXZ 0000000180063784 f i libucrt:output.obj
 0001:000627a0       ?type_case_o@?$output_processor@_WV?$string_output_adapter@_W@__crt_stdio_output@@V?$positional_parameter_base@_WV?$string_output_adapter@_W@__crt_stdio_output@@@2@@__crt_stdio_output@@AEAA_NXZ 00000001800637a0 f i libucrt:output.obj
 0001:000627bc       ?type_case_o@?$output_processor@_WV?$string_output_adapter@_W@__crt_stdio_output@@V?$standard_base@_WV?$string_output_adapter@_W@__crt_stdio_output@@@2@@__crt_stdio_output@@AEAA_NXZ 00000001800637bc f i libucrt:output.obj
 0001:000627d8       ?type_case_p@?$output_processor@DV?$stream_output_adapter@D@__crt_stdio_output@@V?$format_validation_base@DV?$stream_output_adapter@D@__crt_stdio_output@@@2@@__crt_stdio_output@@AEAA_NXZ 00000001800637d8 f i libucrt:output.obj
 0001:000627f0       ?type_case_p@?$output_processor@DV?$stream_output_adapter@D@__crt_stdio_output@@V?$positional_parameter_base@DV?$stream_output_adapter@D@__crt_stdio_output@@@2@@__crt_stdio_output@@AEAA_NXZ 00000001800637f0 f i libucrt:output.obj
 0001:00062808       ?type_case_p@?$output_processor@DV?$stream_output_adapter@D@__crt_stdio_output@@V?$standard_base@DV?$stream_output_adapter@D@__crt_stdio_output@@@2@@__crt_stdio_output@@AEAA_NXZ 0000000180063808 f i libucrt:output.obj
 0001:00062820       ?type_case_p@?$output_processor@DV?$string_output_adapter@D@__crt_stdio_output@@V?$format_validation_base@DV?$string_output_adapter@D@__crt_stdio_output@@@2@@__crt_stdio_output@@AEAA_NXZ 0000000180063820 f i libucrt:output.obj
 0001:00062838       ?type_case_p@?$output_processor@DV?$string_output_adapter@D@__crt_stdio_output@@V?$positional_parameter_base@DV?$string_output_adapter@D@__crt_stdio_output@@@2@@__crt_stdio_output@@AEAA_NXZ 0000000180063838 f i libucrt:output.obj
 0001:00062850       ?type_case_p@?$output_processor@DV?$string_output_adapter@D@__crt_stdio_output@@V?$standard_base@DV?$string_output_adapter@D@__crt_stdio_output@@@2@@__crt_stdio_output@@AEAA_NXZ 0000000180063850 f i libucrt:output.obj
 0001:00062868       ?type_case_p@?$output_processor@_WV?$stream_output_adapter@_W@__crt_stdio_output@@V?$format_validation_base@_WV?$stream_output_adapter@_W@__crt_stdio_output@@@2@@__crt_stdio_output@@AEAA_NXZ 0000000180063868 f i libucrt:output.obj
 0001:00062880       ?type_case_p@?$output_processor@_WV?$stream_output_adapter@_W@__crt_stdio_output@@V?$positional_parameter_base@_WV?$stream_output_adapter@_W@__crt_stdio_output@@@2@@__crt_stdio_output@@AEAA_NXZ 0000000180063880 f i libucrt:output.obj
 0001:00062898       ?type_case_p@?$output_processor@_WV?$stream_output_adapter@_W@__crt_stdio_output@@V?$standard_base@_WV?$stream_output_adapter@_W@__crt_stdio_output@@@2@@__crt_stdio_output@@AEAA_NXZ 0000000180063898 f i libucrt:output.obj
 0001:000628b0       ?type_case_p@?$output_processor@_WV?$string_output_adapter@_W@__crt_stdio_output@@V?$format_validation_base@_WV?$string_output_adapter@_W@__crt_stdio_output@@@2@@__crt_stdio_output@@AEAA_NXZ 00000001800638b0 f i libucrt:output.obj
 0001:000628c8       ?type_case_p@?$output_processor@_WV?$string_output_adapter@_W@__crt_stdio_output@@V?$positional_parameter_base@_WV?$string_output_adapter@_W@__crt_stdio_output@@@2@@__crt_stdio_output@@AEAA_NXZ 00000001800638c8 f i libucrt:output.obj
 0001:000628e0       ?type_case_p@?$output_processor@_WV?$string_output_adapter@_W@__crt_stdio_output@@V?$standard_base@_WV?$string_output_adapter@_W@__crt_stdio_output@@@2@@__crt_stdio_output@@AEAA_NXZ 00000001800638e0 f i libucrt:output.obj
 0001:000628f8       ?type_case_s@?$output_processor@DV?$stream_output_adapter@D@__crt_stdio_output@@V?$format_validation_base@DV?$stream_output_adapter@D@__crt_stdio_output@@@2@@__crt_stdio_output@@AEAA_NXZ 00000001800638f8 f i libucrt:output.obj
 0001:0006298c       ?type_case_s@?$output_processor@DV?$stream_output_adapter@D@__crt_stdio_output@@V?$positional_parameter_base@DV?$stream_output_adapter@D@__crt_stdio_output@@@2@@__crt_stdio_output@@AEAA_NXZ 000000018006398c f i libucrt:output.obj
 0001:00062a40       ?type_case_s@?$output_processor@DV?$stream_output_adapter@D@__crt_stdio_output@@V?$standard_base@DV?$stream_output_adapter@D@__crt_stdio_output@@@2@@__crt_stdio_output@@AEAA_NXZ 0000000180063a40 f i libucrt:output.obj
 0001:00062ad4       ?type_case_s@?$output_processor@DV?$string_output_adapter@D@__crt_stdio_output@@V?$format_validation_base@DV?$string_output_adapter@D@__crt_stdio_output@@@2@@__crt_stdio_output@@AEAA_NXZ 0000000180063ad4 f i libucrt:output.obj
 0001:00062b68       ?type_case_s@?$output_processor@DV?$string_output_adapter@D@__crt_stdio_output@@V?$positional_parameter_base@DV?$string_output_adapter@D@__crt_stdio_output@@@2@@__crt_stdio_output@@AEAA_NXZ 0000000180063b68 f i libucrt:output.obj
 0001:00062c1c       ?type_case_s@?$output_processor@DV?$string_output_adapter@D@__crt_stdio_output@@V?$standard_base@DV?$string_output_adapter@D@__crt_stdio_output@@@2@@__crt_stdio_output@@AEAA_NXZ 0000000180063c1c f i libucrt:output.obj
 0001:00062cb0       ?type_case_s@?$output_processor@_WV?$stream_output_adapter@_W@__crt_stdio_output@@V?$format_validation_base@_WV?$stream_output_adapter@_W@__crt_stdio_output@@@2@@__crt_stdio_output@@AEAA_NXZ 0000000180063cb0 f i libucrt:output.obj
 0001:00062d48       ?type_case_s@?$output_processor@_WV?$stream_output_adapter@_W@__crt_stdio_output@@V?$positional_parameter_base@_WV?$stream_output_adapter@_W@__crt_stdio_output@@@2@@__crt_stdio_output@@AEAA_NXZ 0000000180063d48 f i libucrt:output.obj
 0001:00062dfc       ?type_case_s@?$output_processor@_WV?$stream_output_adapter@_W@__crt_stdio_output@@V?$standard_base@_WV?$stream_output_adapter@_W@__crt_stdio_output@@@2@@__crt_stdio_output@@AEAA_NXZ 0000000180063dfc f i libucrt:output.obj
 0001:00062e94       ?type_case_s@?$output_processor@_WV?$string_output_adapter@_W@__crt_stdio_output@@V?$format_validation_base@_WV?$string_output_adapter@_W@__crt_stdio_output@@@2@@__crt_stdio_output@@AEAA_NXZ 0000000180063e94 f i libucrt:output.obj
 0001:00062f2c       ?type_case_s@?$output_processor@_WV?$string_output_adapter@_W@__crt_stdio_output@@V?$positional_parameter_base@_WV?$string_output_adapter@_W@__crt_stdio_output@@@2@@__crt_stdio_output@@AEAA_NXZ 0000000180063f2c f i libucrt:output.obj
 0001:00062fe0       ?type_case_s@?$output_processor@_WV?$string_output_adapter@_W@__crt_stdio_output@@V?$standard_base@_WV?$string_output_adapter@_W@__crt_stdio_output@@@2@@__crt_stdio_output@@AEAA_NXZ 0000000180063fe0 f i libucrt:output.obj
 0001:00063078       ?type_case_s_compute_narrow_string_length@?$output_processor@DV?$stream_output_adapter@D@__crt_stdio_output@@V?$format_validation_base@DV?$stream_output_adapter@D@__crt_stdio_output@@@2@@__crt_stdio_output@@AEAAHHD@Z 0000000180064078 f i libucrt:output.obj
 0001:00063084       ?type_case_s_compute_narrow_string_length@?$output_processor@DV?$stream_output_adapter@D@__crt_stdio_output@@V?$positional_parameter_base@DV?$stream_output_adapter@D@__crt_stdio_output@@@2@@__crt_stdio_output@@AEAAHHD@Z 0000000180064084 f i libucrt:output.obj
 0001:00063090       ?type_case_s_compute_narrow_string_length@?$output_processor@DV?$stream_output_adapter@D@__crt_stdio_output@@V?$standard_base@DV?$stream_output_adapter@D@__crt_stdio_output@@@2@@__crt_stdio_output@@AEAAHHD@Z 0000000180064090 f i libucrt:output.obj
 0001:0006309c       ?type_case_s_compute_narrow_string_length@?$output_processor@DV?$string_output_adapter@D@__crt_stdio_output@@V?$format_validation_base@DV?$string_output_adapter@D@__crt_stdio_output@@@2@@__crt_stdio_output@@AEAAHHD@Z 000000018006409c f i libucrt:output.obj
 0001:000630a8       ?type_case_s_compute_narrow_string_length@?$output_processor@DV?$string_output_adapter@D@__crt_stdio_output@@V?$positional_parameter_base@DV?$string_output_adapter@D@__crt_stdio_output@@@2@@__crt_stdio_output@@AEAAHHD@Z 00000001800640a8 f i libucrt:output.obj
 0001:000630b4       ?type_case_s_compute_narrow_string_length@?$output_processor@DV?$string_output_adapter@D@__crt_stdio_output@@V?$standard_base@DV?$string_output_adapter@D@__crt_stdio_output@@@2@@__crt_stdio_output@@AEAAHHD@Z 00000001800640b4 f i libucrt:output.obj
 0001:000630c0       ?type_case_s_compute_narrow_string_length@?$output_processor@_WV?$stream_output_adapter@_W@__crt_stdio_output@@V?$format_validation_base@_WV?$stream_output_adapter@_W@__crt_stdio_output@@@2@@__crt_stdio_output@@AEAAHH_W@Z 00000001800640c0 f i libucrt:output.obj
 0001:00063138       ?type_case_s_compute_narrow_string_length@?$output_processor@_WV?$stream_output_adapter@_W@__crt_stdio_output@@V?$positional_parameter_base@_WV?$stream_output_adapter@_W@__crt_stdio_output@@@2@@__crt_stdio_output@@AEAAHH_W@Z 0000000180064138 f i libucrt:output.obj
 0001:000631b0       ?type_case_s_compute_narrow_string_length@?$output_processor@_WV?$stream_output_adapter@_W@__crt_stdio_output@@V?$standard_base@_WV?$stream_output_adapter@_W@__crt_stdio_output@@@2@@__crt_stdio_output@@AEAAHH_W@Z 00000001800641b0 f i libucrt:output.obj
 0001:00063228       ?type_case_s_compute_narrow_string_length@?$output_processor@_WV?$string_output_adapter@_W@__crt_stdio_output@@V?$format_validation_base@_WV?$string_output_adapter@_W@__crt_stdio_output@@@2@@__crt_stdio_output@@AEAAHH_W@Z 0000000180064228 f i libucrt:output.obj
 0001:000632a0       ?type_case_s_compute_narrow_string_length@?$output_processor@_WV?$string_output_adapter@_W@__crt_stdio_output@@V?$positional_parameter_base@_WV?$string_output_adapter@_W@__crt_stdio_output@@@2@@__crt_stdio_output@@AEAAHH_W@Z 00000001800642a0 f i libucrt:output.obj
 0001:00063318       ?type_case_s_compute_narrow_string_length@?$output_processor@_WV?$string_output_adapter@_W@__crt_stdio_output@@V?$standard_base@_WV?$string_output_adapter@_W@__crt_stdio_output@@@2@@__crt_stdio_output@@AEAAHH_W@Z 0000000180064318 f i libucrt:output.obj
 0001:00063390       ?type_case_u@?$output_processor@DV?$stream_output_adapter@D@__crt_stdio_output@@V?$format_validation_base@DV?$stream_output_adapter@D@__crt_stdio_output@@@2@@__crt_stdio_output@@AEAA_NXZ 0000000180064390 f i libucrt:output.obj
 0001:00063398       ?type_case_u@?$output_processor@DV?$stream_output_adapter@D@__crt_stdio_output@@V?$positional_parameter_base@DV?$stream_output_adapter@D@__crt_stdio_output@@@2@@__crt_stdio_output@@AEAA_NXZ 0000000180064398 f i libucrt:output.obj
 0001:000633a0       ?type_case_u@?$output_processor@DV?$stream_output_adapter@D@__crt_stdio_output@@V?$standard_base@DV?$stream_output_adapter@D@__crt_stdio_output@@@2@@__crt_stdio_output@@AEAA_NXZ 00000001800643a0 f i libucrt:output.obj
 0001:000633a8       ?type_case_u@?$output_processor@DV?$string_output_adapter@D@__crt_stdio_output@@V?$format_validation_base@DV?$string_output_adapter@D@__crt_stdio_output@@@2@@__crt_stdio_output@@AEAA_NXZ 00000001800643a8 f i libucrt:output.obj
 0001:000633b0       ?type_case_u@?$output_processor@DV?$string_output_adapter@D@__crt_stdio_output@@V?$positional_parameter_base@DV?$string_output_adapter@D@__crt_stdio_output@@@2@@__crt_stdio_output@@AEAA_NXZ 00000001800643b0 f i libucrt:output.obj
 0001:000633b8       ?type_case_u@?$output_processor@DV?$string_output_adapter@D@__crt_stdio_output@@V?$standard_base@DV?$string_output_adapter@D@__crt_stdio_output@@@2@@__crt_stdio_output@@AEAA_NXZ 00000001800643b8 f i libucrt:output.obj
 0001:000633c0       ?type_case_u@?$output_processor@_WV?$stream_output_adapter@_W@__crt_stdio_output@@V?$format_validation_base@_WV?$stream_output_adapter@_W@__crt_stdio_output@@@2@@__crt_stdio_output@@AEAA_NXZ 00000001800643c0 f i libucrt:output.obj
 0001:000633c8       ?type_case_u@?$output_processor@_WV?$stream_output_adapter@_W@__crt_stdio_output@@V?$positional_parameter_base@_WV?$stream_output_adapter@_W@__crt_stdio_output@@@2@@__crt_stdio_output@@AEAA_NXZ 00000001800643c8 f i libucrt:output.obj
 0001:000633d0       ?type_case_u@?$output_processor@_WV?$stream_output_adapter@_W@__crt_stdio_output@@V?$standard_base@_WV?$stream_output_adapter@_W@__crt_stdio_output@@@2@@__crt_stdio_output@@AEAA_NXZ 00000001800643d0 f i libucrt:output.obj
 0001:000633d8       ?type_case_u@?$output_processor@_WV?$string_output_adapter@_W@__crt_stdio_output@@V?$format_validation_base@_WV?$string_output_adapter@_W@__crt_stdio_output@@@2@@__crt_stdio_output@@AEAA_NXZ 00000001800643d8 f i libucrt:output.obj
 0001:000633e0       ?type_case_u@?$output_processor@_WV?$string_output_adapter@_W@__crt_stdio_output@@V?$positional_parameter_base@_WV?$string_output_adapter@_W@__crt_stdio_output@@@2@@__crt_stdio_output@@AEAA_NXZ 00000001800643e0 f i libucrt:output.obj
 0001:000633e8       ?type_case_u@?$output_processor@_WV?$string_output_adapter@_W@__crt_stdio_output@@V?$standard_base@_WV?$string_output_adapter@_W@__crt_stdio_output@@@2@@__crt_stdio_output@@AEAA_NXZ 00000001800643e8 f i libucrt:output.obj
 0001:000633f0       ?type_case_x@?$output_processor@DV?$stream_output_adapter@D@__crt_stdio_output@@V?$format_validation_base@DV?$stream_output_adapter@D@__crt_stdio_output@@@2@@__crt_stdio_output@@AEAA_NXZ 00000001800643f0 f i libucrt:output.obj
 0001:000633f8       ?type_case_x@?$output_processor@DV?$stream_output_adapter@D@__crt_stdio_output@@V?$positional_parameter_base@DV?$stream_output_adapter@D@__crt_stdio_output@@@2@@__crt_stdio_output@@AEAA_NXZ 00000001800643f8 f i libucrt:output.obj
 0001:00063400       ?type_case_x@?$output_processor@DV?$stream_output_adapter@D@__crt_stdio_output@@V?$standard_base@DV?$stream_output_adapter@D@__crt_stdio_output@@@2@@__crt_stdio_output@@AEAA_NXZ 0000000180064400 f i libucrt:output.obj
 0001:00063408       ?type_case_x@?$output_processor@DV?$string_output_adapter@D@__crt_stdio_output@@V?$format_validation_base@DV?$string_output_adapter@D@__crt_stdio_output@@@2@@__crt_stdio_output@@AEAA_NXZ 0000000180064408 f i libucrt:output.obj
 0001:00063410       ?type_case_x@?$output_processor@DV?$string_output_adapter@D@__crt_stdio_output@@V?$positional_parameter_base@DV?$string_output_adapter@D@__crt_stdio_output@@@2@@__crt_stdio_output@@AEAA_NXZ 0000000180064410 f i libucrt:output.obj
 0001:00063418       ?type_case_x@?$output_processor@DV?$string_output_adapter@D@__crt_stdio_output@@V?$standard_base@DV?$string_output_adapter@D@__crt_stdio_output@@@2@@__crt_stdio_output@@AEAA_NXZ 0000000180064418 f i libucrt:output.obj
 0001:00063420       ?type_case_x@?$output_processor@_WV?$stream_output_adapter@_W@__crt_stdio_output@@V?$format_validation_base@_WV?$stream_output_adapter@_W@__crt_stdio_output@@@2@@__crt_stdio_output@@AEAA_NXZ 0000000180064420 f i libucrt:output.obj
 0001:00063428       ?type_case_x@?$output_processor@_WV?$stream_output_adapter@_W@__crt_stdio_output@@V?$positional_parameter_base@_WV?$stream_output_adapter@_W@__crt_stdio_output@@@2@@__crt_stdio_output@@AEAA_NXZ 0000000180064428 f i libucrt:output.obj
 0001:00063430       ?type_case_x@?$output_processor@_WV?$stream_output_adapter@_W@__crt_stdio_output@@V?$standard_base@_WV?$stream_output_adapter@_W@__crt_stdio_output@@@2@@__crt_stdio_output@@AEAA_NXZ 0000000180064430 f i libucrt:output.obj
 0001:00063438       ?type_case_x@?$output_processor@_WV?$string_output_adapter@_W@__crt_stdio_output@@V?$format_validation_base@_WV?$string_output_adapter@_W@__crt_stdio_output@@@2@@__crt_stdio_output@@AEAA_NXZ 0000000180064438 f i libucrt:output.obj
 0001:00063440       ?type_case_x@?$output_processor@_WV?$string_output_adapter@_W@__crt_stdio_output@@V?$positional_parameter_base@_WV?$string_output_adapter@_W@__crt_stdio_output@@@2@@__crt_stdio_output@@AEAA_NXZ 0000000180064440 f i libucrt:output.obj
 0001:00063448       ?type_case_x@?$output_processor@_WV?$string_output_adapter@_W@__crt_stdio_output@@V?$standard_base@_WV?$string_output_adapter@_W@__crt_stdio_output@@@2@@__crt_stdio_output@@AEAA_NXZ 0000000180064448 f i libucrt:output.obj
 0001:00063450       ?unget@?$c_string_character_source@D@__crt_strtox@@QEAAXD@Z 0000000180064450 f i libucrt:output.obj
 0001:0006347c       ?unget@?$c_string_character_source@_W@__crt_strtox@@QEAAX_W@Z 000000018006447c f i libucrt:output.obj
 0001:000634ac       ?unsafe_value@?$cached@H@__crt_cached_ptd_host@@QEAAHXZ 00000001800644ac f i libucrt:output.obj
 0001:000634b0       ?unsafe_value@?$cached@K@__crt_cached_ptd_host@@QEAAKXZ 00000001800644b0 f i libucrt:output.obj
 0001:000634b4       ?unset_flag@?$output_processor@DV?$stream_output_adapter@D@__crt_stdio_output@@V?$format_validation_base@DV?$stream_output_adapter@D@__crt_stdio_output@@@2@@__crt_stdio_output@@AEAAXI@Z 00000001800644b4 f i libucrt:output.obj
 0001:000634bc       ?unset_flag@?$output_processor@DV?$stream_output_adapter@D@__crt_stdio_output@@V?$positional_parameter_base@DV?$stream_output_adapter@D@__crt_stdio_output@@@2@@__crt_stdio_output@@AEAAXI@Z 00000001800644bc f i libucrt:output.obj
 0001:000634c4       ?unset_flag@?$output_processor@DV?$stream_output_adapter@D@__crt_stdio_output@@V?$standard_base@DV?$stream_output_adapter@D@__crt_stdio_output@@@2@@__crt_stdio_output@@AEAAXI@Z 00000001800644c4 f i libucrt:output.obj
 0001:000634cc       ?unset_flag@?$output_processor@DV?$string_output_adapter@D@__crt_stdio_output@@V?$format_validation_base@DV?$string_output_adapter@D@__crt_stdio_output@@@2@@__crt_stdio_output@@AEAAXI@Z 00000001800644cc f i libucrt:output.obj
 0001:000634d4       ?unset_flag@?$output_processor@DV?$string_output_adapter@D@__crt_stdio_output@@V?$positional_parameter_base@DV?$string_output_adapter@D@__crt_stdio_output@@@2@@__crt_stdio_output@@AEAAXI@Z 00000001800644d4 f i libucrt:output.obj
 0001:000634dc       ?unset_flag@?$output_processor@DV?$string_output_adapter@D@__crt_stdio_output@@V?$standard_base@DV?$string_output_adapter@D@__crt_stdio_output@@@2@@__crt_stdio_output@@AEAAXI@Z 00000001800644dc f i libucrt:output.obj
 0001:000634e4       ?unset_flag@?$output_processor@_WV?$stream_output_adapter@_W@__crt_stdio_output@@V?$format_validation_base@_WV?$stream_output_adapter@_W@__crt_stdio_output@@@2@@__crt_stdio_output@@AEAAXI@Z 00000001800644e4 f i libucrt:output.obj
 0001:000634ec       ?unset_flag@?$output_processor@_WV?$stream_output_adapter@_W@__crt_stdio_output@@V?$positional_parameter_base@_WV?$stream_output_adapter@_W@__crt_stdio_output@@@2@@__crt_stdio_output@@AEAAXI@Z 00000001800644ec f i libucrt:output.obj
 0001:000634f4       ?unset_flag@?$output_processor@_WV?$stream_output_adapter@_W@__crt_stdio_output@@V?$standard_base@_WV?$stream_output_adapter@_W@__crt_stdio_output@@@2@@__crt_stdio_output@@AEAAXI@Z 00000001800644f4 f i libucrt:output.obj
 0001:000634fc       ?unset_flag@?$output_processor@_WV?$string_output_adapter@_W@__crt_stdio_output@@V?$format_validation_base@_WV?$string_output_adapter@_W@__crt_stdio_output@@@2@@__crt_stdio_output@@AEAAXI@Z 00000001800644fc f i libucrt:output.obj
 0001:00063504       ?unset_flag@?$output_processor@_WV?$string_output_adapter@_W@__crt_stdio_output@@V?$positional_parameter_base@_WV?$string_output_adapter@_W@__crt_stdio_output@@@2@@__crt_stdio_output@@AEAAXI@Z 0000000180064504 f i libucrt:output.obj
 0001:0006350c       ?unset_flag@?$output_processor@_WV?$string_output_adapter@_W@__crt_stdio_output@@V?$standard_base@_WV?$string_output_adapter@_W@__crt_stdio_output@@@2@@__crt_stdio_output@@AEAAXI@Z 000000018006450c f i libucrt:output.obj
 0001:00063514       ?update_field_width@?$positional_parameter_base@DV?$stream_output_adapter@D@__crt_stdio_output@@@__crt_stdio_output@@IEAA_NXZ 0000000180064514 f i libucrt:output.obj
 0001:00063684       ?update_field_width@?$positional_parameter_base@DV?$string_output_adapter@D@__crt_stdio_output@@@__crt_stdio_output@@IEAA_NXZ 0000000180064684 f i libucrt:output.obj
 0001:000637f4       ?update_field_width@?$positional_parameter_base@_WV?$stream_output_adapter@_W@__crt_stdio_output@@@__crt_stdio_output@@IEAA_NXZ 00000001800647f4 f i libucrt:output.obj
 0001:00063968       ?update_field_width@?$positional_parameter_base@_WV?$string_output_adapter@_W@__crt_stdio_output@@@__crt_stdio_output@@IEAA_NXZ 0000000180064968 f i libucrt:output.obj
 0001:00063adc       ?update_field_width@?$standard_base@DV?$stream_output_adapter@D@__crt_stdio_output@@@__crt_stdio_output@@IEAA_NXZ 0000000180064adc f i libucrt:output.obj
 0001:00063af0       ?update_field_width@?$standard_base@DV?$string_output_adapter@D@__crt_stdio_output@@@__crt_stdio_output@@IEAA_NXZ 0000000180064af0 f i libucrt:output.obj
 0001:00063b04       ?update_field_width@?$standard_base@_WV?$stream_output_adapter@_W@__crt_stdio_output@@@__crt_stdio_output@@IEAA_NXZ 0000000180064b04 f i libucrt:output.obj
 0001:00063b18       ?update_field_width@?$standard_base@_WV?$string_output_adapter@_W@__crt_stdio_output@@@__crt_stdio_output@@IEAA_NXZ 0000000180064b18 f i libucrt:output.obj
 0001:00063b30       ?update_locale@__crt_cached_ptd_host@@AEAAXXZ 0000000180064b30 f i libucrt:output.obj
 0001:00063b40       ?update_locale_slow@__crt_cached_ptd_host@@AEAAXXZ 0000000180064b40 f i libucrt:output.obj
 0001:00063bb8       ?update_precision@?$positional_parameter_base@DV?$stream_output_adapter@D@__crt_stdio_output@@@__crt_stdio_output@@IEAA_NXZ 0000000180064bb8 f i libucrt:output.obj
 0001:00063d28       ?update_precision@?$positional_parameter_base@DV?$string_output_adapter@D@__crt_stdio_output@@@__crt_stdio_output@@IEAA_NXZ 0000000180064d28 f i libucrt:output.obj
 0001:00063e98       ?update_precision@?$positional_parameter_base@_WV?$stream_output_adapter@_W@__crt_stdio_output@@@__crt_stdio_output@@IEAA_NXZ 0000000180064e98 f i libucrt:output.obj
 0001:0006400c       ?update_precision@?$positional_parameter_base@_WV?$string_output_adapter@_W@__crt_stdio_output@@@__crt_stdio_output@@IEAA_NXZ 000000018006500c f i libucrt:output.obj
 0001:00064180       ?update_precision@?$standard_base@DV?$stream_output_adapter@D@__crt_stdio_output@@@__crt_stdio_output@@IEAA_NXZ 0000000180065180 f i libucrt:output.obj
 0001:00064194       ?update_precision@?$standard_base@DV?$string_output_adapter@D@__crt_stdio_output@@@__crt_stdio_output@@IEAA_NXZ 0000000180065194 f i libucrt:output.obj
 0001:000641a8       ?update_precision@?$standard_base@_WV?$stream_output_adapter@_W@__crt_stdio_output@@@__crt_stdio_output@@IEAA_NXZ 00000001800651a8 f i libucrt:output.obj
 0001:000641bc       ?update_precision@?$standard_base@_WV?$string_output_adapter@_W@__crt_stdio_output@@@__crt_stdio_output@@IEAA_NXZ 00000001800651bc f i libucrt:output.obj
 0001:000641d0       ?valid@?$cached@H@__crt_cached_ptd_host@@QEBA_NXZ 00000001800651d0 f i libucrt:output.obj
 0001:000641d4       ?valid@?$cached@K@__crt_cached_ptd_host@@QEBA_NXZ 00000001800651d4 f i libucrt:output.obj
 0001:000641d8       ?valid@__crt_stdio_stream@@QEBA_NXZ 00000001800651d8 f i libucrt:output.obj
 0001:000641e0       ?validate@?$c_string_character_source@D@__crt_strtox@@QEBA_NXZ 00000001800651e0 f i libucrt:output.obj
 0001:00064208       ?validate@?$c_string_character_source@_W@__crt_strtox@@QEBA_NXZ 0000000180065208 f i libucrt:output.obj
 0001:00064230       ?validate@?$stream_output_adapter@D@__crt_stdio_output@@QEBA_NAEAV__crt_cached_ptd_host@@@Z 0000000180065230 f i libucrt:output.obj
 0001:00064270       ?validate@?$stream_output_adapter@_W@__crt_stdio_output@@QEBA_NAEAV__crt_cached_ptd_host@@@Z 0000000180065270 f i libucrt:output.obj
 0001:000642ac       ?validate@?$string_output_adapter@D@__crt_stdio_output@@QEBA_NAEAV__crt_cached_ptd_host@@@Z 00000001800652ac f i libucrt:output.obj
 0001:000642e8       ?validate@?$string_output_adapter@_W@__crt_stdio_output@@QEBA_NAEAV__crt_cached_ptd_host@@@Z 00000001800652e8 f i libucrt:output.obj
 0001:00064324       ?validate_and_store_parameter_data@?$positional_parameter_base@DV?$stream_output_adapter@D@__crt_stdio_output@@@__crt_stdio_output@@AEAA_NAEAUparameter_data@12@W4parameter_type@12@DW4length_modifier@2@@Z 0000000180065324 f i libucrt:output.obj
 0001:00064388       ?validate_and_store_parameter_data@?$positional_parameter_base@DV?$string_output_adapter@D@__crt_stdio_output@@@__crt_stdio_output@@AEAA_NAEAUparameter_data@12@W4parameter_type@12@DW4length_modifier@2@@Z 0000000180065388 f i libucrt:output.obj
 0001:000643ec       ?validate_and_store_parameter_data@?$positional_parameter_base@_WV?$stream_output_adapter@_W@__crt_stdio_output@@@__crt_stdio_output@@AEAA_NAEAUparameter_data@12@W4parameter_type@12@_WW4length_modifier@2@@Z 00000001800653ec f i libucrt:output.obj
 0001:00064450       ?validate_and_store_parameter_data@?$positional_parameter_base@_WV?$string_output_adapter@_W@__crt_stdio_output@@@__crt_stdio_output@@AEAA_NAEAUparameter_data@12@W4parameter_type@12@_WW4length_modifier@2@@Z 0000000180065450 f i libucrt:output.obj
 0001:000644b4       ?validate_and_update_state_at_beginning_of_format_character@?$positional_parameter_base@DV?$stream_output_adapter@D@__crt_stdio_output@@@__crt_stdio_output@@IEAA_NXZ 00000001800654b4 f i libucrt:output.obj
 0001:000645fc       ?validate_and_update_state_at_beginning_of_format_character@?$positional_parameter_base@DV?$string_output_adapter@D@__crt_stdio_output@@@__crt_stdio_output@@IEAA_NXZ 00000001800655fc f i libucrt:output.obj
 0001:00064744       ?validate_and_update_state_at_beginning_of_format_character@?$positional_parameter_base@_WV?$stream_output_adapter@_W@__crt_stdio_output@@@__crt_stdio_output@@IEAA_NXZ 0000000180065744 f i libucrt:output.obj
 0001:0006489c       ?validate_and_update_state_at_beginning_of_format_character@?$positional_parameter_base@_WV?$string_output_adapter@_W@__crt_stdio_output@@@__crt_stdio_output@@IEAA_NXZ 000000018006589c f i libucrt:output.obj
 0001:000649f4       ?validate_and_update_state_at_beginning_of_format_character@?$standard_base@DV?$stream_output_adapter@D@__crt_stdio_output@@@__crt_stdio_output@@IEAA_NXZ 00000001800659f4 f i libucrt:output.obj
 0001:000649f8       ?validate_and_update_state_at_beginning_of_format_character@?$standard_base@DV?$string_output_adapter@D@__crt_stdio_output@@@__crt_stdio_output@@IEAA_NXZ 00000001800659f8 f i libucrt:output.obj
 0001:000649fc       ?validate_and_update_state_at_beginning_of_format_character@?$standard_base@_WV?$stream_output_adapter@_W@__crt_stdio_output@@@__crt_stdio_output@@IEAA_NXZ 00000001800659fc f i libucrt:output.obj
 0001:00064a00       ?validate_and_update_state_at_beginning_of_format_character@?$standard_base@_WV?$string_output_adapter@_W@__crt_stdio_output@@@__crt_stdio_output@@IEAA_NXZ 0000000180065a00 f i libucrt:output.obj
 0001:00064a04       ?validate_and_update_state_at_end_of_format_string@?$format_validation_base@DV?$stream_output_adapter@D@__crt_stdio_output@@@__crt_stdio_output@@IEAA_NXZ 0000000180065a04 f i libucrt:output.obj
 0001:00064a4c       ?validate_and_update_state_at_end_of_format_string@?$format_validation_base@DV?$string_output_adapter@D@__crt_stdio_output@@@__crt_stdio_output@@IEAA_NXZ 0000000180065a4c f i libucrt:output.obj
 0001:00064a94       ?validate_and_update_state_at_end_of_format_string@?$format_validation_base@_WV?$stream_output_adapter@_W@__crt_stdio_output@@@__crt_stdio_output@@IEAA_NXZ 0000000180065a94 f i libucrt:output.obj
 0001:00064adc       ?validate_and_update_state_at_end_of_format_string@?$format_validation_base@_WV?$string_output_adapter@_W@__crt_stdio_output@@@__crt_stdio_output@@IEAA_NXZ 0000000180065adc f i libucrt:output.obj
 0001:00064b24       ?validate_and_update_state_at_end_of_format_string@?$positional_parameter_base@DV?$stream_output_adapter@D@__crt_stdio_output@@@__crt_stdio_output@@IEAA_NXZ 0000000180065b24 f i libucrt:output.obj
 0001:00064be0       ?validate_and_update_state_at_end_of_format_string@?$positional_parameter_base@DV?$string_output_adapter@D@__crt_stdio_output@@@__crt_stdio_output@@IEAA_NXZ 0000000180065be0 f i libucrt:output.obj
 0001:00064c9c       ?validate_and_update_state_at_end_of_format_string@?$positional_parameter_base@_WV?$stream_output_adapter@_W@__crt_stdio_output@@@__crt_stdio_output@@IEAA_NXZ 0000000180065c9c f i libucrt:output.obj
 0001:00064d58       ?validate_and_update_state_at_end_of_format_string@?$positional_parameter_base@_WV?$string_output_adapter@_W@__crt_stdio_output@@@__crt_stdio_output@@IEAA_NXZ 0000000180065d58 f i libucrt:output.obj
 0001:00064e14       ?validate_and_update_state_at_end_of_format_string@?$standard_base@DV?$stream_output_adapter@D@__crt_stdio_output@@@__crt_stdio_output@@IEBA_NXZ 0000000180065e14 f i libucrt:output.obj
 0001:00064e18       ?validate_and_update_state_at_end_of_format_string@?$standard_base@DV?$string_output_adapter@D@__crt_stdio_output@@@__crt_stdio_output@@IEBA_NXZ 0000000180065e18 f i libucrt:output.obj
 0001:00064e1c       ?validate_and_update_state_at_end_of_format_string@?$standard_base@_WV?$stream_output_adapter@_W@__crt_stdio_output@@@__crt_stdio_output@@IEBA_NXZ 0000000180065e1c f i libucrt:output.obj
 0001:00064e20       ?validate_and_update_state_at_end_of_format_string@?$standard_base@_WV?$string_output_adapter@_W@__crt_stdio_output@@@__crt_stdio_output@@IEBA_NXZ 0000000180065e20 f i libucrt:output.obj
 0001:00064e24       ?validate_state_for_type_case_a@?$positional_parameter_base@DV?$stream_output_adapter@D@__crt_stdio_output@@@__crt_stdio_output@@IEAA_NXZ 0000000180065e24 f i libucrt:output.obj
 0001:00064f08       ?validate_state_for_type_case_a@?$positional_parameter_base@DV?$string_output_adapter@D@__crt_stdio_output@@@__crt_stdio_output@@IEAA_NXZ 0000000180065f08 f i libucrt:output.obj
 0001:00064fec       ?validate_state_for_type_case_a@?$positional_parameter_base@_WV?$stream_output_adapter@_W@__crt_stdio_output@@@__crt_stdio_output@@IEAA_NXZ 0000000180065fec f i libucrt:output.obj
 0001:000650d0       ?validate_state_for_type_case_a@?$positional_parameter_base@_WV?$string_output_adapter@_W@__crt_stdio_output@@@__crt_stdio_output@@IEAA_NXZ 00000001800660d0 f i libucrt:output.obj
 0001:000651b4       ?validate_state_for_type_case_a@?$standard_base@DV?$stream_output_adapter@D@__crt_stdio_output@@@__crt_stdio_output@@IEBA_NXZ 00000001800661b4 f i libucrt:output.obj
 0001:000651b8       ?validate_state_for_type_case_a@?$standard_base@DV?$string_output_adapter@D@__crt_stdio_output@@@__crt_stdio_output@@IEBA_NXZ 00000001800661b8 f i libucrt:output.obj
 0001:000651bc       ?validate_state_for_type_case_a@?$standard_base@_WV?$stream_output_adapter@_W@__crt_stdio_output@@@__crt_stdio_output@@IEBA_NXZ 00000001800661bc f i libucrt:output.obj
 0001:000651c0       ?validate_state_for_type_case_a@?$standard_base@_WV?$string_output_adapter@_W@__crt_stdio_output@@@__crt_stdio_output@@IEBA_NXZ 00000001800661c0 f i libucrt:output.obj
 0001:000651c4       ?validate_stream_is_ansi_if_required@?$__acrt_stdio_char_traits@D@@SA_NQEAU_iobuf@@@Z 00000001800661c4 f i libucrt:output.obj
 0001:00065260       ?validate_stream_is_ansi_if_required@?$__acrt_stdio_char_traits@_W@@SA_NQEAU_iobuf@@@Z 0000000180066260 f i libucrt:output.obj
 0001:00065264       ?wide_character_to_digit@__crt_strtox@@YAH_W@Z 0000000180066264 f i libucrt:output.obj
 0001:00065404       ?wide_null_string@?$output_processor@DV?$stream_output_adapter@D@__crt_stdio_output@@V?$format_validation_base@DV?$stream_output_adapter@D@__crt_stdio_output@@@2@@__crt_stdio_output@@CAPEA_WXZ 0000000180066404 f i libucrt:output.obj
 0001:0006540c       ?wide_null_string@?$output_processor@DV?$stream_output_adapter@D@__crt_stdio_output@@V?$positional_parameter_base@DV?$stream_output_adapter@D@__crt_stdio_output@@@2@@__crt_stdio_output@@CAPEA_WXZ 000000018006640c f i libucrt:output.obj
 0001:00065414       ?wide_null_string@?$output_processor@DV?$stream_output_adapter@D@__crt_stdio_output@@V?$standard_base@DV?$stream_output_adapter@D@__crt_stdio_output@@@2@@__crt_stdio_output@@CAPEA_WXZ 0000000180066414 f i libucrt:output.obj
 0001:0006541c       ?wide_null_string@?$output_processor@DV?$string_output_adapter@D@__crt_stdio_output@@V?$format_validation_base@DV?$string_output_adapter@D@__crt_stdio_output@@@2@@__crt_stdio_output@@CAPEA_WXZ 000000018006641c f i libucrt:output.obj
 0001:00065424       ?wide_null_string@?$output_processor@DV?$string_output_adapter@D@__crt_stdio_output@@V?$positional_parameter_base@DV?$string_output_adapter@D@__crt_stdio_output@@@2@@__crt_stdio_output@@CAPEA_WXZ 0000000180066424 f i libucrt:output.obj
 0001:0006542c       ?wide_null_string@?$output_processor@DV?$string_output_adapter@D@__crt_stdio_output@@V?$standard_base@DV?$string_output_adapter@D@__crt_stdio_output@@@2@@__crt_stdio_output@@CAPEA_WXZ 000000018006642c f i libucrt:output.obj
 0001:00065434       ?wide_null_string@?$output_processor@_WV?$stream_output_adapter@_W@__crt_stdio_output@@V?$format_validation_base@_WV?$stream_output_adapter@_W@__crt_stdio_output@@@2@@__crt_stdio_output@@CAPEA_WXZ 0000000180066434 f i libucrt:output.obj
 0001:0006543c       ?wide_null_string@?$output_processor@_WV?$stream_output_adapter@_W@__crt_stdio_output@@V?$positional_parameter_base@_WV?$stream_output_adapter@_W@__crt_stdio_output@@@2@@__crt_stdio_output@@CAPEA_WXZ 000000018006643c f i libucrt:output.obj
 0001:00065444       ?wide_null_string@?$output_processor@_WV?$stream_output_adapter@_W@__crt_stdio_output@@V?$standard_base@_WV?$stream_output_adapter@_W@__crt_stdio_output@@@2@@__crt_stdio_output@@CAPEA_WXZ 0000000180066444 f i libucrt:output.obj
 0001:0006544c       ?wide_null_string@?$output_processor@_WV?$string_output_adapter@_W@__crt_stdio_output@@V?$format_validation_base@_WV?$string_output_adapter@_W@__crt_stdio_output@@@2@@__crt_stdio_output@@CAPEA_WXZ 000000018006644c f i libucrt:output.obj
 0001:00065454       ?wide_null_string@?$output_processor@_WV?$string_output_adapter@_W@__crt_stdio_output@@V?$positional_parameter_base@_WV?$string_output_adapter@_W@__crt_stdio_output@@@2@@__crt_stdio_output@@CAPEA_WXZ 0000000180066454 f i libucrt:output.obj
 0001:0006545c       ?wide_null_string@?$output_processor@_WV?$string_output_adapter@_W@__crt_stdio_output@@V?$standard_base@_WV?$string_output_adapter@_W@__crt_stdio_output@@@2@@__crt_stdio_output@@CAPEA_WXZ 000000018006645c f i libucrt:output.obj
 0001:00065464       ?write_character@?$output_adapter_common@DV?$stream_output_adapter@D@__crt_stdio_output@@@__crt_stdio_output@@QEBAXDQEAHAEAV__crt_cached_ptd_host@@@Z 0000000180066464 f i libucrt:output.obj
 0001:000654b0       ?write_character@?$output_adapter_common@_WV?$stream_output_adapter@_W@__crt_stdio_output@@@__crt_stdio_output@@QEBAX_WQEAHAEAV__crt_cached_ptd_host@@@Z 00000001800664b0 f i libucrt:output.obj
 0001:00065500       ?write_character@?$string_output_adapter@D@__crt_stdio_output@@QEBA_NDQEAHAEAV__crt_cached_ptd_host@@@Z 0000000180066500 f i libucrt:output.obj
 0001:00065548       ?write_character@?$string_output_adapter@_W@__crt_stdio_output@@QEBA_N_WQEAHAEAV__crt_cached_ptd_host@@@Z 0000000180066548 f i libucrt:output.obj
 0001:00065590       ?write_character_without_count_update@?$stream_output_adapter@D@__crt_stdio_output@@QEBA_NDAEAV__crt_cached_ptd_host@@@Z 0000000180066590 f i libucrt:output.obj
 0001:000655d0       ?write_character_without_count_update@?$stream_output_adapter@_W@__crt_stdio_output@@QEBA_N_WAEAV__crt_cached_ptd_host@@@Z 00000001800665d0 f i libucrt:output.obj
 0001:00065610       ?write_stored_string_tchar@?$output_processor@DV?$stream_output_adapter@D@__crt_stdio_output@@V?$format_validation_base@DV?$stream_output_adapter@D@__crt_stdio_output@@@2@@__crt_stdio_output@@AEAA_ND@Z 0000000180066610 f i libucrt:output.obj
 0001:00065734       ?write_stored_string_tchar@?$output_processor@DV?$stream_output_adapter@D@__crt_stdio_output@@V?$positional_parameter_base@DV?$stream_output_adapter@D@__crt_stdio_output@@@2@@__crt_stdio_output@@AEAA_ND@Z 0000000180066734 f i libucrt:output.obj
 0001:00065858       ?write_stored_string_tchar@?$output_processor@DV?$stream_output_adapter@D@__crt_stdio_output@@V?$standard_base@DV?$stream_output_adapter@D@__crt_stdio_output@@@2@@__crt_stdio_output@@AEAA_ND@Z 0000000180066858 f i libucrt:output.obj
 0001:0006597c       ?write_stored_string_tchar@?$output_processor@DV?$string_output_adapter@D@__crt_stdio_output@@V?$format_validation_base@DV?$string_output_adapter@D@__crt_stdio_output@@@2@@__crt_stdio_output@@AEAA_ND@Z 000000018006697c f i libucrt:output.obj
 0001:00065a58       ?write_stored_string_tchar@?$output_processor@DV?$string_output_adapter@D@__crt_stdio_output@@V?$positional_parameter_base@DV?$string_output_adapter@D@__crt_stdio_output@@@2@@__crt_stdio_output@@AEAA_ND@Z 0000000180066a58 f i libucrt:output.obj
 0001:00065b34       ?write_stored_string_tchar@?$output_processor@DV?$string_output_adapter@D@__crt_stdio_output@@V?$standard_base@DV?$string_output_adapter@D@__crt_stdio_output@@@2@@__crt_stdio_output@@AEAA_ND@Z 0000000180066b34 f i libucrt:output.obj
 0001:00065c10       ?write_stored_string_tchar@?$output_processor@_WV?$stream_output_adapter@_W@__crt_stdio_output@@V?$format_validation_base@_WV?$stream_output_adapter@_W@__crt_stdio_output@@@2@@__crt_stdio_output@@AEAA_N_W@Z 0000000180066c10 f i libucrt:output.obj
 0001:00065d44       ?write_stored_string_tchar@?$output_processor@_WV?$stream_output_adapter@_W@__crt_stdio_output@@V?$positional_parameter_base@_WV?$stream_output_adapter@_W@__crt_stdio_output@@@2@@__crt_stdio_output@@AEAA_N_W@Z 0000000180066d44 f i libucrt:output.obj
 0001:00065e78       ?write_stored_string_tchar@?$output_processor@_WV?$stream_output_adapter@_W@__crt_stdio_output@@V?$standard_base@_WV?$stream_output_adapter@_W@__crt_stdio_output@@@2@@__crt_stdio_output@@AEAA_N_W@Z 0000000180066e78 f i libucrt:output.obj
 0001:00065fac       ?write_stored_string_tchar@?$output_processor@_WV?$string_output_adapter@_W@__crt_stdio_output@@V?$format_validation_base@_WV?$string_output_adapter@_W@__crt_stdio_output@@@2@@__crt_stdio_output@@AEAA_N_W@Z 0000000180066fac f i libucrt:output.obj
 0001:000660b4       ?write_stored_string_tchar@?$output_processor@_WV?$string_output_adapter@_W@__crt_stdio_output@@V?$positional_parameter_base@_WV?$string_output_adapter@_W@__crt_stdio_output@@@2@@__crt_stdio_output@@AEAA_N_W@Z 00000001800670b4 f i libucrt:output.obj
 0001:000661bc       ?write_stored_string_tchar@?$output_processor@_WV?$string_output_adapter@_W@__crt_stdio_output@@V?$standard_base@_WV?$string_output_adapter@_W@__crt_stdio_output@@@2@@__crt_stdio_output@@AEAA_N_W@Z 00000001800671bc f i libucrt:output.obj
 0001:000662c4       ?write_string@?$stream_output_adapter@D@__crt_stdio_output@@QEBAXQEBDHQEAHAEAV__crt_cached_ptd_host@@@Z 00000001800672c4 f i libucrt:output.obj
 0001:000662e8       ?write_string@?$stream_output_adapter@_W@__crt_stdio_output@@QEBAXQEB_WHQEAHAEAV__crt_cached_ptd_host@@@Z 00000001800672e8 f i libucrt:output.obj
 0001:0006630c       ?write_string@?$string_output_adapter@D@__crt_stdio_output@@QEBAXQEBDHQEAHAEAV__crt_cached_ptd_host@@@Z 000000018006730c f i libucrt:output.obj
 0001:000663b0       ?write_string@?$string_output_adapter@_W@__crt_stdio_output@@QEBAXQEB_WHQEAHAEAV__crt_cached_ptd_host@@@Z 00000001800673b0 f i libucrt:output.obj
 0001:00066458       ?write_string_impl@?$output_adapter_common@DV?$stream_output_adapter@D@__crt_stdio_output@@@__crt_stdio_output@@IEBAXQEBDHQEAHAEAV__crt_cached_ptd_host@@@Z 0000000180067458 f i libucrt:output.obj
 0001:00066524       ?write_string_impl@?$output_adapter_common@_WV?$stream_output_adapter@_W@__crt_stdio_output@@@__crt_stdio_output@@IEBAXQEB_WHQEAHAEAV__crt_cached_ptd_host@@@Z 0000000180067524 f i libucrt:output.obj
 0001:00066600       __acrt_disable_global_locale_sync 0000000180067600 f i libucrt:output.obj
 0001:00066608       __acrt_enable_global_locale_sync 0000000180067608 f i libucrt:output.obj
 0001:00066614       __acrt_isleadbyte_l_noupdate 0000000180067614 f i libucrt:output.obj
 0001:00066638       __acrt_locale_changed      0000000180067638 f i libucrt:output.obj
 0001:00066644       __acrt_locale_get_ctype_array_value 0000000180067644 f i libucrt:output.obj
 0001:0006665c       __ascii_iswalpha           000000018006765c f i libucrt:output.obj
 0001:00066678       __ascii_toupper            0000000180067678 f i libucrt:output.obj
 0001:00066688       __ascii_towupper           0000000180067688 f i libucrt:output.obj
 0001:00066698       __stdio_common_vfprintf    0000000180067698 f   libucrt:output.obj
 0001:000667bc       __stdio_common_vfprintf_p  00000001800677bc f   libucrt:output.obj
 0001:000668e0       __stdio_common_vfprintf_s  00000001800678e0 f   libucrt:output.obj
 0001:00066a04       __stdio_common_vfwprintf   0000000180067a04 f   libucrt:output.obj
 0001:00066b28       __stdio_common_vfwprintf_p 0000000180067b28 f   libucrt:output.obj
 0001:00066c4c       __stdio_common_vfwprintf_s 0000000180067c4c f   libucrt:output.obj
 0001:00066d70       __stdio_common_vsnprintf_s 0000000180067d70 f   libucrt:output.obj
 0001:00066f48       __stdio_common_vsnwprintf_s 0000000180067f48 f   libucrt:output.obj
 0001:00067124       __stdio_common_vsprintf    0000000180068124 f   libucrt:output.obj
 0001:00067378       __stdio_common_vsprintf_p  0000000180068378 f   libucrt:output.obj
 0001:00067430       __stdio_common_vsprintf_s  0000000180068430 f   libucrt:output.obj
 0001:00067544       __stdio_common_vswprintf   0000000180068544 f   libucrt:output.obj
 0001:000677a0       __stdio_common_vswprintf_p 00000001800687a0 f   libucrt:output.obj
 0001:00067858       __stdio_common_vswprintf_s 0000000180068858 f   libucrt:output.obj
 0001:0006796c       _ctype_fast_check_internal 000000018006896c f i libucrt:output.obj
 0001:00067980       _isdigit_fast_internal     0000000180068980 f i libucrt:output.obj
 0001:00067994       _tolower_fast_internal     0000000180068994 f i libucrt:output.obj
 0001:000679a8       ??$is_overflow_condition@_K@__crt_strtox@@YA_NI_K@Z 00000001800689a8 f i libucrt:atox.obj
 0001:000679d8       ??$make_c_string_character_source@D$$T@__crt_strtox@@YA?AV?$c_string_character_source@D@0@QEBD$$T@Z 00000001800689d8 f i libucrt:atox.obj
 0001:000679ec       ??$make_c_string_character_source@_W$$T@__crt_strtox@@YA?AV?$c_string_character_source@_W@0@QEB_W$$T@Z 00000001800689ec f i libucrt:atox.obj
 0001:00067a00       ??$parse_integer@KV?$c_string_character_source@D@__crt_strtox@@$00@__crt_strtox@@YAKAEAV__crt_cached_ptd_host@@V?$c_string_character_source@D@0@H_N@Z 0000000180068a00 f i libucrt:atox.obj
 0001:00067ce0       ??$parse_integer@KV?$c_string_character_source@_W@__crt_strtox@@$00@__crt_strtox@@YAKAEAV__crt_cached_ptd_host@@V?$c_string_character_source@_W@0@H_N@Z 0000000180068ce0 f i libucrt:atox.obj
 0001:00068468       ??$parse_integer@_KV?$c_string_character_source@D@__crt_strtox@@$00@__crt_strtox@@YA_KAEAV__crt_cached_ptd_host@@V?$c_string_character_source@D@0@H_N@Z 0000000180069468 f i libucrt:atox.obj
 0001:00068744       ??$parse_integer@_KV?$c_string_character_source@_W@__crt_strtox@@$00@__crt_strtox@@YA_KAEAV__crt_cached_ptd_host@@V?$c_string_character_source@_W@0@H_N@Z 0000000180069744 f i libucrt:atox.obj
 0001:00068ebc       ??$parse_integer_from_string@JD$$T@__crt_strtox@@YAJQEBD$$THQEAU__crt_locale_pointers@@@Z 0000000180069ebc f i libucrt:atox.obj
 0001:00068f78       ??$parse_integer_from_string@J_W$$T@__crt_strtox@@YAJQEB_W$$THQEAU__crt_locale_pointers@@@Z 0000000180069f78 f i libucrt:atox.obj
 0001:00069034       ??$parse_integer_from_string@_JD$$T@__crt_strtox@@YA_JQEBD$$THQEAU__crt_locale_pointers@@@Z 000000018006a034 f i libucrt:atox.obj
 0001:000690f4       ??$parse_integer_from_string@_J_W$$T@__crt_strtox@@YA_JQEB_W$$THQEAU__crt_locale_pointers@@@Z 000000018006a0f4 f i libucrt:atox.obj
 0001:000691b4       ?is_space@__crt_strtox@@YA_NDQEAU__crt_locale_pointers@@@Z 000000018006a1b4 f i libucrt:atox.obj
 0001:000691d4       ?is_space@__crt_strtox@@YA_N_WPEAU__crt_locale_pointers@@@Z 000000018006a1d4 f i libucrt:atox.obj
 0001:000691ec       ?maximum_signed_value@__crt_strtox@@YA_J_K@Z 000000018006a1ec f i libucrt:atox.obj
 0001:000691f8       ?minimum_signed_value@__crt_strtox@@YA_J_K@Z 000000018006a1f8 f i libucrt:atox.obj
 0001:00069204       __acrt_get_locale_data_prefix 000000018006a204 f i libucrt:atox.obj
 0001:00069208       _atoi64                    000000018006a208 f   libucrt:atox.obj
 0001:000692bc       _atoi64_l                  000000018006a2bc f   libucrt:atox.obj
 0001:00069378       _atoi_l                    000000018006a378 f   libucrt:atox.obj
 0001:00069434       _atol_l                    000000018006a434 f   libucrt:atox.obj
 0001:000694f0       _atoll_l                   000000018006a4f0 f   libucrt:atox.obj
 0001:000695ac       _chvalidchk_l              000000018006a5ac f i libucrt:atox.obj
 0001:00069610       _ischartype_l              000000018006a610 f i libucrt:atox.obj
 0001:00069688       _wtoi                      000000018006a688 f   libucrt:atox.obj
 0001:00069738       _wtoi64                    000000018006a738 f   libucrt:atox.obj
 0001:000697ec       _wtoi64_l                  000000018006a7ec f   libucrt:atox.obj
 0001:000698a8       _wtoi_l                    000000018006a8a8 f   libucrt:atox.obj
 0001:00069964       _wtol                      000000018006a964 f   libucrt:atox.obj
 0001:00069a14       _wtol_l                    000000018006aa14 f   libucrt:atox.obj
 0001:00069ad0       _wtoll                     000000018006aad0 f   libucrt:atox.obj
 0001:00069b84       _wtoll_l                   000000018006ab84 f   libucrt:atox.obj
 0001:00069c40       atoi                       000000018006ac40 f   libucrt:atox.obj
 0001:00069cf0       atol                       000000018006acf0 f   libucrt:atox.obj
 0001:00069da0       atoll                      000000018006ada0 f   libucrt:atox.obj
 0001:00069e70       strncmp                    000000018006ae70 f   libucrt:strncmp.obj
 0001:00069ef0       calloc                     000000018006aef0 f   libucrt:calloc.obj
 0001:00069ef8       wcsncmp                    000000018006aef8 f   libucrt:wcsncmp.obj
 0001:00069f30       __remainder_piby2d2f_forAsm 000000018006af30 f   libucrt:remainder_piby2f_forasm.obj
 0001:0006a080       __remainder_piby2_fma3     000000018006b080 f   libucrt:remainder_piby2_forfma3.obj
 0001:0006a270       __remainder_piby2_fma3_bdl 000000018006b270 f   libucrt:remainder_piby2_forfma3.obj
 0001:0006a2e8       _cos_special               000000018006b2e8 f   libucrt:sincos_special.obj
 0001:0006a2fc       _cosf_special              000000018006b2fc f   libucrt:sincos_special.obj
 0001:0006a310       _sin_special               000000018006b310 f   libucrt:sincos_special.obj
 0001:0006a454       _sinf_special              000000018006b454 f   libucrt:sincos_special.obj
 0001:0006a468       _tan_special               000000018006b468 f   libucrt:sincos_special.obj
 0001:0006a47c       _tanf_special              000000018006b47c f   libucrt:sincos_special.obj
 0001:0006a490       _clrfp                     000000018006b490 f   libucrt:fpctrl.obj
 0001:0006a4b0       _ctrlfp                    000000018006b4b0 f   libucrt:fpctrl.obj
 0001:0006a52c       _set_statfp                000000018006b52c f   libucrt:fpctrl.obj
 0001:0006a54c       _statfp                    000000018006b54c f   libucrt:fpctrl.obj
 0001:0006a560       __acrt_initialize_fma3     000000018006b560 f   libucrt:fma3_available.obj
 0001:0006a5d0       _get_FMA3_enable           000000018006b5d0 f   libucrt:fma3_available.obj
 0001:0006a5d8       _set_FMA3_enable           000000018006b5d8 f   libucrt:fma3_available.obj
 0001:0006a5f0       __remainder_piby2d2f_forC  000000018006b5f0 f   libucrt:remainder_piby2f_forc.obj
 0001:0006a77c       nextafter                  000000018006b77c f   libucrt:nextafter.obj
 0001:0006a784       nextafterf                 000000018006b784 f   libucrt:nextafterf.obj
 0001:0006a8b4       _handle_error              000000018006b8b4 f   libucrt:libm_error.obj
 0001:0006a9dc       _handle_errorf             000000018006b9dc f   libucrt:libm_error.obj
 0001:0006ab10       _handle_nan                000000018006bb10 f   libucrt:libm_error.obj
 0001:0006ab2c       _handle_nanf               000000018006bb2c f   libucrt:libm_error.obj
 0001:0006ab44       _free_base                 000000018006bb44 f   libucrt:free_base.obj
 0001:0006ab80       ??$?RU__acrt_ptd@@@__crt_internal_free_policy@@QEBAXQEBU__acrt_ptd@@@Z 000000018006bb80 f i libucrt:per_thread_data.obj
 0001:0006adb4       ??0?$__crt_unique_heap_ptr@U__acrt_ptd@@U__crt_internal_free_policy@@@@QEAA@QEAU__acrt_ptd@@@Z 000000018006bdb4 f i libucrt:per_thread_data.obj
 0001:0006adbc       ??1?$__crt_unique_heap_ptr@U__acrt_ptd@@U__crt_internal_free_policy@@@@QEAA@XZ 000000018006bdbc f i libucrt:per_thread_data.obj
 0001:0006add8       ??B?$__crt_unique_heap_ptr@U__acrt_ptd@@U__crt_internal_free_policy@@@@QEBA_NXZ 000000018006bdd8 f i libucrt:per_thread_data.obj
 0001:0006b02c       ?dangerous_get_state_array@?$dual_state_global@PEAU__crt_locale_data@@@__crt_state_management@@QEAAPEAPEAU__crt_locale_data@@XZ 000000018006c02c f i libucrt:per_thread_data.obj
 0001:0006b240       ?detach@?$__crt_unique_heap_ptr@U__acrt_ptd@@U__crt_internal_free_policy@@@@QEAAPEAU__acrt_ptd@@XZ 000000018006c240 f i libucrt:per_thread_data.obj
 0001:0006b248       ?get@?$__crt_unique_heap_ptr@U__acrt_ptd@@U__crt_internal_free_policy@@@@QEBAPEAU__acrt_ptd@@XZ 000000018006c248 f i libucrt:per_thread_data.obj
 0001:0006b468       ?is_valid@?$__crt_unique_heap_ptr@U__acrt_ptd@@U__crt_internal_free_policy@@@@QEBA_NXZ 000000018006c468 f i libucrt:per_thread_data.obj
 0001:0006b470       ?release@?$__crt_unique_heap_ptr@U__acrt_ptd@@U__crt_internal_free_policy@@@@QEAAXXZ 000000018006c470 f i libucrt:per_thread_data.obj
 0001:0006b514       ?value@?$dual_state_global@PEAU__crt_locale_data@@@__crt_state_management@@QEAAAEAPEAU__crt_locale_data@@XZ 000000018006c514 f i libucrt:per_thread_data.obj
 0001:0006b518       __acrt_freeptd             000000018006c518 f   libucrt:per_thread_data.obj
 0001:0006b55c       __acrt_getptd              000000018006c55c f   libucrt:per_thread_data.obj
 0001:0006b630       __acrt_getptd_head         000000018006c630 f   libucrt:per_thread_data.obj
 0001:0006b6d4       __acrt_getptd_noexit       000000018006c6d4 f   libucrt:per_thread_data.obj
 0001:0006b79c       __acrt_getptd_noexit_explicit 000000018006c79c f   libucrt:per_thread_data.obj
 0001:0006b85c       __acrt_initialize_ptd      000000018006c85c f   libucrt:per_thread_data.obj
 0001:0006b898       __acrt_uninitialize_ptd    000000018006c898 f   libucrt:per_thread_data.obj
 0001:0006b8bc       __threadhandle             000000018006c8bc f   libucrt:per_thread_data.obj
 0001:0006b8c4       __threadid                 000000018006c8c4 f   libucrt:per_thread_data.obj
 0001:0006b8cc       __acrt_initialize_locks    000000018006c8cc f   libucrt:locks.obj
 0001:0006b914       __acrt_lock                000000018006c914 f   libucrt:locks.obj
 0001:0006b930       __acrt_uninitialize_locks  000000018006c930 f   libucrt:locks.obj
 0001:0006b968       __acrt_unlock              000000018006c968 f   libucrt:locks.obj
 0001:0006b984       _lock_locales              000000018006c984 f   libucrt:locks.obj
 0001:0006b9a0       _unlock_locales            000000018006c9a0 f   libucrt:locks.obj
 0001:0006bb58       __acrt_get_begin_thread_init_policy 000000018006cb58 f   libucrt:win_policies.obj
 0001:0006bbac       __acrt_get_developer_information_policy 000000018006cbac f   libucrt:win_policies.obj
 0001:0006bc00       __acrt_get_process_end_policy 000000018006cc00 f   libucrt:win_policies.obj
 0001:0006bc3c       __acrt_get_windowing_model_policy 000000018006cc3c f   libucrt:win_policies.obj
 0001:0006bca8       ??$__crt_fast_decode_pointer@P6AXPEB_W00I_K@Z@@YAP6AXPEB_W00I_K@ZQ6AX000I1@Z@Z 000000018006cca8 f i libucrt:invalid_parameter.obj
 0001:0006bcc0       ??$__crt_fast_encode_pointer@P6AXPEB_W00I_K@Z@@YAP6AXPEB_W00I_K@ZQ6AX000I1@Z@Z 000000018006ccc0 f i libucrt:invalid_parameter.obj
 0001:0006bce0       ??$initialize_from_array@$$BY00Q6AXPEB_W00I_K@Z@?$dual_state_global@P6AXPEB_W00I_K@Z@__crt_state_management@@QEAAXAEAY00Q6AXPEB_W00I_K@Z@Z 000000018006cce0 f i libucrt:invalid_parameter.obj
 0001:0006bd58       ?check_synchronize_global_state_index@__crt_cached_ptd_host@@AEAA_KXZ 000000018006cd58 f i libucrt:invalid_parameter.obj
 0001:0006bd8c       ?dangerous_get_state_array@?$dual_state_global@P6AXPEB_W00I_K@Z@__crt_state_management@@QEAAPEAP6AXPEB_W00I_K@ZXZ 000000018006cd8c f i libucrt:invalid_parameter.obj
 0001:0006bd90       ?get_current_global_state_index@__crt_cached_ptd_host@@QEAA_KXZ 000000018006cd90 f i libucrt:invalid_parameter.obj
 0001:0006bdd0       ?get_raw_ptd_noexit@__crt_cached_ptd_host@@QEAAPEAU__acrt_ptd@@XZ 000000018006cdd0 f i libucrt:invalid_parameter.obj
 0001:0006be3c       ?try_synchronize_per_thread_data@__crt_cached_ptd_host@@AEAAPEAU__acrt_ptd@@XZ 000000018006ce3c f i libucrt:invalid_parameter.obj
 0001:0006bea0       ?value@?$dual_state_global@P6AXPEB_W00I_K@Z@__crt_state_management@@QEAAAEAP6AXPEB_W00I_K@ZAEAV__crt_cached_ptd_host@@@Z 000000018006cea0 f i libucrt:invalid_parameter.obj
 0001:0006beec       ?value@?$dual_state_global@P6AXPEB_W00I_K@Z@__crt_state_management@@QEAAAEAP6AXPEB_W00I_K@ZXZ 000000018006ceec f i libucrt:invalid_parameter.obj
 0001:0006bef0       __acrt_call_reportfault    000000018006cef0 f   libucrt:invalid_parameter.obj
 0001:0006c04c       __acrt_initialize_invalid_parameter_handler 000000018006d04c f   libucrt:invalid_parameter.obj
 0001:0006c054       _get_invalid_parameter_handler 000000018006d054 f   libucrt:invalid_parameter.obj
 0001:0006c06c       _get_thread_local_invalid_parameter_handler 000000018006d06c f   libucrt:invalid_parameter.obj
 0001:0006c088       _invalid_parameter         000000018006d088 f   libucrt:invalid_parameter.obj
 0001:0006c124       _invalid_parameter_internal 000000018006d124 f   libucrt:invalid_parameter.obj
 0001:0006c1f4       _invalid_parameter_noinfo  000000018006d1f4 f   libucrt:invalid_parameter.obj
 0001:0006c214       _invalid_parameter_noinfo_noreturn 000000018006d214 f   libucrt:invalid_parameter.obj
 0001:0006c244       _invoke_watson             000000018006d244 f   libucrt:invalid_parameter.obj
 0001:0006c28c       _set_invalid_parameter_handler 000000018006d28c f   libucrt:invalid_parameter.obj
 0001:0006c2c0       _set_thread_local_invalid_parameter_handler 000000018006d2c0 f   libucrt:invalid_parameter.obj
 0001:0006c2e8       ?get_doserrno@__crt_cached_ptd_host@@QEAAAEAU?$cached@K@1@XZ 000000018006d2e8 f i libucrt:errno.obj
 0001:0006c2f0       ?set@?$cached@K@__crt_cached_ptd_host@@QEAAKK@Z 000000018006d2f0 f i libucrt:errno.obj
 0001:0006c2fc       __acrt_errno_from_os_error 000000018006d2fc f   libucrt:errno.obj
 0001:0006c344       __acrt_errno_map_os_error  000000018006d344 f   libucrt:errno.obj
 0001:0006c38c       __acrt_errno_map_os_error_ptd 000000018006d38c f   libucrt:errno.obj
 0001:0006c3b0       __doserrno                 000000018006d3b0 f   libucrt:errno.obj
 0001:0006c3d0       _errno                     000000018006d3d0 f   libucrt:errno.obj
 0001:0006c3f0       _get_doserrno              000000018006d3f0 f   libucrt:errno.obj
 0001:0006c42c       _get_errno                 000000018006d42c f   libucrt:errno.obj
 0001:0006c468       _set_doserrno              000000018006d468 f   libucrt:errno.obj
 0001:0006c4a4       _set_errno                 000000018006d4a4 f   libucrt:errno.obj
 0001:0006c4e0       _calloc_base               000000018006d4e0 f   libucrt:calloc_base.obj
 0001:0006c580       ??$__acrt_convert_wcs_mbs_cp@D_WV<lambda_7c9dea7b4ca7285d2cdb541a38da6275>@@U__crt_win32_buffer_internal_dynamic_resizing@@@@YAHQEBDAEAV?$__crt_win32_buffer@_WU__crt_win32_buffer_internal_dynamic_resizing@@@@AEBV<lambda_7c9dea7b4ca7285d2cdb541a38da6275>@@I@Z 000000018006d580 f i libucrt:argv_wildcards.obj
 0001:0006c6fc       ??$__acrt_convert_wcs_mbs_cp@_WDV<lambda_d8593a27d1aa8c02be35c86a17d324c4>@@U__crt_win32_buffer_internal_dynamic_resizing@@@@YAHQEB_WAEAV?$__crt_win32_buffer@DU__crt_win32_buffer_internal_dynamic_resizing@@@@AEBV<lambda_d8593a27d1aa8c02be35c86a17d324c4>@@I@Z 000000018006d6fc f i libucrt:argv_wildcards.obj
 0001:0006c888       ??$__acrt_mbs_to_wcs_cp@U__crt_win32_buffer_internal_dynamic_resizing@@@@YAHQEBDAEAV?$__crt_win32_buffer@_WU__crt_win32_buffer_internal_dynamic_resizing@@@@I@Z 000000018006d888 f i libucrt:argv_wildcards.obj
 0001:0006c898       ??$__acrt_wcs_to_mbs_cp@U__crt_win32_buffer_internal_dynamic_resizing@@@@YAHQEB_WAEAV?$__crt_win32_buffer@DU__crt_win32_buffer_internal_dynamic_resizing@@@@I@Z 000000018006d898 f i libucrt:argv_wildcards.obj
 0001:0006d6d0       ??$tcslen@AEBQEBD@?$__crt_char_traits@D@@SA_KAEBQEBD@Z 000000018006e6d0 f i libucrt:argv_wildcards.obj
 0001:0006d6e4       ??$tcslen@AEBQEB_W@?$__crt_char_traits@_W@@SA_KAEBQEB_W@Z 000000018006e6e4 f i libucrt:argv_wildcards.obj
 0001:0006d6f8       ??$tcsncpy_s@AEAPEAD_KAEAPEADAEB_K@?$__crt_char_traits@D@@SAHAEAPEAD$$QEA_K0AEB_K@Z 000000018006e6f8 f i libucrt:argv_wildcards.obj
 0001:0006d70c       ??$tcsncpy_s@AEAPEA_W_KAEAPEA_WAEB_K@?$__crt_char_traits@_W@@SAHAEAPEA_W$$QEA_K0AEB_K@Z 000000018006e70c f i libucrt:argv_wildcards.obj
 0001:0006d720       ??$tcsncpy_s@PEADAEB_KAEBQEBDAEB_K@?$__crt_char_traits@D@@SAH$$QEAPEADAEB_KAEBQEBD1@Z 000000018006e720 f i libucrt:argv_wildcards.obj
 0001:0006d734       ??$tcsncpy_s@PEAD_KAEBQEBDAEB_K@?$__crt_char_traits@D@@SAH$$QEAPEAD$$QEA_KAEBQEBDAEB_K@Z 000000018006e734 f i libucrt:argv_wildcards.obj
 0001:0006d748       ??$tcsncpy_s@PEA_WAEB_KAEBQEB_WAEB_K@?$__crt_char_traits@_W@@SAH$$QEAPEA_WAEB_KAEBQEB_W1@Z 000000018006e748 f i libucrt:argv_wildcards.obj
 0001:0006d75c       ??$tcsncpy_s@PEA_W_KAEBQEB_WAEB_K@?$__crt_char_traits@_W@@SAH$$QEAPEA_W$$QEA_KAEBQEB_WAEB_K@Z 000000018006e75c f i libucrt:argv_wildcards.obj
 0001:0006d770       ??$tcspbrk@AEAPEADAEAY02$$CBD@?$__crt_char_traits@D@@SAPEADAEAPEADAEAY02$$CBD@Z 000000018006e770 f i libucrt:argv_wildcards.obj
 0001:0006d778       ??$tcspbrk@AEAPEA_WAEAY02$$CB_W@?$__crt_char_traits@_W@@SAPEA_WAEAPEA_WAEAY02$$CB_W@Z 000000018006e778 f i libucrt:argv_wildcards.obj
 0001:0006d780       ??0?$__crt_unique_handle_t@U__crt_findfile_traits@@@@QEAA@QEAX@Z 000000018006e780 f i libucrt:argv_wildcards.obj
 0001:0006d788       ??0?$__crt_win32_buffer@DU__crt_win32_buffer_internal_dynamic_resizing@@@@QEAA@XZ 000000018006e788 f i libucrt:argv_wildcards.obj
 0001:0006d7a4       ??0?$__crt_win32_buffer@_WU__crt_win32_buffer_internal_dynamic_resizing@@@@QEAA@XZ 000000018006e7a4 f i libucrt:argv_wildcards.obj
 0001:0006d7e8       ??0_LocaleUpdate@@QEAA@QEAU__crt_locale_pointers@@@Z 000000018006e7e8 f i libucrt:argv_wildcards.obj
 0001:0006d884       ??1?$__crt_unique_handle_t@U__crt_findfile_traits@@@@QEAA@XZ 000000018006e884 f i libucrt:argv_wildcards.obj
 0001:0006d8a8       ??1?$__crt_win32_buffer@DU__crt_win32_buffer_internal_dynamic_resizing@@@@QEAA@XZ 000000018006e8a8 f i libucrt:argv_wildcards.obj
 0001:0006d8cc       ??1?$__crt_win32_buffer@_WU__crt_win32_buffer_internal_dynamic_resizing@@@@QEAA@XZ 000000018006e8cc f i libucrt:argv_wildcards.obj
 0001:0006d970       ??1_LocaleUpdate@@QEAA@XZ  000000018006e970 f i libucrt:argv_wildcards.obj
 0001:0006d994       ??R<lambda_7c9dea7b4ca7285d2cdb541a38da6275>@@QEBAHIQEBDQEA_W_K@Z 000000018006e994 f i libucrt:argv_wildcards.obj
 0001:0006da24       ??R<lambda_d8593a27d1aa8c02be35c86a17d324c4>@@QEBAHIQEB_WQEAD_K@Z 000000018006ea24 f i libucrt:argv_wildcards.obj
 0001:0006da54       ?GetLocaleT@_LocaleUpdate@@QEAAPEAU__crt_locale_pointers@@XZ 000000018006ea54 f i libucrt:argv_wildcards.obj
 0001:0006da5c       ?__acrt_get_utf8_acp_compatibility_codepage@@YAIXZ 000000018006ea5c f i libucrt:argv_wildcards.obj
 0001:0006daa8       ?_deallocate@?$__crt_win32_buffer@DU__crt_win32_buffer_internal_dynamic_resizing@@@@AEAAXXZ 000000018006eaa8 f i libucrt:argv_wildcards.obj
 0001:0006dacc       ?_deallocate@?$__crt_win32_buffer@_WU__crt_win32_buffer_internal_dynamic_resizing@@@@AEAAXXZ 000000018006eacc f i libucrt:argv_wildcards.obj
 0001:0006daf0       ?allocate@?$__crt_win32_buffer@DU__crt_win32_buffer_internal_dynamic_resizing@@@@QEAAH_K@Z 000000018006eaf0 f i libucrt:argv_wildcards.obj
 0001:0006db48       ?allocate@?$__crt_win32_buffer@_WU__crt_win32_buffer_internal_dynamic_resizing@@@@QEAAH_K@Z 000000018006eb48 f i libucrt:argv_wildcards.obj
 0001:0006dba0       ?allocate@__crt_win32_buffer_internal_dynamic_resizing@@SAHQEAPEAX_KAEBV__crt_win32_buffer_empty_debug_info@@@Z 000000018006eba0 f i libucrt:argv_wildcards.obj
 0001:0006dd8c       ?capacity@?$__crt_win32_buffer@DU__crt_win32_buffer_internal_dynamic_resizing@@@@QEBA_KXZ 000000018006ed8c f i libucrt:argv_wildcards.obj
 0001:0006dd94       ?capacity@?$__crt_win32_buffer@_WU__crt_win32_buffer_internal_dynamic_resizing@@@@QEBA_KXZ 000000018006ed94 f i libucrt:argv_wildcards.obj
 0001:0006dd9c       ?close@?$__crt_unique_handle_t@U__crt_findfile_traits@@@@QEAAXXZ 000000018006ed9c f i libucrt:argv_wildcards.obj
 0001:0006ddc0       ?close@__crt_findfile_traits@@SA_NPEAX@Z 000000018006edc0 f i libucrt:argv_wildcards.obj
 0001:0006ddd4       ?data@?$__crt_win32_buffer@DU__crt_win32_buffer_internal_dynamic_resizing@@@@QEAAPEADXZ 000000018006edd4 f i libucrt:argv_wildcards.obj
 0001:0006dddc       ?data@?$__crt_win32_buffer@_WU__crt_win32_buffer_internal_dynamic_resizing@@@@QEAAPEA_WXZ 000000018006eddc f i libucrt:argv_wildcards.obj
 0001:0006dde4       ?deallocate@__crt_win32_buffer_internal_dynamic_resizing@@SAXQEAXAEBV__crt_win32_buffer_empty_debug_info@@@Z 000000018006ede4 f i libucrt:argv_wildcards.obj
 0001:0006ddec       ?debug_info@?$__crt_win32_buffer@DU__crt_win32_buffer_internal_dynamic_resizing@@@@QEBAAEBV__crt_win32_buffer_empty_debug_info@@XZ 000000018006edec f i libucrt:argv_wildcards.obj
 0001:0006ddf0       ?debug_info@?$__crt_win32_buffer@_WU__crt_win32_buffer_internal_dynamic_resizing@@@@QEBAAEBV__crt_win32_buffer_empty_debug_info@@XZ 000000018006edf0 f i libucrt:argv_wildcards.obj
 0001:0006df94       ?get@?$__crt_unique_handle_t@U__crt_findfile_traits@@@@QEBAPEAXXZ 000000018006ef94 f i libucrt:argv_wildcards.obj
 0001:0006e040       ?get_invalid_value@__crt_findfile_traits@@SAPEAXXZ 000000018006f040 f i libucrt:argv_wildcards.obj
 0001:0006e100       ?set_to_nullptr@?$__crt_win32_buffer@DU__crt_win32_buffer_internal_dynamic_resizing@@@@QEAAXXZ 000000018006f100 f i libucrt:argv_wildcards.obj
 0001:0006e134       ?set_to_nullptr@?$__crt_win32_buffer@_WU__crt_win32_buffer_internal_dynamic_resizing@@@@QEAAXXZ 000000018006f134 f i libucrt:argv_wildcards.obj
 0001:0006e168       ?size@?$__crt_win32_buffer@DU__crt_win32_buffer_internal_dynamic_resizing@@@@QEAAX_K@Z 000000018006f168 f i libucrt:argv_wildcards.obj
 0001:0006e170       ?size@?$__crt_win32_buffer@_WU__crt_win32_buffer_internal_dynamic_resizing@@@@QEAAX_K@Z 000000018006f170 f i libucrt:argv_wildcards.obj
 0001:0006e190       ?strpbrk@@YAPEADQEADQEBD@Z 000000018006f190 f i libucrt:argv_wildcards.obj
 0001:0006e198       ?wcspbrk@@YAPEA_WPEA_WPEB_W@Z 000000018006f198 f i libucrt:argv_wildcards.obj
 0001:0006e1a0       __acrt_expand_narrow_argv_wildcards 000000018006f1a0 f   libucrt:argv_wildcards.obj
 0001:0006e1a8       __acrt_expand_wide_argv_wildcards 000000018006f1a8 f   libucrt:argv_wildcards.obj
 0001:0006e1b0       ??$__acrt_convert_wcs_mbs_cp@_WDV<lambda_f788ae46380686e8b737efdd8c720d07>@@U__crt_win32_buffer_no_resizing@@@@YAHQEB_WAEAV?$__crt_win32_buffer@DU__crt_win32_buffer_no_resizing@@@@AEBV<lambda_f788ae46380686e8b737efdd8c720d07>@@I@Z 000000018006f1b0 f i libucrt:getmodulefilenamea.obj
 0001:0006e2cc       ??$__acrt_wcs_to_mbs_cp@U__crt_win32_buffer_no_resizing@@@@YAHQEB_WAEAV?$__crt_win32_buffer@DU__crt_win32_buffer_no_resizing@@@@I@Z 000000018006f2cc f i libucrt:getmodulefilenamea.obj
 0001:0006e2dc       ??0?$__crt_win32_buffer@DU__crt_win32_buffer_no_resizing@@@@QEAA@QEAD_K@Z 000000018006f2dc f i libucrt:getmodulefilenamea.obj
 0001:0006e2f8       ??1?$__crt_win32_buffer@DU__crt_win32_buffer_no_resizing@@@@QEAA@XZ 000000018006f2f8 f i libucrt:getmodulefilenamea.obj
 0001:0006e304       ??R<lambda_f788ae46380686e8b737efdd8c720d07>@@QEBAHIQEB_WQEAD_K@Z 000000018006f304 f i libucrt:getmodulefilenamea.obj
 0001:0006e334       ?_deallocate@?$__crt_win32_buffer@DU__crt_win32_buffer_no_resizing@@@@AEAAXXZ 000000018006f334 f i libucrt:getmodulefilenamea.obj
 0001:0006e340       ?allocate@?$__crt_win32_buffer@DU__crt_win32_buffer_no_resizing@@@@QEAAH_K@Z 000000018006f340 f i libucrt:getmodulefilenamea.obj
 0001:0006e370       ?allocate@__crt_win32_buffer_no_resizing@@SAHQEAPEAX_KAEBV__crt_win32_buffer_empty_debug_info@@@Z 000000018006f370 f i libucrt:getmodulefilenamea.obj
 0001:0006e388       ?capacity@?$__crt_win32_buffer@DU__crt_win32_buffer_no_resizing@@@@QEBA_KXZ 000000018006f388 f i libucrt:getmodulefilenamea.obj
 0001:0006e390       ?data@?$__crt_win32_buffer@DU__crt_win32_buffer_no_resizing@@@@QEAAPEADXZ 000000018006f390 f i libucrt:getmodulefilenamea.obj
 0001:0006e398       ?deallocate@__crt_win32_buffer_no_resizing@@SAXQEAXAEBV__crt_win32_buffer_empty_debug_info@@@Z 000000018006f398 f i libucrt:getmodulefilenamea.obj
 0001:0006e39c       ?debug_info@?$__crt_win32_buffer@DU__crt_win32_buffer_no_resizing@@@@QEBAAEBV__crt_win32_buffer_empty_debug_info@@XZ 000000018006f39c f i libucrt:getmodulefilenamea.obj
 0001:0006e3a0       ?set_to_nullptr@?$__crt_win32_buffer@DU__crt_win32_buffer_no_resizing@@@@QEAAXXZ 000000018006f3a0 f i libucrt:getmodulefilenamea.obj
 0001:0006e3b8       ?size@?$__crt_win32_buffer@DU__crt_win32_buffer_no_resizing@@@@QEAAX_K@Z 000000018006f3b8 f i libucrt:getmodulefilenamea.obj
 0001:0006e3c0       ?size@?$__crt_win32_buffer@DU__crt_win32_buffer_no_resizing@@@@QEBA_KXZ 000000018006f3c0 f i libucrt:getmodulefilenamea.obj
 0001:0006e3c8       __acrt_GetModuleFileNameA  000000018006f3c8 f   libucrt:getmodulefilenamea.obj
 0001:0006e4ec       ??$?RU__crt_multibyte_data@@@__crt_internal_free_policy@@QEBAXQEBU__crt_multibyte_data@@@Z 000000018006f4ec f i libucrt:mbctype.obj
 0001:0006e6ec       ??$initialize_from_array@$$BY10BAA@E@?$dual_state_global@PEAE@__crt_state_management@@QEAAXAEAY10BAA@E@Z 000000018006f6ec f i libucrt:mbctype.obj
 0001:0006e6f0       ??$initialize_from_array@$$BY10BAB@E@?$dual_state_global@PEAE@__crt_state_management@@QEAAXAEAY10BAB@E@Z 000000018006f6f0 f i libucrt:mbctype.obj
 0001:0006e710       ??0?$__crt_unique_heap_ptr@U__crt_multibyte_data@@U__crt_internal_free_policy@@@@QEAA@QEAU__crt_multibyte_data@@@Z 000000018006f710 f i libucrt:mbctype.obj
 0001:0006e718       ??1?$__crt_unique_heap_ptr@U__crt_multibyte_data@@U__crt_internal_free_policy@@@@QEAA@XZ 000000018006f718 f i libucrt:mbctype.obj
 0001:0006e734       ??B?$__crt_unique_heap_ptr@U__crt_multibyte_data@@U__crt_internal_free_policy@@@@QEBA_NXZ 000000018006f734 f i libucrt:mbctype.obj
 0001:0006e928       ?dangerous_get_state_array@?$dual_state_global@PEAE@__crt_state_management@@QEAAPEAPEAEXZ 000000018006f928 f i libucrt:mbctype.obj
 0001:0006e92c       ?dangerous_get_state_array@?$dual_state_global@PEAU__crt_multibyte_data@@@__crt_state_management@@QEAAPEAPEAU__crt_multibyte_data@@XZ 000000018006f92c f i libucrt:mbctype.obj
 0001:0006e930       ?detach@?$__crt_unique_heap_ptr@U__crt_multibyte_data@@U__crt_internal_free_policy@@@@QEAAPEAU__crt_multibyte_data@@XZ 000000018006f930 f i libucrt:mbctype.obj
 0001:0006e938       ?get@?$__crt_unique_heap_ptr@U__crt_multibyte_data@@U__crt_internal_free_policy@@@@QEBAPEAU__crt_multibyte_data@@XZ 000000018006f938 f i libucrt:mbctype.obj
 0001:0006e9bc       ?initialize@?$dual_state_global@PEAU__crt_multibyte_data@@@__crt_state_management@@QEAAXQEAU__crt_multibyte_data@@@Z 000000018006f9bc f i libucrt:mbctype.obj
 0001:0006e9cc       ?is_valid@?$__crt_unique_heap_ptr@U__crt_multibyte_data@@U__crt_internal_free_policy@@@@QEBA_NXZ 000000018006f9cc f i libucrt:mbctype.obj
 0001:0006e9d4       ?release@?$__crt_unique_heap_ptr@U__crt_multibyte_data@@U__crt_internal_free_policy@@@@QEAAXXZ 000000018006f9d4 f i libucrt:mbctype.obj
 0001:0006ef98       ?value@?$dual_state_global@PEAE@__crt_state_management@@QEAAAEAPEAEXZ 000000018006ff98 f i libucrt:mbctype.obj
 0001:0006ef9c       ?value@?$dual_state_global@PEAU__crt_multibyte_data@@@__crt_state_management@@QEAAAEAPEAU__crt_multibyte_data@@XZ 000000018006ff9c f i libucrt:mbctype.obj
 0001:0006efa0       __acrt_initialize_multibyte 000000018006ffa0 f   libucrt:mbctype.obj
 0001:0006f000       __acrt_should_sync_with_global_locale 0000000180070000 f i libucrt:mbctype.obj
 0001:0006f010       __acrt_update_thread_multibyte_data 0000000180070010 f   libucrt:mbctype.obj
 0001:0006f02c       __p__mbcasemap             000000018007002c f   libucrt:mbctype.obj
 0001:0006f034       __p__mbctype               0000000180070034 f   libucrt:mbctype.obj
 0001:0006f03c       _getmbcp                   000000018007003c f   libucrt:mbctype.obj
 0001:0006f078       _setmbcp                   0000000180070078 f   libucrt:mbctype.obj
 0001:0006f0a0       _setmbcp_nolock            00000001800700a0 f   libucrt:mbctype.obj
 0001:0006f45c       _ismbbalnum                000000018007045c f   libucrt:ismbbyte.obj
 0001:0006f474       _ismbbalnum_l              0000000180070474 f   libucrt:ismbbyte.obj
 0001:0006f490       _ismbbalpha                0000000180070490 f   libucrt:ismbbyte.obj
 0001:0006f4a8       _ismbbalpha_l              00000001800704a8 f   libucrt:ismbbyte.obj
 0001:0006f4c4       _ismbbblank                00000001800704c4 f   libucrt:ismbbyte.obj
 0001:0006f4e0       _ismbbblank_l              00000001800704e0 f   libucrt:ismbbyte.obj
 0001:0006f500       _ismbbgraph                0000000180070500 f   libucrt:ismbbyte.obj
 0001:0006f518       _ismbbgraph_l              0000000180070518 f   libucrt:ismbbyte.obj
 0001:0006f534       _ismbbkalnum               0000000180070534 f   libucrt:ismbbyte.obj
 0001:0006f548       _ismbbkalnum_l             0000000180070548 f   libucrt:ismbbyte.obj
 0001:0006f560       _ismbbkana                 0000000180070560 f   libucrt:ismbbyte.obj
 0001:0006f568       _ismbbkana_l               0000000180070568 f   libucrt:ismbbyte.obj
 0001:0006f5d0       _ismbbkprint               00000001800705d0 f   libucrt:ismbbyte.obj
 0001:0006f5e4       _ismbbkprint_l             00000001800705e4 f   libucrt:ismbbyte.obj
 0001:0006f5fc       _ismbbkpunct               00000001800705fc f   libucrt:ismbbyte.obj
 0001:0006f610       _ismbbkpunct_l             0000000180070610 f   libucrt:ismbbyte.obj
 0001:0006f628       _ismbblead                 0000000180070628 f   libucrt:ismbbyte.obj
 0001:0006f63c       _ismbblead_l               000000018007063c f   libucrt:ismbbyte.obj
 0001:0006f654       _ismbbprint                0000000180070654 f   libucrt:ismbbyte.obj
 0001:0006f66c       _ismbbprint_l              000000018007066c f   libucrt:ismbbyte.obj
 0001:0006f688       _ismbbpunct                0000000180070688 f   libucrt:ismbbyte.obj
 0001:0006f69c       _ismbbpunct_l              000000018007069c f   libucrt:ismbbyte.obj
 0001:0006f6b4       _ismbbtrail                00000001800706b4 f   libucrt:ismbbyte.obj
 0001:0006f6c8       _ismbbtrail_l              00000001800706c8 f   libucrt:ismbbyte.obj
 0001:0006f6e0       __acrt_initialize_command_line 00000001800706e0 f   libucrt:argv_data.obj
 0001:0006f708       __acrt_uninitialize_command_line 0000000180070708 f   libucrt:argv_data.obj
 0001:0006f70c       __p___argc                 000000018007070c f   libucrt:argv_data.obj
 0001:0006f714       __p___argv                 0000000180070714 f   libucrt:argv_data.obj
 0001:0006f71c       __p___wargv                000000018007071c f   libucrt:argv_data.obj
 0001:0006f724       __p__acmdln                0000000180070724 f   libucrt:argv_data.obj
 0001:0006f72c       __p__pgmptr                000000018007072c f   libucrt:argv_data.obj
 0001:0006f734       __p__wcmdln                0000000180070734 f   libucrt:argv_data.obj
 0001:0006f73c       __p__wpgmptr               000000018007073c f   libucrt:argv_data.obj
 0001:0006f744       _get_pgmptr                0000000180070744 f   libucrt:argv_data.obj
 0001:0006f77c       _get_wpgmptr               000000018007077c f   libucrt:argv_data.obj
 0001:0006f820       wcscpy_s                   0000000180070820 f   libucrt:wcscpy_s.obj
 0001:0006f8e0       __acrt_MultiByteToWideChar 00000001800708e0 f   libucrt:multibytetowidechar.obj
 0001:0006f980       __acrt_WideCharToMultiByte 0000000180070980 f   libucrt:widechartomultibyte.obj
 0001:0006fad0       __dcrt_get_narrow_environment_from_os 0000000180070ad0 f   libucrt:get_environment_from_os.obj
 0001:0006fbe0       __dcrt_get_wide_environment_from_os 0000000180070be0 f   libucrt:get_environment_from_os.obj
 0001:00070678       ??$get_or_create_environment_nolock@$$V@?$__crt_char_traits@D@@SAPEAPEADXZ 0000000180071678 f i libucrt:setenv.obj
 0001:00070680       ??$get_or_create_environment_nolock@$$V@?$__crt_char_traits@_W@@SAPEAPEA_WXZ 0000000180071680 f i libucrt:setenv.obj
 0001:00070688       ??$set_environment_variable@AEBQEADQEAD@?$__crt_char_traits@D@@SAHAEBQEAD$$QEBQEAD@Z 0000000180071688 f i libucrt:setenv.obj
 0001:00070694       ??$set_environment_variable@AEBQEA_WQEA_W@?$__crt_char_traits@_W@@SAHAEBQEA_W$$QEBQEA_W@Z 0000000180071694 f i libucrt:setenv.obj
 0001:000706a4       ??$tcschr@AEBQEADD@?$__crt_char_traits@D@@SAPEADAEBQEAD$$QEAD@Z 00000001800716a4 f i libucrt:setenv.obj
 0001:000706b0       ??$tcschr@AEBQEA_WD@?$__crt_char_traits@_W@@SAPEA_WAEBQEA_W$$QEAD@Z 00000001800716b0 f i libucrt:setenv.obj
 0001:000706bc       ??$tcscpy_s@AEAPEADAEB_KAEAPEAD@?$__crt_char_traits@D@@SAHAEAPEADAEB_K0@Z 00000001800716bc f i libucrt:setenv.obj
 0001:000706cc       ??$tcscpy_s@AEAPEA_WAEB_KAEAPEA_W@?$__crt_char_traits@_W@@SAHAEAPEA_WAEB_K0@Z 00000001800716cc f i libucrt:setenv.obj
 0001:000706dc       ??$tcscpy_s@AEBQEADAEB_KAEBQEAD@?$__crt_char_traits@D@@SAHAEBQEADAEB_K0@Z 00000001800716dc f i libucrt:setenv.obj
 0001:000706ec       ??$tcscpy_s@AEBQEA_WAEB_KAEBQEA_W@?$__crt_char_traits@_W@@SAHAEBQEA_WAEB_K0@Z 00000001800716ec f i libucrt:setenv.obj
 0001:000706fc       ??$tcslen@AEBQEAD@?$__crt_char_traits@D@@SA_KAEBQEAD@Z 00000001800716fc f i libucrt:setenv.obj
 0001:00070710       ??$tcslen@AEBQEA_W@?$__crt_char_traits@_W@@SA_KAEBQEA_W@Z 0000000180071710 f i libucrt:setenv.obj
 0001:00070724       ??$tcsnicoll@AEBQEBDAEAPEADAEB_K@?$__crt_char_traits@D@@SAHAEBQEBDAEAPEADAEB_K@Z 0000000180071724 f i libucrt:setenv.obj
 0001:00070734       ??$tcsnicoll@AEBQEB_WAEAPEA_WAEB_K@?$__crt_char_traits@_W@@SAHAEBQEB_WAEAPEA_WAEB_K@Z 0000000180071734 f i libucrt:setenv.obj
 0001:00070774       ?strchr@@YAPEADQEADH@Z     0000000180071774 f i libucrt:setenv.obj
 0001:0007077c       ?wcschr@@YAPEA_WPEA_W_W@Z  000000018007177c f i libucrt:setenv.obj
 0001:00070784       __dcrt_set_variable_in_narrow_environment_nolock 0000000180071784 f   libucrt:setenv.obj
 0001:0007078c       __dcrt_set_variable_in_wide_environment_nolock 000000018007178c f   libucrt:setenv.obj
 0001:00070794       _recalloc                  0000000180071794 f   libucrt:recalloc.obj
 0001:0007079c       _recalloc_base             000000018007179c f   libucrt:recalloc.obj
 0001:00070868       ??$?B$$A6AHPEA_WK_J@Z@__crt_fast_encoded_nullptr_t@@QEBAP6AHPEA_WK_J@ZXZ 0000000180071868 f i libucrt:winapi_thunks.obj
 0001:00070914       ??$__crt_fast_decode_pointer@P6AHPEA_WK_J@Z@@YAP6AHPEA_WK_J@ZQ6AH0K1@Z@Z 0000000180071914 f i libucrt:winapi_thunks.obj
 0001:0007092c       ??$__crt_fast_decode_pointer@PEAX@@YAPEAXQEAX@Z 000000018007192c f i libucrt:winapi_thunks.obj
 0001:00070944       ??$__crt_fast_encode_pointer@P6AHPEA_WK_J@Z@@YAP6AHPEA_WK_J@ZQ6AH0K1@Z@Z 0000000180071944 f i libucrt:winapi_thunks.obj
 0001:000713a0       GetCurrentThreadEffectiveToken 00000001800723a0 f i libucrt:winapi_thunks.obj
 0001:000713a8       __acrt_AppPolicyGetProcessTerminationMethodInternal 00000001800723a8 f   libucrt:winapi_thunks.obj
 0001:00071400       __acrt_AppPolicyGetShowDeveloperDiagnosticInternal 0000000180072400 f   libucrt:winapi_thunks.obj
 0001:00071458       __acrt_AppPolicyGetThreadInitializationTypeInternal 0000000180072458 f   libucrt:winapi_thunks.obj
 0001:000714b0       __acrt_AppPolicyGetWindowingModelInternal 00000001800724b0 f   libucrt:winapi_thunks.obj
 0001:00071508       __acrt_AreFileApisANSI     0000000180072508 f   libucrt:winapi_thunks.obj
 0001:0007154c       __acrt_CompareStringEx     000000018007254c f   libucrt:winapi_thunks.obj
 0001:00071638       __acrt_EnumSystemLocalesEx 0000000180072638 f   libucrt:winapi_thunks.obj
 0001:000716d8       __acrt_FlsAlloc            00000001800726d8 f   libucrt:winapi_thunks.obj
 0001:000716e0       __acrt_FlsFree             00000001800726e0 f   libucrt:winapi_thunks.obj
 0001:000716e8       __acrt_FlsGetValue         00000001800726e8 f   libucrt:winapi_thunks.obj
 0001:000716f0       __acrt_FlsSetValue         00000001800726f0 f   libucrt:winapi_thunks.obj
 0001:000716f8       __acrt_GetDateFormatEx     00000001800726f8 f   libucrt:winapi_thunks.obj
 0001:000717b8       __acrt_GetEnabledXStateFeatures 00000001800727b8 f   libucrt:winapi_thunks.obj
 0001:000717fc       __acrt_GetLocaleInfoEx     00000001800727fc f   libucrt:winapi_thunks.obj
 0001:0007188c       __acrt_GetSystemTimePreciseAsFileTime 000000018007288c f   libucrt:winapi_thunks.obj
 0001:000718e4       __acrt_GetTimeFormatEx     00000001800728e4 f   libucrt:winapi_thunks.obj
 0001:00071998       __acrt_GetUserDefaultLocaleName 0000000180072998 f   libucrt:winapi_thunks.obj
 0001:00071a04       __acrt_GetXStateFeaturesMask 0000000180072a04 f   libucrt:winapi_thunks.obj
 0001:00071a60       __acrt_InitializeCriticalSectionEx 0000000180072a60 f   libucrt:winapi_thunks.obj
 0001:00071ad0       __acrt_IsValidLocaleName   0000000180072ad0 f   libucrt:winapi_thunks.obj
 0001:00071b34       __acrt_LCIDToLocaleName    0000000180072b34 f   libucrt:winapi_thunks.obj
 0001:00071bb8       __acrt_LCMapStringEx       0000000180072bb8 f   libucrt:winapi_thunks.obj
 0001:00071ca4       __acrt_LocaleNameToLCID    0000000180072ca4 f   libucrt:winapi_thunks.obj
 0001:00071d04       __acrt_LocateXStateFeature 0000000180072d04 f   libucrt:winapi_thunks.obj
 0001:00071d70       __acrt_MessageBoxA         0000000180072d70 f   libucrt:winapi_thunks.obj
 0001:00071dec       __acrt_MessageBoxW         0000000180072dec f   libucrt:winapi_thunks.obj
 0001:00071e68       __acrt_RoInitialize        0000000180072e68 f   libucrt:winapi_thunks.obj
 0001:00071eb4       __acrt_RoUninitialize      0000000180072eb4 f   libucrt:winapi_thunks.obj
 0001:00071ef4       __acrt_RtlGenRandom        0000000180072ef4 f   libucrt:winapi_thunks.obj
 0001:00071f50       __acrt_SetThreadStackGuarantee 0000000180072f50 f   libucrt:winapi_thunks.obj
 0001:00071f9c       __acrt_can_show_message_box 0000000180072f9c f   libucrt:winapi_thunks.obj
 0001:0007200c       __acrt_can_use_vista_locale_apis 000000018007300c f   libucrt:winapi_thunks.obj
 0001:0007203c       __acrt_can_use_xstate_apis 000000018007303c f   libucrt:winapi_thunks.obj
 0001:0007206c       __acrt_eagerly_load_locale_apis 000000018007306c f   libucrt:winapi_thunks.obj
 0001:000721c8       __acrt_get_parent_window   00000001800731c8 f   libucrt:winapi_thunks.obj
 0001:00072254       __acrt_initialize_winapi_thunks 0000000180073254 f   libucrt:winapi_thunks.obj
 0001:00072288       __acrt_is_interactive      0000000180073288 f   libucrt:winapi_thunks.obj
 0001:00072368       __acrt_uninitialize_winapi_thunks 0000000180073368 f   libucrt:winapi_thunks.obj
 0001:000723ac       __acrt_getheap             00000001800733ac f   libucrt:heap_handle.obj
 0001:000723b4       __acrt_initialize_heap     00000001800733b4 f   libucrt:heap_handle.obj
 0001:000723d0       __acrt_uninitialize_heap   00000001800733d0 f   libucrt:heap_handle.obj
 0001:000723dc       _get_heap_handle           00000001800733dc f   libucrt:heap_handle.obj
 0001:000725f8       __acrt_initialize_lowio    00000001800735f8 f   libucrt:ioinit.obj
 0001:00072634       __acrt_uninitialize_lowio  0000000180073634 f   libucrt:ioinit.obj
 0001:00072674       __acrt_execute_initializers 0000000180073674 f   libucrt:shared_initialization.obj
 0001:00072708       __acrt_execute_uninitializers 0000000180073708 f   libucrt:shared_initialization.obj
 0001:00072750       ??$?B$$A6AH_K@Z@__crt_fast_encoded_nullptr_t@@QEBAP6AH_K@ZXZ 0000000180073750 f i libucrt:new_handler.obj
 0001:00072758       ??$__crt_fast_decode_pointer@P6AH_K@Z@@YAP6AH_K@ZQ6AH0@Z@Z 0000000180073758 f i libucrt:new_handler.obj
 0001:00072770       ??$__crt_fast_encode_pointer@P6AH_K@Z@@YAP6AH_K@ZQ6AH0@Z@Z 0000000180073770 f i libucrt:new_handler.obj
 0001:00072790       ?_set_new_handler@@YAP6AH_K@ZH@Z 0000000180073790 f   libucrt:new_handler.obj
 0001:0007279c       ?initialize@?$dual_state_global@P6AH_K@Z@__crt_state_management@@QEAAXQ6AH_K@Z@Z 000000018007379c f i libucrt:new_handler.obj
 0001:000727ac       ?value@?$dual_state_global@P6AH_K@Z@__crt_state_management@@QEAAAEAP6AH_K@ZXZ 00000001800737ac f i libucrt:new_handler.obj
 0001:000727b0       __acrt_initialize_new_handler 00000001800737b0 f   libucrt:new_handler.obj
 0001:000727b8       _callnewh                  00000001800737b8 f   libucrt:new_handler.obj
 0001:000727f4       _query_new_handler         00000001800737f4 f   libucrt:new_handler.obj
 0001:00072828       _set_new_handler           0000000180073828 f   libucrt:new_handler.obj
 0001:00072884       ??$?B$$A6AXH@Z@__crt_fast_encoded_nullptr_t@@QEBAP6AXH@ZXZ 0000000180073884 f i libucrt:signal.obj
 0001:000728fc       ??$__crt_fast_decode_pointer@P6AXH@Z@@YAP6AXH@ZQ6AXH@Z@Z 00000001800738fc f i libucrt:signal.obj
 0001:00072914       ??$__crt_fast_encode_pointer@P6AXH@Z@@YAP6AXH@ZQ6AXH@Z@Z 0000000180073914 f i libucrt:signal.obj
 0001:00072a44       ?initialize@?$dual_state_global@P6AXH@Z@__crt_state_management@@QEAAXQ6AXH@Z@Z 0000000180073a44 f i libucrt:signal.obj
 0001:00072ac8       ?value@?$dual_state_global@P6AXH@Z@__crt_state_management@@QEAAAEAP6AXH@ZXZ 0000000180073ac8 f i libucrt:signal.obj
 0001:00072acc       __acrt_get_sigabrt_handler 0000000180073acc f   libucrt:signal.obj
 0001:00072afc       __acrt_initialize_signal_handlers 0000000180073afc f   libucrt:signal.obj
 0001:00072b1c       __fpecode                  0000000180073b1c f   libucrt:signal.obj
 0001:00072b30       __pxcptinfoptrs            0000000180073b30 f   libucrt:signal.obj
 0001:00072b44       raise                      0000000180073b44 f   libucrt:signal.obj
 0001:00072dc4       signal                     0000000180073dc4 f   libucrt:signal.obj
 0001:00072fa0       ??$__crt_fast_decode_pointer@P6AHPEAU_exception@@@Z@@YAP6AHPEAU_exception@@@ZQ6AH0@Z@Z 0000000180073fa0 f i libucrt:matherr.obj
 0001:00072fb8       ??$__crt_fast_encode_pointer@P6AHPEAU_exception@@@Z@@YAP6AHPEAU_exception@@@ZQ6AH0@Z@Z 0000000180073fb8 f i libucrt:matherr.obj
 0001:00072fd8       ?initialize@?$dual_state_global@P6AHPEAU_exception@@@Z@__crt_state_management@@QEAAXQ6AHPEAU_exception@@@Z@Z 0000000180073fd8 f i libucrt:matherr.obj
 0001:00072fe8       ?value@?$dual_state_global@P6AHPEAU_exception@@@Z@__crt_state_management@@QEAAAEAP6AHPEAU_exception@@@ZXZ 0000000180073fe8 f i libucrt:matherr.obj
 0001:00072fec       __acrt_has_user_matherr    0000000180073fec f   libucrt:matherr.obj
 0001:0007300c       __acrt_initialize_user_matherr 000000018007400c f   libucrt:matherr.obj
 0001:00073014       __acrt_invoke_user_matherr 0000000180074014 f   libucrt:matherr.obj
 0001:0007304c       __setusermatherr           000000018007404c f   libucrt:matherr.obj
 0001:00073318       ??0__crt_stdio_stream@@QEAA@QEAU__crt_stdio_stream_data@@@Z 0000000180074318 f i libucrt:fflush.obj
 0001:00073484       ?__acrt_stdio_reset_buffer@@YAXV__crt_stdio_stream@@@Z 0000000180074484 f i libucrt:fflush.obj
 0001:00073570       ?has_all_of@__crt_stdio_stream@@QEBA_NJ@Z 0000000180074570 f i libucrt:fflush.obj
 0001:000735bc       ?set_flags@__crt_stdio_stream@@QEBA_NJ@Z 00000001800745bc f i libucrt:fflush.obj
 0001:000735dc       ?unset_flags@__crt_stdio_stream@@QEBA_NJ@Z 00000001800745dc f i libucrt:fflush.obj
 0001:00073604       __acrt_stdio_flush_nolock  0000000180074604 f   libucrt:fflush.obj
 0001:00073690       _fflush_nolock             0000000180074690 f   libucrt:fflush.obj
 0001:00073764       _flushall                  0000000180074764 f   libucrt:fflush.obj
 0001:0007376c       fflush                     000000018007476c f   libucrt:fflush.obj
 0001:000737d4       __p___mb_cur_max           00000001800747d4 f   libucrt:nlsdata.obj
 0001:00073804       ??$?RPEAU__crt_stdio_stream_data@@@__crt_internal_free_policy@@QEBAXQEBQEAU__crt_stdio_stream_data@@@Z 0000000180074804 f i libucrt:_file.obj
 0001:0007380c       ??0?$__crt_unique_heap_ptr@PEAU__crt_stdio_stream_data@@U__crt_internal_free_policy@@@@QEAA@QEAPEAU__crt_stdio_stream_data@@@Z 000000018007480c f i libucrt:_file.obj
 0001:00073814       ??1?$__crt_unique_heap_ptr@PEAU__crt_stdio_stream_data@@U__crt_internal_free_policy@@@@QEAA@XZ 0000000180074814 f i libucrt:_file.obj
 0001:00073830       ?detach@?$__crt_unique_heap_ptr@PEAU__crt_stdio_stream_data@@U__crt_internal_free_policy@@@@QEAAPEAPEAU__crt_stdio_stream_data@@XZ 0000000180074830 f i libucrt:_file.obj
 0001:00073838       ?release@?$__crt_unique_heap_ptr@PEAU__crt_stdio_stream_data@@U__crt_internal_free_policy@@@@QEAAXXZ 0000000180074838 f i libucrt:_file.obj
 0001:00073854       __acrt_initialize_stdio    0000000180074854 f   libucrt:_file.obj
 0001:00073974       __acrt_iob_func            0000000180074974 f   libucrt:_file.obj
 0001:00073988       __acrt_uninitialize_stdio  0000000180074988 f   libucrt:_file.obj
 0001:000739e4       _get_stream_buffer_pointers 00000001800749e4 f   libucrt:_file.obj
 0001:00073a2c       _lock_file                 0000000180074a2c f   libucrt:_file.obj
 0001:00073a38       _unlock_file               0000000180074a38 f   libucrt:_file.obj
 0001:00073a44       ?has_any_buffer@__crt_stdio_stream@@QEBA_NXZ 0000000180074a44 f i libucrt:_sftbuf.obj
 0001:00073a54       ?has_any_of@__crt_stdio_stream@@QEBA_NJ@Z 0000000180074a54 f i libucrt:_sftbuf.obj
 0001:00073a60       ?has_temporary_buffer@__crt_stdio_stream@@QEBA_NXZ 0000000180074a60 f i libucrt:_sftbuf.obj
 0001:00073a6c       __acrt_should_use_temporary_buffer 0000000180074a6c f   libucrt:_sftbuf.obj
 0001:00073ab4       __acrt_stdio_begin_temporary_buffering_nolock 0000000180074ab4 f   libucrt:_sftbuf.obj
 0001:00073b7c       __acrt_stdio_end_temporary_buffering_nolock 0000000180074b7c f   libucrt:_sftbuf.obj
 0001:00073bb8       _malloc_base               0000000180074bb8 f   libucrt:malloc_base.obj
 0001:000744cc       ??1?$__crt_simd_cleanup_guard@$00@@QEAA@XZ 00000001800754cc f i libucrt:strnlen.obj
 0001:000744d0       ??1?$__crt_simd_cleanup_guard@$0A@@@QEAA@XZ 00000001800754d0 f i libucrt:strnlen.obj
 0001:000744d4       ?compare_equals@?$__crt_simd_traits@$00E@@SA?AT__m256i@@T2@0@Z 00000001800754d4 f i libucrt:strnlen.obj
 0001:000744e0       ?compare_equals@?$__crt_simd_traits@$00G@@SA?AT__m256i@@T2@0@Z 00000001800754e0 f i libucrt:strnlen.obj
 0001:000744ec       ?compare_equals@?$__crt_simd_traits@$0A@E@@SA?AT__m128i@@T2@0@Z 00000001800754ec f i libucrt:strnlen.obj
 0001:000744f8       ?compare_equals@?$__crt_simd_traits@$0A@G@@SA?AT__m128i@@T2@0@Z 00000001800754f8 f i libucrt:strnlen.obj
 0001:00074504       ?compute_byte_mask@?$__crt_simd_pack_traits@$00@@SAHT__m256i@@@Z 0000000180075504 f i libucrt:strnlen.obj
 0001:00074510       ?compute_byte_mask@?$__crt_simd_pack_traits@$0A@@@SAHT__m128i@@@Z 0000000180075510 f i libucrt:strnlen.obj
 0001:0007451c       ?get_zero_pack@?$__crt_simd_pack_traits@$00@@SA?AT__m256i@@XZ 000000018007551c f i libucrt:strnlen.obj
 0001:00074524       ?get_zero_pack@?$__crt_simd_pack_traits@$0A@@@SA?AT__m128i@@XZ 0000000180075524 f i libucrt:strnlen.obj
 0001:00074528       strnlen                    0000000180075528 f   libucrt:strnlen.obj
 0001:00074678       wcslen                     0000000180075678 f   libucrt:strnlen.obj
 0001:000747a4       wcsnlen                    00000001800757a4 f   libucrt:strnlen.obj
 0001:0007497c       ?value_explicit@?$dual_state_global@PEAU__crt_locale_data@@@__crt_state_management@@QEAAAEAPEAU__crt_locale_data@@_K@Z 000000018007597c f i libucrt:locale_update.obj
 0001:00074984       ?value_explicit@?$dual_state_global@PEAU__crt_multibyte_data@@@__crt_state_management@@QEAAAEAPEAU__crt_multibyte_data@@_K@Z 0000000180075984 f i libucrt:locale_update.obj
 0001:0007498c       __acrt_update_locale_info  000000018007598c f   libucrt:locale_update.obj
 0001:000749c0       __acrt_update_locale_info_explicit 00000001800759c0 f   libucrt:locale_update.obj
 0001:000749f8       __acrt_update_multibyte_info 00000001800759f8 f   libucrt:locale_update.obj
 0001:00074a2c       __acrt_update_multibyte_info_explicit 0000000180075a2c f   libucrt:locale_update.obj
 0001:00074a64       ?__acrt_fp_classify@@YA?AW4__acrt_fp_class@@AEBN@Z 0000000180075a64 f i libucrt:cvt.obj
 0001:00074ac0       ?__acrt_fp_is_negative@@YA_NAEBN@Z 0000000180075ac0 f i libucrt:cvt.obj
 0001:00075748       ?strrchr@@YAPEADQEADH@Z    0000000180076748 f i libucrt:cvt.obj
 0001:00075750       __acrt_fp_format           0000000180076750 f   libucrt:cvt.obj
 0001:00075a38       ?value_or@?$cached@H@__crt_cached_ptd_host@@QEBAHH@Z 0000000180076a38 f i libucrt:wctomb.obj
 0001:00075a44       _wctomb_internal           0000000180076a44 f   libucrt:wctomb.obj
 0001:00075bf4       _wctomb_l                  0000000180076bf4 f   libucrt:wctomb.obj
 0001:00075ce0       _wctomb_s_l                0000000180076ce0 f   libucrt:wctomb.obj
 0001:00075d90       wctomb                     0000000180076d90 f   libucrt:wctomb.obj
 0001:00075e58       wctomb_s                   0000000180076e58 f   libucrt:wctomb.obj
 0001:00075ef8       _isleadbyte_fast_internal  0000000180076ef8 f i libucrt:mbtowc.obj
 0001:00075f10       _mbtowc_internal           0000000180076f10 f   libucrt:mbtowc.obj
 0001:00076088       _mbtowc_l                  0000000180077088 f   libucrt:mbtowc.obj
 0001:0007612c       mbtowc                     000000018007712c f   libucrt:mbtowc.obj
 0001:000761c4       ?lowio_handle@__crt_stdio_stream@@QEBAHXZ 00000001800771c4 f i libucrt:fileno.obj
 0001:000761cc       _fileno                    00000001800771cc f   libucrt:fileno.obj
 0001:000761f4       _get_printf_count_output   00000001800771f4 f   libucrt:printf_count_output.obj
 0001:0007620c       _set_printf_count_output   000000018007720c f   libucrt:printf_count_output.obj
 0001:000762d0       _fputwc_nolock             00000001800772d0 f   libucrt:fputwc.obj
 0001:0007636c       _fputwc_nolock_internal    000000018007736c f   libucrt:fputwc.obj
 0001:000764f8       _fputwchar                 00000001800774f8 f   libucrt:fputwc.obj
 0001:0007651c       _putwc_nolock              000000018007751c f   libucrt:fputwc.obj
 0001:00076524       fputwc                     0000000180077524 f   libucrt:fputwc.obj
 0001:000765c0       putwc                      00000001800775c0 f   libucrt:fputwc.obj
 0001:000765c8       putwchar                   00000001800775c8 f   libucrt:fputwc.obj
 0001:0007672c       _fputc_nolock              000000018007772c f   libucrt:fputc.obj
 0001:000767d8       _fputc_nolock_internal     00000001800777d8 f   libucrt:fputc.obj
 0001:000767f0       _fputchar                  00000001800777f0 f   libucrt:fputc.obj
 0001:00076814       _putc_nolock               0000000180077814 f   libucrt:fputc.obj
 0001:0007681c       fputc                      000000018007781c f   libucrt:fputc.obj
 0001:000768b4       putc                       00000001800778b4 f   libucrt:fputc.obj
 0001:000768bc       putchar                    00000001800778bc f   libucrt:fputc.obj
 0001:000768c8       ??$?RU__crt_locale_data@@@__crt_internal_free_policy@@QEBAXQEBU__crt_locale_data@@@Z 00000001800778c8 f i libucrt:wsetlocale.obj
 0001:000768d0       ??$?RU__crt_locale_pointers@@@__crt_internal_free_policy@@QEBAXQEBU__crt_locale_pointers@@@Z 00000001800778d0 f i libucrt:wsetlocale.obj
 0001:00076cd4       ??0?$__crt_unique_heap_ptr@U__crt_locale_data@@U__crt_internal_free_policy@@@@QEAA@QEAU__crt_locale_data@@@Z 0000000180077cd4 f i libucrt:wsetlocale.obj
 0001:00076cdc       ??0?$__crt_unique_heap_ptr@U__crt_locale_pointers@@U__crt_internal_free_policy@@@@QEAA@QEAU__crt_locale_pointers@@@Z 0000000180077cdc f i libucrt:wsetlocale.obj
 0001:00076ce4       ??0_expandlocale_locale_name_cache@@QEAA@QEA_W_KQEAU__crt_qualified_locale_data@@@Z 0000000180077ce4 f i libucrt:wsetlocale.obj
 0001:00076d40       ??1?$__crt_unique_heap_ptr@U__crt_locale_data@@U__crt_internal_free_policy@@@@QEAA@XZ 0000000180077d40 f i libucrt:wsetlocale.obj
 0001:00076d5c       ??1?$__crt_unique_heap_ptr@U__crt_locale_pointers@@U__crt_internal_free_policy@@@@QEAA@XZ 0000000180077d5c f i libucrt:wsetlocale.obj
 0001:00076d78       ??1_expandlocale_locale_name_cache@@QEAA@XZ 0000000180077d78 f i libucrt:wsetlocale.obj
 0001:00076dc0       ??B?$__crt_unique_heap_ptr@U__crt_locale_data@@U__crt_internal_free_policy@@@@QEBA_NXZ 0000000180077dc0 f i libucrt:wsetlocale.obj
 0001:00076dc8       ??B?$__crt_unique_heap_ptr@U__crt_locale_pointers@@U__crt_internal_free_policy@@@@QEBA_NXZ 0000000180077dc8 f i libucrt:wsetlocale.obj
 0001:00077048       ?commit_locale_name@_expandlocale_locale_name_cache@@QEAAXQEB_W_K@Z 0000000180078048 f i libucrt:wsetlocale.obj
 0001:000770c0       ?commit_locale_name_cache_already_updated@_expandlocale_locale_name_cache@@QEAAXQEB_W_K@Z 00000001800780c0 f i libucrt:wsetlocale.obj
 0001:00077100       ?detach@?$__crt_unique_heap_ptr@U__crt_locale_data@@U__crt_internal_free_policy@@@@QEAAPEAU__crt_locale_data@@XZ 0000000180078100 f i libucrt:wsetlocale.obj
 0001:00077108       ?detach@?$__crt_unique_heap_ptr@U__crt_locale_pointers@@U__crt_internal_free_policy@@@@QEAAPEAU__crt_locale_pointers@@XZ 0000000180078108 f i libucrt:wsetlocale.obj
 0001:00077110       ?get@?$__crt_unique_heap_ptr@U__crt_locale_data@@U__crt_internal_free_policy@@@@QEBAPEAU__crt_locale_data@@XZ 0000000180078110 f i libucrt:wsetlocale.obj
 0001:00077114       ?get@?$__crt_unique_heap_ptr@U__crt_locale_pointers@@U__crt_internal_free_policy@@@@QEBAPEAU__crt_locale_pointers@@XZ 0000000180078114 f i libucrt:wsetlocale.obj
 0001:00077118       ?is_valid@?$__crt_unique_heap_ptr@U__crt_locale_data@@U__crt_internal_free_policy@@@@QEBA_NXZ 0000000180078118 f i libucrt:wsetlocale.obj
 0001:00077120       ?is_valid@?$__crt_unique_heap_ptr@U__crt_locale_pointers@@U__crt_internal_free_policy@@@@QEBA_NXZ 0000000180078120 f i libucrt:wsetlocale.obj
 0001:00077128       ?release@?$__crt_unique_heap_ptr@U__crt_locale_data@@U__crt_internal_free_policy@@@@QEAAXXZ 0000000180078128 f i libucrt:wsetlocale.obj
 0001:00077144       ?release@?$__crt_unique_heap_ptr@U__crt_locale_pointers@@U__crt_internal_free_policy@@@@QEAAXXZ 0000000180078144 f i libucrt:wsetlocale.obj
 0001:00077160       __acrt_copy_locale_name    0000000180078160 f   libucrt:wsetlocale.obj
 0001:000771e4       __acrt_set_locale_changed  00000001800781e4 f   libucrt:wsetlocale.obj
 0001:000771f0       __acrt_uninitialize_locale 00000001800781f0 f   libucrt:wsetlocale.obj
 0001:00077220       __ascii_tolower            0000000180078220 f i libucrt:wsetlocale.obj
 0001:00077230       __ascii_towlower           0000000180078230 f i libucrt:wsetlocale.obj
 0001:00077240       __lc_lctowcs               0000000180078240 f   libucrt:wsetlocale.obj
 0001:000772e4       __lc_wcstolc               00000001800782e4 f   libucrt:wsetlocale.obj
 0001:0007744c       _configthreadlocale        000000018007844c f   libucrt:wsetlocale.obj
 0001:00077578       _create_locale             0000000180078578 f   libucrt:wsetlocale.obj
 0001:00077a70       _free_locale               0000000180078a70 f   libucrt:wsetlocale.obj
 0001:00077b14       _get_current_locale        0000000180078b14 f   libucrt:wsetlocale.obj
 0001:00077bd0       _wcreate_locale            0000000180078bd0 f   libucrt:wsetlocale.obj
 0001:00077d18       _wcscats                   0000000180078d18 f   libucrt:wsetlocale.obj
 0001:00077d80       _wsetlocale                0000000180078d80 f   libucrt:wsetlocale.obj
 0001:00078ba8       __pctype_func              0000000180079ba8 f   libucrt:ctype.obj
 0001:00078bd8       __pwctype_func             0000000180079bd8 f   libucrt:ctype.obj
 0001:00078be0       _iswctype_l                0000000180079be0 f   libucrt:iswctype.obj
 0001:00078be8       iswctype                   0000000180079be8 f   libucrt:iswctype.obj
 0001:00078c54       _isctype                   0000000180079c54 f   libucrt:isctype.obj
 0001:00078c84       _isctype_l                 0000000180079c84 f   libucrt:isctype.obj
 0001:00078da0       _get_fpsr                  0000000180079da0 f   libucrt:fpsr.obj
 0001:00078db0       _set_fpsr                  0000000180079db0 f   libucrt:fpsr.obj
 0001:00078dba       _fclrf                     0000000180079dba f   libucrt:fpsr.obj
 0001:00078dce       _frnd                      0000000180079dce f   libucrt:fpsr.obj
 0001:00078df0       nexttoward                 0000000180079df0 f   libucrt:nexttoward.obj
 0001:00078f58       nexttowardf                0000000180079f58 f   libucrt:nexttowardf.obj
 0001:000790a4       ?should_round_up@__crt_strtox@@YA_N_N000@Z 000000018007a0a4 f i libucrt:fpexcept.obj
 0001:0007912c       _errcode                   000000018007a12c f   libucrt:fpexcept.obj
 0001:00079170       _except1                   000000018007a170 f   libucrt:fpexcept.obj
 0001:00079264       _except2                   000000018007a264 f   libucrt:fpexcept.obj
 0001:000793a0       _handle_exc                000000018007a3a0 f   libucrt:fpexcept.obj
 0001:00079698       _handle_qnan2              000000018007a698 f   libucrt:fpexcept.obj
 0001:000796a0       _raise_exc                 000000018007a6a0 f   libucrt:fpexcept.obj
 0001:000796c8       _raise_exc_ex              000000018007a6c8 f   libucrt:fpexcept.obj
 0001:000799d8       _raise_excf                000000018007a9d8 f   libucrt:fpexcept.obj
 0001:00079a04       _set_errno_from_matherr    000000018007aa04 f   libucrt:fpexcept.obj
 0001:00079a34       _umatherr                  000000018007aa34 f   libucrt:fpexcept.obj
 0001:00079b04       __acrt_add_locale_ref      000000018007ab04 f   libucrt:locale_refcounting.obj
 0001:00079b90       __acrt_free_locale         000000018007ab90 f   libucrt:locale_refcounting.obj
 0001:00079d08       __acrt_locale_add_lc_time_reference 000000018007ad08 f   libucrt:locale_refcounting.obj
 0001:00079d30       __acrt_locale_free_lc_time_if_unreferenced 000000018007ad30 f   libucrt:locale_refcounting.obj
 0001:00079d68       __acrt_locale_release_lc_time_reference 000000018007ad68 f   libucrt:locale_refcounting.obj
 0001:00079d90       __acrt_release_locale_ref  000000018007ad90 f   libucrt:locale_refcounting.obj
 0001:00079e38       __acrt_update_thread_locale_data 000000018007ae38 f   libucrt:locale_refcounting.obj
 0001:00079ea8       _updatetlocinfoEx_nolock   000000018007aea8 f   libucrt:locale_refcounting.obj
 0001:00079f10       ?value@?$dual_state_global@J@__crt_state_management@@QEAAAEAJXZ 000000018007af10 f i libucrt:new_mode.obj
 0001:00079f14       _query_new_mode            000000018007af14 f   libucrt:new_mode.obj
 0001:00079f1c       _set_new_mode              000000018007af1c f   libucrt:new_mode.obj
 0001:0007a050       qsort                      000000018007b050 f   libucrt:qsort.obj
 0001:0007a554       wcsncpy_s                  000000018007b554 f   libucrt:wcsncpy_s.obj
 0001:0007a650       wcspbrk                    000000018007b650 f   libucrt:wcspbrk.obj
 0001:0007a764       strncpy_s                  000000018007b764 f   libucrt:strncpy_s.obj
 0001:0007a900       strpbrk                    000000018007b900 f   libucrt:strpbrk.obj
 0001:0007acc8       _mbsdec                    000000018007bcc8 f   libucrt:mbsdec.obj
 0001:0007acd0       _mbsdec_l                  000000018007bcd0 f   libucrt:mbsdec.obj
 0001:0007ad64       ??0?$__crt_scoped_stack_ptr@_W@@QEAA@U?$__crt_scoped_stack_ptr_tag@_W@@@Z 000000018007bd64 f i libucrt:getstringtypea.obj
 0001:0007ad6c       ??0?$__crt_scoped_stack_ptr_tag@_W@@QEAA@QEA_W@Z 000000018007bd6c f i libucrt:getstringtypea.obj
 0001:0007ad74       ??1?$__crt_scoped_stack_ptr@_W@@QEAA@XZ 000000018007bd74 f i libucrt:getstringtypea.obj
 0001:0007ad98       ?get@?$__crt_scoped_stack_ptr@_W@@QEBAPEA_WXZ 000000018007bd98 f i libucrt:getstringtypea.obj
 0001:0007ad9c       _MallocaComputeSize        000000018007bd9c f i libucrt:getstringtypea.obj
 0001:0007adac       _MarkAllocaS               000000018007bdac f i libucrt:getstringtypea.obj
 0001:0007adbc       __acrt_GetStringTypeA      000000018007bdbc f   libucrt:getstringtypea.obj
 0001:0007af58       _freea_crt                 000000018007bf58 f i libucrt:getstringtypea.obj
 0001:0007af78       ??B?$__crt_scoped_stack_ptr@_W@@QEBA_NXZ 000000018007bf78 f i libucrt:lcmapstringa.obj
 0001:0007b2a0       __acrt_LCMapStringA        000000018007c2a0 f   libucrt:lcmapstringa.obj
 0001:0007b350       _wcsnicoll                 000000018007c350 f   libucrt:wcsnicol.obj
 0001:0007b3a0       _wcsnicoll_l               000000018007c3a0 f   libucrt:wcsnicol.obj
 0001:0007b490       _strnicoll                 000000018007c490 f   libucrt:strnicol.obj
 0001:0007b4a8       _strnicoll_l               000000018007c4a8 f   libucrt:strnicol.obj
 0001:0007b5a8       __acrt_SetEnvironmentVariableA 000000018007c5a8 f   libucrt:setenvironmentvariablea.obj
 0001:0007b748       _msize                     000000018007c748 f   libucrt:msize.obj
 0001:0007b750       _msize_base                000000018007c750 f   libucrt:msize.obj
 0001:0007b78c       _realloc_base              000000018007c78c f   libucrt:realloc_base.obj
 0001:0007b8dc       __acrt_DownlevelLCIDToLocaleName 000000018007c8dc f   libucrt:lcidtoname_downlevel.obj
 0001:0007b9c4       __acrt_DownlevelLocaleNameToLCID 000000018007c9c4 f   libucrt:lcidtoname_downlevel.obj
 0001:0007ba6c       ??$?RU__crt_lowio_handle_data@@@__crt_internal_free_policy@@QEBAXQEBU__crt_lowio_handle_data@@@Z 000000018007ca6c f i libucrt:osfinfo.obj
 0001:0007ba74       ??0?$__crt_unique_heap_ptr@U__crt_lowio_handle_data@@U__crt_internal_free_policy@@@@QEAA@QEAU__crt_lowio_handle_data@@@Z 000000018007ca74 f i libucrt:osfinfo.obj
 0001:0007ba7c       ??1?$__crt_unique_heap_ptr@U__crt_lowio_handle_data@@U__crt_internal_free_policy@@@@QEAA@XZ 000000018007ca7c f i libucrt:osfinfo.obj
 0001:0007ba98       ??B?$__crt_unique_heap_ptr@U__crt_lowio_handle_data@@U__crt_internal_free_policy@@@@QEBA_NXZ 000000018007ca98 f i libucrt:osfinfo.obj
 0001:0007baa0       ?detach@?$__crt_unique_heap_ptr@U__crt_lowio_handle_data@@U__crt_internal_free_policy@@@@QEAAPEAU__crt_lowio_handle_data@@XZ 000000018007caa0 f i libucrt:osfinfo.obj
 0001:0007baa8       ?get@?$__crt_unique_heap_ptr@U__crt_lowio_handle_data@@U__crt_internal_free_policy@@@@QEBAPEAU__crt_lowio_handle_data@@XZ 000000018007caa8 f i libucrt:osfinfo.obj
 0001:0007baac       ?is_valid@?$__crt_unique_heap_ptr@U__crt_lowio_handle_data@@U__crt_internal_free_policy@@@@QEBA_NXZ 000000018007caac f i libucrt:osfinfo.obj
 0001:0007bab4       ?release@?$__crt_unique_heap_ptr@U__crt_lowio_handle_data@@U__crt_internal_free_policy@@@@QEAAXXZ 000000018007cab4 f i libucrt:osfinfo.obj
 0001:0007bad0       __acrt_lowio_create_handle_array 000000018007cad0 f   libucrt:osfinfo.obj
 0001:0007bb78       __acrt_lowio_destroy_handle_array 000000018007cb78 f   libucrt:osfinfo.obj
 0001:0007bbc8       __acrt_lowio_ensure_fh_exists 000000018007cbc8 f   libucrt:osfinfo.obj
 0001:0007bc70       __acrt_lowio_lock_fh       000000018007cc70 f   libucrt:osfinfo.obj
 0001:0007bc98       __acrt_lowio_set_os_handle 000000018007cc98 f   libucrt:osfinfo.obj
 0001:0007bd58       __acrt_lowio_unlock_fh     000000018007cd58 f   libucrt:osfinfo.obj
 0001:0007bd80       _alloc_osfhnd              000000018007cd80 f   libucrt:osfinfo.obj
 0001:0007bec0       _free_osfhnd               000000018007cec0 f   libucrt:osfinfo.obj
 0001:0007bf7c       _get_osfhandle             000000018007cf7c f   libucrt:osfinfo.obj
 0001:0007bff4       _open_osfhandle            000000018007cff4 f   libucrt:osfinfo.obj
 0001:0007c23c       _commit                    000000018007d23c f   libucrt:commit.obj
 0001:0007cc94       _utf8_no_of_trailbytes     000000018007dc94 f i libucrt:write.obj
 0001:0007cca4       _write                     000000018007dca4 f   libucrt:write.obj
 0001:0007cd3c       _write_internal            000000018007dd3c f   libucrt:write.obj
 0001:0007ce64       _write_nolock              000000018007de64 f   libucrt:write.obj
 0001:0007d174       localeconv                 000000018007e174 f   libucrt:localeconv.obj
 0001:0007d1a8       ?is_in_use@__crt_stdio_stream@@QEBA_NXZ 000000018007e1a8 f i libucrt:closeall.obj
 0001:0007d1b4       _fcloseall                 000000018007e1b4 f   libucrt:closeall.obj
 0001:0007d268       ?has_crt_buffer@__crt_stdio_stream@@QEBA_NXZ 000000018007e268 f i libucrt:_freebuf.obj
 0001:0007d274       __acrt_stdio_free_buffer_nolock 000000018007e274 f   libucrt:_freebuf.obj
 0001:0007d2b4       _isatty                    000000018007e2b4 f   libucrt:isatty.obj
 0001:0007d3dc       __acrt_fp_strflt_to_string 000000018007e3dc f   libucrt:_fptostr.obj
 0001:0007e6a0       ??0big_integer@__crt_strtox@@QEAA@AEBU01@@Z 000000018007f6a0 f i libucrt:cfout.obj
 0001:0007e6d0       ??0big_integer@__crt_strtox@@QEAA@XZ 000000018007f6d0 f i libucrt:cfout.obj
 0001:0007e730       ??4big_integer@__crt_strtox@@QEAAAEAU01@AEBU01@@Z 000000018007f730 f i libucrt:cfout.obj
 0001:0007e760       ??8__crt_strtox@@YA_NAEBUbig_integer@0@0@Z 000000018007f760 f i libucrt:cfout.obj
 0001:0007e790       ??9__crt_strtox@@YA_NAEBUbig_integer@0@0@Z 000000018007f790 f i libucrt:cfout.obj
 0001:0007e7d0       ?add_carry@__crt_strtox@@YAIAEAIII@Z 000000018007f7d0 f i libucrt:cfout.obj
 0001:0007e7f0       ?add_multiply_carry@__crt_strtox@@YAIAEAIIII@Z 000000018007f7f0 f i libucrt:cfout.obj
 0001:0007e810       ?bit_scan_reverse@__crt_strtox@@YAII@Z 000000018007f810 f i libucrt:cfout.obj
 0001:0007e830       ?count_sequential_high_zeroes@__crt_strtox@@YAII@Z 000000018007f830 f i libucrt:cfout.obj
 0001:0007e850       ?divide@__crt_strtox@@YA_KAEAUbig_integer@1@AEBU21@@Z 000000018007f850 f i libucrt:cfout.obj
 0001:0007ece0       ?is_zero@__crt_strtox@@YA_NAEBUbig_integer@1@@Z 000000018007fce0 f i libucrt:cfout.obj
 0001:0007ecf0       ?make_big_integer@__crt_strtox@@YA?AUbig_integer@1@_K@Z 000000018007fcf0 f i libucrt:cfout.obj
 0001:0007ed10       ?make_big_integer_power_of_two@__crt_strtox@@YA?AUbig_integer@1@I@Z 000000018007fd10 f i libucrt:cfout.obj
 0001:0007ed80       ?multiply@__crt_strtox@@YA_NAEAUbig_integer@1@AEBU21@@Z 000000018007fd80 f i libucrt:cfout.obj
 0001:0007f130       ?multiply@__crt_strtox@@YA_NAEAUbig_integer@1@I@Z 0000000180080130 f i libucrt:cfout.obj
 0001:0007f220       ?multiply_64_32@__crt_strtox@@YA_K_KI@Z 0000000180080220 f i libucrt:cfout.obj
 0001:0007f230       ?multiply_by_power_of_ten@__crt_strtox@@YA_NAEAUbig_integer@1@I@Z 0000000180080230 f i libucrt:cfout.obj
 0001:0007f7c0       ?multiply_core@__crt_strtox@@YAIQEAIII@Z 00000001800807c0 f i libucrt:cfout.obj
 0001:0007f810       ?shift_left@__crt_strtox@@YA_NAEAUbig_integer@1@I@Z 0000000180080810 f i libucrt:cfout.obj
 0001:0007f98c       __acrt_fltout              000000018008098c f   libucrt:cfout.obj
 0001:00080c54       __fpe_flt_rounds           0000000180081c54 f   libucrt:fegetround.obj
 0001:00080c9c       fegetround                 0000000180081c9c f   libucrt:fegetround.obj
 0001:00080cb0       ??$?RG@__crt_internal_free_policy@@QEBAXQEBG@Z 0000000180081cb0 f i libucrt:initctype.obj
 0001:00080cb8       ??$?RJ@__crt_internal_free_policy@@QEBAXQEBJ@Z 0000000180081cb8 f i libucrt:initctype.obj
 0001:00080cc0       ??0?$__crt_unique_heap_ptr@GU__crt_internal_free_policy@@@@QEAA@QEAG@Z 0000000180081cc0 f i libucrt:initctype.obj
 0001:00080cc8       ??0?$__crt_unique_heap_ptr@JU__crt_internal_free_policy@@@@QEAA@QEAJ@Z 0000000180081cc8 f i libucrt:initctype.obj
 0001:00080cd0       ??1?$__crt_unique_heap_ptr@GU__crt_internal_free_policy@@@@QEAA@XZ 0000000180081cd0 f i libucrt:initctype.obj
 0001:00080cec       ??1?$__crt_unique_heap_ptr@JU__crt_internal_free_policy@@@@QEAA@XZ 0000000180081cec f i libucrt:initctype.obj
 0001:00080d08       ?detach@?$__crt_unique_heap_ptr@GU__crt_internal_free_policy@@@@QEAAPEAGXZ 0000000180081d08 f i libucrt:initctype.obj
 0001:00080d10       ?detach@?$__crt_unique_heap_ptr@JU__crt_internal_free_policy@@@@QEAAPEAJXZ 0000000180081d10 f i libucrt:initctype.obj
 0001:00080d18       ?release@?$__crt_unique_heap_ptr@GU__crt_internal_free_policy@@@@QEAAXXZ 0000000180081d18 f i libucrt:initctype.obj
 0001:00080d34       ?release@?$__crt_unique_heap_ptr@JU__crt_internal_free_policy@@@@QEAAXXZ 0000000180081d34 f i libucrt:initctype.obj
 0001:00080d50       ___lc_codepage_func        0000000180081d50 f   libucrt:initctype.obj
 0001:00080d80       ___lc_collate_cp_func      0000000180081d80 f   libucrt:initctype.obj
 0001:00080db0       ___lc_locale_name_func     0000000180081db0 f   libucrt:initctype.obj
 0001:00080de4       ___mb_cur_max_func         0000000180081de4 f   libucrt:initctype.obj
 0001:00080e14       ___mb_cur_max_l_func       0000000180081e14 f   libucrt:initctype.obj
 0001:00080e24       __acrt_locale_initialize_ctype 0000000180081e24 f   libucrt:initctype.obj
 0001:00081488       ?__c32rtomb_utf8@__crt_mbstring@@YA_KPEAD_UPEAU_Mbstatet@@AEAV__crt_cached_ptd_host@@@Z 0000000180082488 f   libucrt:c32rtomb.obj
 0001:0008152c       c32rtomb                   000000018008252c f   libucrt:c32rtomb.obj
 0001:000815f0       ?__mbrtowc_utf8@__crt_mbstring@@YA_KPEA_WPEBD_KPEAU_Mbstatet@@AEAV__crt_cached_ptd_host@@@Z 00000001800825f0 f   libucrt:mbrtowc.obj
 0001:00081634       ?__mbsrtowcs_utf8@__crt_mbstring@@YA_KPEA_WPEAPEBD_KPEAU_Mbstatet@@AEAV__crt_cached_ptd_host@@@Z 0000000180082634 f   libucrt:mbrtowc.obj
 0001:00081c68       btowc                      0000000180082c68 f   libucrt:mbrtowc.obj
 0001:00081d40       mbrlen                     0000000180082d40 f   libucrt:mbrtowc.obj
 0001:00081e08       mbrtowc                    0000000180082e08 f   libucrt:mbrtowc.obj
 0001:00081ef0       mbsrtowcs                  0000000180082ef0 f   libucrt:mbrtowc.obj
 0001:00081f94       mbsrtowcs_s                0000000180082f94 f   libucrt:mbrtowc.obj
 0001:00082474       ?has_big_buffer@__crt_stdio_stream@@QEBA_NXZ 0000000180083474 f i libucrt:_flsbuf.obj
 0001:00082500       __acrt_stdio_flush_and_write_narrow_nolock 0000000180083500 f   libucrt:_flsbuf.obj
 0001:000825c4       __acrt_stdio_flush_and_write_wide_nolock 00000001800835c4 f   libucrt:_flsbuf.obj
 0001:00082688       ??$?RUlconv@@@__crt_internal_free_policy@@QEBAXQEBUlconv@@@Z 0000000180083688 f i libucrt:initmon.obj
 0001:00082690       ??0?$__crt_unique_heap_ptr@Ulconv@@U__crt_internal_free_policy@@@@QEAA@QEAUlconv@@@Z 0000000180083690 f i libucrt:initmon.obj
 0001:00082698       ??1?$__crt_unique_heap_ptr@Ulconv@@U__crt_internal_free_policy@@@@QEAA@XZ 0000000180083698 f i libucrt:initmon.obj
 0001:000826b4       ?detach@?$__crt_unique_heap_ptr@Ulconv@@U__crt_internal_free_policy@@@@QEAAPEAUlconv@@XZ 00000001800836b4 f i libucrt:initmon.obj
 0001:000826bc       ?release@?$__crt_unique_heap_ptr@Ulconv@@U__crt_internal_free_policy@@@@QEAAXXZ 00000001800836bc f i libucrt:initmon.obj
 0001:000826d8       __acrt_locale_free_monetary 00000001800836d8 f   libucrt:initmon.obj
 0001:000827e4       __acrt_locale_initialize_monetary 00000001800837e4 f   libucrt:initmon.obj
 0001:00082d4c       __acrt_locale_free_numeric 0000000180083d4c f   libucrt:initnum.obj
 0001:00082db8       __acrt_locale_initialize_numeric 0000000180083db8 f   libucrt:initnum.obj
 0001:000830d0       ??$?RU__crt_lc_time_data@@@__crt_internal_free_policy@@QEBAXQEBU__crt_lc_time_data@@@Z 00000001800840d0 f i libucrt:inittime.obj
 0001:00083120       ??0?$__crt_unique_heap_ptr@U__crt_lc_time_data@@U__crt_internal_free_policy@@@@QEAA@QEAU__crt_lc_time_data@@@Z 0000000180084120 f i libucrt:inittime.obj
 0001:00083128       ??1?$__crt_unique_heap_ptr@U__crt_lc_time_data@@U__crt_internal_free_policy@@@@QEAA@XZ 0000000180084128 f i libucrt:inittime.obj
 0001:00083144       ??B?$__crt_unique_heap_ptr@U__crt_lc_time_data@@U__crt_internal_free_policy@@@@QEBA_NXZ 0000000180084144 f i libucrt:inittime.obj
 0001:0008314c       ?detach@?$__crt_unique_heap_ptr@U__crt_lc_time_data@@U__crt_internal_free_policy@@@@QEAAPEAU__crt_lc_time_data@@XZ 000000018008414c f i libucrt:inittime.obj
 0001:00083188       ?get@?$__crt_unique_heap_ptr@U__crt_lc_time_data@@U__crt_internal_free_policy@@@@QEBAPEAU__crt_lc_time_data@@XZ 0000000180084188 f i libucrt:inittime.obj
 0001:0008354c       ?is_valid@?$__crt_unique_heap_ptr@U__crt_lc_time_data@@U__crt_internal_free_policy@@@@QEBA_NXZ 000000018008454c f i libucrt:inittime.obj
 0001:00083554       ?release@?$__crt_unique_heap_ptr@U__crt_lc_time_data@@U__crt_internal_free_policy@@@@QEAAXXZ 0000000180084554 f i libucrt:inittime.obj
 0001:00083570       __acrt_locale_free_time    0000000180084570 f   libucrt:inittime.obj
 0001:00083678       __acrt_locale_initialize_time 0000000180084678 f   libucrt:inittime.obj
 0001:000837a0       wcscat_s                   00000001800847a0 f   libucrt:wcscat_s.obj
 0001:00083924       wcsncat_s                  0000000180084924 f   libucrt:wcsncat_s.obj
 0001:00083a28       wcscspn                    0000000180084a28 f   libucrt:wcscspn.obj
 0001:000842c4       __acrt_get_qualified_locale 00000001800852c4 f   libucrt:get_qualified_locale.obj
 0001:00084dc8       __acrt_get_qualified_locale_downlevel 0000000180085dc8 f   libucrt:getqloc_downlevel.obj
 0001:00085048       __acrt_GetStringTypeW      0000000180086048 f   libucrt:getstringtypew.obj
 0001:000850e0       _d_int                     00000001800860e0 f   libucrt:_test.obj
 0001:000851f8       _dtest                     00000001800861f8 f   libucrt:_test.obj
 0001:0008525c       _fd_int                    000000018008625c f   libucrt:_test.obj
 0001:00085334       _fdtest                    0000000180086334 f   libucrt:_test.obj
 0001:00085380       _fperrraise                0000000180086380 f   libucrt:_test.obj
 0001:00085434       _ld_int                    0000000180086434 f   libucrt:_test.obj
 0001:0008543c       _ldtest                    000000018008643c f   libucrt:_test.obj
 0001:00085444       _dclass                    0000000180086444 f   libucrt:nan.obj
 0001:00085460       _dpcomp                    0000000180086460 f   libucrt:nan.obj
 0001:000854c4       _dsign                     00000001800864c4 f   libucrt:nan.obj
 0001:000854dc       nan                        00000001800864dc f   libucrt:nan.obj
 0001:000854e8       _fdclass                   00000001800864e8 f   libucrt:nanf.obj
 0001:00085504       _fdpcomp                   0000000180086504 f   libucrt:nanf.obj
 0001:00085568       _fdsign                    0000000180086568 f   libucrt:nanf.obj
 0001:0008557c       nanf                       000000018008657c f   libucrt:nanf.obj
 0001:00085588       _add_exp                   0000000180086588 f   libucrt:util.obj
 0001:000855d8       _decomp                    00000001800865d8 f   libucrt:util.obj
 0001:00085708       _get_exp                   0000000180086708 f   libucrt:util.obj
 0001:00085728       _set_bexp                  0000000180086728 f   libucrt:util.obj
 0001:00085758       _set_exp                   0000000180086758 f   libucrt:util.obj
 0001:00085790       _sptype                    0000000180086790 f   libucrt:util.obj
 0001:00085804       __strncnt                  0000000180086804 f   libucrt:strncnt.obj
 0001:0008581c       __acrt_CompareStringW      000000018008681c f   libucrt:comparestringw.obj
 0001:000858dc       __ascii_wcsnicmp           00000001800868dc f   libucrt:wcsnicmp.obj
 0001:00085928       _towlower_fast_internal    0000000180086928 f i libucrt:wcsnicmp.obj
 0001:00085950       _towlower_internal         0000000180086950 f i libucrt:wcsnicmp.obj
 0001:00085984       _wcsnicmp                  0000000180086984 f   libucrt:wcsnicmp.obj
 0001:000859cc       _wcsnicmp_l                00000001800869cc f   libucrt:wcsnicmp.obj
 0001:00085b1c       __ascii_strnicmp           0000000180086b1c f   libucrt:strnicmp.obj
 0001:00085b68       _strnicmp                  0000000180086b68 f   libucrt:strnicmp.obj
 0001:00085bb8       _strnicmp_l                0000000180086bb8 f   libucrt:strnicmp.obj
 0001:00085fe8       __acrt_CompareStringA      0000000180086fe8 f   libucrt:comparestringa.obj
 0001:0008614c       __acrt_report_runtime_error 000000018008714c f   libucrt:report_runtime_error.obj
 0001:000862ac       _query_app_type            00000001800872ac f   libucrt:report_runtime_error.obj
 0001:000862b4       _set_app_type              00000001800872b4 f   libucrt:report_runtime_error.obj
 0001:000867a0       _lseek                     00000001800877a0 f   libucrt:lseek.obj
 0001:00086838       _lseek_internal            0000000180087838 f   libucrt:lseek.obj
 0001:00086840       _lseek_nolock              0000000180087840 f   libucrt:lseek.obj
 0001:000868d8       _lseek_nolock_internal     00000001800878d8 f   libucrt:lseek.obj
 0001:000868e0       _lseeki64                  00000001800878e0 f   libucrt:lseek.obj
 0001:0008697c       _lseeki64_internal         000000018008797c f   libucrt:lseek.obj
 0001:00086984       _lseeki64_nolock           0000000180087984 f   libucrt:lseek.obj
 0001:00086a20       _lseeki64_nolock_internal  0000000180087a20 f   libucrt:lseek.obj
 0001:00086ac4       _putwch                    0000000180087ac4 f   libucrt:putwch.obj
 0001:00086b00       _putwch_nolock             0000000180087b00 f   libucrt:putwch.obj
 0001:00086b3c       _putwch_nolock_internal    0000000180087b3c f   libucrt:putwch.obj
 0001:0008725c       _read                      000000018008825c f   libucrt:read.obj
 0001:00087378       _read_nolock               0000000180088378 f   libucrt:read.obj
 0001:000878e4       _fclose_nolock             00000001800888e4 f   libucrt:fclose.obj
 0001:0008797c       fclose                     000000018008897c f   libucrt:fclose.obj
 0001:00087a14       _controlfp_s               0000000180088a14 f   libucrt:contrlfp.obj
 0001:00087a78       fegetenv                   0000000180088a78 f   libucrt:fegetenv.obj
 0001:00087a98       fesetenv                   0000000180088a98 f   libucrt:fesetenv.obj
 0001:00087ae4       feholdexcept               0000000180088ae4 f   libucrt:feholdexcept.obj
 0001:00087b34       ceil                       0000000180088b34 f   libucrt:ceil.obj
 0001:00087c00       log10                      0000000180088c00 f   libucrt:log10.obj
 0001:000881ac       ??$__acrt_fenv_shift_bits@W4__acrt_fenv_abstract_control@@@@YA?AW4__acrt_fenv_abstract_control@@W40@0I@Z 00000001800891ac f i libucrt:_fenvutils.obj
 0001:000881b8       ??$__acrt_fenv_shift_bits@W4__acrt_fenv_abstract_status@@@@YA?AW4__acrt_fenv_abstract_status@@W40@0I@Z 00000001800891b8 f i libucrt:_fenvutils.obj
 0001:000881c4       ??$__acrt_fenv_translate_bit@W4__acrt_fenv_abstract_control@@W4__acrt_fenv_machine_sse_control@@@@YA?AW4__acrt_fenv_abstract_control@@W4__acrt_fenv_machine_sse_control@@0W40@1@Z 00000001800891c4 f i libucrt:_fenvutils.obj
 0001:000881d0       ??$__acrt_fenv_translate_bit@W4__acrt_fenv_abstract_status@@W4__acrt_fenv_machine_sse_status@@@@YA?AW4__acrt_fenv_abstract_status@@W4__acrt_fenv_machine_sse_status@@0W40@1@Z 00000001800891d0 f i libucrt:_fenvutils.obj
 0001:000881dc       ??$__acrt_fenv_translate_bit@W4__acrt_fenv_machine_sse_control@@W4__acrt_fenv_abstract_control@@@@YA?AW4__acrt_fenv_machine_sse_control@@W4__acrt_fenv_abstract_control@@0W40@1@Z 00000001800891dc f i libucrt:_fenvutils.obj
 0001:000881e8       ??$__acrt_fenv_translate_bit@W4__acrt_fenv_machine_sse_status@@W4__acrt_fenv_abstract_status@@@@YA?AW4__acrt_fenv_machine_sse_status@@W4__acrt_fenv_abstract_status@@0W40@1@Z 00000001800891e8 f i libucrt:_fenvutils.obj
 0001:000881f4       ??$__acrt_fenv_unshift_bits@W4__acrt_fenv_abstract_control@@@@YA?AW4__acrt_fenv_abstract_control@@W40@0I@Z 00000001800891f4 f i libucrt:_fenvutils.obj
 0001:00088200       ??$__acrt_fenv_unshift_bits@W4__acrt_fenv_abstract_status@@@@YA?AW4__acrt_fenv_abstract_status@@W40@0I@Z 0000000180089200 f i libucrt:_fenvutils.obj
 0001:000883c4       ??I@YA?AW4__acrt_fenv_abstract_control@@W40@0@Z 00000001800893c4 f i libucrt:_fenvutils.obj
 0001:000883cc       ??I@YA?AW4__acrt_fenv_abstract_status@@W40@0@Z 00000001800893cc f i libucrt:_fenvutils.obj
 0001:000883d4       ??I@YA?AW4__acrt_fenv_machine_sse_control@@W40@0@Z 00000001800893d4 f i libucrt:_fenvutils.obj
 0001:000883dc       ??I@YA?AW4__acrt_fenv_machine_sse_status@@W40@0@Z 00000001800893dc f i libucrt:_fenvutils.obj
 0001:000883e4       ??U@YA?AW4__acrt_fenv_abstract_control@@W40@0@Z 00000001800893e4 f i libucrt:_fenvutils.obj
 0001:000883ec       ??U@YA?AW4__acrt_fenv_abstract_status@@W40@0@Z 00000001800893ec f i libucrt:_fenvutils.obj
 0001:000883f4       ??U@YA?AW4__acrt_fenv_machine_sse_control@@W40@0@Z 00000001800893f4 f i libucrt:_fenvutils.obj
 0001:000883fc       ??_5@YAAEAW4__acrt_fenv_abstract_control@@AEAW40@W40@@Z 00000001800893fc f i libucrt:_fenvutils.obj
 0001:00088404       ??_5@YAAEAW4__acrt_fenv_abstract_status@@AEAW40@W40@@Z 0000000180089404 f i libucrt:_fenvutils.obj
 0001:0008840c       ??_5@YAAEAW4__acrt_fenv_machine_sse_control@@AEAW40@W40@@Z 000000018008940c f i libucrt:_fenvutils.obj
 0001:00088414       ??_5@YAAEAW4__acrt_fenv_machine_sse_status@@AEAW40@W40@@Z 0000000180089414 f i libucrt:_fenvutils.obj
 0001:0008841c       ?__acrt_fenv_shift_abstract_sse_control@@YA?AW4__acrt_fenv_abstract_control@@W41@@Z 000000018008941c f i libucrt:_fenvutils.obj
 0001:00088430       ?__acrt_fenv_shift_abstract_sse_status@@YA?AW4__acrt_fenv_abstract_status@@W41@@Z 0000000180089430 f i libucrt:_fenvutils.obj
 0001:0008843c       ?__acrt_fenv_unshift_abstract_sse_control@@YA?AW4__acrt_fenv_abstract_control@@W41@@Z 000000018008943c f i libucrt:_fenvutils.obj
 0001:00088454       ?__acrt_fenv_unshift_abstract_sse_status@@YA?AW4__acrt_fenv_abstract_status@@W41@@Z 0000000180089454 f i libucrt:_fenvutils.obj
 0001:00088710       __acrt_fenv_expand_round_control 0000000180089710 f   libucrt:_fenvutils.obj
 0001:00088728       __acrt_fenv_get_common_round_control 0000000180089728 f   libucrt:_fenvutils.obj
 0001:00088734       __acrt_fenv_get_control    0000000180089734 f   libucrt:_fenvutils.obj
 0001:00088818       __acrt_fenv_get_fp_status_word_from_exception_mask 0000000180089818 f   libucrt:_fenvutils.obj
 0001:00088824       __acrt_fenv_get_status     0000000180089824 f   libucrt:_fenvutils.obj
 0001:0008887c       __acrt_fenv_set_control    000000018008987c f   libucrt:_fenvutils.obj
 0001:000889b8       __acrt_fenv_set_status     00000001800899b8 f   libucrt:_fenvutils.obj
 0001:00088bb0       __acrt_GetLocaleInfoA      0000000180089bb0 f   libucrt:getlocaleinfoa.obj
 0001:00088d78       ?reset_and_return@__crt_mbstring@@YA_K_KPEAU_Mbstatet@@@Z 0000000180089d78 f   libucrt:common_utf8.obj
 0001:00088d80       ?return_illegal_sequence@__crt_mbstring@@YA_KPEAU_Mbstatet@@AEAV__crt_cached_ptd_host@@@Z 0000000180089d80 f   libucrt:common_utf8.obj
 0001:00088d94       ?__mbrtoc32_utf8@__crt_mbstring@@YA_KPEA_UPEBD_KPEAU_Mbstatet@@AEAV__crt_cached_ptd_host@@@Z 0000000180089d94 f   libucrt:mbrtoc32.obj
 0001:00088f70       mbrtoc32                   0000000180089f70 f   libucrt:mbrtoc32.obj
 0001:00089014       __acrt_stdio_allocate_buffer_nolock 000000018008a014 f   libucrt:_getbuf.obj
 0001:0008956c       _i64toa                    000000018008a56c f   libucrt:xtoa.obj
 0001:000895a0       _i64toa_s                  000000018008a5a0 f   libucrt:xtoa.obj
 0001:000895c4       _i64tow                    000000018008a5c4 f   libucrt:xtoa.obj
 0001:000895f8       _i64tow_s                  000000018008a5f8 f   libucrt:xtoa.obj
 0001:0008961c       _itoa                      000000018008a61c f   libucrt:xtoa.obj
 0001:0008964c       _itoa_s                    000000018008a64c f   libucrt:xtoa.obj
 0001:0008966c       _itow                      000000018008a66c f   libucrt:xtoa.obj
 0001:0008969c       _itow_s                    000000018008a69c f   libucrt:xtoa.obj
 0001:000896bc       _ltoa                      000000018008a6bc f   libucrt:xtoa.obj
 0001:000896ec       _ltoa_s                    000000018008a6ec f   libucrt:xtoa.obj
 0001:0008970c       _ltow                      000000018008a70c f   libucrt:xtoa.obj
 0001:0008973c       _ltow_s                    000000018008a73c f   libucrt:xtoa.obj
 0001:0008975c       _ui64toa                   000000018008a75c f   libucrt:xtoa.obj
 0001:00089780       _ui64toa_s                 000000018008a780 f   libucrt:xtoa.obj
 0001:00089794       _ui64tow                   000000018008a794 f   libucrt:xtoa.obj
 0001:000897b8       _ui64tow_s                 000000018008a7b8 f   libucrt:xtoa.obj
 0001:000897cc       _ultoa                     000000018008a7cc f   libucrt:xtoa.obj
 0001:000897f0       _ultoa_s                   000000018008a7f0 f   libucrt:xtoa.obj
 0001:00089804       _ultow                     000000018008a804 f   libucrt:xtoa.obj
 0001:00089828       _ultow_s                   000000018008a828 f   libucrt:xtoa.obj
 0001:0008983c       __ascii_wcsicmp            000000018008a83c f   libucrt:wcsicmp.obj
 0001:0008987c       _wcsicmp                   000000018008a87c f   libucrt:wcsicmp.obj
 0001:000898c4       _wcsicmp_l                 000000018008a8c4 f   libucrt:wcsicmp.obj
 0001:000899ec       wcscmp                     000000018008a9ec f   libucrt:wcscmp.obj
 0001:00089a24       ??_4@YAAEAW4__acrt_fenv_abstract_status@@AEAW40@W40@@Z 000000018008aa24 f i libucrt:fegetexceptflag.obj
 0001:00089a2c       fegetexceptflag            000000018008aa2c f   libucrt:fegetexceptflag.obj
 0001:00089a70       ??S@YA?AW4__acrt_fenv_abstract_status@@W40@@Z 000000018008aa70 f i libucrt:fesetexceptflag.obj
 0001:00089a78       fesetexceptflag            000000018008aa78 f   libucrt:fesetexceptflag.obj
 0001:00089af4       _towlower_l                000000018008aaf4 f   libucrt:towlower.obj
 0001:00089bec       towlower                   000000018008abec f   libucrt:towlower.obj
 0001:00089bf4       _set_error_mode            000000018008abf4 f   libucrt:set_error_mode.obj
 0001:00089d7c       ??$message_box@$$TAEBQEBDAEBQEBDK@?$__crt_char_traits@D@@SAH$$QEA$$TAEBQEBD1$$QEAK@Z 000000018008ad7c f i libucrt:crtmbox.obj
 0001:00089d90       ??$message_box@$$TAEBQEB_WAEBQEB_WK@?$__crt_char_traits@_W@@SAH$$QEA$$TAEBQEB_W1$$QEAK@Z 000000018008ad90 f i libucrt:crtmbox.obj
 0001:00089da4       ??$message_box@PEAUHWND__@@AEBQEBDAEBQEBDAEBI@?$__crt_char_traits@D@@SAH$$QEAPEAUHWND__@@AEBQEBD1AEBI@Z 000000018008ada4 f i libucrt:crtmbox.obj
 0001:00089db8       ??$message_box@PEAUHWND__@@AEBQEB_WAEBQEB_WAEBI@?$__crt_char_traits@_W@@SAH$$QEAPEAUHWND__@@AEBQEB_W1AEBI@Z 000000018008adb8 f i libucrt:crtmbox.obj
 0001:00089dcc       ??$output_debug_string@AEBQEBD@?$__crt_char_traits@D@@SAXAEBQEBD@Z 000000018008adcc f i libucrt:crtmbox.obj
 0001:00089dd4       ??$output_debug_string@AEBQEB_W@?$__crt_char_traits@_W@@SAXAEBQEB_W@Z 000000018008add4 f i libucrt:crtmbox.obj
 0001:00089de0       __acrt_show_narrow_message_box 000000018008ade0 f   libucrt:crtmbox.obj
 0001:00089e84       __acrt_show_wide_message_box 000000018008ae84 f   libucrt:crtmbox.obj
 0001:0008a050       __dcrt_lowio_ensure_console_output_initialized 000000018008b050 f   libucrt:initcon.obj
 0001:0008a0a4       __dcrt_terminate_console_output 000000018008b0a4 f   libucrt:initcon.obj
 0001:0008a0c0       __dcrt_write_console       000000018008b0c0 f   libucrt:initcon.obj
 0001:0008a314       _close                     000000018008b314 f   libucrt:close.obj
 0001:0008a3ac       _close_internal            000000018008b3ac f   libucrt:close.obj
 0001:0008a470       _close_nolock              000000018008b470 f   libucrt:close.obj
 0001:0008a508       _close_nolock_internal     000000018008b508 f   libucrt:close.obj
 0001:0008a5d8       ??$?RU__crt_stdio_stream_data@@@__crt_internal_free_policy@@QEBAXQEBU__crt_stdio_stream_data@@@Z 000000018008b5d8 f i libucrt:stream.obj
 0001:0008a5e0       ??0?$__crt_unique_heap_ptr@U__crt_stdio_stream_data@@U__crt_internal_free_policy@@@@QEAA@QEAU__crt_stdio_stream_data@@@Z 000000018008b5e0 f i libucrt:stream.obj
 0001:0008a5e8       ??0__crt_stdio_stream@@QEAA@XZ 000000018008b5e8 f i libucrt:stream.obj
 0001:0008a5f0       ??1?$__crt_unique_heap_ptr@U__crt_stdio_stream_data@@U__crt_internal_free_policy@@@@QEAA@XZ 000000018008b5f0 f i libucrt:stream.obj
 0001:0008a60c       ?__acrt_stdio_allocate_stream@@YA?AV__crt_stdio_stream@@XZ 000000018008b60c f   libucrt:stream.obj
 0001:0008a664       ?__acrt_stdio_free_stream@@YAXV__crt_stdio_stream@@@Z 000000018008b664 f   libucrt:stream.obj
 0001:0008a680       ?deallocate@__crt_stdio_stream@@QEAAXXZ 000000018008b680 f i libucrt:stream.obj
 0001:0008a68c       ?detach@?$__crt_unique_heap_ptr@U__crt_stdio_stream_data@@U__crt_internal_free_policy@@@@QEAAPEAU__crt_stdio_stream_data@@XZ 000000018008b68c f i libucrt:stream.obj
 0001:0008a780       ?lock@__crt_stdio_stream@@QEBAXXZ 000000018008b780 f i libucrt:stream.obj
 0001:0008a788       ?release@?$__crt_unique_heap_ptr@U__crt_stdio_stream_data@@U__crt_internal_free_policy@@@@QEAAXXZ 000000018008b788 f i libucrt:stream.obj
 0001:0008a7a4       ?try_allocate@__crt_stdio_stream@@QEAA_NXZ 000000018008b7a4 f i libucrt:stream.obj
 0001:0008a7c4       ?unlock@__crt_stdio_stream@@QEBAXXZ 000000018008b7c4 f i libucrt:stream.obj
 0001:0008a8f0       _clearfp                   000000018008b8f0 f   libucrt:ieee.obj
 0001:0008a960       _control87                 000000018008b960 f   libucrt:ieee.obj
 0001:0008a968       _controlfp                 000000018008b968 f   libucrt:ieee.obj
 0001:0008a974       _fpreset                   000000018008b974 f   libucrt:ieee.obj
 0001:0008aa40       _set_controlfp             000000018008ba40 f   libucrt:ieee.obj
 0001:0008aa74       _statusfp                  000000018008ba74 f   libucrt:ieee.obj
 0001:0008ada0       _log10_special             000000018008bda0 f   libucrt:log_special.obj
 0001:0008adc0       _log10f_special            000000018008bdc0 f   libucrt:log_special.obj
 0001:0008ade0       _log_special               000000018008bde0 f   libucrt:log_special.obj
 0001:0008ae98       _logf_special              000000018008be98 f   libucrt:log_special.obj
 0001:0008af54       fetestexcept               000000018008bf54 f   libucrt:fetestexcept.obj
 0001:0008af78       __acrt_LCMapStringW        000000018008bf78 f   libucrt:lcmapstringw.obj
 0001:0008b000       __acrt_OutputDebugStringA  000000018008c000 f   libucrt:outputdebugstringa.obj
 0001:0008b3bc       _mbstowcs_l                000000018008c3bc f   libucrt:mbstowcs.obj
 0001:0008b464       _mbstowcs_s_l              000000018008c464 f   libucrt:mbstowcs.obj
 0001:0008b51c       mbstowcs                   000000018008c51c f   libucrt:mbstowcs.obj
 0001:0008b5b8       mbstowcs_s                 000000018008c5b8 f   libucrt:mbstowcs.obj
 0001:0008b660       InitializeSListHead        000000018008c660 f   kernel32:KERNEL32.dll
 0001:0008b666       QueryPerformanceCounter    000000018008c666 f   kernel32:KERNEL32.dll
 0001:0008b66c       GetCurrentProcessId        000000018008c66c f   kernel32:KERNEL32.dll
 0001:0008b672       GetCurrentThreadId         000000018008c672 f   kernel32:KERNEL32.dll
 0001:0008b678       GetSystemTimeAsFileTime    000000018008c678 f   kernel32:KERNEL32.dll
 0001:0008b67e       RtlCaptureContext          000000018008c67e f   kernel32:KERNEL32.dll
 0001:0008b684       RtlLookupFunctionEntry     000000018008c684 f   kernel32:KERNEL32.dll
 0001:0008b68a       RtlVirtualUnwind           000000018008c68a f   kernel32:KERNEL32.dll
 0001:0008b690       IsDebuggerPresent          000000018008c690 f   kernel32:KERNEL32.dll
 0001:0008b696       UnhandledExceptionFilter   000000018008c696 f   kernel32:KERNEL32.dll
 0001:0008b69c       SetUnhandledExceptionFilter 000000018008c69c f   kernel32:KERNEL32.dll
 0001:0008b6a2       GetStartupInfoW            000000018008c6a2 f   kernel32:KERNEL32.dll
 0001:0008b6a8       IsProcessorFeaturePresent  000000018008c6a8 f   kernel32:KERNEL32.dll
 0001:0008b6ae       GetModuleHandleW           000000018008c6ae f   kernel32:KERNEL32.dll
 0001:0008b6b4       InterlockedPushEntrySList  000000018008c6b4 f   kernel32:KERNEL32.dll
 0001:0008b6ba       InterlockedFlushSList      000000018008c6ba f   kernel32:KERNEL32.dll
 0001:0008b6c0       RtlUnwindEx                000000018008c6c0 f   kernel32:KERNEL32.dll
 0001:0008b6c6       GetLastError               000000018008c6c6 f   kernel32:KERNEL32.dll
 0001:0008b6cc       SetLastError               000000018008c6cc f   kernel32:KERNEL32.dll
 0001:0008b6d2       EnterCriticalSection       000000018008c6d2 f   kernel32:KERNEL32.dll
 0001:0008b6d8       LeaveCriticalSection       000000018008c6d8 f   kernel32:KERNEL32.dll
 0001:0008b6de       DeleteCriticalSection      000000018008c6de f   kernel32:KERNEL32.dll
 0001:0008b6e4       InitializeCriticalSectionAndSpinCount 000000018008c6e4 f   kernel32:KERNEL32.dll
 0001:0008b6ea       TlsAlloc                   000000018008c6ea f   kernel32:KERNEL32.dll
 0001:0008b6f0       TlsGetValue                000000018008c6f0 f   kernel32:KERNEL32.dll
 0001:0008b6f6       TlsSetValue                000000018008c6f6 f   kernel32:KERNEL32.dll
 0001:0008b6fc       TlsFree                    000000018008c6fc f   kernel32:KERNEL32.dll
 0001:0008b702       FreeLibrary                000000018008c702 f   kernel32:KERNEL32.dll
 0001:0008b708       GetProcAddress             000000018008c708 f   kernel32:KERNEL32.dll
 0001:0008b70e       LoadLibraryExW             000000018008c70e f   kernel32:KERNEL32.dll
 0001:0008b714       EncodePointer              000000018008c714 f   kernel32:KERNEL32.dll
 0001:0008b71a       RaiseException             000000018008c71a f   kernel32:KERNEL32.dll
 0001:0008b720       RtlPcToFileHeader          000000018008c720 f   kernel32:KERNEL32.dll
 0001:0008b726       GetCurrentProcess          000000018008c726 f   kernel32:KERNEL32.dll
 0001:0008b72c       ExitProcess                000000018008c72c f   kernel32:KERNEL32.dll
 0001:0008b732       TerminateProcess           000000018008c732 f   kernel32:KERNEL32.dll
 0001:0008b738       GetModuleHandleExW         000000018008c738 f   kernel32:KERNEL32.dll
 0001:0008b73e       GetModuleFileNameW         000000018008c73e f   kernel32:KERNEL32.dll
 0001:0008b744       HeapFree                   000000018008c744 f   kernel32:KERNEL32.dll
 0001:0008b74a       GetCurrentThread           000000018008c74a f   kernel32:KERNEL32.dll
 0001:0008b750       HeapAlloc                  000000018008c750 f   kernel32:KERNEL32.dll
 0001:0008b756       FindClose                  000000018008c756 f   kernel32:KERNEL32.dll
 0001:0008b75c       FindFirstFileExW           000000018008c75c f   kernel32:KERNEL32.dll
 0001:0008b762       FindNextFileW              000000018008c762 f   kernel32:KERNEL32.dll
 0001:0008b768       IsValidCodePage            000000018008c768 f   kernel32:KERNEL32.dll
 0001:0008b76e       GetACP                     000000018008c76e f   kernel32:KERNEL32.dll
 0001:0008b774       GetOEMCP                   000000018008c774 f   kernel32:KERNEL32.dll
 0001:0008b77a       GetCPInfo                  000000018008c77a f   kernel32:KERNEL32.dll
 0001:0008b780       GetCommandLineA            000000018008c780 f   kernel32:KERNEL32.dll
 0001:0008b786       GetCommandLineW            000000018008c786 f   kernel32:KERNEL32.dll
 0001:0008b78c       MultiByteToWideChar        000000018008c78c f   kernel32:KERNEL32.dll
 0001:0008b792       WideCharToMultiByte        000000018008c792 f   kernel32:KERNEL32.dll
 0001:0008b798       GetEnvironmentStringsW     000000018008c798 f   kernel32:KERNEL32.dll
 0001:0008b79e       FreeEnvironmentStringsW    000000018008c79e f   kernel32:KERNEL32.dll
 0001:0008b7a4       SetEnvironmentVariableW    000000018008c7a4 f   kernel32:KERNEL32.dll
 0001:0008b7aa       FlsAlloc                   000000018008c7aa f   kernel32:KERNEL32.dll
 0001:0008b7b0       FlsGetValue                000000018008c7b0 f   kernel32:KERNEL32.dll
 0001:0008b7b6       FlsSetValue                000000018008c7b6 f   kernel32:KERNEL32.dll
 0001:0008b7bc       FlsFree                    000000018008c7bc f   kernel32:KERNEL32.dll
 0001:0008b7c2       GetDateFormatW             000000018008c7c2 f   kernel32:KERNEL32.dll
 0001:0008b7c8       GetTimeFormatW             000000018008c7c8 f   kernel32:KERNEL32.dll
 0001:0008b7ce       CompareStringW             000000018008c7ce f   kernel32:KERNEL32.dll
 0001:0008b7d4       LCMapStringW               000000018008c7d4 f   kernel32:KERNEL32.dll
 0001:0008b7da       GetLocaleInfoW             000000018008c7da f   kernel32:KERNEL32.dll
 0001:0008b7e0       IsValidLocale              000000018008c7e0 f   kernel32:KERNEL32.dll
 0001:0008b7e6       GetUserDefaultLCID         000000018008c7e6 f   kernel32:KERNEL32.dll
 0001:0008b7ec       EnumSystemLocalesW         000000018008c7ec f   kernel32:KERNEL32.dll
 0001:0008b7f2       GetProcessHeap             000000018008c7f2 f   kernel32:KERNEL32.dll
 0001:0008b7f8       GetStdHandle               000000018008c7f8 f   kernel32:KERNEL32.dll
 0001:0008b7fe       GetFileType                000000018008c7fe f   kernel32:KERNEL32.dll
 0001:0008b804       SetConsoleCtrlHandler      000000018008c804 f   kernel32:KERNEL32.dll
 0001:0008b80a       GetStringTypeW             000000018008c80a f   kernel32:KERNEL32.dll
 0001:0008b810       HeapSize                   000000018008c810 f   kernel32:KERNEL32.dll
 0001:0008b816       HeapReAlloc                000000018008c816 f   kernel32:KERNEL32.dll
 0001:0008b81c       SetStdHandle               000000018008c81c f   kernel32:KERNEL32.dll
 0001:0008b822       FlushFileBuffers           000000018008c822 f   kernel32:KERNEL32.dll
 0001:0008b828       WriteFile                  000000018008c828 f   kernel32:KERNEL32.dll
 0001:0008b82e       GetConsoleOutputCP         000000018008c82e f   kernel32:KERNEL32.dll
 0001:0008b834       GetConsoleMode             000000018008c834 f   kernel32:KERNEL32.dll
 0001:0008b83a       GetFileSizeEx              000000018008c83a f   kernel32:KERNEL32.dll
 0001:0008b840       SetFilePointerEx           000000018008c840 f   kernel32:KERNEL32.dll
 0001:0008b846       ReadFile                   000000018008c846 f   kernel32:KERNEL32.dll
 0001:0008b84c       ReadConsoleW               000000018008c84c f   kernel32:KERNEL32.dll
 0001:0008b852       OutputDebugStringW         000000018008c852 f   kernel32:KERNEL32.dll
 0001:0008b858       CreateFileW                000000018008c858 f   kernel32:KERNEL32.dll
 0001:0008b85e       CloseHandle                000000018008c85e f   kernel32:KERNEL32.dll
 0001:0008b864       WriteConsoleW              000000018008c864 f   kernel32:KERNEL32.dll
 0001:0008b870       _FindPESection             000000018008c870 f   LIBCMT:pesect.obj
 0001:0008b8c0       _IsNonwritableInCurrentImage 000000018008c8c0 f   LIBCMT:pesect.obj
 0001:0008b910       _ValidateImageBase         000000018008c910 f   LIBCMT:pesect.obj
 0001:0008b93c       __GSHandlerCheck           000000018008c93c f   LIBCMT:gshandler.obj
 0001:0008b95c       __GSHandlerCheckCommon     000000018008c95c f   LIBCMT:gshandler.obj
 0001:0008b9d0       __security_check_cookie    000000018008c9d0 f   LIBCMT:amdsecgs.obj
 0001:0008b9f0       __GSHandlerCheck_SEH       000000018008c9f0 f   LIBCMT:gshandlerseh.obj
 0001:0008ba78       __raise_securityfailure    000000018008ca78 f   LIBCMT:gs_report.obj
 0001:0008baac       __report_gsfailure         000000018008caac f   LIBCMT:gs_report.obj
 0001:0008bb80       __report_rangecheckfailure 000000018008cb80 f   LIBCMT:gs_report.obj
 0001:0008bb94       __report_securityfailure   000000018008cb94 f   LIBCMT:gs_report.obj
 0001:0008bc30       __report_securityfailureEx 000000018008cc30 f   LIBCMT:gs_report.obj
 0001:0008be24       __GSHandlerCheck_EH        000000018008ce24 f   LIBCMT:gshandlereh.obj
 0001:0008bea4       __C_specific_handler_noexcept 000000018008cea4 f   libvcruntime:chandler_noexcept.obj
 0001:0008bef0       strchr                     000000018008cef0 f   libvcruntime:strchr.obj
 0001:0008bf70       wcschr                     000000018008cf70 f   libvcruntime:wcschr.obj
 0001:0008bfec       strrchr                    000000018008cfec f   libvcruntime:strrchr.obj
 0001:0008c128       _local_unwind              000000018008d128 f   libvcruntime:jmpuwind.obj
 0001:0008c170       memcmp                     000000018008d170 f   libvcruntime:memcmp.obj
 0001:0008c237       RtlUnwind                  000000018008d237 f   kernel32:KERNEL32.dll
 0001:0008c250       _guard_dispatch_icall_nop  000000018008d250 f   LIBCMT:guard_dispatch.obj
 0001:0008c270       _guard_xfg_dispatch_icall_nop 000000018008d270 f   LIBCMT:guard_xfg_dispatch.obj
 0002:00000000       __imp_LoadLibraryA         000000018008e000     kernel32:KERNEL32.dll
 0002:00000008       __imp_WriteConsoleW        000000018008e008     kernel32:KERNEL32.dll
 0002:00000010       __imp_CloseHandle          000000018008e010     kernel32:KERNEL32.dll
 0002:00000018       __imp_CreateFileW          000000018008e018     kernel32:KERNEL32.dll
 0002:00000020       __imp_OutputDebugStringW   000000018008e020     kernel32:KERNEL32.dll
 0002:00000028       __imp_ReadConsoleW         000000018008e028     kernel32:KERNEL32.dll
 0002:00000030       __imp_ReadFile             000000018008e030     kernel32:KERNEL32.dll
 0002:00000038       __imp_SetFilePointerEx     000000018008e038     kernel32:KERNEL32.dll
 0002:00000040       __imp_GetFileSizeEx        000000018008e040     kernel32:KERNEL32.dll
 0002:00000048       __imp_GetConsoleMode       000000018008e048     kernel32:KERNEL32.dll
 0002:00000050       __imp_GetConsoleOutputCP   000000018008e050     kernel32:KERNEL32.dll
 0002:00000058       __imp_WriteFile            000000018008e058     kernel32:KERNEL32.dll
 0002:00000060       __imp_FlushFileBuffers     000000018008e060     kernel32:KERNEL32.dll
 0002:00000068       __imp_SetStdHandle         000000018008e068     kernel32:KERNEL32.dll
 0002:00000070       __imp_HeapReAlloc          000000018008e070     kernel32:KERNEL32.dll
 0002:00000078       __imp_HeapSize             000000018008e078     kernel32:KERNEL32.dll
 0002:00000080       __imp_GetStringTypeW       000000018008e080     kernel32:KERNEL32.dll
 0002:00000088       __imp_SetConsoleCtrlHandler 000000018008e088     kernel32:KERNEL32.dll
 0002:00000090       __imp_GetFileType          000000018008e090     kernel32:KERNEL32.dll
 0002:00000098       __imp_GetStdHandle         000000018008e098     kernel32:KERNEL32.dll
 0002:000000a0       __imp_GetProcessHeap       000000018008e0a0     kernel32:KERNEL32.dll
 0002:000000a8       __imp_EnumSystemLocalesW   000000018008e0a8     kernel32:KERNEL32.dll
 0002:000000b0       __imp_GetUserDefaultLCID   000000018008e0b0     kernel32:KERNEL32.dll
 0002:000000b8       __imp_IsValidLocale        000000018008e0b8     kernel32:KERNEL32.dll
 0002:000000c0       __imp_GetLocaleInfoW       000000018008e0c0     kernel32:KERNEL32.dll
 0002:000000c8       __imp_LCMapStringW         000000018008e0c8     kernel32:KERNEL32.dll
 0002:000000d0       __imp_CompareStringW       000000018008e0d0     kernel32:KERNEL32.dll
 0002:000000d8       __imp_GetTimeFormatW       000000018008e0d8     kernel32:KERNEL32.dll
 0002:000000e0       __imp_GetDateFormatW       000000018008e0e0     kernel32:KERNEL32.dll
 0002:000000e8       __imp_FlsFree              000000018008e0e8     kernel32:KERNEL32.dll
 0002:000000f0       __imp_FlsSetValue          000000018008e0f0     kernel32:KERNEL32.dll
 0002:000000f8       __imp_FlsGetValue          000000018008e0f8     kernel32:KERNEL32.dll
 0002:00000100       __imp_FlsAlloc             000000018008e100     kernel32:KERNEL32.dll
 0002:00000108       __imp_SetEnvironmentVariableW 000000018008e108     kernel32:KERNEL32.dll
 0002:00000110       __imp_FreeEnvironmentStringsW 000000018008e110     kernel32:KERNEL32.dll
 0002:00000118       __imp_GetEnvironmentStringsW 000000018008e118     kernel32:KERNEL32.dll
 0002:00000120       __imp_WideCharToMultiByte  000000018008e120     kernel32:KERNEL32.dll
 0002:00000128       __imp_MultiByteToWideChar  000000018008e128     kernel32:KERNEL32.dll
 0002:00000130       __imp_GetCommandLineW      000000018008e130     kernel32:KERNEL32.dll
 0002:00000138       __imp_GetCommandLineA      000000018008e138     kernel32:KERNEL32.dll
 0002:00000140       __imp_GetCPInfo            000000018008e140     kernel32:KERNEL32.dll
 0002:00000148       __imp_GetOEMCP             000000018008e148     kernel32:KERNEL32.dll
 0002:00000150       __imp_GetACP               000000018008e150     kernel32:KERNEL32.dll
 0002:00000158       __imp_IsValidCodePage      000000018008e158     kernel32:KERNEL32.dll
 0002:00000160       __imp_FindNextFileW        000000018008e160     kernel32:KERNEL32.dll
 0002:00000168       __imp_FindFirstFileExW     000000018008e168     kernel32:KERNEL32.dll
 0002:00000170       __imp_FindClose            000000018008e170     kernel32:KERNEL32.dll
 0002:00000178       __imp_HeapAlloc            000000018008e178     kernel32:KERNEL32.dll
 0002:00000180       __imp_InitializeSListHead  000000018008e180     kernel32:KERNEL32.dll
 0002:00000188       __imp_QueryPerformanceCounter 000000018008e188     kernel32:KERNEL32.dll
 0002:00000190       __imp_GetCurrentProcessId  000000018008e190     kernel32:KERNEL32.dll
 0002:00000198       __imp_GetCurrentThreadId   000000018008e198     kernel32:KERNEL32.dll
 0002:000001a0       __imp_GetSystemTimeAsFileTime 000000018008e1a0     kernel32:KERNEL32.dll
 0002:000001a8       __imp_RtlCaptureContext    000000018008e1a8     kernel32:KERNEL32.dll
 0002:000001b0       __imp_RtlLookupFunctionEntry 000000018008e1b0     kernel32:KERNEL32.dll
 0002:000001b8       __imp_RtlVirtualUnwind     000000018008e1b8     kernel32:KERNEL32.dll
 0002:000001c0       __imp_IsDebuggerPresent    000000018008e1c0     kernel32:KERNEL32.dll
 0002:000001c8       __imp_UnhandledExceptionFilter 000000018008e1c8     kernel32:KERNEL32.dll
 0002:000001d0       __imp_SetUnhandledExceptionFilter 000000018008e1d0     kernel32:KERNEL32.dll
 0002:000001d8       __imp_GetStartupInfoW      000000018008e1d8     kernel32:KERNEL32.dll
 0002:000001e0       __imp_IsProcessorFeaturePresent 000000018008e1e0     kernel32:KERNEL32.dll
 0002:000001e8       __imp_GetModuleHandleW     000000018008e1e8     kernel32:KERNEL32.dll
 0002:000001f0       __imp_InterlockedPushEntrySList 000000018008e1f0     kernel32:KERNEL32.dll
 0002:000001f8       __imp_InterlockedFlushSList 000000018008e1f8     kernel32:KERNEL32.dll
 0002:00000200       __imp_RtlUnwindEx          000000018008e200     kernel32:KERNEL32.dll
 0002:00000208       __imp_GetLastError         000000018008e208     kernel32:KERNEL32.dll
 0002:00000210       __imp_SetLastError         000000018008e210     kernel32:KERNEL32.dll
 0002:00000218       __imp_EnterCriticalSection 000000018008e218     kernel32:KERNEL32.dll
 0002:00000220       __imp_LeaveCriticalSection 000000018008e220     kernel32:KERNEL32.dll
 0002:00000228       __imp_DeleteCriticalSection 000000018008e228     kernel32:KERNEL32.dll
 0002:00000230       __imp_InitializeCriticalSectionAndSpinCount 000000018008e230     kernel32:KERNEL32.dll
 0002:00000238       __imp_TlsAlloc             000000018008e238     kernel32:KERNEL32.dll
 0002:00000240       __imp_TlsGetValue          000000018008e240     kernel32:KERNEL32.dll
 0002:00000248       __imp_TlsSetValue          000000018008e248     kernel32:KERNEL32.dll
 0002:00000250       __imp_TlsFree              000000018008e250     kernel32:KERNEL32.dll
 0002:00000258       __imp_FreeLibrary          000000018008e258     kernel32:KERNEL32.dll
 0002:00000260       __imp_GetProcAddress       000000018008e260     kernel32:KERNEL32.dll
 0002:00000268       __imp_LoadLibraryExW       000000018008e268     kernel32:KERNEL32.dll
 0002:00000270       __imp_EncodePointer        000000018008e270     kernel32:KERNEL32.dll
 0002:00000278       __imp_RaiseException       000000018008e278     kernel32:KERNEL32.dll
 0002:00000280       __imp_RtlPcToFileHeader    000000018008e280     kernel32:KERNEL32.dll
 0002:00000288       __imp_GetCurrentProcess    000000018008e288     kernel32:KERNEL32.dll
 0002:00000290       __imp_ExitProcess          000000018008e290     kernel32:KERNEL32.dll
 0002:00000298       __imp_TerminateProcess     000000018008e298     kernel32:KERNEL32.dll
 0002:000002a0       __imp_GetModuleHandleExW   000000018008e2a0     kernel32:KERNEL32.dll
 0002:000002a8       __imp_GetModuleFileNameW   000000018008e2a8     kernel32:KERNEL32.dll
 0002:000002b0       __imp_HeapFree             000000018008e2b0     kernel32:KERNEL32.dll
 0002:000002b8       __imp_GetCurrentThread     000000018008e2b8     kernel32:KERNEL32.dll
 0002:000002c0       __imp_RtlUnwind            000000018008e2c0     kernel32:KERNEL32.dll
 0002:000002c8       \177KERNEL32_NULL_THUNK_DATA 000000018008e2c8     kernel32:KERNEL32.dll
 0002:000002d0       __imp_?writeWord@physx@@YAXG_NAEAVPxOutputStream@1@@Z 000000018008e2d0     PhysXCommon_64:PhysXCommon_64.dll
 0002:000002d8       __imp_?writeDword@physx@@YAXI_NAEAVPxOutputStream@1@@Z 000000018008e2d8     PhysXCommon_64:PhysXCommon_64.dll
 0002:000002e0       __imp_?writeFloat@physx@@YAXM_NAEAVPxOutputStream@1@@Z 000000018008e2e0     PhysXCommon_64:PhysXCommon_64.dll
 0002:000002e8       __imp_?writeHeader@physx@@YA_NCCCCI_NAEAVPxOutputStream@1@@Z 000000018008e2e8     PhysXCommon_64:PhysXCommon_64.dll
 0002:000002f0       __imp_??0SourceMesh@Gu@physx@@QEAA@XZ 000000018008e2f0     PhysXCommon_64:PhysXCommon_64.dll
 0002:000002f8       __imp_??1SourceMesh@Gu@physx@@QEAA@XZ 000000018008e2f8     PhysXCommon_64:PhysXCommon_64.dll
 0002:00000300       __imp_??0BV4Tree@Gu@physx@@QEAA@XZ 000000018008e300     PhysXCommon_64:PhysXCommon_64.dll
 0002:00000308       __imp_??1BV4Tree@Gu@physx@@QEAA@XZ 000000018008e308     PhysXCommon_64:PhysXCommon_64.dll
 0002:00000310       __imp_??0BV32Tree@Gu@physx@@QEAA@XZ 000000018008e310     PhysXCommon_64:PhysXCommon_64.dll
 0002:00000318       __imp_??1BV32Tree@Gu@physx@@QEAA@XZ 000000018008e318     PhysXCommon_64:PhysXCommon_64.dll
 0002:00000320       __imp_?writeFloatBuffer@physx@@YAXPEBMI_NAEAVPxOutputStream@1@@Z 000000018008e320     PhysXCommon_64:PhysXCommon_64.dll
 0002:00000328       __imp_??1HeightField@Gu@physx@@UEAA@XZ 000000018008e328     PhysXCommon_64:PhysXCommon_64.dll
 0002:00000330       __imp_?releaseMemory@HeightField@Gu@physx@@QEAAXXZ 000000018008e330     PhysXCommon_64:PhysXCommon_64.dll
 0002:00000338       __imp_?loadFromDesc@HeightField@Gu@physx@@QEAA_NAEBVPxHeightFieldDesc@3@@Z 000000018008e338     PhysXCommon_64:PhysXCommon_64.dll
 0002:00000340       __imp_??0HeightField@Gu@physx@@QEAA@PEAVGuMeshFactory@2@@Z 000000018008e340     PhysXCommon_64:PhysXCommon_64.dll
 0002:00000348       __imp_?ReadHeader@Gu@physx@@YA_NEEEEAEAIAEA_NAEAVPxInputStream@2@@Z 000000018008e348     PhysXCommon_64:PhysXCommon_64.dll
 0002:00000350       __imp_?readDword@physx@@YAI_NAEAVPxInputStream@1@@Z 000000018008e350     PhysXCommon_64:PhysXCommon_64.dll
 0002:00000358       __imp_??1BigConvexData@physx@@QEAA@XZ 000000018008e358     PhysXCommon_64:PhysXCommon_64.dll
 0002:00000360       __imp_??0BigConvexData@physx@@QEAA@XZ 000000018008e360     PhysXCommon_64:PhysXCommon_64.dll
 0002:00000368       __imp_?computeOBBPoints@Gu@physx@@YAXPEIAVPxVec3@2@AEBV32@1111@Z 000000018008e368     PhysXCommon_64:PhysXCommon_64.dll
 0002:00000370       __imp_?Sort@RadixSortBuffered@Cm@physx@@QEAAAEAV123@PEBIIW4RadixHint@23@@Z 000000018008e370     PhysXCommon_64:PhysXCommon_64.dll
 0002:00000378       __imp_??1RadixSortBuffered@Cm@physx@@UEAA@XZ 000000018008e378     PhysXCommon_64:PhysXCommon_64.dll
 0002:00000380       __imp_??0RadixSortBuffered@Cm@physx@@QEAA@XZ 000000018008e380     PhysXCommon_64:PhysXCommon_64.dll
 0002:00000388       __imp_?CreateOffsets@BigConvexData@physx@@IEAAXXZ 000000018008e388     PhysXCommon_64:PhysXCommon_64.dll
 0002:00000390       __imp_?StoreIndices@Gu@physx@@YAXGIPEBGAEAVPxOutputStream@2@_N@Z 000000018008e390     PhysXCommon_64:PhysXCommon_64.dll
 0002:00000398       __imp_?WriteHeader@Gu@physx@@YA_NEEEEI_NAEAVPxOutputStream@2@@Z 000000018008e398     PhysXCommon_64:PhysXCommon_64.dll
 0002:000003a0       __imp_?computeMaxIndex@physx@@YAGPEBGI@Z 000000018008e3a0     PhysXCommon_64:PhysXCommon_64.dll
 0002:000003a8       __imp_?BuildBV32Ex@Gu@physx@@YA_NAEAVBV32Tree@12@AEAVSourceMesh@12@MI@Z 000000018008e3a8     PhysXCommon_64:PhysXCommon_64.dll
 0002:000003b0       __imp_?BuildBV4Ex@Gu@physx@@YA_NAEAVBV4Tree@12@AEAVSourceMesh@12@MI@Z 000000018008e3b0     PhysXCommon_64:PhysXCommon_64.dll
 0002:000003b8       __imp_?computeBoundsAroundVertices@Gu@physx@@YAXAEAVPxBounds3@2@IPEIBVPxVec3@2@@Z 000000018008e3b8     PhysXCommon_64:PhysXCommon_64.dll
 0002:000003c0       __imp_?storeIndices@physx@@YAXIIPEBIAEAVPxOutputStream@1@_N@Z 000000018008e3c0     PhysXCommon_64:PhysXCommon_64.dll
 0002:000003c8       __imp_?computeMaxIndex@physx@@YAIPEBII@Z 000000018008e3c8     PhysXCommon_64:PhysXCommon_64.dll
 0002:000003d0       __imp_?writeWordBuffer@physx@@YAXPEBGI_NAEAVPxOutputStream@1@@Z 000000018008e3d0     PhysXCommon_64:PhysXCommon_64.dll
 0002:000003d8       \177PhysXCommon_64_NULL_THUNK_DATA 000000018008e3d8     PhysXCommon_64:PhysXCommon_64.dll
 0002:000003e0       __imp_PxGetFoundation      000000018008e3e0     PhysXFoundation_64:PhysXFoundation_64.dll
 0002:000003e8       __imp_?getAllocator@shdfnd@physx@@YAAEAVPxAllocatorCallback@2@XZ 000000018008e3e8     PhysXFoundation_64:PhysXFoundation_64.dll
 0002:000003f0       __imp_?allocate@TempAllocator@shdfnd@physx@@QEAAPEAX_KPEBDH@Z 000000018008e3f0     PhysXFoundation_64:PhysXFoundation_64.dll
 0002:000003f8       __imp_?deallocate@TempAllocator@shdfnd@physx@@QEAAXPEAX@Z 000000018008e3f8     PhysXFoundation_64:PhysXFoundation_64.dll
 0002:00000400       __imp_?getInstance@Foundation@shdfnd@physx@@SAAEAV123@XZ 000000018008e400     PhysXFoundation_64:PhysXFoundation_64.dll
 0002:00000408       __imp_?error@Foundation@shdfnd@physx@@QEAAXW4Enum@PxErrorCode@3@PEBDH1ZZ 000000018008e408     PhysXFoundation_64:PhysXFoundation_64.dll
 0002:00000410       __imp_?PxDiagonalize@physx@@YA?AVPxVec3@1@AEBVPxMat33@1@AEAVPxQuat@1@@Z 000000018008e410     PhysXFoundation_64:PhysXFoundation_64.dll
 0002:00000418       __imp_?incRefCount@Foundation@shdfnd@physx@@SAXXZ 000000018008e418     PhysXFoundation_64:PhysXFoundation_64.dll
 0002:00000420       __imp_?decRefCount@Foundation@shdfnd@physx@@SAXXZ 000000018008e420     PhysXFoundation_64:PhysXFoundation_64.dll
 0002:00000428       __imp_??0FPUGuard@shdfnd@physx@@QEAA@XZ 000000018008e428     PhysXFoundation_64:PhysXFoundation_64.dll
 0002:00000430       __imp_??1FPUGuard@shdfnd@physx@@QEAA@XZ 000000018008e430     PhysXFoundation_64:PhysXFoundation_64.dll
 0002:00000438       \177PhysXFoundation_64_NULL_THUNK_DATA 000000018008e438     PhysXFoundation_64:PhysXFoundation_64.dll
 0002:00000440       __guard_check_icall_fptr   000000018008e440     LIBCMT:guard_support.obj
 0002:00000448       __guard_xfg_check_icall_fptr 000000018008e448     LIBCMT:guard_support.obj
 0002:00000450       __guard_dispatch_icall_fptr 000000018008e450     LIBCMT:guard_support.obj
 0002:00000458       __guard_xfg_dispatch_icall_fptr 000000018008e458     LIBCMT:guard_support.obj
 0002:00000460       __guard_xfg_table_dispatch_icall_fptr 000000018008e460     LIBCMT:guard_support.obj
 0002:00000468       __castguard_check_failure_os_handled_fptr 000000018008e468     LIBCMT:guard_support.obj
 0002:00000470       __guard_memcpy_fptr        000000018008e470     libvcruntime:softmemtag.obj
 0002:00000478       __xc_a                     000000018008e478     LIBCMT:initializers.obj
 0002:00000600       __xc_z                     000000018008e600     LIBCMT:initializers.obj
 0002:00000608       __xi_a                     000000018008e608     LIBCMT:initializers.obj
 0002:00000610       __acrt_tran_fma3_initializer 000000018008e610     libucrt:fma3_initializer.obj
 0002:00000618       __acrt_multibyte_initializer 000000018008e618     libucrt:multibyte_initializer.obj
 0002:00000620       __acrt_stdio_initializer   000000018008e620     libucrt:stdio_initializer.obj
 0002:00000628       __xi_z                     000000018008e628     LIBCMT:initializers.obj
 0002:00000630       __xp_a                     000000018008e630     LIBCMT:initializers.obj
 0002:00000638       __acrt_locale_terminator   000000018008e638     libucrt:locale_initializer.obj
 0002:00000640       __dcrt_console_output_terminator 000000018008e640     libucrt:console_output_initializer.obj
 0002:00000648       __acrt_stdio_terminator    000000018008e648     libucrt:stdio_initializer.obj
 0002:00000650       __xp_z                     000000018008e650     LIBCMT:initializers.obj
 0002:00000658       __xt_a                     000000018008e658     LIBCMT:initializers.obj
 0002:00000660       __xt_z                     000000018008e660     LIBCMT:initializers.obj
 0002:00000670       ??_C@_0N@PENLEBPP@PxFoundation@ 000000018008e670     WindowsCookingDelayLoadHook.obj
 0002:00000680       ??_C@_05KOLFGEDA@DEBUG@    000000018008e680     WindowsCookingDelayLoadHook.obj
 0002:00000688       ??_C@_07KELMHNNG@CHECKED@  000000018008e688     WindowsCookingDelayLoadHook.obj
 0002:00000690       ??_C@_07EAJOOGMN@PROFILE@  000000018008e690     WindowsCookingDelayLoadHook.obj
 0002:00000698       ??_C@_0N@BBNMPFJK@PhysX3Common@ 000000018008e698     WindowsCookingDelayLoadHook.obj
 0002:000006a8       ??_C@_08DLKLOFHK@PxPvdSDK@ 000000018008e6a8     WindowsCookingDelayLoadHook.obj
 0002:000006c0       ?g_PXSinCoefficients0@aos@shdfnd@physx@@3UPX_VECTORF32@123@B 000000018008e6c0     RTreeCooking.obj
 0002:000006d0       ?g_PXSinCoefficients1@aos@shdfnd@physx@@3UPX_VECTORF32@123@B 000000018008e6d0     RTreeCooking.obj
 0002:000006e0       ?g_PXSinCoefficients2@aos@shdfnd@physx@@3UPX_VECTORF32@123@B 000000018008e6e0     RTreeCooking.obj
 0002:000006f0       ?g_PXCosCoefficients0@aos@shdfnd@physx@@3UPX_VECTORF32@123@B 000000018008e6f0     RTreeCooking.obj
 0002:00000700       ?g_PXCosCoefficients1@aos@shdfnd@physx@@3UPX_VECTORF32@123@B 000000018008e700     RTreeCooking.obj
 0002:00000710       ?g_PXCosCoefficients2@aos@shdfnd@physx@@3UPX_VECTORF32@123@B 000000018008e710     RTreeCooking.obj
 0002:00000720       ?g_PXTanCoefficients0@aos@shdfnd@physx@@3UPX_VECTORF32@123@B 000000018008e720     RTreeCooking.obj
 0002:00000730       ?g_PXTanCoefficients1@aos@shdfnd@physx@@3UPX_VECTORF32@123@B 000000018008e730     RTreeCooking.obj
 0002:00000740       ?g_PXTanCoefficients2@aos@shdfnd@physx@@3UPX_VECTORF32@123@B 000000018008e740     RTreeCooking.obj
 0002:00000750       ?g_PXASinCoefficients0@aos@shdfnd@physx@@3UPX_VECTORF32@123@B 000000018008e750     RTreeCooking.obj
 0002:00000760       ?g_PXASinCoefficients1@aos@shdfnd@physx@@3UPX_VECTORF32@123@B 000000018008e760     RTreeCooking.obj
 0002:00000770       ?g_PXASinCoefficients2@aos@shdfnd@physx@@3UPX_VECTORF32@123@B 000000018008e770     RTreeCooking.obj
 0002:00000780       ?g_PXATanCoefficients0@aos@shdfnd@physx@@3UPX_VECTORF32@123@B 000000018008e780     RTreeCooking.obj
 0002:00000790       ?g_PXATanCoefficients1@aos@shdfnd@physx@@3UPX_VECTORF32@123@B 000000018008e790     RTreeCooking.obj
 0002:000007a0       ?g_PXATanCoefficients2@aos@shdfnd@physx@@3UPX_VECTORF32@123@B 000000018008e7a0     RTreeCooking.obj
 0002:000007b0       ?g_PXSinEstCoefficients@aos@shdfnd@physx@@3UPX_VECTORF32@123@B 000000018008e7b0     RTreeCooking.obj
 0002:000007c0       ?g_PXCosEstCoefficients@aos@shdfnd@physx@@3UPX_VECTORF32@123@B 000000018008e7c0     RTreeCooking.obj
 0002:000007d0       ?g_PXTanEstCoefficients@aos@shdfnd@physx@@3UPX_VECTORF32@123@B 000000018008e7d0     RTreeCooking.obj
 0002:000007e0       ?g_PXATanEstCoefficients@aos@shdfnd@physx@@3UPX_VECTORF32@123@B 000000018008e7e0     RTreeCooking.obj
 0002:000007f0       ?g_PXASinEstCoefficients@aos@shdfnd@physx@@3UPX_VECTORF32@123@B 000000018008e7f0     RTreeCooking.obj
 0002:00000800       ?g_PXASinEstConstants@aos@shdfnd@physx@@3UPX_VECTORF32@123@B 000000018008e800     RTreeCooking.obj
 0002:00000810       ?g_PXPiConstants0@aos@shdfnd@physx@@3UPX_VECTORF32@123@B 000000018008e810     RTreeCooking.obj
 0002:00000820       ?g_PXReciprocalTwoPi@aos@shdfnd@physx@@3UPX_VECTORF32@123@B 000000018008e820     RTreeCooking.obj
 0002:00000830       ?g_PXTwoPi@aos@shdfnd@physx@@3UPX_VECTORF32@123@B 000000018008e830     RTreeCooking.obj
 0002:00000860       ?reductionFactors@SubSortQuick@physx@@2QBMB 000000018008e860     RTreeCooking.obj
 0002:00000870       ?stopAtTrisPerLeaf1@SubSortQuick@physx@@2QBIB 000000018008e870     RTreeCooking.obj
 0002:00000918       ??_C@_0BA@DLCJDKDM@NonTrackedAlloc@ 000000018008e918     RTreeCooking.obj
 0002:00000930       ??_C@_0FF@DAFOIOOA@C?3?2CatalystEngine?2libs?2PhysX?2Ph@ 000000018008e930     RTreeCooking.obj
 0002:00000990       ??_C@_0EH@PNGMPOGI@C?3?2CatalystEngine?2libs?2PhysX?2Px@ 000000018008e990     RTreeCooking.obj
 0002:000009d8       ??_C@_0BM@OIFKLHDN@?$DMallocation?5names?5disabled?$DO@ 000000018008e9d8     RTreeCooking.obj
 0002:00000a00       ??_C@_0EG@KKHABAMJ@C?3?2CatalystEngine?2libs?2PhysX?2Px@ 000000018008ea00     RTreeCooking.obj
 0002:00000a50       ??_C@_0EP@CNPCKKIH@C?3?2CatalystEngine?2libs?2PhysX?2Px@ 000000018008ea50     RTreeCooking.obj
 0002:00000aa0       __real@37800080            000000018008eaa0     RTreeCooking.obj
 0002:00000aa4       __real@41100000            000000018008eaa4     RTreeCooking.obj
 0002:00000aa8       __real@41700000            000000018008eaa8     RTreeCooking.obj
 0002:00000aac       __real@42200000            000000018008eaac     RTreeCooking.obj
 0002:00000ab0       __real@7f7fffff            000000018008eab0     RTreeCooking.obj
