 PhysX3CookingDEBUG_x64

 Timestamp is 62e81551 (Mon Aug  1 14:02:57 2022)

 Preferred load address is 0000000180000000

 Start         Length     Name                   Class
 0001:00000000 0000d470H .text$di                CODE
 0001:0000d470 00146aa0H .text$mn                CODE
 0001:00153f10 00001040H .text$mn$00             CODE
 0001:00154f50 0000227bH .text$x                 CODE
 0002:00000000 00000110H .CRT$XCA                DATA
 0002:00000110 00000320H .CRT$XCU                DATA
 0002:00000430 00000110H .CRT$XCZ                DATA
 0002:00000540 00000110H .CRT$XIA                DATA
 0002:00000650 00000130H .CRT$XIC                DATA
 0002:00000780 00000110H .CRT$XIZ                DATA
 0002:00000890 00000110H .CRT$XPA                DATA
 0002:000009a0 00000120H .CRT$XPX                DATA
 0002:00000ac0 00000110H .CRT$XPXA               DATA
 0002:00000bd0 00000110H .CRT$XPZ                DATA
 0002:00000ce0 00000110H .CRT$XTA                DATA
 0002:00000df0 00000110H .CRT$XTZ                DATA
 0002:00000f00 0002e580H .rdata                  DATA
 0002:0002f480 00000200H .rdata$CastGuardVftablesA DATA
 0002:0002f680 000001a0H .rdata$CastGuardVftablesC DATA
 0002:0002f820 0000060cH .rdata$r                DATA
 0002:0002fe2c 00000194H .rdata$zzzdbg           DATA
 0002:0002ffc0 00000110H .rtc$IAA                DATA
 0002:000300d0 00000250H .rtc$IMZ                DATA
 0002:00030320 00000110H .rtc$IZZ                DATA
 0002:00030430 00000110H .rtc$TAA                DATA
 0002:00030540 00000250H .rtc$TMZ                DATA
 0002:00030790 00000110H .rtc$TZZ                DATA
 0002:000308a0 0000a498H .xdata                  DATA
 0002:0003ad38 00000198H .xdata$x                DATA
 0002:0003aed0 000001a0H .edata                  DATA
 0003:00000000 00000e88H .data                   DATA
 0003:00000e88 000005d0H .data$r                 DATA
 0003:00001458 00000228H .data$rs                DATA
 0003:00001680 000026b1H .bss                    DATA
 0004:00000000 0000c924H .pdata                  DATA
 0005:00000000 00000658H .idata$5                DATA
 0005:00000658 0000003cH .idata$2                DATA
 0005:00000694 00000014H .idata$3                DATA
 0005:000006a8 00000658H .idata$4                DATA
 0005:00000d00 000012f3H .idata$6                DATA
 0006:00000000 00000020H .didat$2                DATA
 0006:00000020 00000020H .didat$3                DATA
 0006:00000040 00000088H .didat$4                DATA
 0006:000000c8 00000088H .didat$5                DATA
 0006:00000150 00000218H .didat$6                DATA
 0006:00000368 00000134H .didat$7                DATA
 0007:00000000 00000175H .00cfg                  DATA
 0008:00000000 0000029fH _RDATA                  DATA
 0009:00000000 000001c0H .rsrc$01                DATA
 0009:000001c0 000006a9H .rsrc$02                DATA

  Address         Publics by Value              Rva+Base               Lib:Object

 0000:00000000       __AbsoluteZero             0000000000000000     <absolute>
 0000:00000000       ___safe_se_handler_count   0000000000000000     <absolute>
 0000:00000000       ___safe_se_handler_table   0000000000000000     <absolute>
 0000:00000000       __arm64x_extra_rfe_table   0000000000000000     <absolute>
 0000:00000000       __arm64x_extra_rfe_table_size 0000000000000000     <absolute>
 0000:00000000       __arm64x_native_entrypoint 0000000000000000     <absolute>
 0000:00000000       __arm64x_redirection_metadata 0000000000000000     <absolute>
 0000:00000000       __arm64x_redirection_metadata_count 0000000000000000     <absolute>
 0000:00000000       __dynamic_value_reloc_table 0000000000000000     <absolute>
 0000:00000000       __enclave_config           0000000000000000     <absolute>
 0000:00000000       __guard_check_icall_a64n_fptr 0000000000000000     <absolute>
 0000:00000000       __guard_eh_cont_count      0000000000000000     <absolute>
 0000:00000000       __guard_eh_cont_table      0000000000000000     <absolute>
 0000:00000000       __guard_fids_count         0000000000000000     <absolute>
 0000:00000000       __guard_fids_table         0000000000000000     <absolute>
 0000:00000000       __guard_iat_count          0000000000000000     <absolute>
 0000:00000000       __guard_iat_table          0000000000000000     <absolute>
 0000:00000000       __guard_longjmp_count      0000000000000000     <absolute>
 0000:00000000       __guard_longjmp_table      0000000000000000     <absolute>
 0000:00000000       __hybrid_auxiliary_iat     0000000000000000     <absolute>
 0000:00000000       __hybrid_auxiliary_iat_copy 0000000000000000     <absolute>
 0000:00000000       __hybrid_code_map          0000000000000000     <absolute>
 0000:00000000       __hybrid_code_map_count    0000000000000000     <absolute>
 0000:00000000       __volatile_metadata        0000000000000000     <absolute>
 0000:00000000       __x64_code_ranges_to_entry_points 0000000000000000     <absolute>
 0000:00000000       __x64_code_ranges_to_entry_points_count 0000000000000000     <absolute>
 0000:00000100       __guard_flags              0000000000000100     <absolute>
 0000:00000000       __ImageBase                0000000180000000     <linker-defined>
 0001:0000d470       PxSetPhysXCookingDelayLoadHook 000000018000e470 f   WindowsCookingDelayLoadHook.obj
 0001:0000d490       ?delayHook@@YAP6A_JXZIPEAUDelayLoadInfo@@@Z 000000018000e490 f   WindowsCookingDelayLoadHook.obj
 0001:0000d540       ?foundationDliNotePreLoadLibrary@shdfnd@physx@@YAP6A_JXZPEBDPEBVPxFoundationDelayLoadHook@2@@Z 000000018000e540 f i WindowsCookingDelayLoadHook.obj
 0001:0000d680       ?loadLibrary@Cm@physx@@YAPEAUHINSTANCE__@@PEBD@Z 000000018000e680 f i WindowsCookingDelayLoadHook.obj
 0001:0000d6a0       ?physXCommonDliNotePreLoadLibrary@Cm@physx@@YAP6A_JXZPEBDPEBVPxDelayLoadHook@2@@Z 000000018000e6a0 f i WindowsCookingDelayLoadHook.obj
 0001:0000d910       ?saveHeightField@physx@@YA_NAEBVHeightField@Gu@1@AEAVPxOutputStream@1@_N@Z 000000018000e910 f   HeightFieldCooking.obj
 0001:0000ddd0       ??APxVec3@physx@@QEBAAEBMI@Z 000000018000edd0 f i HeightFieldCooking.obj
 0001:0000de60       ??B?$PxFlags@W4Enum@PxHeightFieldFlag@physx@@G@physx@@QEBAGXZ 000000018000ee60 f i HeightFieldCooking.obj
 0001:0000de80       ?__empty_global_delete@@YAXPEAX@Z 000000018000ee80 f i HeightFieldCooking.obj
 0001:0000de90       ?__empty_global_delete@@YAXPEAX_K@Z 000000018000ee90 f i HeightFieldCooking.obj
 0001:0000de90       ?__global_array_delete@@YAXPEAX_K@Z 000000018000ee90 f i HeightFieldCooking.obj
 0001:0000de90       ?__global_delete@@YAXPEAX_K@Z 000000018000ee90 f i HeightFieldCooking.obj
 0001:0000dea0       ?getData@HeightField@Gu@physx@@QEBAAEBUHeightFieldData@23@XZ 000000018000eea0 f i HeightFieldCooking.obj
 0001:0000dec0       ?getMax@CenterExtents@Gu@physx@@QEBAMI@Z 000000018000eec0 f i HeightFieldCooking.obj
 0001:0000df20       ?getMin@CenterExtents@Gu@physx@@QEBAMI@Z 000000018000ef20 f i HeightFieldCooking.obj
 0001:0000df80       ?buildFromTriangles@RTreeCooker@physx@@SAXAEAURTree@Gu@2@PEBVPxVec3@2@IPEBGPEBIIAEAV?$Array@IVNamedAllocator@shdfnd@physx@@@shdfnd@2@PEAURemapCallback@12@MW4Enum@PxMeshCookingHint@2@@Z 000000018000ef80 f   RTreeCooking.obj
 0001:0000fde0       ??$PX_UNUSED@I@@YAXAEBI@Z  0000000180010de0 f i RTreeCooking.obj
 0001:0000fdf0       ??$PX_UNUSED@M@@YAXAEBM@Z  0000000180010df0 f i RTreeCooking.obj
 0001:0000fe00       ??$PX_UNUSED@PEAURTreeNodeNQ@physx@@@@YAXAEBQEAURTreeNodeNQ@physx@@@Z 0000000180010e00 f i RTreeCooking.obj
 0001:0000fe10       ??$PX_UNUSED@URTreeNodeNQ@physx@@@@YAXAEBURTreeNodeNQ@physx@@@Z 0000000180010e10 f i RTreeCooking.obj
 0001:0000fe20       ??$PxMax@H@physx@@YAHHH@Z  0000000180010e20 f i RTreeCooking.obj
 0001:0000fe60       ??$PxMax@I@physx@@YAIII@Z  0000000180010e60 f i RTreeCooking.obj
 0001:0000fea0       ??$PxMax@M@physx@@YAMMM@Z  0000000180010ea0 f i RTreeCooking.obj
 0001:0000fed0       ??$PxMin@I@physx@@YAIII@Z  0000000180010ed0 f i RTreeCooking.obj
 0001:0000ff10       ??$PxMin@M@physx@@YAMMM@Z  0000000180010f10 f i RTreeCooking.obj
 0001:0000ff40       ??$median3@I$$CBU?$Less@I@shdfnd@physx@@@internal@shdfnd@physx@@YAXPEAIHHAEBU?$Less@I@12@@Z 0000000180010f40 f i RTreeCooking.obj
 0001:00010100       ??$median3@I$$CBUSortBoundsPredicate@physx@@@internal@shdfnd@physx@@YAXPEAIHHAEBUSortBoundsPredicate@2@@Z 0000000180011100 f i RTreeCooking.obj
 0001:000102c0       ??$partition@I$$CBU?$Less@I@shdfnd@physx@@@internal@shdfnd@physx@@YAHPEAIHHAEBU?$Less@I@12@@Z 00000001800112c0 f i RTreeCooking.obj
 0001:00010530       ??$partition@I$$CBUSortBoundsPredicate@physx@@@internal@shdfnd@physx@@YAHPEAIHHAEBUSortBoundsPredicate@2@@Z 0000000180011530 f i RTreeCooking.obj
 0001:000107a0       ??$partition@UBoundsLTE@physx@@@quickSelect@physx@@YAIPEIAIIIIAEBUBoundsLTE@1@@Z 00000001800117a0 f i RTreeCooking.obj
 0001:00010bc0       ??$quickSelectFirstK@UBoundsLTE@physx@@@quickSelect@physx@@YAXPEIAIIIIAEBUBoundsLTE@1@@Z 0000000180011bc0 f i RTreeCooking.obj
 0001:00010d70       ??$smallSort@I$$CBU?$Less@I@shdfnd@physx@@@internal@shdfnd@physx@@YAXPEAIHHAEBU?$Less@I@12@@Z 0000000180011d70 f i RTreeCooking.obj
 0001:00010e80       ??$smallSort@I$$CBUSortBoundsPredicate@physx@@@internal@shdfnd@physx@@YAXPEAIHHAEBUSortBoundsPredicate@2@@Z 0000000180011e80 f i RTreeCooking.obj
 0001:00010f90       ??$sort@I@shdfnd@physx@@YAXPEAII@Z 0000000180011f90 f i RTreeCooking.obj
 0001:00010ff0       ??$sort@IU?$Less@I@shdfnd@physx@@VNamedAllocator@23@@shdfnd@physx@@YAXPEAIIAEBU?$Less@I@01@AEBVNamedAllocator@01@I@Z 0000000180011ff0 f i RTreeCooking.obj
 0001:000113a0       ??$sort@IUSortBoundsPredicate@physx@@@shdfnd@physx@@YAXPEAIIAEBUSortBoundsPredicate@1@@Z 00000001800123a0 f i RTreeCooking.obj
 0001:00011400       ??$sort@IUSortBoundsPredicate@physx@@VNamedAllocator@shdfnd@2@@shdfnd@physx@@YAXPEAIIAEBUSortBoundsPredicate@1@AEBVNamedAllocator@01@I@Z 0000000180012400 f i RTreeCooking.obj
 0001:000117b0       ??$swap@I@shdfnd@physx@@YAXAEAI0@Z 00000001800127b0 f i RTreeCooking.obj
 0001:00011800       ??0?$AlignedAllocator@$0IA@VNonTrackingAllocator@shdfnd@physx@@@shdfnd@physx@@QEAA@AEBVNonTrackingAllocator@12@@Z 0000000180012800 f i RTreeCooking.obj
 0001:00011820       ??0?$Array@IVNamedAllocator@shdfnd@physx@@@shdfnd@physx@@QEAA@IAEBIAEBVNamedAllocator@12@@Z 0000000180012820 f i RTreeCooking.obj
 0001:000118b0       ??0?$Array@UInterval@physx@@V?$InlineAllocator@$0CAAA@VNamedAllocator@shdfnd@physx@@@shdfnd@2@@shdfnd@physx@@QEAA@AEBV?$InlineAllocator@$0CAAA@VNamedAllocator@shdfnd@physx@@@12@@Z 00000001800128b0 f i RTreeCooking.obj
 0001:00011920       ??0?$Array@UPxBounds3V@physx@@VNamedAllocator@shdfnd@2@@shdfnd@physx@@QEAA@AEBVNamedAllocator@12@@Z 0000000180012920 f i RTreeCooking.obj
 0001:00011980       ??0?$Array@URTreeNodeNQ@physx@@VNamedAllocator@shdfnd@2@@shdfnd@physx@@QEAA@AEBVNamedAllocator@12@@Z 0000000180012980 f i RTreeCooking.obj
 0001:000119e0       ??0?$Array@URTreeNodeQ@Gu@physx@@VNamedAllocator@shdfnd@3@@shdfnd@physx@@QEAA@AEBVNamedAllocator@12@@Z 00000001800129e0 f i RTreeCooking.obj
 0001:00011a40       ??0?$Array@VPxVec3@physx@@VNamedAllocator@shdfnd@2@@shdfnd@physx@@QEAA@AEBVNamedAllocator@12@@Z 0000000180012a40 f i RTreeCooking.obj
 0001:00011aa0       ??0?$InlineAllocator@$0CAAA@VNamedAllocator@shdfnd@physx@@@shdfnd@physx@@QEAA@AEBV012@@Z 0000000180012aa0 f i RTreeCooking.obj
 0001:00011af0       ??0?$InlineAllocator@$0CAAA@VNamedAllocator@shdfnd@physx@@@shdfnd@physx@@QEAA@AEBVNamedAllocator@12@@Z 0000000180012af0 f i RTreeCooking.obj
 0001:00011b40       ??0?$InlineArray@UInterval@physx@@$0EAA@VNamedAllocator@shdfnd@2@@shdfnd@physx@@QEAA@AEBVNamedAllocator@12@@Z 0000000180012b40 f i RTreeCooking.obj
 0001:00011bf0       ??0?$ScopedPointer@HVTempAllocator@shdfnd@physx@@@shdfnd@physx@@QEAA@XZ 0000000180012bf0 f i RTreeCooking.obj
 0001:00011c20       ??0?$Stack@VNamedAllocator@shdfnd@physx@@@internal@shdfnd@physx@@QEAA@PEAHIAEBVNamedAllocator@23@@Z 0000000180012c20 f i RTreeCooking.obj
 0001:00011ca0       ??0BoundsLTE@physx@@QEAA@IPEBVPxVec3@1@@Z 0000000180012ca0 f i RTreeCooking.obj
 0001:00011ce0       ??0Interval@physx@@QEAA@II@Z 0000000180012ce0 f i RTreeCooking.obj
 0001:00011d20       ??0NonTrackingAllocator@shdfnd@physx@@QEAA@PEBD@Z 0000000180012d20 f i RTreeCooking.obj
 0001:00011d40       ??0PxBounds3@physx@@QEAA@AEBV01@@Z 0000000180012d40 f i RTreeCooking.obj
 0001:00011da0       ??0PxBounds3@physx@@QEAA@AEBVPxVec3@1@0@Z 0000000180012da0 f i RTreeCooking.obj
 0001:00011e00       ??0PxBounds3V@physx@@QEAA@AEAT__m128@@0@Z 0000000180012e00 f i RTreeCooking.obj
 0001:00011e50       ??0PxBounds3V@physx@@QEAA@UU@01@@Z 0000000180012e50 f i RTreeCooking.obj
 0001:00011e70       ??0PxVec3@physx@@QEAA@AEBV01@@Z 0000000180012e70 f i RTreeCooking.obj
 0001:00011ed0       ??0PxVec3@physx@@QEAA@M@Z  0000000180012ed0 f i RTreeCooking.obj
 0001:00011f20       ??0PxVec3@physx@@QEAA@MMM@Z 0000000180012f20 f i RTreeCooking.obj
 0001:00011f80       ??0PxVec3@physx@@QEAA@XZ   0000000180012f80 f i RTreeCooking.obj
 0001:00011f90       ??0PxVec4@physx@@QEAA@AEBVPxVec3@1@M@Z 0000000180012f90 f i RTreeCooking.obj
 0001:00012010       ??0PxVec4@physx@@QEAA@M@Z  0000000180013010 f i RTreeCooking.obj
 0001:00012080       ??0PxVec4@physx@@QEAA@MMMM@Z 0000000180013080 f i RTreeCooking.obj
 0001:00012100       ??0RTreeNodeNQ@physx@@QEAA@AEBU01@@Z 0000000180013100 f i RTreeCooking.obj
 0001:00012160       ??0RTreeNodeNQ@physx@@QEAA@XZ 0000000180013160 f i RTreeCooking.obj
 0001:000121b0       ??0SortBoundsPredicate@physx@@QEAA@IPEBUPxBounds3V@1@@Z 00000001800131b0 f i RTreeCooking.obj
 0001:000121f0       ??0SubSortQuick@physx@@QEAA@PEAIPEBUPxBounds3V@1@IM@Z 00000001800131f0 f i RTreeCooking.obj
 0001:000123c0       ??0SubSortSAH@physx@@QEAA@PEAIPEBUPxBounds3V@1@IPEBI22222M@Z 00000001800133c0 f i RTreeCooking.obj
 0001:00012680       ??0TempAllocator@shdfnd@physx@@QEAA@PEBD@Z 0000000180013680 f i RTreeCooking.obj
 0001:000126a0       ??1?$Array@IVNamedAllocator@shdfnd@physx@@@shdfnd@physx@@QEAA@XZ 00000001800136a0 f i RTreeCooking.obj
 0001:00012730       ??1?$Array@UInterval@physx@@V?$InlineAllocator@$0CAAA@VNamedAllocator@shdfnd@physx@@@shdfnd@2@@shdfnd@physx@@QEAA@XZ 0000000180013730 f i RTreeCooking.obj
 0001:000127d0       ??1?$Array@UPxBounds3V@physx@@VNamedAllocator@shdfnd@2@@shdfnd@physx@@QEAA@XZ 00000001800137d0 f i RTreeCooking.obj
 0001:00012860       ??1?$Array@URTreeNodeNQ@physx@@VNamedAllocator@shdfnd@2@@shdfnd@physx@@QEAA@XZ 0000000180013860 f i RTreeCooking.obj
 0001:000128f0       ??1?$Array@URTreeNodeQ@Gu@physx@@VNamedAllocator@shdfnd@3@@shdfnd@physx@@QEAA@XZ 00000001800138f0 f i RTreeCooking.obj
 0001:00012980       ??1?$Array@VPxVec3@physx@@VNamedAllocator@shdfnd@2@@shdfnd@physx@@QEAA@XZ 0000000180013980 f i RTreeCooking.obj
 0001:00012a10       ??1?$InlineAllocator@$0CAAA@VNamedAllocator@shdfnd@physx@@@shdfnd@physx@@QEAA@XZ 0000000180013a10 f i RTreeCooking.obj
 0001:00012a30       ??1?$InlineArray@UInterval@physx@@$0EAA@VNamedAllocator@shdfnd@2@@shdfnd@physx@@QEAA@XZ 0000000180013a30 f i RTreeCooking.obj
 0001:00012a50       ??1?$ScopedPointer@HVTempAllocator@shdfnd@physx@@@shdfnd@physx@@QEAA@XZ 0000000180013a50 f i RTreeCooking.obj
 0001:00012a90       ??1?$Stack@VNamedAllocator@shdfnd@physx@@@internal@shdfnd@physx@@QEAA@XZ 0000000180013a90 f i RTreeCooking.obj
 0001:00012ae0       ??1SubSortQuick@physx@@QEAA@XZ 0000000180013ae0 f i RTreeCooking.obj
 0001:00012b10       ??1SubSortSAH@physx@@QEAA@XZ 0000000180013b10 f i RTreeCooking.obj
 0001:00012c00       ??2@YAPEAX_KPEAX@Z         0000000180013c00 f i RTreeCooking.obj
 0001:00012c20       ??4PxVec3@physx@@QEAAAEAV01@AEBV01@@Z 0000000180013c20 f i RTreeCooking.obj
 0001:00012c80       ??4PxVec4@physx@@QEAAAEAV01@AEBV01@@Z 0000000180013c80 f i RTreeCooking.obj
 0001:00012d00       ??A?$Array@IVNamedAllocator@shdfnd@physx@@@shdfnd@physx@@QEAAAEAII@Z 0000000180013d00 f i RTreeCooking.obj
 0001:00012da0       ??A?$Array@UInterval@physx@@V?$InlineAllocator@$0CAAA@VNamedAllocator@shdfnd@physx@@@shdfnd@2@@shdfnd@physx@@QEAAAEAUInterval@2@I@Z 0000000180013da0 f i RTreeCooking.obj
 0001:00012e40       ??A?$Array@URTreeNodeNQ@physx@@VNamedAllocator@shdfnd@2@@shdfnd@physx@@QEAAAEAURTreeNodeNQ@2@I@Z 0000000180013e40 f i RTreeCooking.obj
 0001:00012ee0       ??A?$Array@URTreeNodeQ@Gu@physx@@VNamedAllocator@shdfnd@3@@shdfnd@physx@@QEAAAEAURTreeNodeQ@Gu@2@I@Z 0000000180013ee0 f i RTreeCooking.obj
 0001:00012f80       ??B?$ScopedPointer@HVTempAllocator@shdfnd@physx@@@shdfnd@physx@@QEBAPEAHXZ 0000000180013f80 f i RTreeCooking.obj
 0001:00012fa0       ??GPxVec4@physx@@QEBA?AV01@AEBV01@@Z 0000000180013fa0 f i RTreeCooking.obj
 0001:00013050       ??HPxVec3@physx@@QEBA?AV01@AEBV01@@Z 0000000180014050 f i RTreeCooking.obj
 0001:000130f0       ??KPxVec4@physx@@QEBA?AV01@M@Z 00000001800140f0 f i RTreeCooking.obj
 0001:000131b0       ??R?$Less@I@shdfnd@physx@@QEBA_NAEBI0@Z 00000001800141b0 f i RTreeCooking.obj
 0001:00013200       ??RBoundsLTE@physx@@QEBA_NAEBI0@Z 0000000180014200 f i RTreeCooking.obj
 0001:000132c0       ??RSortBoundsPredicate@physx@@QEBA_NAEBI0@Z 00000001800142c0 f i RTreeCooking.obj
 0001:00013440       ??_H@YAXPEAX_K1P6APEAX0@Z@Z 0000000180014440 f i RTreeCooking.obj
 0001:000134e0       ?FLoad@aos@shdfnd@physx@@YA?AT__m128@@M@Z 00000001800144e0 f i RTreeCooking.obj
 0001:00013510       ?FMax@aos@shdfnd@physx@@YA?AT__m128@@XZ 0000000180014510 f i RTreeCooking.obj
 0001:00013540       ?FNegMax@aos@shdfnd@physx@@YA?AT__m128@@XZ 0000000180014540 f i RTreeCooking.obj
 0001:00013570       ?FStore@aos@shdfnd@physx@@YAXT__m128@@PEIAM@Z 0000000180014570 f i RTreeCooking.obj
 0001:00013620       ?PxAbs@physx@@YAHH@Z       0000000180014620 f i RTreeCooking.obj
 0001:00013640       ?PxAbs@physx@@YAMM@Z       0000000180014640 f i RTreeCooking.obj
 0001:00013660       ?PxIsFinite@physx@@YA_NM@Z 0000000180014660 f i RTreeCooking.obj
 0001:00013680       ?PxMemCopy@physx@@YAPEAXPEAXPEBXI@Z 0000000180014680 f i RTreeCooking.obj
 0001:000136c0       ?V3Add@aos@shdfnd@physx@@YA?AT__m128@@T4@0@Z 00000001800146c0 f i RTreeCooking.obj
 0001:00013810       ?V3Dot@aos@shdfnd@physx@@YA?AT__m128@@T4@0@Z 0000000180014810 f i RTreeCooking.obj
 0001:00013a20       ?V3Load@aos@shdfnd@physx@@YA?AT__m128@@M@Z 0000000180014a20 f i RTreeCooking.obj
 0001:00013a70       ?V3LoadU@aos@shdfnd@physx@@YA?AT__m128@@AEBVPxVec3@3@@Z 0000000180014a70 f i RTreeCooking.obj
 0001:00013ad0       ?V3Max@aos@shdfnd@physx@@YA?AT__m128@@T4@0@Z 0000000180014ad0 f i RTreeCooking.obj
 0001:00013c20       ?V3Min@aos@shdfnd@physx@@YA?AT__m128@@T4@0@Z 0000000180014c20 f i RTreeCooking.obj
 0001:00013d70       ?V3PermZXY@aos@shdfnd@physx@@YA?AT__m128@@T4@@Z 0000000180014d70 f i RTreeCooking.obj
 0001:00013e30       ?V3ReadXYZ@aos@shdfnd@physx@@YAAEBVPxVec3@3@AEBT__m128@@@Z 0000000180014e30 f i RTreeCooking.obj
 0001:00013e40       ?V3Splat@aos@shdfnd@physx@@YA?AT__m128@@T4@@Z 0000000180014e40 f i RTreeCooking.obj
 0001:00013f50       ?V3StoreA@aos@shdfnd@physx@@YAXT__m128@@AEAVPxVec3@3@@Z 0000000180014f50 f i RTreeCooking.obj
 0001:00014040       ?V3StoreU@aos@shdfnd@physx@@YAXT__m128@@AEAVPxVec3@3@@Z 0000000180015040 f i RTreeCooking.obj
 0001:000140c0       ?V3Sub@aos@shdfnd@physx@@YA?AT__m128@@T4@0@Z 00000001800150c0 f i RTreeCooking.obj
 0001:00014210       ?V3Zero@aos@shdfnd@physx@@YA?AT__m128@@XZ 0000000180015210 f i RTreeCooking.obj
 0001:00014230       ?V4ClearW@aos@shdfnd@physx@@YA?AT__m128@@T4@@Z 0000000180015230 f i RTreeCooking.obj
 0001:00014260       ?V4Load@aos@shdfnd@physx@@YA?AT__m128@@M@Z 0000000180015260 f i RTreeCooking.obj
 0001:00014290       ?V4ReadW@aos@shdfnd@physx@@YAMAEBT__m128@@@Z 0000000180015290 f i RTreeCooking.obj
 0001:000142b0       ?V4ReadX@aos@shdfnd@physx@@YAMAEBT__m128@@@Z 00000001800152b0 f i RTreeCooking.obj
 0001:000142d0       ?V4ReadY@aos@shdfnd@physx@@YAMAEBT__m128@@@Z 00000001800152d0 f i RTreeCooking.obj
 0001:000142f0       ?V4ReadZ@aos@shdfnd@physx@@YAMAEBT__m128@@@Z 00000001800152f0 f i RTreeCooking.obj
 0001:00014310       ?V4StoreA@aos@shdfnd@physx@@YAXT__m128@@PEAM@Z 0000000180015310 f i RTreeCooking.obj
 0001:000143b0       ?Vec3V_From_FloatV@aos@shdfnd@physx@@YA?AT__m128@@T4@@Z 00000001800153b0 f i RTreeCooking.obj
 0001:00014410       ?Vec3V_From_Vec4V@aos@shdfnd@physx@@YA?AT__m128@@T4@@Z 0000000180015410 f i RTreeCooking.obj
 0001:00014450       ?Vec4V_From_FloatV@aos@shdfnd@physx@@YA?AT__m128@@T4@@Z 0000000180015450 f i RTreeCooking.obj
 0001:00014470       ?abs@intrinsics@physx@@YAMM@Z 0000000180015470 f i RTreeCooking.obj
 0001:00014490       ?allocate@?$AlignedAllocator@$0IA@VNonTrackingAllocator@shdfnd@physx@@@shdfnd@physx@@QEAAPEAX_KPEBDH@Z 0000000180015490 f i RTreeCooking.obj
 0001:00014560       ?allocate@?$Array@IVNamedAllocator@shdfnd@physx@@@shdfnd@physx@@IEAAPEAII@Z 0000000180015560 f i RTreeCooking.obj
 0001:00014610       ?allocate@?$Array@UInterval@physx@@V?$InlineAllocator@$0CAAA@VNamedAllocator@shdfnd@physx@@@shdfnd@2@@shdfnd@physx@@IEAAPEAUInterval@3@I@Z 0000000180015610 f i RTreeCooking.obj
 0001:000146c0       ?allocate@?$Array@UPxBounds3V@physx@@VNamedAllocator@shdfnd@2@@shdfnd@physx@@IEAAPEAUPxBounds3V@3@I@Z 00000001800156c0 f i RTreeCooking.obj
 0001:00014770       ?allocate@?$Array@URTreeNodeNQ@physx@@VNamedAllocator@shdfnd@2@@shdfnd@physx@@IEAAPEAURTreeNodeNQ@3@I@Z 0000000180015770 f i RTreeCooking.obj
 0001:00014820       ?allocate@?$Array@URTreeNodeQ@Gu@physx@@VNamedAllocator@shdfnd@3@@shdfnd@physx@@IEAAPEAURTreeNodeQ@Gu@3@I@Z 0000000180015820 f i RTreeCooking.obj
 0001:000148d0       ?allocate@?$Array@VPxVec3@physx@@VNamedAllocator@shdfnd@2@@shdfnd@physx@@IEAAPEAVPxVec3@3@I@Z 00000001800158d0 f i RTreeCooking.obj
 0001:00014980       ?allocate@?$InlineAllocator@$0CAAA@VNamedAllocator@shdfnd@physx@@@shdfnd@physx@@QEAAPEAXIPEBDH@Z 0000000180015980 f i RTreeCooking.obj
 0001:00014a00       ?allocate@NonTrackingAllocator@shdfnd@physx@@QEAAPEAX_KPEBDH@Z 0000000180015a00 f i RTreeCooking.obj
 0001:00014a90       ?begin@?$Array@IVNamedAllocator@shdfnd@physx@@@shdfnd@physx@@QEAAPEAIXZ 0000000180015a90 f i RTreeCooking.obj
 0001:00014ab0       ?begin@?$Array@UPxBounds3V@physx@@VNamedAllocator@shdfnd@2@@shdfnd@physx@@QEAAPEAUPxBounds3V@3@XZ 0000000180015ab0 f i RTreeCooking.obj
 0001:00014ad0       ?begin@?$Array@VPxVec3@physx@@VNamedAllocator@shdfnd@2@@shdfnd@physx@@QEAAPEAVPxVec3@3@XZ 0000000180015ad0 f i RTreeCooking.obj
 0001:00014af0       ?capacity@?$Array@IVNamedAllocator@shdfnd@physx@@@shdfnd@physx@@QEBAIXZ 0000000180015af0 f i RTreeCooking.obj
 0001:00014b10       ?capacity@?$Array@UInterval@physx@@V?$InlineAllocator@$0CAAA@VNamedAllocator@shdfnd@physx@@@shdfnd@2@@shdfnd@physx@@QEBAIXZ 0000000180015b10 f i RTreeCooking.obj
 0001:00014b30       ?capacity@?$Array@UPxBounds3V@physx@@VNamedAllocator@shdfnd@2@@shdfnd@physx@@QEBAIXZ 0000000180015b30 f i RTreeCooking.obj
 0001:00014b50       ?capacity@?$Array@URTreeNodeNQ@physx@@VNamedAllocator@shdfnd@2@@shdfnd@physx@@QEBAIXZ 0000000180015b50 f i RTreeCooking.obj
 0001:00014b70       ?capacity@?$Array@URTreeNodeQ@Gu@physx@@VNamedAllocator@shdfnd@3@@shdfnd@physx@@QEBAIXZ 0000000180015b70 f i RTreeCooking.obj
 0001:00014b90       ?capacity@?$Array@VPxVec3@physx@@VNamedAllocator@shdfnd@2@@shdfnd@physx@@QEBAIXZ 0000000180015b90 f i RTreeCooking.obj
 0001:00014bb0       ?capacityIncrement@?$Array@IVNamedAllocator@shdfnd@physx@@@shdfnd@physx@@IEBAIXZ 0000000180015bb0 f i RTreeCooking.obj
 0001:00014c00       ?capacityIncrement@?$Array@UInterval@physx@@V?$InlineAllocator@$0CAAA@VNamedAllocator@shdfnd@physx@@@shdfnd@2@@shdfnd@physx@@IEBAIXZ 0000000180015c00 f i RTreeCooking.obj
 0001:00014c50       ?capacityIncrement@?$Array@UPxBounds3V@physx@@VNamedAllocator@shdfnd@2@@shdfnd@physx@@IEBAIXZ 0000000180015c50 f i RTreeCooking.obj
 0001:00014ca0       ?capacityIncrement@?$Array@URTreeNodeNQ@physx@@VNamedAllocator@shdfnd@2@@shdfnd@physx@@IEBAIXZ 0000000180015ca0 f i RTreeCooking.obj
 0001:00014cf0       ?capacityIncrement@?$Array@URTreeNodeQ@Gu@physx@@VNamedAllocator@shdfnd@3@@shdfnd@physx@@IEBAIXZ 0000000180015cf0 f i RTreeCooking.obj
 0001:00014d40       ?capacityIncrement@?$Array@VPxVec3@physx@@VNamedAllocator@shdfnd@2@@shdfnd@physx@@IEBAIXZ 0000000180015d40 f i RTreeCooking.obj
 0001:00014d90       ?computeSA@SubSortSAH@physx@@QEAAMPEBIAEBUInterval@2@@Z 0000000180015d90 f i RTreeCooking.obj
 0001:00015020       ?copy@?$Array@IVNamedAllocator@shdfnd@physx@@@shdfnd@physx@@KAXPEAI0PEBI@Z 0000000180016020 f i RTreeCooking.obj
 0001:000150c0       ?copy@?$Array@UInterval@physx@@V?$InlineAllocator@$0CAAA@VNamedAllocator@shdfnd@physx@@@shdfnd@2@@shdfnd@physx@@KAXPEAUInterval@3@0PEBU43@@Z 00000001800160c0 f i RTreeCooking.obj
 0001:00015160       ?copy@?$Array@UPxBounds3V@physx@@VNamedAllocator@shdfnd@2@@shdfnd@physx@@KAXPEAUPxBounds3V@3@0PEBU43@@Z 0000000180016160 f i RTreeCooking.obj
 0001:00015200       ?copy@?$Array@URTreeNodeNQ@physx@@VNamedAllocator@shdfnd@2@@shdfnd@physx@@KAXPEAURTreeNodeNQ@3@0PEBU43@@Z 0000000180016200 f i RTreeCooking.obj
 0001:000152a0       ?copy@?$Array@URTreeNodeQ@Gu@physx@@VNamedAllocator@shdfnd@3@@shdfnd@physx@@KAXPEAURTreeNodeQ@Gu@3@0PEBU453@@Z 00000001800162a0 f i RTreeCooking.obj
 0001:00015340       ?copy@?$Array@VPxVec3@physx@@VNamedAllocator@shdfnd@2@@shdfnd@physx@@KAXPEAVPxVec3@3@0PEBV43@@Z 0000000180016340 f i RTreeCooking.obj
 0001:000153e0       ?create@?$Array@IVNamedAllocator@shdfnd@physx@@@shdfnd@physx@@KAXPEAI0AEBI@Z 00000001800163e0 f i RTreeCooking.obj
 0001:00015450       ?deallocate@?$Array@IVNamedAllocator@shdfnd@physx@@@shdfnd@physx@@IEAAXPEAX@Z 0000000180016450 f i RTreeCooking.obj
 0001:00015480       ?deallocate@?$Array@UInterval@physx@@V?$InlineAllocator@$0CAAA@VNamedAllocator@shdfnd@physx@@@shdfnd@2@@shdfnd@physx@@IEAAXPEAX@Z 0000000180016480 f i RTreeCooking.obj
 0001:000154b0       ?deallocate@?$Array@UPxBounds3V@physx@@VNamedAllocator@shdfnd@2@@shdfnd@physx@@IEAAXPEAX@Z 00000001800164b0 f i RTreeCooking.obj
 0001:000154e0       ?deallocate@?$Array@URTreeNodeNQ@physx@@VNamedAllocator@shdfnd@2@@shdfnd@physx@@IEAAXPEAX@Z 00000001800164e0 f i RTreeCooking.obj
 0001:00015510       ?deallocate@?$Array@URTreeNodeQ@Gu@physx@@VNamedAllocator@shdfnd@3@@shdfnd@physx@@IEAAXPEAX@Z 0000000180016510 f i RTreeCooking.obj
 0001:00015540       ?deallocate@?$Array@VPxVec3@physx@@VNamedAllocator@shdfnd@2@@shdfnd@physx@@IEAAXPEAX@Z 0000000180016540 f i RTreeCooking.obj
 0001:00015570       ?deallocate@?$InlineAllocator@$0CAAA@VNamedAllocator@shdfnd@physx@@@shdfnd@physx@@QEAAXPEAX@Z 0000000180016570 f i RTreeCooking.obj
 0001:000155c0       ?deallocate@NonTrackingAllocator@shdfnd@physx@@QEAAXPEAX@Z 00000001800165c0 f i RTreeCooking.obj
 0001:00015610       ?destroy@?$Array@IVNamedAllocator@shdfnd@physx@@@shdfnd@physx@@KAXPEAI0@Z 0000000180016610 f i RTreeCooking.obj
 0001:00015650       ?destroy@?$Array@UInterval@physx@@V?$InlineAllocator@$0CAAA@VNamedAllocator@shdfnd@physx@@@shdfnd@2@@shdfnd@physx@@KAXPEAUInterval@3@0@Z 0000000180016650 f i RTreeCooking.obj
 0001:00015690       ?destroy@?$Array@UPxBounds3V@physx@@VNamedAllocator@shdfnd@2@@shdfnd@physx@@KAXPEAUPxBounds3V@3@0@Z 0000000180016690 f i RTreeCooking.obj
 0001:000156d0       ?destroy@?$Array@URTreeNodeNQ@physx@@VNamedAllocator@shdfnd@2@@shdfnd@physx@@KAXPEAURTreeNodeNQ@3@0@Z 00000001800166d0 f i RTreeCooking.obj
 0001:00015710       ?destroy@?$Array@URTreeNodeQ@Gu@physx@@VNamedAllocator@shdfnd@3@@shdfnd@physx@@KAXPEAURTreeNodeQ@Gu@3@0@Z 0000000180016710 f i RTreeCooking.obj
 0001:00015750       ?destroy@?$Array@VPxVec3@physx@@VNamedAllocator@shdfnd@2@@shdfnd@physx@@KAXPEAVPxVec3@3@0@Z 0000000180016750 f i RTreeCooking.obj
 0001:00015790       ?empty@?$Stack@VNamedAllocator@shdfnd@physx@@@internal@shdfnd@physx@@QEAA_NXZ 0000000180016790 f i RTreeCooking.obj
 0001:000157d0       ?empty@PxBounds3@physx@@SA?AV12@XZ 00000001800167d0 f i RTreeCooking.obj
 0001:00015840       ?getExtents@PxBounds3V@physx@@QEBA?AT__m128@@XZ 0000000180016840 f i RTreeCooking.obj
 0001:000158b0       ?getMaxVec3@PxBounds3V@physx@@QEBA?BVPxVec3@2@XZ 00000001800168b0 f i RTreeCooking.obj
 0001:00015920       ?getMinVec3@PxBounds3V@physx@@QEBA?BVPxVec3@2@XZ 0000000180016920 f i RTreeCooking.obj
 0001:00015980       ?grow@?$Array@IVNamedAllocator@shdfnd@physx@@@shdfnd@physx@@IEAAXI@Z 0000000180016980 f i RTreeCooking.obj
 0001:00015a20       ?grow@?$Array@UPxBounds3V@physx@@VNamedAllocator@shdfnd@2@@shdfnd@physx@@IEAAXI@Z 0000000180016a20 f i RTreeCooking.obj
 0001:00015ac0       ?grow@?$Array@URTreeNodeNQ@physx@@VNamedAllocator@shdfnd@2@@shdfnd@physx@@IEAAXI@Z 0000000180016ac0 f i RTreeCooking.obj
 0001:00015b60       ?grow@?$Array@URTreeNodeQ@Gu@physx@@VNamedAllocator@shdfnd@3@@shdfnd@physx@@IEAAXI@Z 0000000180016b60 f i RTreeCooking.obj
 0001:00015c00       ?grow@?$Array@VPxVec3@physx@@VNamedAllocator@shdfnd@2@@shdfnd@physx@@IEAAXI@Z 0000000180016c00 f i RTreeCooking.obj
 0001:00015ca0       ?grow@?$Stack@VNamedAllocator@shdfnd@physx@@@internal@shdfnd@physx@@QEAAXXZ 0000000180016ca0 f i RTreeCooking.obj
 0001:00015d80       ?growAndPushBack@?$Array@IVNamedAllocator@shdfnd@physx@@@shdfnd@physx@@IEAAAEAIAEBI@Z 0000000180016d80 f i RTreeCooking.obj
 0001:00015f60       ?growAndPushBack@?$Array@UInterval@physx@@V?$InlineAllocator@$0CAAA@VNamedAllocator@shdfnd@physx@@@shdfnd@2@@shdfnd@physx@@IEAAAEAUInterval@3@AEBU43@@Z 0000000180016f60 f i RTreeCooking.obj
 0001:00016180       ?growAndPushBack@?$Array@UPxBounds3V@physx@@VNamedAllocator@shdfnd@2@@shdfnd@physx@@IEAAAEAUPxBounds3V@3@AEBU43@@Z 0000000180017180 f i RTreeCooking.obj
 0001:000163c0       ?growAndPushBack@?$Array@URTreeNodeNQ@physx@@VNamedAllocator@shdfnd@2@@shdfnd@physx@@IEAAAEAURTreeNodeNQ@3@AEBU43@@Z 00000001800173c0 f i RTreeCooking.obj
 0001:000165b0       ?growAndPushBack@?$Array@URTreeNodeQ@Gu@physx@@VNamedAllocator@shdfnd@3@@shdfnd@physx@@IEAAAEAURTreeNodeQ@Gu@3@AEBU453@@Z 00000001800175b0 f i RTreeCooking.obj
 0001:000167f0       ?growAndPushBack@?$Array@VPxVec3@physx@@VNamedAllocator@shdfnd@2@@shdfnd@physx@@IEAAAEAVPxVec3@3@AEBV43@@Z 00000001800177f0 f i RTreeCooking.obj
 0001:000169e0       ?include@PxBounds3V@physx@@QEAAXAEBU12@@Z 00000001800179e0 f i RTreeCooking.obj
 0001:00016ab0       ?isAligned16@aos@shdfnd@physx@@YA_NPEAX@Z 0000000180017ab0 f i RTreeCooking.obj
 0001:00016af0       ?isFinite@PxBounds3@physx@@QEBA_NXZ 0000000180017af0 f i RTreeCooking.obj
 0001:00016b60       ?isFinite@PxVec3@physx@@QEBA_NXZ 0000000180017b60 f i RTreeCooking.obj
 0001:00016be0       ?isFinite@intrinsics@physx@@YA_NM@Z 0000000180017be0 f i RTreeCooking.obj
 0001:00016c30       ?isInUserMemory@?$Array@IVNamedAllocator@shdfnd@physx@@@shdfnd@physx@@QEBAIXZ 0000000180017c30 f i RTreeCooking.obj
 0001:00016c50       ?isInUserMemory@?$Array@UInterval@physx@@V?$InlineAllocator@$0CAAA@VNamedAllocator@shdfnd@physx@@@shdfnd@2@@shdfnd@physx@@QEBAIXZ 0000000180017c50 f i RTreeCooking.obj
 0001:00016c70       ?isInUserMemory@?$Array@UPxBounds3V@physx@@VNamedAllocator@shdfnd@2@@shdfnd@physx@@QEBAIXZ 0000000180017c70 f i RTreeCooking.obj
 0001:00016c90       ?isInUserMemory@?$Array@URTreeNodeNQ@physx@@VNamedAllocator@shdfnd@2@@shdfnd@physx@@QEBAIXZ 0000000180017c90 f i RTreeCooking.obj
 0001:00016cb0       ?isInUserMemory@?$Array@URTreeNodeQ@Gu@physx@@VNamedAllocator@shdfnd@3@@shdfnd@physx@@QEBAIXZ 0000000180017cb0 f i RTreeCooking.obj
 0001:00016cd0       ?isInUserMemory@?$Array@VPxVec3@physx@@VNamedAllocator@shdfnd@2@@shdfnd@physx@@QEBAIXZ 0000000180017cd0 f i RTreeCooking.obj
 0001:00016cf0       ?isInside@PxBounds3@physx@@QEBA_NAEBV12@@Z 0000000180017cf0 f i RTreeCooking.obj
 0001:00016e50       ?isLeaf@RTreeNodeQ@Gu@physx@@QEBAIXZ 0000000180017e50 f i RTreeCooking.obj
 0001:00016e70       ?isValid@PxBounds3@physx@@QEBA_NXZ 0000000180017e70 f i RTreeCooking.obj
 0001:00016fa0       ?isValidFloatV@aos@shdfnd@physx@@YA_NT__m128@@@Z 0000000180017fa0 f i RTreeCooking.obj
 0001:000170f0       ?isValidVec3V@aos@shdfnd@physx@@YA_NT__m128@@@Z 00000001800180f0 f i RTreeCooking.obj
 0001:00017160       ?memCopy@intrinsics@physx@@YAPEAXPEAXPEBXI@Z 0000000180018160 f i RTreeCooking.obj
 0001:000171a0       ?pop@?$Stack@VNamedAllocator@shdfnd@physx@@@internal@shdfnd@physx@@QEAAXAEAH0@Z 00000001800181a0 f i RTreeCooking.obj
 0001:000172b0       ?popBack@?$Array@IVNamedAllocator@shdfnd@physx@@@shdfnd@physx@@QEAAIXZ 00000001800182b0 f i RTreeCooking.obj
 0001:00017370       ?push@?$Stack@VNamedAllocator@shdfnd@physx@@@internal@shdfnd@physx@@QEAAXHH@Z 0000000180018370 f i RTreeCooking.obj
 0001:00017420       ?pushBack@?$Array@IVNamedAllocator@shdfnd@physx@@@shdfnd@physx@@QEAAAEAIAEBI@Z 0000000180018420 f i RTreeCooking.obj
 0001:000174f0       ?pushBack@?$Array@UInterval@physx@@V?$InlineAllocator@$0CAAA@VNamedAllocator@shdfnd@physx@@@shdfnd@2@@shdfnd@physx@@QEAAAEAUInterval@3@AEBU43@@Z 00000001800184f0 f i RTreeCooking.obj
 0001:000175e0       ?pushBack@?$Array@UPxBounds3V@physx@@VNamedAllocator@shdfnd@2@@shdfnd@physx@@QEAAAEAUPxBounds3V@3@AEBU43@@Z 00000001800185e0 f i RTreeCooking.obj
 0001:000176b0       ?pushBack@?$Array@URTreeNodeNQ@physx@@VNamedAllocator@shdfnd@2@@shdfnd@physx@@QEAAAEAURTreeNodeNQ@3@AEBU43@@Z 00000001800186b0 f i RTreeCooking.obj
 0001:00017780       ?pushBack@?$Array@URTreeNodeQ@Gu@physx@@VNamedAllocator@shdfnd@3@@shdfnd@physx@@QEAAAEAURTreeNodeQ@Gu@3@AEBU453@@Z 0000000180018780 f i RTreeCooking.obj
 0001:00017850       ?pushBack@?$Array@VPxVec3@physx@@VNamedAllocator@shdfnd@2@@shdfnd@physx@@QEAAAEAVPxVec3@3@AEBV43@@Z 0000000180018850 f i RTreeCooking.obj
 0001:00017920       ?recreate@?$Array@IVNamedAllocator@shdfnd@physx@@@shdfnd@physx@@IEAAXI@Z 0000000180018920 f i RTreeCooking.obj
 0001:00017a80       ?recreate@?$Array@UPxBounds3V@physx@@VNamedAllocator@shdfnd@2@@shdfnd@physx@@IEAAXI@Z 0000000180018a80 f i RTreeCooking.obj
 0001:00017be0       ?recreate@?$Array@URTreeNodeNQ@physx@@VNamedAllocator@shdfnd@2@@shdfnd@physx@@IEAAXI@Z 0000000180018be0 f i RTreeCooking.obj
 0001:00017d40       ?recreate@?$Array@URTreeNodeQ@Gu@physx@@VNamedAllocator@shdfnd@3@@shdfnd@physx@@IEAAXI@Z 0000000180018d40 f i RTreeCooking.obj
 0001:00017ea0       ?recreate@?$Array@VPxVec3@physx@@VNamedAllocator@shdfnd@2@@shdfnd@physx@@IEAAXI@Z 0000000180018ea0 f i RTreeCooking.obj
 0001:00018000       ?replaceWithLast@?$Array@UInterval@physx@@V?$InlineAllocator@$0CAAA@VNamedAllocator@shdfnd@physx@@@shdfnd@2@@shdfnd@physx@@QEAAXI@Z 0000000180019000 f i RTreeCooking.obj
 0001:000180e0       ?reserve@?$Array@IVNamedAllocator@shdfnd@physx@@@shdfnd@physx@@QEAAXI@Z 00000001800190e0 f i RTreeCooking.obj
 0001:00018120       ?reserve@?$Array@UPxBounds3V@physx@@VNamedAllocator@shdfnd@2@@shdfnd@physx@@QEAAXI@Z 0000000180019120 f i RTreeCooking.obj
 0001:00018160       ?reserve@?$Array@URTreeNodeNQ@physx@@VNamedAllocator@shdfnd@2@@shdfnd@physx@@QEAAXI@Z 0000000180019160 f i RTreeCooking.obj
 0001:000181a0       ?reserve@?$Array@URTreeNodeQ@Gu@physx@@VNamedAllocator@shdfnd@3@@shdfnd@physx@@QEAAXI@Z 00000001800191a0 f i RTreeCooking.obj
 0001:000181e0       ?reserve@?$Array@VPxVec3@physx@@VNamedAllocator@shdfnd@2@@shdfnd@physx@@QEAAXI@Z 00000001800191e0 f i RTreeCooking.obj
 0001:00018220       ?resize@?$Array@IVNamedAllocator@shdfnd@physx@@@shdfnd@physx@@QEAAXIAEBI@Z 0000000180019220 f i RTreeCooking.obj
 0001:000182e0       ?resizeUninitialized@?$Array@URTreeNodeNQ@physx@@VNamedAllocator@shdfnd@2@@shdfnd@physx@@QEAAXI@Z 00000001800192e0 f i RTreeCooking.obj
 0001:00018320       ?selectMax@intrinsics@physx@@YAMMM@Z 0000000180019320 f i RTreeCooking.obj
 0001:00018370       ?selectMin@intrinsics@physx@@YAMMM@Z 0000000180019370 f i RTreeCooking.obj
 0001:000183c0       ?setEmpty@PxBounds3@physx@@QEAAXXZ 00000001800193c0 f i RTreeCooking.obj
 0001:00018430       ?setLeaf@RTreeNodeQ@Gu@physx@@QEAAX_N@Z 0000000180019430 f i RTreeCooking.obj
 0001:00018480       ?size@?$Array@IVNamedAllocator@shdfnd@physx@@@shdfnd@physx@@QEBAIXZ 0000000180019480 f i RTreeCooking.obj
 0001:000184a0       ?size@?$Array@UInterval@physx@@V?$InlineAllocator@$0CAAA@VNamedAllocator@shdfnd@physx@@@shdfnd@2@@shdfnd@physx@@QEBAIXZ 00000001800194a0 f i RTreeCooking.obj
 0001:000184c0       ?size@?$Array@URTreeNodeNQ@physx@@VNamedAllocator@shdfnd@2@@shdfnd@physx@@QEBAIXZ 00000001800194c0 f i RTreeCooking.obj
 0001:000184e0       ?size@?$Array@URTreeNodeQ@Gu@physx@@VNamedAllocator@shdfnd@3@@shdfnd@physx@@QEBAIXZ 00000001800194e0 f i RTreeCooking.obj
 0001:00018500       ?size@?$Array@VPxVec3@physx@@VNamedAllocator@shdfnd@2@@shdfnd@physx@@QEBAIXZ 0000000180019500 f i RTreeCooking.obj
 0001:00018520       ?sort4@SubSortQuick@physx@@QEAAXPEIAIIAEAV?$Array@URTreeNodeNQ@physx@@VNamedAllocator@shdfnd@2@@shdfnd@2@AEAIAEAUPxBounds3V@2@I@Z 0000000180019520 f i RTreeCooking.obj
 0001:000191d0       ?sort4@SubSortSAH@physx@@QEAAXPEAIIAEAV?$Array@URTreeNodeNQ@physx@@VNamedAllocator@shdfnd@2@@shdfnd@2@AEAIIPEAURTreeNodeNQ@2@@Z 000000018001a1d0 f i RTreeCooking.obj
 0001:0001a370       ?split@SubSortSAH@physx@@QEAAIPEAII@Z 000000018001b370 f i RTreeCooking.obj
 0001:0001b610       fabsf                      000000018001c610 f i RTreeCooking.obj
 0001:0001b640       ??0TriangleMeshBuilder@physx@@QEAA@AEAVTriangleMeshData@Gu@1@AEBUPxCookingParams@1@@Z 000000018001c640 f   TriangleMeshBuilder.obj
 0001:0001b6a0       ??1TriangleMeshBuilder@physx@@UEAA@XZ 000000018001c6a0 f   TriangleMeshBuilder.obj
 0001:0001b6d0       ?cleanMesh@TriangleMeshBuilder@physx@@QEAA_N_NPEAW4Enum@PxTriangleMeshCookingResult@2@@Z 000000018001c6d0 f   TriangleMeshBuilder.obj
 0001:0001bf60       ?remapTopology@TriangleMeshBuilder@physx@@QEAAXPEBI@Z 000000018001cf60 f   TriangleMeshBuilder.obj
 0001:0001c380       ?createSharedEdgeData@TriangleMeshBuilder@physx@@QEAAX_N0@Z 000000018001d380 f   TriangleMeshBuilder.obj
 0001:0001cc40       ?recordTriangleIndices@TriangleMeshBuilder@physx@@QEAAXXZ 000000018001dc40 f   TriangleMeshBuilder.obj
 0001:0001ce40       ?createGRBMidPhaseAndData@TriangleMeshBuilder@physx@@QEAAXI@Z 000000018001de40 f   TriangleMeshBuilder.obj
 0001:0001d1a0       ?createGRBData@TriangleMeshBuilder@physx@@QEAAXXZ 000000018001e1a0 f   TriangleMeshBuilder.obj
 0001:0001d340       ?loadFromDesc@TriangleMeshBuilder@physx@@QEAA_NAEBVPxTriangleMeshDesc@2@PEAW4Enum@PxTriangleMeshCookingResult@2@_N@Z 000000018001e340 f   TriangleMeshBuilder.obj
 0001:0001d630       ?save@TriangleMeshBuilder@physx@@QEBA_NAEAVPxOutputStream@2@_NAEBUPxCookingParams@2@@Z 000000018001e630 f   TriangleMeshBuilder.obj
 0001:0001df60       ?checkMeshIndicesSize@TriangleMeshBuilder@physx@@QEAAXXZ 000000018001ef60 f   TriangleMeshBuilder.obj
 0001:0001e160       ?computeLocalBounds@TriangleMeshBuilder@physx@@IEAAXXZ 000000018001f160 f   TriangleMeshBuilder.obj
 0001:0001e270       ?importMesh@TriangleMeshBuilder@physx@@IEAA_NAEBVPxTriangleMeshDesc@2@AEBUPxCookingParams@2@PEAW4Enum@PxTriangleMeshCookingResult@2@_N@Z 000000018001f270 f   TriangleMeshBuilder.obj
 0001:0001e900       ?releaseEdgeList@TriangleMeshBuilder@physx@@IEAAXXZ 000000018001f900 f   TriangleMeshBuilder.obj
 0001:0001e960       ?createEdgeList@TriangleMeshBuilder@physx@@IEAAXXZ 000000018001f960 f   TriangleMeshBuilder.obj
 0001:0001eae0       ??0RTreeTriangleMeshBuilder@physx@@QEAA@AEBUPxCookingParams@1@@Z 000000018001fae0 f   TriangleMeshBuilder.obj
 0001:0001eb40       ??1RTreeTriangleMeshBuilder@physx@@UEAA@XZ 000000018001fb40 f   TriangleMeshBuilder.obj
 0001:0001eb80       ?createMidPhaseStructure@RTreeTriangleMeshBuilder@physx@@UEAAXXZ 000000018001fb80 f   TriangleMeshBuilder.obj
 0001:0001ee30       ?saveMidPhaseStructure@RTreeTriangleMeshBuilder@physx@@UEBAXAEAVPxOutputStream@2@_N@Z 000000018001fe30 f   TriangleMeshBuilder.obj
 0001:0001f120       ??0BV4TriangleMeshBuilder@physx@@QEAA@AEBUPxCookingParams@1@@Z 0000000180020120 f   TriangleMeshBuilder.obj
 0001:0001f180       ??1BV4TriangleMeshBuilder@physx@@UEAA@XZ 0000000180020180 f   TriangleMeshBuilder.obj
 0001:0001f1c0       ?createMidPhaseStructure@BV4TriangleMeshBuilder@physx@@UEAAXXZ 00000001800201c0 f   TriangleMeshBuilder.obj
 0001:0001f670       ?saveMidPhaseStructure@BV4TriangleMeshBuilder@physx@@UEBAXAEAVPxOutputStream@2@_N@Z 0000000180020670 f   TriangleMeshBuilder.obj
 0001:0001f8b0       ?onMeshIndexFormatChange@BV4TriangleMeshBuilder@physx@@UEAAXXZ 00000001800208b0 f   TriangleMeshBuilder.obj
 0001:0001f940       ?createMidPhaseStructure@BV32TriangleMeshBuilder@physx@@SAXAEBUPxCookingParams@2@AEAVTriangleMeshData@Gu@2@AEAVBV32Tree@52@@Z 0000000180020940 f   TriangleMeshBuilder.obj
 0001:0001fc30       ?saveMidPhaseStructure@BV32TriangleMeshBuilder@physx@@SAXPEAVBV32Tree@Gu@2@AEAVPxOutputStream@2@_N@Z 0000000180020c30 f   TriangleMeshBuilder.obj
 0001:000206d0       ?findSharpVertices@GrbTrimeshCookerHelper@physx@@YAXAEAV?$Array@USortedNeighbor@GrbTrimeshCookerHelper@physx@@VNamedAllocator@shdfnd@3@@shdfnd@2@AEAV?$Array@USharpEdgeRange@GrbTrimeshCookerHelper@physx@@VNamedAllocator@shdfnd@3@@42@PEBUuint3@2@PEBUuint4@2@II@Z 00000001800216d0 f   TriangleMeshBuilder.obj
 0001:00020be0       ?buildVertexConnectionNew_p1@GrbTrimeshCookerHelper@physx@@YAIAEAV?$Array@USortedNeighbor@GrbTrimeshCookerHelper@physx@@VNamedAllocator@shdfnd@3@@shdfnd@2@AEAV?$Array@USharpEdgeRange@GrbTrimeshCookerHelper@physx@@VNamedAllocator@shdfnd@3@@42@PEBUuint3@2@PEBUuint4@2@II@Z 0000000180021be0 f   TriangleMeshBuilder.obj
 0001:00020c80       ?buildVertexConnectionNew_p2@GrbTrimeshCookerHelper@physx@@YAXPEAI00AEAV?$Array@USortedNeighbor@GrbTrimeshCookerHelper@physx@@VNamedAllocator@shdfnd@3@@shdfnd@2@AEAV?$Array@USharpEdgeRange@GrbTrimeshCookerHelper@physx@@VNamedAllocator@shdfnd@3@@42@I@Z 0000000180021c80 f   TriangleMeshBuilder.obj
 0001:00022320       ??$?2V?$ReflectionAllocator@VBV32Tree@Gu@physx@@@shdfnd@physx@@@UserAllocated@shdfnd@physx@@SAPEAX_KV?$ReflectionAllocator@VBV32Tree@Gu@physx@@@12@PEBDH@Z 0000000180023320 f i TriangleMeshBuilder.obj
 0001:00022370       ??$?2V?$ReflectionAllocator@VEdgeListBuilder@Gu@physx@@@shdfnd@physx@@@UserAllocated@shdfnd@physx@@SAPEAX_KV?$ReflectionAllocator@VEdgeListBuilder@Gu@physx@@@12@PEBDH@Z 0000000180023370 f i TriangleMeshBuilder.obj
 0001:000223c0       ??$?_UE@@YAPEAX_KV?$ReflectionAllocator@E@shdfnd@physx@@PEBDH@Z 00000001800233c0 f i TriangleMeshBuilder.obj
 0001:00022410       ??$?_UG@@YAPEAX_KV?$ReflectionAllocator@G@shdfnd@physx@@PEBDH@Z 0000000180023410 f i TriangleMeshBuilder.obj
 0001:00022460       ??$?_UI@@YAPEAX_KV?$ReflectionAllocator@I@shdfnd@physx@@PEBDH@Z 0000000180023460 f i TriangleMeshBuilder.obj
 0001:000224b0       ??$PX_UNUSED@U?$TriangleT@I@Gu@physx@@@@YAXAEBU?$TriangleT@I@Gu@physx@@@Z 00000001800234b0 f i TriangleMeshBuilder.obj
 0001:000224c0       ??$median3@UEdgeTriLookup@physx@@$$CBU?$Less@UEdgeTriLookup@physx@@@shdfnd@2@@internal@shdfnd@physx@@YAXPEAUEdgeTriLookup@2@HHAEBU?$Less@UEdgeTriLookup@physx@@@12@@Z 00000001800234c0 f i TriangleMeshBuilder.obj
 0001:000226e0       ??$median3@USortedNeighbor@GrbTrimeshCookerHelper@physx@@$$CBU?$Less@USortedNeighbor@GrbTrimeshCookerHelper@physx@@@shdfnd@3@@internal@shdfnd@physx@@YAXPEAUSortedNeighbor@GrbTrimeshCookerHelper@2@HHAEBU?$Less@USortedNeighbor@GrbTrimeshCookerHelper@physx@@@12@@Z 00000001800236e0 f i TriangleMeshBuilder.obj
 0001:00022900       ??$partition@UEdgeTriLookup@physx@@$$CBU?$Less@UEdgeTriLookup@physx@@@shdfnd@2@@internal@shdfnd@physx@@YAHPEAUEdgeTriLookup@2@HHAEBU?$Less@UEdgeTriLookup@physx@@@12@@Z 0000000180023900 f i TriangleMeshBuilder.obj
 0001:00022ba0       ??$partition@USortedNeighbor@GrbTrimeshCookerHelper@physx@@$$CBU?$Less@USortedNeighbor@GrbTrimeshCookerHelper@physx@@@shdfnd@3@@internal@shdfnd@physx@@YAHPEAUSortedNeighbor@GrbTrimeshCookerHelper@2@HHAEBU?$Less@USortedNeighbor@GrbTrimeshCookerHelper@physx@@@12@@Z 0000000180023ba0 f i TriangleMeshBuilder.obj
 0001:00022e40       ??$smallSort@UEdgeTriLookup@physx@@$$CBU?$Less@UEdgeTriLookup@physx@@@shdfnd@2@@internal@shdfnd@physx@@YAXPEAUEdgeTriLookup@2@HHAEBU?$Less@UEdgeTriLookup@physx@@@12@@Z 0000000180023e40 f i TriangleMeshBuilder.obj
 0001:00022f70       ??$smallSort@USortedNeighbor@GrbTrimeshCookerHelper@physx@@$$CBU?$Less@USortedNeighbor@GrbTrimeshCookerHelper@physx@@@shdfnd@3@@internal@shdfnd@physx@@YAXPEAUSortedNeighbor@GrbTrimeshCookerHelper@2@HHAEBU?$Less@USortedNeighbor@GrbTrimeshCookerHelper@physx@@@12@@Z 0000000180023f70 f i TriangleMeshBuilder.obj
 0001:000230a0       ??$sort@UEdgeTriLookup@physx@@@shdfnd@physx@@YAXPEAUEdgeTriLookup@1@I@Z 00000001800240a0 f i TriangleMeshBuilder.obj
 0001:00023100       ??$sort@UEdgeTriLookup@physx@@U?$Less@UEdgeTriLookup@physx@@@shdfnd@2@VNamedAllocator@42@@shdfnd@physx@@YAXPEAUEdgeTriLookup@1@IAEBU?$Less@UEdgeTriLookup@physx@@@01@AEBVNamedAllocator@01@I@Z 0000000180024100 f i TriangleMeshBuilder.obj
 0001:000234c0       ??$sort@USortedNeighbor@GrbTrimeshCookerHelper@physx@@@shdfnd@physx@@YAXPEAUSortedNeighbor@GrbTrimeshCookerHelper@1@I@Z 00000001800244c0 f i TriangleMeshBuilder.obj
 0001:00023520       ??$sort@USortedNeighbor@GrbTrimeshCookerHelper@physx@@U?$Less@USortedNeighbor@GrbTrimeshCookerHelper@physx@@@shdfnd@3@VNamedAllocator@53@@shdfnd@physx@@YAXPEAUSortedNeighbor@GrbTrimeshCookerHelper@1@IAEBU?$Less@USortedNeighbor@GrbTrimeshCookerHelper@physx@@@01@AEBVNamedAllocator@01@I@Z 0000000180024520 f i TriangleMeshBuilder.obj
 0001:000238e0       ??$swap@UEdgeTriLookup@physx@@@shdfnd@physx@@YAXAEAUEdgeTriLookup@1@0@Z 00000001800248e0 f i TriangleMeshBuilder.obj
 0001:00023950       ??$swap@USortedNeighbor@GrbTrimeshCookerHelper@physx@@@shdfnd@physx@@YAXAEAUSortedNeighbor@GrbTrimeshCookerHelper@1@0@Z 0000000180024950 f i TriangleMeshBuilder.obj
 0001:000239c0       ??0?$Array@IVNamedAllocator@shdfnd@physx@@@shdfnd@physx@@QEAA@AEBVNamedAllocator@12@@Z 00000001800249c0 f i TriangleMeshBuilder.obj
 0001:00023a20       ??0?$PxFlags@W4Enum@PxMeshFlag@physx@@G@physx@@QEAA@AEBV01@@Z 0000000180024a20 f i TriangleMeshBuilder.obj
 0001:00023a50       ??0?$PxFlags@W4Enum@PxMeshFlag@physx@@G@physx@@QEAA@W4Enum@PxMeshFlag@1@@Z 0000000180024a50 f i TriangleMeshBuilder.obj
 0001:00023a80       ??0?$PxFlags@W4Enum@PxMeshFlag@physx@@G@physx@@QEAA@XZ 0000000180024a80 f i TriangleMeshBuilder.obj
 0001:00023aa0       ??0?$PxFlags@W4Enum@PxMeshPreprocessingFlag@physx@@I@physx@@QEAA@AEBV01@@Z 0000000180024aa0 f i TriangleMeshBuilder.obj
 0001:00023ad0       ??0?$ReflectionAllocator@E@shdfnd@physx@@QEAA@PEBD@Z 0000000180024ad0 f i TriangleMeshBuilder.obj
 0001:00023af0       ??0?$ReflectionAllocator@G@shdfnd@physx@@QEAA@PEBD@Z 0000000180024af0 f i TriangleMeshBuilder.obj
 0001:00023b10       ??0?$ReflectionAllocator@I@shdfnd@physx@@QEAA@PEBD@Z 0000000180024b10 f i TriangleMeshBuilder.obj
 0001:00023b30       ??0?$ReflectionAllocator@VBV32Tree@Gu@physx@@@shdfnd@physx@@QEAA@PEBD@Z 0000000180024b30 f i TriangleMeshBuilder.obj
 0001:00023b50       ??0?$ReflectionAllocator@VEdgeListBuilder@Gu@physx@@@shdfnd@physx@@QEAA@PEBD@Z 0000000180024b50 f i TriangleMeshBuilder.obj
 0001:00023b70       ??0BV4TriangleData@Gu@physx@@QEAA@XZ 0000000180024b70 f i TriangleMeshBuilder.obj
 0001:00023bf0       ??0EDGELISTCREATE@Gu@physx@@QEAA@XZ 0000000180024bf0 f i TriangleMeshBuilder.obj
 0001:00023c70       ??0PxPlane@physx@@QEAA@AEBVPxVec3@1@0@Z 0000000180024c70 f i TriangleMeshBuilder.obj
 0001:00023ce0       ??0PxSimpleTriangleMesh@physx@@QEAA@AEBV01@@Z 0000000180024ce0 f i TriangleMeshBuilder.obj
 0001:00023d60       ??0PxTriangleMeshDesc@physx@@QEAA@AEBV01@@Z 0000000180024d60 f i TriangleMeshBuilder.obj
 0001:00023dc0       ??0PxVec4@physx@@QEAA@XZ   0000000180024dc0 f i TriangleMeshBuilder.obj
 0001:00023dd0       ??0RTree@Gu@physx@@QEAA@XZ 0000000180024dd0 f i TriangleMeshBuilder.obj
 0001:00023e90       ??0RTreeCookerRemap@physx@@QEAA@I@Z 0000000180024e90 f i TriangleMeshBuilder.obj
 0001:00023ee0       ??0RTreeTriangleData@Gu@physx@@QEAA@XZ 0000000180024ee0 f i TriangleMeshBuilder.obj
 0001:00023f40       ??0RemapCallback@RTreeCooker@physx@@QEAA@XZ 0000000180024f40 f i TriangleMeshBuilder.obj
 0001:00023f60       ??0SharpEdgeRange@GrbTrimeshCookerHelper@physx@@QEAA@II@Z 0000000180024f60 f i TriangleMeshBuilder.obj
 0001:00023fa0       ??0SharpEdgeRange@GrbTrimeshCookerHelper@physx@@QEAA@XZ 0000000180024fa0 f i TriangleMeshBuilder.obj
 0001:00023fd0       ??0SortedNeighbor@GrbTrimeshCookerHelper@physx@@QEAA@II_N@Z 0000000180024fd0 f i TriangleMeshBuilder.obj
 0001:00024020       ??0TriangleMeshData@Gu@physx@@QEAA@XZ 0000000180025020 f i TriangleMeshBuilder.obj
 0001:00024140       ??1BV4TriangleData@Gu@physx@@UEAA@XZ 0000000180025140 f i TriangleMeshBuilder.obj
 0001:000241b0       ??1RTree@Gu@physx@@QEAA@XZ 00000001800251b0 f i TriangleMeshBuilder.obj
 0001:000241d0       ??1RTreeCookerRemap@physx@@UEAA@XZ 00000001800251d0 f i TriangleMeshBuilder.obj
 0001:000241f0       ??1RTreeTriangleData@Gu@physx@@UEAA@XZ 00000001800251f0 f i TriangleMeshBuilder.obj
 0001:00024240       ??1RemapCallback@RTreeCooker@physx@@UEAA@XZ 0000000180025240 f i TriangleMeshBuilder.obj
 0001:00024260       ??1TriangleMeshData@Gu@physx@@UEAA@XZ 0000000180025260 f i TriangleMeshBuilder.obj
 0001:00024530       ??3UserAllocated@shdfnd@physx@@SAXPEAX@Z 0000000180025530 f i TriangleMeshBuilder.obj
 0001:00024560       ??A?$Array@USharpEdgeRange@GrbTrimeshCookerHelper@physx@@VNamedAllocator@shdfnd@3@@shdfnd@physx@@QEAAAEAUSharpEdgeRange@GrbTrimeshCookerHelper@2@I@Z 0000000180025560 f i TriangleMeshBuilder.obj
 0001:00024600       ??A?$Array@USortedNeighbor@GrbTrimeshCookerHelper@physx@@VNamedAllocator@shdfnd@3@@shdfnd@physx@@QEAAAEAUSortedNeighbor@GrbTrimeshCookerHelper@2@I@Z 0000000180025600 f i TriangleMeshBuilder.obj
 0001:000246a0       ??APxVec3@physx@@QEAAAEAMI@Z 00000001800256a0 f i TriangleMeshBuilder.obj
 0001:00024730       ??B?$PxFlags@W4Enum@PxMeshFlag@physx@@G@physx@@QEBA_NXZ 0000000180025730 f i TriangleMeshBuilder.obj
 0001:00024770       ??B?$PxFlags@W4Enum@PxMeshPreprocessingFlag@physx@@I@physx@@QEBA_NXZ 0000000180025770 f i TriangleMeshBuilder.obj
 0001:000247a0       ??DPxVec3@physx@@QEBA?AV01@M@Z 00000001800257a0 f i TriangleMeshBuilder.obj
 0001:00024830       ??GPxVec3@physx@@QEBA?AV01@AEBV01@@Z 0000000180025830 f i TriangleMeshBuilder.obj
 0001:000248d0       ??I?$PxFlags@W4Enum@PxMeshFlag@physx@@G@physx@@QEBA?AV01@W4Enum@PxMeshFlag@1@@Z 00000001800258d0 f i TriangleMeshBuilder.obj
 0001:00024940       ??I?$PxFlags@W4Enum@PxMeshPreprocessingFlag@physx@@I@physx@@QEBA?AV01@W4Enum@PxMeshPreprocessingFlag@1@@Z 0000000180025940 f i TriangleMeshBuilder.obj
 0001:000249a0       ??MEdgeTriLookup@physx@@QEBA_NAEBU01@@Z 00000001800259a0 f i TriangleMeshBuilder.obj
 0001:00024a10       ??MSortedNeighbor@GrbTrimeshCookerHelper@physx@@QEBA_NAEBU012@@Z 0000000180025a10 f i TriangleMeshBuilder.obj
 0001:00024ad0       ??NEdgeTriLookup@physx@@QEBA_NAEBU01@@Z 0000000180025ad0 f i TriangleMeshBuilder.obj
 0001:00024b40       ??R?$Less@UEdgeTriLookup@physx@@@shdfnd@physx@@QEBA_NAEBUEdgeTriLookup@2@0@Z 0000000180025b40 f i TriangleMeshBuilder.obj
 0001:00024b70       ??R?$Less@USortedNeighbor@GrbTrimeshCookerHelper@physx@@@shdfnd@physx@@QEBA_NAEBUSortedNeighbor@GrbTrimeshCookerHelper@2@0@Z 0000000180025b70 f i TriangleMeshBuilder.obj
 0001:00024ba0       ??S?$PxFlags@W4Enum@PxMeshFlag@physx@@G@physx@@QEBA?AV01@XZ 0000000180025ba0 f i TriangleMeshBuilder.obj
 0001:00024bf0       ??Sphysx@@YA?AV?$PxFlags@W4Enum@PxMeshFlag@physx@@G@0@W4Enum@PxMeshFlag@0@@Z 0000000180025bf0 f i TriangleMeshBuilder.obj
 0001:00024c30       ??_4?$PxFlags@W4Enum@PxMeshFlag@physx@@G@physx@@QEAAAEAV01@AEBV01@@Z 0000000180025c30 f i TriangleMeshBuilder.obj
 0001:00024c70       ??_GBV32Tree@Gu@physx@@QEAAPEAXI@Z 0000000180025c70 f i TriangleMeshBuilder.obj
 0001:00024ce0       ??_EBV4TriangleData@Gu@physx@@UEAAPEAXI@Z 0000000180025ce0 f i TriangleMeshBuilder.obj
 0001:00024ce0       ??_GBV4TriangleData@Gu@physx@@UEAAPEAXI@Z 0000000180025ce0 f i TriangleMeshBuilder.obj
 0001:00024d50       ??_EBV4TriangleMeshBuilder@physx@@UEAAPEAXI@Z 0000000180025d50 f i TriangleMeshBuilder.obj
 0001:00024d50       ??_GBV4TriangleMeshBuilder@physx@@UEAAPEAXI@Z 0000000180025d50 f i TriangleMeshBuilder.obj
 0001:00024da0       ??_GEdgeListBuilder@Gu@physx@@QEAAPEAXI@Z 0000000180025da0 f i TriangleMeshBuilder.obj
 0001:00024e10       ??_ERTreeCookerRemap@physx@@UEAAPEAXI@Z 0000000180025e10 f i TriangleMeshBuilder.obj
 0001:00024e10       ??_GRTreeCookerRemap@physx@@UEAAPEAXI@Z 0000000180025e10 f i TriangleMeshBuilder.obj
 0001:00024e60       ??_ERTreeTriangleData@Gu@physx@@UEAAPEAXI@Z 0000000180025e60 f i TriangleMeshBuilder.obj
 0001:00024e60       ??_GRTreeTriangleData@Gu@physx@@UEAAPEAXI@Z 0000000180025e60 f i TriangleMeshBuilder.obj
 0001:00024ed0       ??_ERTreeTriangleMeshBuilder@physx@@UEAAPEAXI@Z 0000000180025ed0 f i TriangleMeshBuilder.obj
 0001:00024ed0       ??_GRTreeTriangleMeshBuilder@physx@@UEAAPEAXI@Z 0000000180025ed0 f i TriangleMeshBuilder.obj
 0001:00024f20       ??_ERemapCallback@RTreeCooker@physx@@UEAAPEAXI@Z 0000000180025f20 f i TriangleMeshBuilder.obj
 0001:00024f20       ??_GRemapCallback@RTreeCooker@physx@@UEAAPEAXI@Z 0000000180025f20 f i TriangleMeshBuilder.obj
 0001:00024f70       ??_ETriangleMeshBuilder@physx@@UEAAPEAXI@Z 0000000180025f70 f i TriangleMeshBuilder.obj
 0001:00024f70       ??_GTriangleMeshBuilder@physx@@UEAAPEAXI@Z 0000000180025f70 f i TriangleMeshBuilder.obj
 0001:00024fc0       ??_ETriangleMeshData@Gu@physx@@UEAAPEAXI@Z 0000000180025fc0 f i TriangleMeshBuilder.obj
 0001:00024fc0       ??_GTriangleMeshData@Gu@physx@@UEAAPEAXI@Z 0000000180025fc0 f i TriangleMeshBuilder.obj
 0001:00025030       ?HasActiveEdge01@EdgeTriangleAC@Gu@physx@@SAHAEBUEdgeTriangleData@23@@Z 0000000180026030 f i TriangleMeshBuilder.obj
 0001:00025060       ?HasActiveEdge12@EdgeTriangleAC@Gu@physx@@SAHAEBUEdgeTriangleData@23@@Z 0000000180026060 f i TriangleMeshBuilder.obj
 0001:00025090       ?HasActiveEdge20@EdgeTriangleAC@Gu@physx@@SAHAEBUEdgeTriangleData@23@@Z 0000000180026090 f i TriangleMeshBuilder.obj
 0001:000250c0       ?LeafSetData@Gu@physx@@YAIII@Z 00000001800260c0 f i TriangleMeshBuilder.obj
 0001:000251d0       ?PxRecipSqrt@physx@@YAMM@Z 00000001800261d0 f i TriangleMeshBuilder.obj
 0001:000251f0       ?SetData@LeafTriangles@Gu@physx@@QEAAXII@Z 00000001800261f0 f i TriangleMeshBuilder.obj
 0001:00025230       ?WriteDwordBuffer@physx@@YAXPEBII_NAEAVPxOutputStream@1@@Z 0000000180026230 f i TriangleMeshBuilder.obj
 0001:00025280       ?allocate@?$Array@USharpEdgeRange@GrbTrimeshCookerHelper@physx@@VNamedAllocator@shdfnd@3@@shdfnd@physx@@IEAAPEAUSharpEdgeRange@GrbTrimeshCookerHelper@3@I@Z 0000000180026280 f i TriangleMeshBuilder.obj
 0001:00025330       ?allocate@?$Array@USortedNeighbor@GrbTrimeshCookerHelper@physx@@VNamedAllocator@shdfnd@3@@shdfnd@physx@@IEAAPEAUSortedNeighbor@GrbTrimeshCookerHelper@3@I@Z 0000000180026330 f i TriangleMeshBuilder.obj
 0001:000253e0       ?allocate@?$ReflectionAllocator@E@shdfnd@physx@@QEAAPEAX_KPEBDH@Z 00000001800263e0 f i TriangleMeshBuilder.obj
 0001:00025480       ?allocate@?$ReflectionAllocator@G@shdfnd@physx@@QEAAPEAX_KPEBDH@Z 0000000180026480 f i TriangleMeshBuilder.obj
 0001:00025520       ?allocate@?$ReflectionAllocator@I@shdfnd@physx@@QEAAPEAX_KPEBDH@Z 0000000180026520 f i TriangleMeshBuilder.obj
 0001:000255c0       ?allocate@?$ReflectionAllocator@VBV32Tree@Gu@physx@@@shdfnd@physx@@QEAAPEAX_KPEBDH@Z 00000001800265c0 f i TriangleMeshBuilder.obj
 0001:00025660       ?allocate@?$ReflectionAllocator@VEdgeListBuilder@Gu@physx@@@shdfnd@physx@@QEAAPEAX_KPEBDH@Z 0000000180026660 f i TriangleMeshBuilder.obj
 0001:00025700       ?allocateMaterials@TriangleMeshData@Gu@physx@@QEAAPEAGXZ 0000000180026700 f i TriangleMeshBuilder.obj
 0001:00025870       ?allocateTriangles@TriangleMeshData@Gu@physx@@QEAAPEAXI_NI@Z 0000000180026870 f i TriangleMeshBuilder.obj
 0001:00025b40       ?allocateVertices@TriangleMeshData@Gu@physx@@QEAAPEAVPxVec3@3@I@Z 0000000180026b40 f i TriangleMeshBuilder.obj
 0001:00025c50       ?begin@?$Array@USortedNeighbor@GrbTrimeshCookerHelper@physx@@VNamedAllocator@shdfnd@3@@shdfnd@physx@@QEAAPEAUSortedNeighbor@GrbTrimeshCookerHelper@3@XZ 0000000180026c50 f i TriangleMeshBuilder.obj
 0001:00025c70       ?capacity@?$Array@USharpEdgeRange@GrbTrimeshCookerHelper@physx@@VNamedAllocator@shdfnd@3@@shdfnd@physx@@QEBAIXZ 0000000180026c70 f i TriangleMeshBuilder.obj
 0001:00025c90       ?capacity@?$Array@USortedNeighbor@GrbTrimeshCookerHelper@physx@@VNamedAllocator@shdfnd@3@@shdfnd@physx@@QEBAIXZ 0000000180026c90 f i TriangleMeshBuilder.obj
 0001:00025cb0       ?capacityIncrement@?$Array@USortedNeighbor@GrbTrimeshCookerHelper@physx@@VNamedAllocator@shdfnd@3@@shdfnd@physx@@IEBAIXZ 0000000180026cb0 f i TriangleMeshBuilder.obj
 0001:00025d00       ?copy@?$Array@USharpEdgeRange@GrbTrimeshCookerHelper@physx@@VNamedAllocator@shdfnd@3@@shdfnd@physx@@KAXPEAUSharpEdgeRange@GrbTrimeshCookerHelper@3@0PEBU453@@Z 0000000180026d00 f i TriangleMeshBuilder.obj
 0001:00025da0       ?copy@?$Array@USortedNeighbor@GrbTrimeshCookerHelper@physx@@VNamedAllocator@shdfnd@3@@shdfnd@physx@@KAXPEAUSortedNeighbor@GrbTrimeshCookerHelper@3@0PEBU453@@Z 0000000180026da0 f i TriangleMeshBuilder.obj
 0001:00025e40       ?create@?$Array@USharpEdgeRange@GrbTrimeshCookerHelper@physx@@VNamedAllocator@shdfnd@3@@shdfnd@physx@@KAXPEAUSharpEdgeRange@GrbTrimeshCookerHelper@3@0AEBU453@@Z 0000000180026e40 f i TriangleMeshBuilder.obj
 0001:00025eb0       ?cross@PxVec3@physx@@QEBA?AV12@AEBV12@@Z 0000000180026eb0 f i TriangleMeshBuilder.obj
 0001:00025fa0       ?deallocate@?$AlignedAllocator@$0IA@VNonTrackingAllocator@shdfnd@physx@@@shdfnd@physx@@QEAAXPEAX@Z 0000000180026fa0 f i TriangleMeshBuilder.obj
 0001:00026010       ?deallocate@?$Array@USharpEdgeRange@GrbTrimeshCookerHelper@physx@@VNamedAllocator@shdfnd@3@@shdfnd@physx@@IEAAXPEAX@Z 0000000180027010 f i TriangleMeshBuilder.obj
 0001:00026040       ?deallocate@?$Array@USortedNeighbor@GrbTrimeshCookerHelper@physx@@VNamedAllocator@shdfnd@3@@shdfnd@physx@@IEAAXPEAX@Z 0000000180027040 f i TriangleMeshBuilder.obj
 0001:00026070       ?destroy@?$Array@USharpEdgeRange@GrbTrimeshCookerHelper@physx@@VNamedAllocator@shdfnd@3@@shdfnd@physx@@KAXPEAUSharpEdgeRange@GrbTrimeshCookerHelper@3@0@Z 0000000180027070 f i TriangleMeshBuilder.obj
 0001:000260b0       ?destroy@?$Array@USortedNeighbor@GrbTrimeshCookerHelper@physx@@VNamedAllocator@shdfnd@3@@shdfnd@physx@@KAXPEAUSortedNeighbor@GrbTrimeshCookerHelper@3@0@Z 00000001800270b0 f i TriangleMeshBuilder.obj
 0001:000260f0       ?distance@PxPlane@physx@@QEBAMAEBVPxVec3@2@@Z 00000001800270f0 f i TriangleMeshBuilder.obj
 0001:00026130       ?dot@PxVec3@physx@@QEBAMAEBV12@@Z 0000000180027130 f i TriangleMeshBuilder.obj
 0001:00026190       ?findEdgeCCW@?$TriangleT@I@Gu@physx@@QEBAEII@Z 0000000180027190 f i TriangleMeshBuilder.obj
 0001:00026340       ?gatherStrided@Cooking@physx@@SAXPEBXPEAXIII@Z 0000000180027340 f i TriangleMeshBuilder.obj
 0001:000263f0       ?getEdgeToTriangles@EdgeList@Gu@physx@@QEBAPEBUEdgeDescData@23@XZ 00000001800273f0 f i TriangleMeshBuilder.obj
 0001:00026410       ?getEdgeTriangle@EdgeList@Gu@physx@@QEBAAEBUEdgeTriangleData@23@I@Z 0000000180027410 f i TriangleMeshBuilder.obj
 0001:00026440       ?getEdges@EdgeList@Gu@physx@@QEBAPEBUEdgeData@23@XZ 0000000180027440 f i TriangleMeshBuilder.obj
 0001:00026460       ?getFacesByEdges@EdgeList@Gu@physx@@QEBAPEBIXZ 0000000180027460 f i TriangleMeshBuilder.obj
 0001:00026480       ?getFoundation@shdfnd@physx@@YAAEAVFoundation@12@XZ 0000000180027480 f i TriangleMeshBuilder.obj
 0001:000264a0       ?getMidphaseID@BV4TriangleMeshBuilder@physx@@UEBA?AW4Enum@PxMeshMidPhase@2@XZ 00000001800274a0 f i TriangleMeshBuilder.obj
 0001:000264b0       ?getMidphaseID@RTreeTriangleMeshBuilder@physx@@UEBA?AW4Enum@PxMeshMidPhase@2@XZ 00000001800274b0 f i TriangleMeshBuilder.obj
 0001:000264c0       ?getName@?$ReflectionAllocator@E@shdfnd@physx@@CAPEBDXZ 00000001800274c0 f i TriangleMeshBuilder.obj
 0001:00026510       ?getName@?$ReflectionAllocator@G@shdfnd@physx@@CAPEBDXZ 0000000180027510 f i TriangleMeshBuilder.obj
 0001:00026560       ?getName@?$ReflectionAllocator@I@shdfnd@physx@@CAPEBDXZ 0000000180027560 f i TriangleMeshBuilder.obj
 0001:000265b0       ?getName@?$ReflectionAllocator@VBV32Tree@Gu@physx@@@shdfnd@physx@@CAPEBDXZ 00000001800275b0 f i TriangleMeshBuilder.obj
 0001:00026600       ?getName@?$ReflectionAllocator@VEdgeListBuilder@Gu@physx@@@shdfnd@physx@@CAPEBDXZ 0000000180027600 f i TriangleMeshBuilder.obj
 0001:00026650       ?getNbEdges@EdgeList@Gu@physx@@QEBAIXZ 0000000180027650 f i TriangleMeshBuilder.obj
 0001:00026660       ?getNbFaces@EdgeList@Gu@physx@@QEBAIXZ 0000000180027660 f i TriangleMeshBuilder.obj
 0001:00026680       ?getNormalized@PxVec3@physx@@QEBA?AV12@XZ 0000000180027680 f i TriangleMeshBuilder.obj
 0001:00026730       ?getRemap@SourceMesh@Gu@physx@@QEBAPEBIXZ 0000000180027730 f i TriangleMeshBuilder.obj
 0001:00026750       ?getType@PxMidphaseDesc@physx@@QEBA?AW4Enum@PxMeshMidPhase@2@XZ 0000000180027750 f i TriangleMeshBuilder.obj
 0001:00026770       ?grow@?$Array@USharpEdgeRange@GrbTrimeshCookerHelper@physx@@VNamedAllocator@shdfnd@3@@shdfnd@physx@@IEAAXI@Z 0000000180027770 f i TriangleMeshBuilder.obj
 0001:00026810       ?grow@?$Array@USortedNeighbor@GrbTrimeshCookerHelper@physx@@VNamedAllocator@shdfnd@3@@shdfnd@physx@@IEAAXI@Z 0000000180027810 f i TriangleMeshBuilder.obj
 0001:000268b0       ?growAndPushBack@?$Array@USortedNeighbor@GrbTrimeshCookerHelper@physx@@VNamedAllocator@shdfnd@3@@shdfnd@physx@@IEAAAEAUSortedNeighbor@GrbTrimeshCookerHelper@3@AEBU453@@Z 00000001800278b0 f i TriangleMeshBuilder.obj
 0001:00026af0       ?has16BitIndices@TriangleMeshData@Gu@physx@@QEBA_NXZ 0000000180027af0 f i TriangleMeshBuilder.obj
 0001:00026b30       ?initRemap@SourceMesh@Gu@physx@@QEAAXXZ 0000000180027b30 f i TriangleMeshBuilder.obj
 0001:00026b50       ?isInUserMemory@?$Array@USharpEdgeRange@GrbTrimeshCookerHelper@physx@@VNamedAllocator@shdfnd@3@@shdfnd@physx@@QEBAIXZ 0000000180027b50 f i TriangleMeshBuilder.obj
 0001:00026b70       ?isInUserMemory@?$Array@USortedNeighbor@GrbTrimeshCookerHelper@physx@@VNamedAllocator@shdfnd@3@@shdfnd@physx@@QEBAIXZ 0000000180027b70 f i TriangleMeshBuilder.obj
 0001:00026b90       ?isValid@PxBVH33MidphaseDesc@physx@@QEBA_NXZ 0000000180027b90 f i TriangleMeshBuilder.obj
 0001:00026bd0       ?isValid@PxBVH34MidphaseDesc@physx@@QEBA_NXZ 0000000180027bd0 f i TriangleMeshBuilder.obj
 0001:00026c00       ?isValid@PxMidphaseDesc@physx@@QEBA_NXZ 0000000180027c00 f i TriangleMeshBuilder.obj
 0001:00026c60       ?isValid@PxSimpleTriangleMesh@physx@@QEBA_NXZ 0000000180027c60 f i TriangleMeshBuilder.obj
 0001:00026d70       ?isValid@PxTriangleMeshDesc@physx@@QEBA_NXZ 0000000180027d70 f i TriangleMeshBuilder.obj
 0001:00026e00       ?magnitudeSquared@PxVec3@physx@@QEBAMXZ 0000000180027e00 f i TriangleMeshBuilder.obj
 0001:00026e60       ?name@type_info@@QEBAPEBDXZ 0000000180027e60 f i TriangleMeshBuilder.obj
 0001:00026e90       ?onMeshIndexFormatChange@TriangleMeshBuilder@physx@@UEAAXXZ 0000000180027e90 f i TriangleMeshBuilder.obj
 0001:00026ea0       ?pushBack@?$Array@USortedNeighbor@GrbTrimeshCookerHelper@physx@@VNamedAllocator@shdfnd@3@@shdfnd@physx@@QEAAAEAUSortedNeighbor@GrbTrimeshCookerHelper@3@AEBU453@@Z 0000000180027ea0 f i TriangleMeshBuilder.obj
 0001:00026f70       ?recipSqrt@intrinsics@physx@@YAMM@Z 0000000180027f70 f i TriangleMeshBuilder.obj
 0001:00026fb0       ?recreate@?$Array@USharpEdgeRange@GrbTrimeshCookerHelper@physx@@VNamedAllocator@shdfnd@3@@shdfnd@physx@@IEAAXI@Z 0000000180027fb0 f i TriangleMeshBuilder.obj
 0001:00027110       ?recreate@?$Array@USortedNeighbor@GrbTrimeshCookerHelper@physx@@VNamedAllocator@shdfnd@3@@shdfnd@physx@@IEAAXI@Z 0000000180028110 f i TriangleMeshBuilder.obj
 0001:00027270       ?release@RTree@Gu@physx@@QEAAXXZ 0000000180028270 f i TriangleMeshBuilder.obj
 0001:000272f0       ?releaseRemap@SourceMesh@Gu@physx@@QEAAXXZ 00000001800282f0 f i TriangleMeshBuilder.obj
 0001:00027340       ?remap@RTreeCookerRemap@physx@@UEAAXPEAIII@Z 0000000180028340 f i TriangleMeshBuilder.obj
 0001:000275b0       ?reserve@?$Array@USharpEdgeRange@GrbTrimeshCookerHelper@physx@@VNamedAllocator@shdfnd@3@@shdfnd@physx@@QEAAXI@Z 00000001800285b0 f i TriangleMeshBuilder.obj
 0001:000275f0       ?reserve@?$Array@USortedNeighbor@GrbTrimeshCookerHelper@physx@@VNamedAllocator@shdfnd@3@@shdfnd@physx@@QEAAXI@Z 00000001800285f0 f i TriangleMeshBuilder.obj
 0001:00027630       ?resize@?$Array@USharpEdgeRange@GrbTrimeshCookerHelper@physx@@VNamedAllocator@shdfnd@3@@shdfnd@physx@@QEAAXIAEBUSharpEdgeRange@GrbTrimeshCookerHelper@3@@Z 0000000180028630 f i TriangleMeshBuilder.obj
 0001:000276f0       ?resizeUninitialized@?$Array@USortedNeighbor@GrbTrimeshCookerHelper@physx@@VNamedAllocator@shdfnd@3@@shdfnd@physx@@QEAAXI@Z 00000001800286f0 f i TriangleMeshBuilder.obj
 0001:00027730       ?setNbTriangles@SourceMesh@Gu@physx@@QEAAXI@Z 0000000180028730 f i TriangleMeshBuilder.obj
 0001:00027750       ?setNbVertices@SourceMesh@Gu@physx@@QEAAXI@Z 0000000180028750 f i TriangleMeshBuilder.obj
 0001:00027770       ?setPointers@SourceMesh@Gu@physx@@QEAAXPEAVIndTri32@23@PEAVIndTri16@23@PEBVPxVec3@3@@Z 0000000180028770 f i TriangleMeshBuilder.obj
 0001:000277c0       ?setTriangleAdjacency@TriangleMeshData@Gu@physx@@QEAAXIII@Z 00000001800287c0 f i TriangleMeshBuilder.obj
 0001:00027870       ?size@?$Array@USortedNeighbor@GrbTrimeshCookerHelper@physx@@VNamedAllocator@shdfnd@3@@shdfnd@physx@@QEBAIXZ 0000000180028870 f i TriangleMeshBuilder.obj
 0001:00027890       ?to16@shdfnd@physx@@YAGI@Z 0000000180028890 f i TriangleMeshBuilder.obj
 0001:00027910       ?writeChunk@physx@@YAXCCCCAEAVPxOutputStream@1@@Z 0000000180028910 f i TriangleMeshBuilder.obj
 0001:000279c0       ?writeIntBuffer@physx@@YAXPEBII_NAEAVPxOutputStream@1@@Z 00000001800289c0 f i TriangleMeshBuilder.obj
 0001:00027a10       ??0BigConvexDataBuilder@physx@@QEAA@PEBUConvexHullData@Gu@1@PEAVBigConvexData@1@PEBVPxVec3@1@@Z 0000000180028a10 f   BigConvexDataBuilder.obj
 0001:00027a60       ??1BigConvexDataBuilder@physx@@QEAA@XZ 0000000180028a60 f   BigConvexDataBuilder.obj
 0001:00027a70       ?precompute@BigConvexDataBuilder@physx@@QEAA_NI@Z 0000000180028a70 f   BigConvexDataBuilder.obj
 0001:00028090       ?initialize@BigConvexDataBuilder@physx@@QEAA_NXZ 0000000180029090 f   BigConvexDataBuilder.obj
 0001:00028100       ?save@BigConvexDataBuilder@physx@@QEBA_NAEAVPxOutputStream@2@_N@Z 0000000180029100 f   BigConvexDataBuilder.obj
 0001:00028230       ?computeValencies@BigConvexDataBuilder@physx@@QEAA_NAEBVConvexHullBuilder@2@@Z 0000000180029230 f   BigConvexDataBuilder.obj
 0001:00028a70       ?saveValencies@BigConvexDataBuilder@physx@@QEBA_NAEAVPxOutputStream@2@_N@Z 0000000180029a70 f   BigConvexDataBuilder.obj
 0001:00029160       ??B?$PxBitAndDataT@G$0IAAA@@physx@@QEBAGXZ 000000018002a160 f i BigConvexDataBuilder.obj
 0001:00029180       ??_0PxVec3@physx@@QEAAAEAV01@M@Z 000000018002a180 f i BigConvexDataBuilder.obj
 0001:00029210       ?PxMemZero@physx@@YAPEAXPEAXI@Z 000000018002a210 f i BigConvexDataBuilder.obj
 0001:00029240       ?PxSqrt@physx@@YAMM@Z      000000018002a240 f i BigConvexDataBuilder.obj
 0001:00029260       ?magnitude@PxVec3@physx@@QEBAMXZ 000000018002a260 f i BigConvexDataBuilder.obj
 0001:00029290       ?memZero@intrinsics@physx@@YAPEAXPEAXI@Z 000000018002a290 f i BigConvexDataBuilder.obj
 0001:000292d0       ?normalize@PxVec3@physx@@QEAAMXZ 000000018002a2d0 f i BigConvexDataBuilder.obj
 0001:00029330       ?precomputeSample@BigConvexDataBuilder@physx@@IEAAXAEBVPxVec3@2@AEAEM@Z 000000018002a330 f i BigConvexDataBuilder.obj
 0001:000295f0       ?sqrt@intrinsics@physx@@YAMM@Z 000000018002a5f0 f i BigConvexDataBuilder.obj
 0001:00029690       ??0ConvexHullBuilder@physx@@QEAA@PEAUConvexHullData@Gu@1@_N@Z 000000018002a690 f   ConvexHullBuilder.obj
 0001:00029720       ??1ConvexHullBuilder@physx@@QEAA@XZ 000000018002a720 f   ConvexHullBuilder.obj
 0001:00029860       ?init@ConvexHullBuilder@physx@@QEAA_NIPEBVPxVec3@2@PEBIIIPEBUPxHullPolygon@2@_NPEAVConvexHullLib@2@@Z 000000018002a860 f   ConvexHullBuilder.obj
 0001:0002a130       ?save@ConvexHullBuilder@physx@@QEBA_NAEAVPxOutputStream@2@_N@Z 000000018002b130 f   ConvexHullBuilder.obj
 0001:0002a560       ?copy@ConvexHullBuilder@physx@@QEAA_NAEAUConvexHullData@Gu@2@AEAI@Z 000000018002b560 f   ConvexHullBuilder.obj
 0001:0002acf0       ?createEdgeList@ConvexHullBuilder@physx@@QEAA_N_NI@Z 000000018002bcf0 f   ConvexHullBuilder.obj
 0001:0002baf0       ?checkHullPolygons@ConvexHullBuilder@physx@@QEBA_NXZ 000000018002caf0 f   ConvexHullBuilder.obj
 0001:0002c3a0       ?calculateVertexMapTable@ConvexHullBuilder@physx@@QEAA_NI_N@Z 000000018002d3a0 f   ConvexHullBuilder.obj
 0001:0002c650       ?computeGeomCenter@ConvexHullBuilder@physx@@IEBA_NAEAVPxVec3@2@IPEAUHullTriangleData@2@@Z 000000018002d650 f   ConvexHullBuilder.obj
 0001:0002d470       ??$?_UUEdgeDescData@Gu@physx@@@@YAPEAX_KV?$ReflectionAllocator@UEdgeDescData@Gu@physx@@@shdfnd@physx@@PEBDH@Z 000000018002e470 f i ConvexHullBuilder.obj
 0001:0002d4c0       ??$?_U_N@@YAPEAX_KV?$ReflectionAllocator@_N@shdfnd@physx@@PEBDH@Z 000000018002e4c0 f i ConvexHullBuilder.obj
 0001:0002d510       ??0?$PxBitAndDataT@G$0IAAA@@physx@@QEAA@G_N@Z 000000018002e510 f i ConvexHullBuilder.obj
 0001:0002d570       ??0?$ReflectionAllocator@UEdgeDescData@Gu@physx@@@shdfnd@physx@@QEAA@PEBD@Z 000000018002e570 f i ConvexHullBuilder.obj
 0001:0002d590       ??0?$ReflectionAllocator@_N@shdfnd@physx@@QEAA@PEBD@Z 000000018002e590 f i ConvexHullBuilder.obj
 0001:0002d5b0       ??0?$TriangleT@I@Gu@physx@@QEAA@III@Z 000000018002e5b0 f i ConvexHullBuilder.obj
 0001:0002d620       ??0HullPolygonData@Gu@physx@@QEAA@AEBU012@@Z 000000018002e620 f i ConvexHullBuilder.obj
 0001:0002d6a0       ??0PxPlane@physx@@QEAA@AEBV01@@Z 000000018002e6a0 f i ConvexHullBuilder.obj
 0001:0002d6f0       ??0PxPlane@physx@@QEAA@MMMM@Z 000000018002e6f0 f i ConvexHullBuilder.obj
 0001:0002d760       ??4PxPlane@physx@@QEAAAEAV01@$$QEAV01@@Z 000000018002e760 f i ConvexHullBuilder.obj
 0001:0002d7b0       ??YPxVec3@physx@@QEAAAEAV01@AEBV01@@Z 000000018002e7b0 f i ConvexHullBuilder.obj
 0001:0002d830       ?PxMemSet@physx@@YAPEAXPEAXHI@Z 000000018002e830 f i ConvexHullBuilder.obj
 0001:0002d870       ?allocate@?$ReflectionAllocator@UEdgeDescData@Gu@physx@@@shdfnd@physx@@QEAAPEAX_KPEBDH@Z 000000018002e870 f i ConvexHullBuilder.obj
 0001:0002d910       ?allocate@?$ReflectionAllocator@_N@shdfnd@physx@@QEAAPEAX_KPEBDH@Z 000000018002e910 f i ConvexHullBuilder.obj
 0001:0002d9b0       ?area@?$TriangleT@I@Gu@physx@@QEBAMPEBVPxVec3@3@@Z 000000018002e9b0 f i ConvexHullBuilder.obj
 0001:0002dad0       ?center@?$TriangleT@I@Gu@physx@@QEBAXPEBVPxVec3@3@AEAV43@@Z 000000018002ead0 f i ConvexHullBuilder.obj
 0001:0002dbe0       ?computeBufferSize@Gu@physx@@YAIAEBUConvexHullData@12@I@Z 000000018002ebe0 f i ConvexHullBuilder.obj
 0001:0002dd40       ?computeNbPolygons@ConvexHullBuilder@physx@@QEBAIXZ 000000018002ed40 f i ConvexHullBuilder.obj
 0001:0002dde0       ?flip@physx@@YAXAEAG@Z     000000018002ede0 f i ConvexHullBuilder.obj
 0001:0002de60       ?flip@physx@@YAXAEAM@Z     000000018002ee60 f i ConvexHullBuilder.obj
 0001:0002df50       ?flipData@Gu@physx@@YAXAEAUHullPolygonData@12@@Z 000000018002ef50 f i ConvexHullBuilder.obj
 0001:0002dfd0       ?getName@?$ReflectionAllocator@UEdgeDescData@Gu@physx@@@shdfnd@physx@@CAPEBDXZ 000000018002efd0 f i ConvexHullBuilder.obj
 0001:0002e020       ?getName@?$ReflectionAllocator@_N@shdfnd@physx@@CAPEBDXZ 000000018002f020 f i ConvexHullBuilder.obj
 0001:0002e070       ?isBitSet@?$PxBitAndDataT@G$0IAAA@@physx@@QEBAGXZ 000000018002f070 f i ConvexHullBuilder.obj
 0001:0002e090       ?memSet@intrinsics@physx@@YAPEAXPEAXHI@Z 000000018002f090 f i ConvexHullBuilder.obj
 0001:0002e0d0       ?to8@shdfnd@physx@@YAEI@Z  000000018002f0d0 f i ConvexHullBuilder.obj
 0001:0002e150       ??1ConvexHullLib@physx@@UEAA@XZ 000000018002f150 f   ConvexHullLib.obj
 0001:0002e1d0       ?cleanupVertices@ConvexHullLib@physx@@IEAA_NIPEBVPxVec3@2@IAEAIPEAV32@AEAV32@3@Z 000000018002f1d0 f   ConvexHullLib.obj
 0001:0002e8a0       ?shiftAndcleanupVertices@ConvexHullLib@physx@@IEAA_NIPEBVPxVec3@2@IAEAIPEAV32@AEAV32@3@Z 000000018002f8a0 f   ConvexHullLib.obj
 0001:0002eab0       ?swapLargestFace@ConvexHullLib@physx@@IEAAXAEAVPxConvexMeshDesc@2@@Z 000000018002fab0 f   ConvexHullLib.obj
 0001:0002eea0       ?shiftConvexMeshDesc@ConvexHullLib@physx@@IEAAXAEAVPxConvexMeshDesc@2@@Z 000000018002fea0 f   ConvexHullLib.obj
 0001:0002fc40       ??0?$PxFlags@W4Enum@PxConvexFlag@physx@@G@physx@@QEAA@AEBV01@@Z 0000000180030c40 f i ConvexHullLib.obj
 0001:0002fc70       ??0PxBounds3@physx@@QEAA@XZ 0000000180030c70 f i ConvexHullLib.obj
 0001:0002fcb0       ??B?$PxFlags@W4Enum@PxConvexFlag@physx@@G@physx@@QEBA_NXZ 0000000180030cb0 f i ConvexHullLib.obj
 0001:0002fcf0       ??I?$PxFlags@W4Enum@PxConvexFlag@physx@@G@physx@@QEBA?AV01@W4Enum@PxConvexFlag@1@@Z 0000000180030cf0 f i ConvexHullLib.obj
 0001:0002fd60       ??_EConvexHullLib@physx@@UEAAPEAXI@Z 0000000180030d60 f i ConvexHullLib.obj
 0001:0002fd60       ??_GConvexHullLib@physx@@UEAAPEAXI@Z 0000000180030d60 f i ConvexHullLib.obj
 0001:0002fdb0       ?getCenter@PxBounds3@physx@@QEBA?AVPxVec3@2@XZ 0000000180030db0 f i ConvexHullLib.obj
 0001:0002fe80       ?getDimensions@PxBounds3@physx@@QEBA?AVPxVec3@2@XZ 0000000180030e80 f i ConvexHullLib.obj
 0001:0002ff30       ?include@PxBounds3@physx@@QEAAXAEBVPxVec3@2@@Z 0000000180030f30 f i ConvexHullLib.obj
 0001:00030020       ?maximum@PxVec3@physx@@QEBA?AV12@AEBV12@@Z 0000000180031020 f i ConvexHullLib.obj
 0001:000300e0       ?minimum@PxVec3@physx@@QEBA?AV12@AEBV12@@Z 00000001800310e0 f i ConvexHullLib.obj
 0001:000301a0       ?multiply@PxVec3@physx@@QEBA?AV12@AEBV12@@Z 00000001800311a0 f i ConvexHullLib.obj
 0001:00030240       ??0ConvexHull@physx@@QEAA@AEBVPxVec3@1@0AEBV?$Array@VPxPlane@physx@@VNamedAllocator@shdfnd@2@@shdfnd@1@@Z 0000000180031240 f   ConvexHullUtils.obj
 0001:00030af0       ??0ConvexHull@physx@@QEAA@AEBVPxVec3@1@AEBVPxTransform@1@AEBV?$Array@VPxPlane@physx@@VNamedAllocator@shdfnd@2@@shdfnd@1@@Z 0000000180031af0 f   ConvexHullUtils.obj
 0001:00031520       ?findCandidatePlane@ConvexHull@physx@@QEBAHMM@Z 0000000180032520 f   ConvexHullUtils.obj
 0001:00031920       ?assertIntact@ConvexHull@physx@@QEBA_NM@Z 0000000180032920 f   ConvexHullUtils.obj
 0001:00032120       ?maxNumVertsPerFace@ConvexHull@physx@@QEBAIXZ 0000000180033120 f   ConvexHullUtils.obj
 0001:000321f0       ?convexHullCrop@physx@@YAPEAVConvexHull@1@AEBV21@AEBVPxPlane@1@M@Z 00000001800331f0 f   ConvexHullUtils.obj
 0001:00033870       ?computeOBBFromConvex@physx@@YA_NAEBVPxConvexMeshDesc@1@AEAVPxVec3@1@AEAVPxTransform@1@@Z 0000000180034870 f   ConvexHullUtils.obj
 0001:000341c0       ?computeOBBSIMD@local@@YAXIPEBT__m128@@AEAT2@AEBT2@1@Z 00000001800351c0 f   ConvexHullUtils.obj
 0001:00035990       ??$?2V?$ReflectionAllocator@VConvexHull@physx@@@shdfnd@physx@@@UserAllocated@shdfnd@physx@@SAPEAX_KV?$ReflectionAllocator@VConvexHull@physx@@@12@PEBDH@Z 0000000180036990 f i ConvexHullUtils.obj
 0001:000359e0       ??$PX_UNUSED@W4PxIDENTITY@physx@@@@YAXAEBW4PxIDENTITY@physx@@@Z 00000001800369e0 f i ConvexHullUtils.obj
 0001:000359f0       ??0?$Array@VHalfEdge@ConvexHull@physx@@VNamedAllocator@shdfnd@3@@shdfnd@physx@@QEAA@AEBVNamedAllocator@12@@Z 00000001800369f0 f i ConvexHullUtils.obj
 0001:00035a50       ??0?$Array@VPxPlane@physx@@VNamedAllocator@shdfnd@2@@shdfnd@physx@@QEAA@AEBVNamedAllocator@12@@Z 0000000180036a50 f i ConvexHullUtils.obj
 0001:00035ab0       ??0?$PxFlags@W4Enum@PxConvexFlag@physx@@G@physx@@QEAA@XZ 0000000180036ab0 f i ConvexHullUtils.obj
 0001:00035ad0       ??0?$ReflectionAllocator@VConvexHull@physx@@@shdfnd@physx@@QEAA@PEBD@Z 0000000180036ad0 f i ConvexHullUtils.obj
 0001:00035af0       ??0ConvexHull@physx@@QEAA@AEBV01@@Z 0000000180036af0 f i ConvexHullUtils.obj
 0001:00035bd0       ??0ConvexHull@physx@@QEAA@AEBV?$Array@VPxPlane@physx@@VNamedAllocator@shdfnd@2@@shdfnd@1@@Z 0000000180036bd0 f i ConvexHullUtils.obj
 0001:00035ca0       ??0HalfEdge@ConvexHull@physx@@QEAA@FEE@Z 0000000180036ca0 f i ConvexHullUtils.obj
 0001:00035d00       ??0HalfEdge@ConvexHull@physx@@QEAA@XZ 0000000180036d00 f i ConvexHullUtils.obj
 0001:00035d10       ??0Mat33V@aos@shdfnd@physx@@QEAA@XZ 0000000180036d10 f i ConvexHullUtils.obj
 0001:00035d20       ??0PxBoundedData@physx@@QEAA@XZ 0000000180036d20 f i ConvexHullUtils.obj
 0001:00035d60       ??0PxConvexMeshDesc@physx@@QEAA@XZ 0000000180036d60 f i ConvexHullUtils.obj
 0001:00035df0       ??0PxIntegrals@physx@@QEAA@XZ 0000000180036df0 f i ConvexHullUtils.obj
 0001:00035e20       ??0PxMat33@physx@@QEAA@AEBV01@@Z 0000000180036e20 f i ConvexHullUtils.obj
 0001:00035ea0       ??0PxMat33@physx@@QEAA@AEBVPxQuat@1@@Z 0000000180036ea0 f i ConvexHullUtils.obj
 0001:000361e0       ??0PxMat33@physx@@QEAA@AEBVPxVec3@1@00@Z 00000001800371e0 f i ConvexHullUtils.obj
 0001:00036260       ??0PxMat33@physx@@QEAA@W4PxIDENTITY@1@@Z 0000000180037260 f i ConvexHullUtils.obj
 0001:00036300       ??0PxMat33@physx@@QEAA@XZ  0000000180037300 f i ConvexHullUtils.obj
 0001:00036360       ??0PxPlane@physx@@QEAA@AEBVPxVec3@1@00@Z 0000000180037360 f i ConvexHullUtils.obj
 0001:00036450       ??0PxPlane@physx@@QEAA@AEBVPxVec3@1@M@Z 0000000180037450 f i ConvexHullUtils.obj
 0001:000364a0       ??0PxPlane@physx@@QEAA@XZ  00000001800374a0 f i ConvexHullUtils.obj
 0001:000364d0       ??0PxQuat@physx@@QEAA@MAEBVPxVec3@1@@Z 00000001800374d0 f i ConvexHullUtils.obj
 0001:00036630       ??0PxQuat@physx@@QEAA@XZ   0000000180037630 f i ConvexHullUtils.obj
 0001:00036640       ??0PxStridedData@physx@@QEAA@XZ 0000000180037640 f i ConvexHullUtils.obj
 0001:00036670       ??4PxPlane@physx@@QEAAAEAV01@AEBV01@@Z 0000000180037670 f i ConvexHullUtils.obj
 0001:000366c0       ??8PxPlane@physx@@QEBA_NAEBV01@@Z 00000001800376c0 f i ConvexHullUtils.obj
 0001:00036730       ??8PxVec3@physx@@QEBA_NAEBV01@@Z 0000000180037730 f i ConvexHullUtils.obj
 0001:000367b0       ??A?$Array@VHalfEdge@ConvexHull@physx@@VNamedAllocator@shdfnd@3@@shdfnd@physx@@QEAAAEAVHalfEdge@ConvexHull@2@I@Z 00000001800377b0 f i ConvexHullUtils.obj
 0001:00036850       ??A?$Array@VHalfEdge@ConvexHull@physx@@VNamedAllocator@shdfnd@3@@shdfnd@physx@@QEBAAEBVHalfEdge@ConvexHull@2@I@Z 0000000180037850 f i ConvexHullUtils.obj
 0001:000368f0       ??A?$Array@VPxPlane@physx@@VNamedAllocator@shdfnd@2@@shdfnd@physx@@QEBAAEBVPxPlane@2@I@Z 00000001800378f0 f i ConvexHullUtils.obj
 0001:00036990       ??A?$Array@VPxVec3@physx@@VNamedAllocator@shdfnd@2@@shdfnd@physx@@QEAAAEAVPxVec3@2@I@Z 0000000180037990 f i ConvexHullUtils.obj
 0001:00036a30       ??A?$Array@VPxVec3@physx@@VNamedAllocator@shdfnd@2@@shdfnd@physx@@QEBAAEBVPxVec3@2@I@Z 0000000180037a30 f i ConvexHullUtils.obj
 0001:00036ad0       ??APxMat33@physx@@QEAAAEAVPxVec3@1@I@Z 0000000180037ad0 f i ConvexHullUtils.obj
 0001:00036b00       ??GPxVec3@physx@@QEBA?AV01@XZ 0000000180037b00 f i ConvexHullUtils.obj
 0001:00036b90       ??RPxMat33@physx@@QEAAAEAMII@Z 0000000180037b90 f i ConvexHullUtils.obj
 0001:00036bd0       ??XPxVec3@physx@@QEAAAEAV01@M@Z 0000000180037bd0 f i ConvexHullUtils.obj
 0001:00036c50       ?FAdd@aos@shdfnd@physx@@YA?AT__m128@@T4@0@Z 0000000180037c50 f i ConvexHullUtils.obj
 0001:00036da0       ?FMul@aos@shdfnd@physx@@YA?AT__m128@@T4@0@Z 0000000180037da0 f i ConvexHullUtils.obj
 0001:00036ef0       ?FScaleAdd@aos@shdfnd@physx@@YA?AT__m128@@T4@00@Z 0000000180037ef0 f i ConvexHullUtils.obj
 0001:00037150       ?PxCos@physx@@YAMM@Z       0000000180038150 f i ConvexHullUtils.obj
 0001:00037170       ?PxSin@physx@@YAMM@Z       0000000180038170 f i ConvexHullUtils.obj
 0001:00037190       ?QuatGetMat33V@aos@shdfnd@physx@@YAXAEBT__m128@@AEAT4@11@Z 0000000180038190 f i ConvexHullUtils.obj
 0001:00037630       ?QuatRotateInv@aos@shdfnd@physx@@YA?AT__m128@@T4@0@Z 0000000180038630 f i ConvexHullUtils.obj
 0001:000379c0       ?QuatVLoadU@aos@shdfnd@physx@@YA?AT__m128@@PEBM@Z 00000001800389c0 f i ConvexHullUtils.obj
 0001:000379f0       ?V3Cross@aos@shdfnd@physx@@YA?AT__m128@@T4@0@Z 00000001800389f0 f i ConvexHullUtils.obj
 0001:00037c60       ?V3NegScaleSub@aos@shdfnd@physx@@YA?AT__m128@@T4@00@Z 0000000180038c60 f i ConvexHullUtils.obj
 0001:00037ec0       ?V3Scale@aos@shdfnd@physx@@YA?AT__m128@@T4@0@Z 0000000180038ec0 f i ConvexHullUtils.obj
 0001:00038010       ?V3ScaleAdd@aos@shdfnd@physx@@YA?AT__m128@@T4@00@Z 0000000180039010 f i ConvexHullUtils.obj
 0001:00038270       ?V4Add@aos@shdfnd@physx@@YA?AT__m128@@T4@0@Z 0000000180039270 f i ConvexHullUtils.obj
 0001:000382b0       ?V4GetW@aos@shdfnd@physx@@YA?AT__m128@@T4@@Z 00000001800392b0 f i ConvexHullUtils.obj
 0001:000382e0       ?V4GetX@aos@shdfnd@physx@@YA?AT__m128@@T4@@Z 00000001800392e0 f i ConvexHullUtils.obj
 0001:00038310       ?V4GetY@aos@shdfnd@physx@@YA?AT__m128@@T4@@Z 0000000180039310 f i ConvexHullUtils.obj
 0001:00038340       ?V4GetZ@aos@shdfnd@physx@@YA?AT__m128@@T4@@Z 0000000180039340 f i ConvexHullUtils.obj
 0001:00038370       ?V4LoadU@aos@shdfnd@physx@@YA?AT__m128@@QEBM@Z 0000000180039370 f i ConvexHullUtils.obj
 0001:000383a0       ?V4Max@aos@shdfnd@physx@@YA?AT__m128@@T4@0@Z 00000001800393a0 f i ConvexHullUtils.obj
 0001:000383e0       ?V4Min@aos@shdfnd@physx@@YA?AT__m128@@T4@0@Z 00000001800393e0 f i ConvexHullUtils.obj
 0001:00038420       ?V4Mul@aos@shdfnd@physx@@YA?AT__m128@@T4@0@Z 0000000180039420 f i ConvexHullUtils.obj
 0001:00038460       ?V4MulAdd@aos@shdfnd@physx@@YA?AT__m128@@T4@00@Z 0000000180039460 f i ConvexHullUtils.obj
 0001:00038510       ?V4Neg@aos@shdfnd@physx@@YA?AT__m128@@T4@@Z 0000000180039510 f i ConvexHullUtils.obj
 0001:00038550       ?V4Scale@aos@shdfnd@physx@@YA?AT__m128@@T4@0@Z 0000000180039550 f i ConvexHullUtils.obj
 0001:00038590       ?V4StoreU@aos@shdfnd@physx@@YAXT__m128@@PEAM@Z 0000000180039590 f i ConvexHullUtils.obj
 0001:000385c0       ?V4Sub@aos@shdfnd@physx@@YA?AT__m128@@T4@0@Z 00000001800395c0 f i ConvexHullUtils.obj
 0001:00038600       ?Vec4V_From_Vec3V@aos@shdfnd@physx@@YA?AT__m128@@T4@@Z 0000000180039600 f i ConvexHullUtils.obj
 0001:00038620       ?allocate@?$Array@VHalfEdge@ConvexHull@physx@@VNamedAllocator@shdfnd@3@@shdfnd@physx@@IEAAPEAVHalfEdge@ConvexHull@3@I@Z 0000000180039620 f i ConvexHullUtils.obj
 0001:000386d0       ?allocate@?$Array@VPxPlane@physx@@VNamedAllocator@shdfnd@2@@shdfnd@physx@@IEAAPEAVPxPlane@3@I@Z 00000001800396d0 f i ConvexHullUtils.obj
 0001:00038780       ?allocate@?$ReflectionAllocator@VConvexHull@physx@@@shdfnd@physx@@QEAAPEAX_KPEBDH@Z 0000000180039780 f i ConvexHullUtils.obj
 0001:00038820       ?begin@?$Array@VHalfEdge@ConvexHull@physx@@VNamedAllocator@shdfnd@3@@shdfnd@physx@@QEAAPEAVHalfEdge@ConvexHull@3@XZ 0000000180039820 f i ConvexHullUtils.obj
 0001:00038840       ?begin@?$Array@VHalfEdge@ConvexHull@physx@@VNamedAllocator@shdfnd@3@@shdfnd@physx@@QEBAPEBVHalfEdge@ConvexHull@3@XZ 0000000180039840 f i ConvexHullUtils.obj
 0001:00038860       ?begin@?$Array@VPxPlane@physx@@VNamedAllocator@shdfnd@2@@shdfnd@physx@@QEAAPEAVPxPlane@3@XZ 0000000180039860 f i ConvexHullUtils.obj
 0001:00038880       ?begin@?$Array@VPxPlane@physx@@VNamedAllocator@shdfnd@2@@shdfnd@physx@@QEBAPEBVPxPlane@3@XZ 0000000180039880 f i ConvexHullUtils.obj
 0001:000388a0       ?begin@?$Array@VPxVec3@physx@@VNamedAllocator@shdfnd@2@@shdfnd@physx@@QEBAPEBVPxVec3@3@XZ 00000001800398a0 f i ConvexHullUtils.obj
 0001:000388c0       ?capacity@?$Array@VHalfEdge@ConvexHull@physx@@VNamedAllocator@shdfnd@3@@shdfnd@physx@@QEBAIXZ 00000001800398c0 f i ConvexHullUtils.obj
 0001:000388e0       ?capacity@?$Array@VPxPlane@physx@@VNamedAllocator@shdfnd@2@@shdfnd@physx@@QEBAIXZ 00000001800398e0 f i ConvexHullUtils.obj
 0001:00038900       ?capacityIncrement@?$Array@VHalfEdge@ConvexHull@physx@@VNamedAllocator@shdfnd@3@@shdfnd@physx@@IEBAIXZ 0000000180039900 f i ConvexHullUtils.obj
 0001:00038950       ?capacityIncrement@?$Array@VPxPlane@physx@@VNamedAllocator@shdfnd@2@@shdfnd@physx@@IEBAIXZ 0000000180039950 f i ConvexHullUtils.obj
 0001:000389a0       ?copy@?$Array@VHalfEdge@ConvexHull@physx@@VNamedAllocator@shdfnd@3@@shdfnd@physx@@KAXPEAVHalfEdge@ConvexHull@3@0PEBV453@@Z 00000001800399a0 f i ConvexHullUtils.obj
 0001:00038a40       ?copy@?$Array@VPxPlane@physx@@VNamedAllocator@shdfnd@2@@shdfnd@physx@@KAXPEAVPxPlane@3@0PEBV43@@Z 0000000180039a40 f i ConvexHullUtils.obj
 0001:00038ae0       ?copyHull@ConvexHull@physx@@QEAAXAEBV12@@Z 0000000180039ae0 f i ConvexHullUtils.obj
 0001:00038d60       ?cos@intrinsics@physx@@YAMM@Z 0000000180039d60 f i ConvexHullUtils.obj
 0001:00038d80       ?create@?$Array@VHalfEdge@ConvexHull@physx@@VNamedAllocator@shdfnd@3@@shdfnd@physx@@KAXPEAVHalfEdge@ConvexHull@3@0AEBV453@@Z 0000000180039d80 f i ConvexHullUtils.obj
 0001:00038df0       ?create@?$Array@VPxPlane@physx@@VNamedAllocator@shdfnd@2@@shdfnd@physx@@KAXPEAVPxPlane@3@0AEBV43@@Z 0000000180039df0 f i ConvexHullUtils.obj
 0001:00038e60       ?create@?$Array@VPxVec3@physx@@VNamedAllocator@shdfnd@2@@shdfnd@physx@@KAXPEAVPxVec3@3@0AEBV43@@Z 0000000180039e60 f i ConvexHullUtils.obj
 0001:00038ed0       ?deallocate@?$Array@VHalfEdge@ConvexHull@physx@@VNamedAllocator@shdfnd@3@@shdfnd@physx@@IEAAXPEAX@Z 0000000180039ed0 f i ConvexHullUtils.obj
 0001:00038f00       ?deallocate@?$Array@VPxPlane@physx@@VNamedAllocator@shdfnd@2@@shdfnd@physx@@IEAAXPEAX@Z 0000000180039f00 f i ConvexHullUtils.obj
 0001:00038f30       ?degToRad@shdfnd@physx@@YAMM@Z 0000000180039f30 f i ConvexHullUtils.obj
 0001:00038f50       ?destroy@?$Array@VHalfEdge@ConvexHull@physx@@VNamedAllocator@shdfnd@3@@shdfnd@physx@@KAXPEAVHalfEdge@ConvexHull@3@0@Z 0000000180039f50 f i ConvexHullUtils.obj
 0001:00038f90       ?destroy@?$Array@VPxPlane@physx@@VNamedAllocator@shdfnd@2@@shdfnd@physx@@KAXPEAVPxPlane@3@0@Z 0000000180039f90 f i ConvexHullUtils.obj
 0001:00038fd0       ?getDeterminant@PxMat33@physx@@QEBAMXZ 0000000180039fd0 f i ConvexHullUtils.obj
 0001:00039020       ?getEdges@ConvexHull@physx@@QEAAAEAV?$Array@VHalfEdge@ConvexHull@physx@@VNamedAllocator@shdfnd@3@@shdfnd@2@XZ 000000018003a020 f i ConvexHullUtils.obj
 0001:00039040       ?getEdges@ConvexHull@physx@@QEBAAEBV?$Array@VHalfEdge@ConvexHull@physx@@VNamedAllocator@shdfnd@3@@shdfnd@2@XZ 000000018003a040 f i ConvexHullUtils.obj
 0001:00039060       ?getFacets@ConvexHull@physx@@QEAAAEAV?$Array@VPxPlane@physx@@VNamedAllocator@shdfnd@2@@shdfnd@2@XZ 000000018003a060 f i ConvexHullUtils.obj
 0001:00039080       ?getFacets@ConvexHull@physx@@QEBAAEBV?$Array@VPxPlane@physx@@VNamedAllocator@shdfnd@2@@shdfnd@2@XZ 000000018003a080 f i ConvexHullUtils.obj
 0001:000390a0       ?getInputPlanes@ConvexHull@physx@@QEBAAEBV?$Array@VPxPlane@physx@@VNamedAllocator@shdfnd@2@@shdfnd@2@XZ 000000018003a0a0 f i ConvexHullUtils.obj
 0001:000390c0       ?getInverse@PxMat33@physx@@QEBA?BV12@XZ 000000018003a0c0 f i ConvexHullUtils.obj
 0001:00039440       ?getName@?$ReflectionAllocator@VConvexHull@physx@@@shdfnd@physx@@CAPEBDXZ 000000018003a440 f i ConvexHullUtils.obj
 0001:00039490       ?getOriginInertia@PxIntegrals@physx@@QEAAXAEAVPxMat33@2@@Z 000000018003a490 f i ConvexHullUtils.obj
 0001:00039540       ?getTranspose@PxMat33@physx@@QEBA?BV12@XZ 000000018003a540 f i ConvexHullUtils.obj
 0001:00039620       ?getVertices@ConvexHull@physx@@QEAAAEAV?$Array@VPxVec3@physx@@VNamedAllocator@shdfnd@2@@shdfnd@2@XZ 000000018003a620 f i ConvexHullUtils.obj
 0001:00039630       ?getVertices@ConvexHull@physx@@QEBAAEBV?$Array@VPxVec3@physx@@VNamedAllocator@shdfnd@2@@shdfnd@2@XZ 000000018003a630 f i ConvexHullUtils.obj
 0001:00039640       ?grow@?$Array@VHalfEdge@ConvexHull@physx@@VNamedAllocator@shdfnd@3@@shdfnd@physx@@IEAAXI@Z 000000018003a640 f i ConvexHullUtils.obj
 0001:000396e0       ?grow@?$Array@VPxPlane@physx@@VNamedAllocator@shdfnd@2@@shdfnd@physx@@IEAAXI@Z 000000018003a6e0 f i ConvexHullUtils.obj
 0001:00039780       ?growAndPushBack@?$Array@VHalfEdge@ConvexHull@physx@@VNamedAllocator@shdfnd@3@@shdfnd@physx@@IEAAAEAVHalfEdge@ConvexHull@3@AEBV453@@Z 000000018003a780 f i ConvexHullUtils.obj
 0001:00039960       ?growAndPushBack@?$Array@VPxPlane@physx@@VNamedAllocator@shdfnd@2@@shdfnd@physx@@IEAAAEAVPxPlane@3@AEBV43@@Z 000000018003a960 f i ConvexHullUtils.obj
 0001:00039b50       ?isInUserMemory@?$Array@VHalfEdge@ConvexHull@physx@@VNamedAllocator@shdfnd@3@@shdfnd@physx@@QEBAIXZ 000000018003ab50 f i ConvexHullUtils.obj
 0001:00039b70       ?isInUserMemory@?$Array@VPxPlane@physx@@VNamedAllocator@shdfnd@2@@shdfnd@physx@@QEBAIXZ 000000018003ab70 f i ConvexHullUtils.obj
 0001:00039b90       ?pushBack@?$Array@VHalfEdge@ConvexHull@physx@@VNamedAllocator@shdfnd@3@@shdfnd@physx@@QEAAAEAVHalfEdge@ConvexHull@3@AEBV453@@Z 000000018003ab90 f i ConvexHullUtils.obj
 0001:00039c60       ?pushBack@?$Array@VPxPlane@physx@@VNamedAllocator@shdfnd@2@@shdfnd@physx@@QEAAAEAVPxPlane@3@AEBV43@@Z 000000018003ac60 f i ConvexHullUtils.obj
 0001:00039d30       ?recreate@?$Array@VHalfEdge@ConvexHull@physx@@VNamedAllocator@shdfnd@3@@shdfnd@physx@@IEAAXI@Z 000000018003ad30 f i ConvexHullUtils.obj
 0001:00039e90       ?recreate@?$Array@VPxPlane@physx@@VNamedAllocator@shdfnd@2@@shdfnd@physx@@IEAAXI@Z 000000018003ae90 f i ConvexHullUtils.obj
 0001:00039ff0       ?reserve@?$Array@VHalfEdge@ConvexHull@physx@@VNamedAllocator@shdfnd@3@@shdfnd@physx@@QEAAXI@Z 000000018003aff0 f i ConvexHullUtils.obj
 0001:0003a030       ?reserve@?$Array@VPxPlane@physx@@VNamedAllocator@shdfnd@2@@shdfnd@physx@@QEAAXI@Z 000000018003b030 f i ConvexHullUtils.obj
 0001:0003a070       ?resize@?$Array@VHalfEdge@ConvexHull@physx@@VNamedAllocator@shdfnd@3@@shdfnd@physx@@QEAAXIAEBVHalfEdge@ConvexHull@3@@Z 000000018003b070 f i ConvexHullUtils.obj
 0001:0003a130       ?resize@?$Array@VPxPlane@physx@@VNamedAllocator@shdfnd@2@@shdfnd@physx@@QEAAXIAEBVPxPlane@3@@Z 000000018003b130 f i ConvexHullUtils.obj
 0001:0003a1f0       ?resize@?$Array@VPxVec3@physx@@VNamedAllocator@shdfnd@2@@shdfnd@physx@@QEAAXIAEBVPxVec3@3@@Z 000000018003b1f0 f i ConvexHullUtils.obj
 0001:0003a2b0       ?sin@intrinsics@physx@@YAMM@Z 000000018003b2b0 f i ConvexHullUtils.obj
 0001:0003a2d0       ?size@?$Array@VHalfEdge@ConvexHull@physx@@VNamedAllocator@shdfnd@3@@shdfnd@physx@@QEBAIXZ 000000018003b2d0 f i ConvexHullUtils.obj
 0001:0003a2f0       ?size@?$Array@VPxPlane@physx@@VNamedAllocator@shdfnd@2@@shdfnd@physx@@QEBAIXZ 000000018003b2f0 f i ConvexHullUtils.obj
 0001:0003a310       ?threePlaneIntersection@physx@@YA?AVPxVec3@1@AEBVPxPlane@1@00@Z 000000018003b310 f i ConvexHullUtils.obj
 0001:0003a410       ?to8@shdfnd@physx@@YAEG@Z  000000018003b410 f i ConvexHullUtils.obj
 0001:0003a490       ?transform@PxMat33@physx@@QEBA?BVPxVec3@2@AEBV32@@Z 000000018003b490 f i ConvexHullUtils.obj
 0001:0003a570       ??0ConvexMeshBuilder@physx@@QEAA@_N@Z 000000018003b570 f   ConvexMeshBuilder.obj
 0001:0003a5f0       ??1ConvexMeshBuilder@physx@@QEAA@XZ 000000018003b5f0 f   ConvexMeshBuilder.obj
 0001:0003a670       ?build@ConvexMeshBuilder@physx@@QEAA_NAEBVPxConvexMeshDesc@2@I_NPEAVConvexHullLib@2@@Z 000000018003b670 f   ConvexMeshBuilder.obj
 0001:0003a7a0       ?save@ConvexMeshBuilder@physx@@QEBA_NAEAVPxOutputStream@2@_N@Z 000000018003b7a0 f   ConvexMeshBuilder.obj
 0001:0003aaf0       ?copy@ConvexMeshBuilder@physx@@QEAA_NAEAUConvexHullData@Gu@2@AEAI@Z 000000018003baf0 f   ConvexMeshBuilder.obj
 0001:0003ac30       ?loadConvexHull@ConvexMeshBuilder@physx@@QEAA_NAEBVPxConvexMeshDesc@2@PEAVConvexHullLib@2@@Z 000000018003bc30 f   ConvexMeshBuilder.obj
 0001:0003b060       ?computeHullPolygons@ConvexMeshBuilder@physx@@QEAA_NAEBIPEBVPxVec3@2@0PEBIAEAVPxAllocatorCallback@2@AEAIAEAPEAV32@4AEAPEAI4AEAPEAUPxHullPolygon@2@@Z 000000018003c060 f   ConvexMeshBuilder.obj
 0001:0003b4a0       ?computeGaussMaps@ConvexMeshBuilder@physx@@QEAA_NXZ 000000018003c4a0 f   ConvexMeshBuilder.obj
 0001:0003b5f0       ?computeMassInfo@ConvexMeshBuilder@physx@@QEAAX_N@Z 000000018003c5f0 f   ConvexMeshBuilder.obj
 0001:0003b940       ?computeInternalObjects@ConvexMeshBuilder@physx@@QEAAXXZ 000000018003c940 f   ConvexMeshBuilder.obj
 0001:0003c970       ??0?$PxBitAndDataT@G$0IAAA@@physx@@QEAA@XZ 000000018003d970 f i ConvexMeshBuilder.obj
 0001:0003c990       ??0?$ReflectionAllocator@VBigConvexData@physx@@@shdfnd@physx@@QEAA@PEBD@Z 000000018003d990 f i ConvexMeshBuilder.obj
 0001:0003c9b0       ??0CenterExtents@Gu@physx@@QEAA@AEBVPxBounds3@2@@Z 000000018003d9b0 f i ConvexMeshBuilder.obj
 0001:0003ca40       ??0CenterExtents@Gu@physx@@QEAA@XZ 000000018003da40 f i ConvexMeshBuilder.obj
 0001:0003ca80       ??0ConvexHullData@Gu@physx@@QEAA@XZ 000000018003da80 f i ConvexMeshBuilder.obj
 0001:0003cae0       ??1CenterExtents@Gu@physx@@QEAA@XZ 000000018003dae0 f i ConvexMeshBuilder.obj
 0001:0003caf0       ??1ConvexHullData@Gu@physx@@QEAA@XZ 000000018003daf0 f i ConvexMeshBuilder.obj
 0001:0003cb20       ??2UserAllocated@shdfnd@physx@@SAPEAX_KPEAX@Z 000000018003db20 f i ConvexMeshBuilder.obj
 0001:0003cb40       ??4CenterExtents@Gu@physx@@QEAAAEAV012@AEBV012@@Z 000000018003db40 f i ConvexMeshBuilder.obj
 0001:0003cba0       ??4PxMat33@physx@@QEAAAEAV01@AEBV01@@Z 000000018003dba0 f i ConvexMeshBuilder.obj
 0001:0003cc20       ??GPxMat33@physx@@QEBA?BV01@XZ 000000018003dc20 f i ConvexMeshBuilder.obj
 0001:0003ccc0       ??_GBigConvexData@physx@@QEAAPEAXI@Z 000000018003dcc0 f i ConvexMeshBuilder.obj
 0001:0003cd30       ?allocate@?$ReflectionAllocator@VBigConvexData@physx@@@shdfnd@physx@@QEAAPEAX_KPEBDH@Z 000000018003dd30 f i ConvexMeshBuilder.obj
 0001:0003cdd0       ?getExtents@PxBounds3@physx@@QEBA?AVPxVec3@2@XZ 000000018003ddd0 f i ConvexMeshBuilder.obj
 0001:0003ce90       ?getMax@CenterExtents@Gu@physx@@QEBA?AVPxVec3@3@XZ 000000018003de90 f i ConvexMeshBuilder.obj
 0001:0003ced0       ?getMin@CenterExtents@Gu@physx@@QEBA?AVPxVec3@3@XZ 000000018003ded0 f i ConvexMeshBuilder.obj
 0001:0003cf10       ?getName@?$ReflectionAllocator@VBigConvexData@physx@@@shdfnd@physx@@CAPEBDXZ 000000018003df10 f i ConvexMeshBuilder.obj
 0001:0003cf60       ?getNextIndex3@shdfnd@physx@@YAII@Z 000000018003df60 f i ConvexMeshBuilder.obj
 0001:0003cf80       ?isValid@PxConvexMeshDesc@physx@@QEBA_NXZ 000000018003df80 f i ConvexMeshBuilder.obj
 0001:0003d210       ?largestAxis@shdfnd@physx@@YAIAEBVPxVec3@2@@Z 000000018003e210 f i ConvexMeshBuilder.obj
 0001:0003d2a0       ?markSerializedMem@Cm@physx@@YAXPEAXI@Z 000000018003e2a0 f i ConvexMeshBuilder.obj
 0001:0003d2f0       ??0ConvexPolygonsBuilder@physx@@QEAA@PEAUConvexHullData@Gu@1@_N@Z 000000018003e2f0 f   ConvexPolygonsBuilder.obj
 0001:0003d350       ??1ConvexPolygonsBuilder@physx@@QEAA@XZ 000000018003e350 f   ConvexPolygonsBuilder.obj
 0001:0003d3a0       ?computeHullPolygons@ConvexPolygonsBuilder@physx@@QEAA_NAEBIPEBVPxVec3@2@0PEBI@Z 000000018003e3a0 f   ConvexPolygonsBuilder.obj
 0001:0003d910       ?createPolygonData@ConvexPolygonsBuilder@physx@@AEAA_NXZ 000000018003e910 f   ConvexPolygonsBuilder.obj
 0001:0003e860       ?createTrianglesFromPolygons@ConvexPolygonsBuilder@physx@@AEAA_NXZ 000000018003f860 f   ConvexPolygonsBuilder.obj
 0001:00042980       ??$?4VNamedAllocator@shdfnd@physx@@@?$Array@IVNamedAllocator@shdfnd@physx@@@shdfnd@physx@@QEAAAEAV012@AEBV012@@Z 0000000180043980 f i ConvexPolygonsBuilder.obj
 0001:00042a30       ??$?_UUHullTriangleData@physx@@@@YAPEAX_KV?$ReflectionAllocator@UHullTriangleData@physx@@@shdfnd@physx@@PEBDH@Z 0000000180043a30 f i ConvexPolygonsBuilder.obj
 0001:00042a80       ??$PlaneEquation@U?$TriangleT@I@Gu@physx@@@@YA?AVPxPlane@physx@@AEBU?$TriangleT@I@Gu@1@PEBVPxVec3@1@@Z 0000000180043a80 f i ConvexPolygonsBuilder.obj
 0001:00042b50       ??$copy@VNamedAllocator@shdfnd@physx@@@?$Array@VPair@@VNamedAllocator@shdfnd@physx@@@shdfnd@physx@@IEAAXAEBV012@@Z 0000000180043b50 f i ConvexPolygonsBuilder.obj
 0001:00042c40       ??$swap@E@shdfnd@physx@@YAXAEAE0@Z 0000000180043c40 f i ConvexPolygonsBuilder.obj
 0001:00042c90       ??0?$Array@VPair@@VNamedAllocator@shdfnd@physx@@@shdfnd@physx@@QEAA@AEBV012@AEBVNamedAllocator@12@@Z 0000000180043c90 f i ConvexPolygonsBuilder.obj
 0001:00042ce0       ??0?$Array@VPair@@VNamedAllocator@shdfnd@physx@@@shdfnd@physx@@QEAA@AEBVNamedAllocator@12@@Z 0000000180043ce0 f i ConvexPolygonsBuilder.obj
 0001:00042d40       ??0?$ReflectionAllocator@UHullTriangleData@physx@@@shdfnd@physx@@QEAA@PEBD@Z 0000000180043d40 f i ConvexPolygonsBuilder.obj
 0001:00042d60       ??0ADJACENCIESCREATE@physx@@QEAA@XZ 0000000180043d60 f i ConvexPolygonsBuilder.obj
 0001:00042dd0       ??0Pair@@QEAA@II@Z         0000000180043dd0 f i ConvexPolygonsBuilder.obj
 0001:00042e10       ??1?$Array@VPair@@VNamedAllocator@shdfnd@physx@@@shdfnd@physx@@QEAA@XZ 0000000180043e10 f i ConvexPolygonsBuilder.obj
 0001:00042ea0       ??1Pair@@QEAA@XZ           0000000180043ea0 f i ConvexPolygonsBuilder.obj
 0001:00042eb0       ??4?$Array@IVNamedAllocator@shdfnd@physx@@@shdfnd@physx@@QEAAAEAV012@AEBV012@@Z 0000000180043eb0 f i ConvexPolygonsBuilder.obj
 0001:00042ee0       ??A?$Array@VPair@@VNamedAllocator@shdfnd@physx@@@shdfnd@physx@@QEAAAEAVPair@@I@Z 0000000180043ee0 f i ConvexPolygonsBuilder.obj
 0001:00042f80       ??_GPair@@QEAAPEAXI@Z      0000000180043f80 f i ConvexPolygonsBuilder.obj
 0001:00042ff0       ?GetAdjTri@AdjTriangle@physx@@QEBAIW4SharedEdgeIndex@2@@Z 0000000180043ff0 f i ConvexPolygonsBuilder.obj
 0001:00043020       ?HasActiveEdge01@AdjTriangle@physx@@QEBAHXZ 0000000180044020 f i ConvexPolygonsBuilder.obj
 0001:00043050       ?HasActiveEdge12@AdjTriangle@physx@@QEBAHXZ 0000000180044050 f i ConvexPolygonsBuilder.obj
 0001:00043080       ?HasActiveEdge20@AdjTriangle@physx@@QEBAHXZ 0000000180044080 f i ConvexPolygonsBuilder.obj
 0001:000430b0       ?HasActiveEdge@AdjTriangle@physx@@QEBAHI@Z 00000001800440b0 f i ConvexPolygonsBuilder.obj
 0001:000430e0       ?allocate@?$Array@VPair@@VNamedAllocator@shdfnd@physx@@@shdfnd@physx@@IEAAPEAVPair@@I@Z 00000001800440e0 f i ConvexPolygonsBuilder.obj
 0001:00043190       ?allocate@?$ReflectionAllocator@UHullTriangleData@physx@@@shdfnd@physx@@QEAAPEAX_KPEBDH@Z 0000000180044190 f i ConvexPolygonsBuilder.obj
 0001:00043230       ?begin@?$Array@VPair@@VNamedAllocator@shdfnd@physx@@@shdfnd@physx@@QEAAPEAVPair@@XZ 0000000180044230 f i ConvexPolygonsBuilder.obj
 0001:00043250       ?begin@?$Array@VPair@@VNamedAllocator@shdfnd@physx@@@shdfnd@physx@@QEBAPEBVPair@@XZ 0000000180044250 f i ConvexPolygonsBuilder.obj
 0001:00043270       ?capacity@?$Array@VPair@@VNamedAllocator@shdfnd@physx@@@shdfnd@physx@@QEBAIXZ 0000000180044270 f i ConvexPolygonsBuilder.obj
 0001:00043290       ?capacityIncrement@?$Array@VPair@@VNamedAllocator@shdfnd@physx@@@shdfnd@physx@@IEBAIXZ 0000000180044290 f i ConvexPolygonsBuilder.obj
 0001:000432e0       ?clear@?$Array@IVNamedAllocator@shdfnd@physx@@@shdfnd@physx@@QEAAXXZ 00000001800442e0 f i ConvexPolygonsBuilder.obj
 0001:00043330       ?copy@?$Array@VPair@@VNamedAllocator@shdfnd@physx@@@shdfnd@physx@@KAXPEAVPair@@0PEBV4@@Z 0000000180044330 f i ConvexPolygonsBuilder.obj
 0001:000433d0       ?deallocate@?$Array@VPair@@VNamedAllocator@shdfnd@physx@@@shdfnd@physx@@IEAAXPEAX@Z 00000001800443d0 f i ConvexPolygonsBuilder.obj
 0001:00043400       ?destroy@?$Array@VPair@@VNamedAllocator@shdfnd@physx@@@shdfnd@physx@@KAXPEAVPair@@0@Z 0000000180044400 f i ConvexPolygonsBuilder.obj
 0001:00043450       ?empty@?$Array@VPair@@VNamedAllocator@shdfnd@physx@@@shdfnd@physx@@QEBA_NXZ 0000000180044450 f i ConvexPolygonsBuilder.obj
 0001:00043490       ?end@?$Array@IVNamedAllocator@shdfnd@physx@@@shdfnd@physx@@QEAAPEAIXZ 0000000180044490 f i ConvexPolygonsBuilder.obj
 0001:000434b0       ?find@?$Array@IVNamedAllocator@shdfnd@physx@@@shdfnd@physx@@QEAAPEAIAEBI@Z 00000001800444b0 f i ConvexPolygonsBuilder.obj
 0001:00043520       ?flip@?$TriangleT@I@Gu@physx@@QEAAXXZ 0000000180044520 f i ConvexPolygonsBuilder.obj
 0001:00043570       ?forceSize_Unsafe@?$Array@IVNamedAllocator@shdfnd@physx@@@shdfnd@physx@@QEAAXI@Z 0000000180044570 f i ConvexPolygonsBuilder.obj
 0001:00043610       ?getFaces@ConvexPolygonsBuilder@physx@@QEBAPEBUHullTriangleData@2@XZ 0000000180044610 f i ConvexPolygonsBuilder.obj
 0001:00043630       ?getName@?$ReflectionAllocator@UHullTriangleData@physx@@@shdfnd@physx@@CAPEBDXZ 0000000180044630 f i ConvexPolygonsBuilder.obj
 0001:00043680       ?getNbFaces@ConvexPolygonsBuilder@physx@@QEBAIXZ 0000000180044680 f i ConvexPolygonsBuilder.obj
 0001:000436a0       ?growAndPushBack@?$Array@VPair@@VNamedAllocator@shdfnd@physx@@@shdfnd@physx@@IEAAAEAVPair@@AEBV4@@Z 00000001800446a0 f i ConvexPolygonsBuilder.obj
 0001:000438b0       ?isInUserMemory@?$Array@VPair@@VNamedAllocator@shdfnd@physx@@@shdfnd@physx@@QEBAIXZ 00000001800448b0 f i ConvexPolygonsBuilder.obj
 0001:000438d0       ?pushBack@?$Array@VPair@@VNamedAllocator@shdfnd@physx@@@shdfnd@physx@@QEAAAEAVPair@@AEBV4@@Z 00000001800448d0 f i ConvexPolygonsBuilder.obj
 0001:000439c0       ?remove@?$Array@IVNamedAllocator@shdfnd@physx@@@shdfnd@physx@@QEAAXI@Z 00000001800449c0 f i ConvexPolygonsBuilder.obj
 0001:00043ae0       ?remove@?$Array@VPair@@VNamedAllocator@shdfnd@physx@@@shdfnd@physx@@QEAAXI@Z 0000000180044ae0 f i ConvexPolygonsBuilder.obj
 0001:00043c40       ?size@?$Array@VPair@@VNamedAllocator@shdfnd@physx@@@shdfnd@physx@@QEBAIXZ 0000000180044c40 f i ConvexPolygonsBuilder.obj
 0001:00043c60       ??0InflationConvexHullLib@physx@@QEAA@AEBVPxConvexMeshDesc@1@AEBUPxCookingParams@1@@Z 0000000180044c60 f   InflationConvexHullLib.obj
 0001:00043cc0       ??1InflationConvexHullLib@physx@@UEAA@XZ 0000000180044cc0 f   InflationConvexHullLib.obj
 0001:00043d70       ?createConvexHull@InflationConvexHullLib@physx@@UEAA?AW4Enum@PxConvexMeshCookingResult@2@XZ 0000000180044d70 f   InflationConvexHullLib.obj
 0001:00044060       ?fillConvexMeshDesc@InflationConvexHullLib@physx@@UEAAXAEAVPxConvexMeshDesc@2@@Z 0000000180045060 f   InflationConvexHullLib.obj
 0001:000441b0       ?computeHull@InflationConvexHullLib@physx@@IEAA?AW4ErrorCode@ConvexHullLibResult@2@IPEBVPxVec3@2@@Z 00000001800451b0 f   InflationConvexHullLib.obj
 0001:000447d0       ?calchull@InflationConvexHullLib@physx@@IEAA?AW4ErrorCode@ConvexHullLibResult@2@PEBVPxVec3@2@IAEAPEAVConvexHull@2@@Z 00000001800457d0 f   InflationConvexHullLib.obj
 0001:00044b90       ?calchullgen@InflationConvexHullLib@physx@@IEAA?AW4ErrorCode@ConvexHullLibResult@2@PEBVPxVec3@2@IAEAVHullTriangles@local@@@Z 0000000180045b90 f   InflationConvexHullLib.obj
 0001:00045db0       ?calchullplanes@InflationConvexHullLib@physx@@IEAA_NPEBVPxVec3@2@AEAVHullTriangles@local@@AEAV?$Array@VPxPlane@physx@@VNamedAllocator@shdfnd@2@@shdfnd@2@@Z 0000000180046db0 f   InflationConvexHullLib.obj
 0001:00046100       ?overhull@InflationConvexHullLib@physx@@IEAA_NPEBVPxVec3@2@IAEBV?$Array@VPxPlane@physx@@VNamedAllocator@shdfnd@2@@shdfnd@2@AEAPEAVConvexHull@2@@Z 0000000180047100 f   InflationConvexHullLib.obj
 0001:00046780       ?expandHull@InflationConvexHullLib@physx@@IEAA?AW4ErrorCode@ConvexHullLibResult@2@PEBVPxVec3@2@IAEBVHullTriangles@local@@AEAPEAVConvexHull@2@@Z 0000000180047780 f   InflationConvexHullLib.obj
 0001:00047940       ?expandHullOBB@InflationConvexHullLib@physx@@IEAA?AW4ErrorCode@ConvexHullLibResult@2@PEBVPxVec3@2@IAEBVHullTriangles@local@@AEAPEAVConvexHull@2@@Z 0000000180048940 f   InflationConvexHullLib.obj
 0001:00048190       ?maxIndexInDirFiltered@local@@YAHPEBVPxVec3@physx@@IAEBV23@PEA_N@Z 0000000180049190 f   InflationConvexHullLib.obj
 0001:00048400       ?maxIndexInDirSterid@local@@YAHPEBVPxVec3@physx@@IAEBV23@AEAV?$Array@EVNamedAllocator@shdfnd@physx@@@shdfnd@3@@Z 0000000180049400 f   InflationConvexHullLib.obj
 0001:0004aa00       ??$?2V?$ReflectionAllocator@VTri@local@@@shdfnd@physx@@@UserAllocated@shdfnd@physx@@SAPEAX_KV?$ReflectionAllocator@VTri@local@@@12@PEBDH@Z 000000018004ba00 f i InflationConvexHullLib.obj
 0001:0004aa50       ??$?_UUPxHullPolygon@physx@@@@YAPEAX_KV?$ReflectionAllocator@UPxHullPolygon@physx@@@shdfnd@physx@@PEBDH@Z 000000018004ba50 f i InflationConvexHullLib.obj
 0001:0004aaa0       ??$PX_UNUSED@H@@YAXAEBH@Z  000000018004baa0 f i InflationConvexHullLib.obj
 0001:0004aab0       ??$swap@H@shdfnd@physx@@YAXAEAH0@Z 000000018004bab0 f i InflationConvexHullLib.obj
 0001:0004ab00       ??0?$Array@EVNamedAllocator@shdfnd@physx@@@shdfnd@physx@@QEAA@AEBVNamedAllocator@12@@Z 000000018004bb00 f i InflationConvexHullLib.obj
 0001:0004ab60       ??0?$Array@HVNamedAllocator@shdfnd@physx@@@shdfnd@physx@@QEAA@AEBVNamedAllocator@12@@Z 000000018004bb60 f i InflationConvexHullLib.obj
 0001:0004abc0       ??0?$Array@PEAVTri@local@@VNamedAllocator@shdfnd@physx@@@shdfnd@physx@@QEAA@AEBVNamedAllocator@12@@Z 000000018004bbc0 f i InflationConvexHullLib.obj
 0001:0004ac20       ??0?$Array@UExpandPlane@local@@VNamedAllocator@shdfnd@physx@@@shdfnd@physx@@QEAA@AEBVNamedAllocator@12@@Z 000000018004bc20 f i InflationConvexHullLib.obj
 0001:0004ac80       ??0?$ReflectionAllocator@UPxHullPolygon@physx@@@shdfnd@physx@@QEAA@PEBD@Z 000000018004bc80 f i InflationConvexHullLib.obj
 0001:0004aca0       ??0?$ReflectionAllocator@VTri@local@@@shdfnd@physx@@QEAA@PEBD@Z 000000018004bca0 f i InflationConvexHullLib.obj
 0001:0004acc0       ??0?$ScopedPointer@_NVTempAllocator@shdfnd@physx@@@shdfnd@physx@@QEAA@XZ 000000018004bcc0 f i InflationConvexHullLib.obj
 0001:0004acf0       ??0ConvexHullLib@physx@@QEAA@AEBVPxConvexMeshDesc@1@AEBUPxCookingParams@1@@Z 000000018004bcf0 f i InflationConvexHullLib.obj
 0001:0004ad80       ??0ConvexHullLibResult@physx@@QEAA@XZ 000000018004bd80 f i InflationConvexHullLib.obj
 0001:0004adf0       ??0ExpandPlane@local@@QEAA@AEBU01@@Z 000000018004bdf0 f i InflationConvexHullLib.obj
 0001:0004aeb0       ??0ExpandPlane@local@@QEAA@XZ 000000018004beb0 f i InflationConvexHullLib.obj
 0001:0004af60       ??0HullSimplex@local@@QEAA@HHHH@Z 000000018004bf60 f i InflationConvexHullLib.obj
 0001:0004afc0       ??0HullTriangles@local@@QEAA@XZ 000000018004bfc0 f i InflationConvexHullLib.obj
 0001:0004b020       ??0PxTransform@physx@@QEAA@XZ 000000018004c020 f i InflationConvexHullLib.obj
 0001:0004b060       ??0Tri@local@@IEAA@HHH@Z   000000018004c060 f i InflationConvexHullLib.obj
 0001:0004b100       ??0int3@local@@QEAA@HHH@Z  000000018004c100 f i InflationConvexHullLib.obj
 0001:0004b150       ??1?$Array@EVNamedAllocator@shdfnd@physx@@@shdfnd@physx@@QEAA@XZ 000000018004c150 f i InflationConvexHullLib.obj
 0001:0004b1d0       ??1?$Array@HVNamedAllocator@shdfnd@physx@@@shdfnd@physx@@QEAA@XZ 000000018004c1d0 f i InflationConvexHullLib.obj
 0001:0004b260       ??1?$Array@PEAVTri@local@@VNamedAllocator@shdfnd@physx@@@shdfnd@physx@@QEAA@XZ 000000018004c260 f i InflationConvexHullLib.obj
 0001:0004b2f0       ??1?$Array@UExpandPlane@local@@VNamedAllocator@shdfnd@physx@@@shdfnd@physx@@QEAA@XZ 000000018004c2f0 f i InflationConvexHullLib.obj
 0001:0004b380       ??1?$Array@VHalfEdge@ConvexHull@physx@@VNamedAllocator@shdfnd@3@@shdfnd@physx@@QEAA@XZ 000000018004c380 f i InflationConvexHullLib.obj
 0001:0004b410       ??1?$Array@VPxPlane@physx@@VNamedAllocator@shdfnd@2@@shdfnd@physx@@QEAA@XZ 000000018004c410 f i InflationConvexHullLib.obj
 0001:0004b4a0       ??1?$ScopedPointer@_NVTempAllocator@shdfnd@physx@@@shdfnd@physx@@QEAA@XZ 000000018004c4a0 f i InflationConvexHullLib.obj
 0001:0004b4e0       ??1ConvexHull@physx@@QEAA@XZ 000000018004c4e0 f i InflationConvexHullLib.obj
 0001:0004b530       ??1HullTriangles@local@@QEAA@XZ 000000018004c530 f i InflationConvexHullLib.obj
 0001:0004b610       ??1Tri@local@@IEAA@XZ      000000018004c610 f i InflationConvexHullLib.obj
 0001:0004b620       ??4?$PxFlags@W4Enum@PxConvexFlag@physx@@G@physx@@QEAAAEAV01@AEBV01@@Z 000000018004c620 f i InflationConvexHullLib.obj
 0001:0004b650       ??A?$Array@EVNamedAllocator@shdfnd@physx@@@shdfnd@physx@@QEAAAEAEI@Z 000000018004c650 f i InflationConvexHullLib.obj
 0001:0004b6f0       ??A?$Array@HVNamedAllocator@shdfnd@physx@@@shdfnd@physx@@QEAAAEAHI@Z 000000018004c6f0 f i InflationConvexHullLib.obj
 0001:0004b790       ??A?$Array@PEAVTri@local@@VNamedAllocator@shdfnd@physx@@@shdfnd@physx@@QEAAAEAPEAVTri@local@@I@Z 000000018004c790 f i InflationConvexHullLib.obj
 0001:0004b830       ??A?$Array@PEAVTri@local@@VNamedAllocator@shdfnd@physx@@@shdfnd@physx@@QEBAAEBQEAVTri@local@@I@Z 000000018004c830 f i InflationConvexHullLib.obj
 0001:0004b8d0       ??A?$Array@UExpandPlane@local@@VNamedAllocator@shdfnd@physx@@@shdfnd@physx@@QEAAAEAUExpandPlane@local@@I@Z 000000018004c8d0 f i InflationConvexHullLib.obj
 0001:0004b970       ??A?$Array@VPxPlane@physx@@VNamedAllocator@shdfnd@2@@shdfnd@physx@@QEAAAEAVPxPlane@2@I@Z 000000018004c970 f i InflationConvexHullLib.obj
 0001:0004ba10       ??AHullSimplex@local@@QEAAAEAHH@Z 000000018004ca10 f i InflationConvexHullLib.obj
 0001:0004ba30       ??AHullTriangles@local@@QEAAPEAVTri@1@I@Z 000000018004ca30 f i InflationConvexHullLib.obj
 0001:0004ba60       ??AHullTriangles@local@@QEBAPEBVTri@1@I@Z 000000018004ca60 f i InflationConvexHullLib.obj
 0001:0004ba90       ??Aint3@local@@QEAAAEAHH@Z 000000018004ca90 f i InflationConvexHullLib.obj
 0001:0004bab0       ??Aint3@local@@QEBAAEBHH@Z 000000018004cab0 f i InflationConvexHullLib.obj
 0001:0004bad0       ??B?$ScopedPointer@_NVTempAllocator@shdfnd@physx@@@shdfnd@physx@@QEBAPEA_NXZ 000000018004cad0 f i InflationConvexHullLib.obj
 0001:0004baf0       ??KPxVec3@physx@@QEBA?AV01@M@Z 000000018004caf0 f i InflationConvexHullLib.obj
 0001:0004bb90       ??_GConvexHull@physx@@QEAAPEAXI@Z 000000018004cb90 f i InflationConvexHullLib.obj
 0001:0004bc00       ??_EInflationConvexHullLib@physx@@UEAAPEAXI@Z 000000018004cc00 f i InflationConvexHullLib.obj
 0001:0004bc00       ??_GInflationConvexHullLib@physx@@UEAAPEAXI@Z 000000018004cc00 f i InflationConvexHullLib.obj
 0001:0004bc70       ??_GTri@local@@IEAAPEAXI@Z 000000018004cc70 f i InflationConvexHullLib.obj
 0001:0004bce0       ?allocate@?$Array@EVNamedAllocator@shdfnd@physx@@@shdfnd@physx@@IEAAPEAEI@Z 000000018004cce0 f i InflationConvexHullLib.obj
 0001:0004bd80       ?allocate@?$Array@HVNamedAllocator@shdfnd@physx@@@shdfnd@physx@@IEAAPEAHI@Z 000000018004cd80 f i InflationConvexHullLib.obj
 0001:0004be30       ?allocate@?$Array@PEAVTri@local@@VNamedAllocator@shdfnd@physx@@@shdfnd@physx@@IEAAPEAPEAVTri@local@@I@Z 000000018004ce30 f i InflationConvexHullLib.obj
 0001:0004bee0       ?allocate@?$Array@UExpandPlane@local@@VNamedAllocator@shdfnd@physx@@@shdfnd@physx@@IEAAPEAUExpandPlane@local@@I@Z 000000018004cee0 f i InflationConvexHullLib.obj
 0001:0004bf90       ?allocate@?$ReflectionAllocator@UPxHullPolygon@physx@@@shdfnd@physx@@QEAAPEAX_KPEBDH@Z 000000018004cf90 f i InflationConvexHullLib.obj
 0001:0004c030       ?allocate@?$ReflectionAllocator@VTri@local@@@shdfnd@physx@@QEAAPEAX_KPEBDH@Z 000000018004d030 f i InflationConvexHullLib.obj
 0001:0004c0d0       ?b2bfix@HullTriangles@local@@IEAAXPEAVTri@2@0@Z 000000018004d0d0 f i InflationConvexHullLib.obj
 0001:0004c3d0       ?capacity@?$Array@EVNamedAllocator@shdfnd@physx@@@shdfnd@physx@@QEBAIXZ 000000018004d3d0 f i InflationConvexHullLib.obj
 0001:0004c3f0       ?capacity@?$Array@HVNamedAllocator@shdfnd@physx@@@shdfnd@physx@@QEBAIXZ 000000018004d3f0 f i InflationConvexHullLib.obj
 0001:0004c410       ?capacity@?$Array@PEAVTri@local@@VNamedAllocator@shdfnd@physx@@@shdfnd@physx@@QEBAIXZ 000000018004d410 f i InflationConvexHullLib.obj
 0001:0004c430       ?capacity@?$Array@UExpandPlane@local@@VNamedAllocator@shdfnd@physx@@@shdfnd@physx@@QEBAIXZ 000000018004d430 f i InflationConvexHullLib.obj
 0001:0004c450       ?capacityIncrement@?$Array@EVNamedAllocator@shdfnd@physx@@@shdfnd@physx@@IEBAIXZ 000000018004d450 f i InflationConvexHullLib.obj
 0001:0004c4a0       ?capacityIncrement@?$Array@HVNamedAllocator@shdfnd@physx@@@shdfnd@physx@@IEBAIXZ 000000018004d4a0 f i InflationConvexHullLib.obj
 0001:0004c4f0       ?capacityIncrement@?$Array@PEAVTri@local@@VNamedAllocator@shdfnd@physx@@@shdfnd@physx@@IEBAIXZ 000000018004d4f0 f i InflationConvexHullLib.obj
 0001:0004c540       ?capacityIncrement@?$Array@UExpandPlane@local@@VNamedAllocator@shdfnd@physx@@@shdfnd@physx@@IEBAIXZ 000000018004d540 f i InflationConvexHullLib.obj
 0001:0004c590       ?checkit@HullTriangles@local@@QEBAXPEAVTri@2@@Z 000000018004d590 f i InflationConvexHullLib.obj
 0001:0004c7f0       ?clear@?$Array@HVNamedAllocator@shdfnd@physx@@@shdfnd@physx@@QEAAXXZ 000000018004d7f0 f i InflationConvexHullLib.obj
 0001:0004c840       ?clear@?$Array@PEAVTri@local@@VNamedAllocator@shdfnd@physx@@@shdfnd@physx@@QEAAXXZ 000000018004d840 f i InflationConvexHullLib.obj
 0001:0004c890       ?copy@?$Array@EVNamedAllocator@shdfnd@physx@@@shdfnd@physx@@KAXPEAE0PEBE@Z 000000018004d890 f i InflationConvexHullLib.obj
 0001:0004c920       ?copy@?$Array@HVNamedAllocator@shdfnd@physx@@@shdfnd@physx@@KAXPEAH0PEBH@Z 000000018004d920 f i InflationConvexHullLib.obj
 0001:0004c9c0       ?copy@?$Array@PEAVTri@local@@VNamedAllocator@shdfnd@physx@@@shdfnd@physx@@KAXPEAPEAVTri@local@@0PEBQEAV45@@Z 000000018004d9c0 f i InflationConvexHullLib.obj
 0001:0004ca60       ?copy@?$Array@UExpandPlane@local@@VNamedAllocator@shdfnd@physx@@@shdfnd@physx@@KAXPEAUExpandPlane@local@@0PEBU45@@Z 000000018004da60 f i InflationConvexHullLib.obj
 0001:0004cb00       ?create@?$Array@HVNamedAllocator@shdfnd@physx@@@shdfnd@physx@@KAXPEAH0AEBH@Z 000000018004db00 f i InflationConvexHullLib.obj
 0001:0004cb70       ?createEdgeList@InflationConvexHullLib@physx@@UEAA_NIPEBEPEAPEAEPEAPEAG2@Z 000000018004db70 f i InflationConvexHullLib.obj
 0001:0004cb90       ?createTri@HullTriangles@local@@QEAAPEAVTri@2@HHH@Z 000000018004db90 f i InflationConvexHullLib.obj
 0001:0004cc80       ?deallocate@?$Array@EVNamedAllocator@shdfnd@physx@@@shdfnd@physx@@IEAAXPEAX@Z 000000018004dc80 f i InflationConvexHullLib.obj
 0001:0004ccb0       ?deallocate@?$Array@HVNamedAllocator@shdfnd@physx@@@shdfnd@physx@@IEAAXPEAX@Z 000000018004dcb0 f i InflationConvexHullLib.obj
 0001:0004cce0       ?deallocate@?$Array@PEAVTri@local@@VNamedAllocator@shdfnd@physx@@@shdfnd@physx@@IEAAXPEAX@Z 000000018004dce0 f i InflationConvexHullLib.obj
 0001:0004cd10       ?deallocate@?$Array@UExpandPlane@local@@VNamedAllocator@shdfnd@physx@@@shdfnd@physx@@IEAAXPEAX@Z 000000018004dd10 f i InflationConvexHullLib.obj
 0001:0004cd40       ?deleteTri@HullTriangles@local@@QEAAXPEAVTri@2@@Z 000000018004dd40 f i InflationConvexHullLib.obj
 0001:0004ce40       ?destroy@?$Array@EVNamedAllocator@shdfnd@physx@@@shdfnd@physx@@KAXPEAE0@Z 000000018004de40 f i InflationConvexHullLib.obj
 0001:0004ce80       ?destroy@?$Array@HVNamedAllocator@shdfnd@physx@@@shdfnd@physx@@KAXPEAH0@Z 000000018004de80 f i InflationConvexHullLib.obj
 0001:0004cec0       ?destroy@?$Array@PEAVTri@local@@VNamedAllocator@shdfnd@physx@@@shdfnd@physx@@KAXPEAPEAVTri@local@@0@Z 000000018004dec0 f i InflationConvexHullLib.obj
 0001:0004cf00       ?destroy@?$Array@UExpandPlane@local@@VNamedAllocator@shdfnd@physx@@@shdfnd@physx@@KAXPEAUExpandPlane@local@@0@Z 000000018004df00 f i InflationConvexHullLib.obj
 0001:0004cf40       ?extrude@HullTriangles@local@@QEAAXPEAVTri@2@H@Z 000000018004df40 f i InflationConvexHullLib.obj
 0001:0004d5b0       ?findExtrudable@HullTriangles@local@@QEBAPEAVTri@2@M@Z 000000018004e5b0 f i InflationConvexHullLib.obj
 0001:0004d6c0       ?getArea2@Tri@local@@QEBAMPEBVPxVec3@physx@@@Z 000000018004e6c0 f i InflationConvexHullLib.obj
 0001:0004d7e0       ?getName@?$ReflectionAllocator@UPxHullPolygon@physx@@@shdfnd@physx@@CAPEBDXZ 000000018004e7e0 f i InflationConvexHullLib.obj
 0001:0004d830       ?getName@?$ReflectionAllocator@VTri@local@@@shdfnd@physx@@CAPEBDXZ 000000018004e830 f i InflationConvexHullLib.obj
 0001:0004d880       ?getNormal@Tri@local@@QEBA?AVPxVec3@physx@@PEBV34@@Z 000000018004e880 f i InflationConvexHullLib.obj
 0001:0004da30       ?getTriangles@HullTriangles@local@@QEAAAEAV?$Array@PEAVTri@local@@VNamedAllocator@shdfnd@physx@@@shdfnd@physx@@XZ 000000018004ea30 f i InflationConvexHullLib.obj
 0001:0004da40       ?grow@?$Array@EVNamedAllocator@shdfnd@physx@@@shdfnd@physx@@IEAAXI@Z 000000018004ea40 f i InflationConvexHullLib.obj
 0001:0004dae0       ?grow@?$Array@HVNamedAllocator@shdfnd@physx@@@shdfnd@physx@@IEAAXI@Z 000000018004eae0 f i InflationConvexHullLib.obj
 0001:0004db80       ?grow@?$Array@PEAVTri@local@@VNamedAllocator@shdfnd@physx@@@shdfnd@physx@@IEAAXI@Z 000000018004eb80 f i InflationConvexHullLib.obj
 0001:0004dc20       ?growAndPushBack@?$Array@EVNamedAllocator@shdfnd@physx@@@shdfnd@physx@@IEAAAEAEAEBE@Z 000000018004ec20 f i InflationConvexHullLib.obj
 0001:0004de10       ?growAndPushBack@?$Array@HVNamedAllocator@shdfnd@physx@@@shdfnd@physx@@IEAAAEAHAEBH@Z 000000018004ee10 f i InflationConvexHullLib.obj
 0001:0004dff0       ?growAndPushBack@?$Array@PEAVTri@local@@VNamedAllocator@shdfnd@physx@@@shdfnd@physx@@IEAAAEAPEAVTri@local@@AEBQEAV45@@Z 000000018004eff0 f i InflationConvexHullLib.obj
 0001:0004e1d0       ?growAndPushBack@?$Array@UExpandPlane@local@@VNamedAllocator@shdfnd@physx@@@shdfnd@physx@@IEAAAEAUExpandPlane@local@@AEBU45@@Z 000000018004f1d0 f i InflationConvexHullLib.obj
 0001:0004e3c0       ?hasVolume@HullSimplex@local@@SA_NPEBVPxVec3@physx@@IIII@Z 000000018004f3c0 f i InflationConvexHullLib.obj
 0001:0004e5a0       ?isInUserMemory@?$Array@EVNamedAllocator@shdfnd@physx@@@shdfnd@physx@@QEBAIXZ 000000018004f5a0 f i InflationConvexHullLib.obj
 0001:0004e5c0       ?isInUserMemory@?$Array@HVNamedAllocator@shdfnd@physx@@@shdfnd@physx@@QEBAIXZ 000000018004f5c0 f i InflationConvexHullLib.obj
 0001:0004e5e0       ?isInUserMemory@?$Array@PEAVTri@local@@VNamedAllocator@shdfnd@physx@@@shdfnd@physx@@QEBAIXZ 000000018004f5e0 f i InflationConvexHullLib.obj
 0001:0004e600       ?isInUserMemory@?$Array@UExpandPlane@local@@VNamedAllocator@shdfnd@physx@@@shdfnd@physx@@QEBAIXZ 000000018004f600 f i InflationConvexHullLib.obj
 0001:0004e620       ?neib@Tri@local@@QEAAAEAHHH@Z 000000018004f620 f i InflationConvexHullLib.obj
 0001:0004e7c0       ?pushBack@?$Array@EVNamedAllocator@shdfnd@physx@@@shdfnd@physx@@QEAAAEAEAEBE@Z 000000018004f7c0 f i InflationConvexHullLib.obj
 0001:0004e890       ?pushBack@?$Array@HVNamedAllocator@shdfnd@physx@@@shdfnd@physx@@QEAAAEAHAEBH@Z 000000018004f890 f i InflationConvexHullLib.obj
 0001:0004e960       ?pushBack@?$Array@PEAVTri@local@@VNamedAllocator@shdfnd@physx@@@shdfnd@physx@@QEAAAEAPEAVTri@local@@AEBQEAV45@@Z 000000018004f960 f i InflationConvexHullLib.obj
 0001:0004ea30       ?pushBack@?$Array@UExpandPlane@local@@VNamedAllocator@shdfnd@physx@@@shdfnd@physx@@QEAAAEAUExpandPlane@local@@AEBU45@@Z 000000018004fa30 f i InflationConvexHullLib.obj
 0001:0004eb00       ?recreate@?$Array@EVNamedAllocator@shdfnd@physx@@@shdfnd@physx@@IEAAXI@Z 000000018004fb00 f i InflationConvexHullLib.obj
 0001:0004ec50       ?recreate@?$Array@HVNamedAllocator@shdfnd@physx@@@shdfnd@physx@@IEAAXI@Z 000000018004fc50 f i InflationConvexHullLib.obj
 0001:0004edb0       ?recreate@?$Array@PEAVTri@local@@VNamedAllocator@shdfnd@physx@@@shdfnd@physx@@IEAAXI@Z 000000018004fdb0 f i InflationConvexHullLib.obj
 0001:0004ef10       ?removeb2b@HullTriangles@local@@IEAAXPEAVTri@2@0@Z 000000018004ff10 f i InflationConvexHullLib.obj
 0001:0004ef70       ?reserve@?$Array@EVNamedAllocator@shdfnd@physx@@@shdfnd@physx@@QEAAXI@Z 000000018004ff70 f i InflationConvexHullLib.obj
 0001:0004efb0       ?reserve@?$Array@HVNamedAllocator@shdfnd@physx@@@shdfnd@physx@@QEAAXI@Z 000000018004ffb0 f i InflationConvexHullLib.obj
 0001:0004eff0       ?reserve@?$Array@PEAVTri@local@@VNamedAllocator@shdfnd@physx@@@shdfnd@physx@@QEAAXI@Z 000000018004fff0 f i InflationConvexHullLib.obj
 0001:0004f030       ?resize@?$Array@HVNamedAllocator@shdfnd@physx@@@shdfnd@physx@@QEAAXIAEBH@Z 0000000180050030 f i InflationConvexHullLib.obj
 0001:0004f0f0       ?size@?$Array@HVNamedAllocator@shdfnd@physx@@@shdfnd@physx@@QEBAIXZ 00000001800500f0 f i InflationConvexHullLib.obj
 0001:0004f110       ?size@?$Array@PEAVTri@local@@VNamedAllocator@shdfnd@physx@@@shdfnd@physx@@QEBAIXZ 0000000180050110 f i InflationConvexHullLib.obj
 0001:0004f130       ?size@?$Array@UExpandPlane@local@@VNamedAllocator@shdfnd@physx@@@shdfnd@physx@@QEBAIXZ 0000000180050130 f i InflationConvexHullLib.obj
 0001:0004f150       ?size@HullTriangles@local@@QEBAIXZ 0000000180050150 f i InflationConvexHullLib.obj
 0001:0004f180       ?to8@shdfnd@physx@@YAEH@Z  0000000180050180 f i InflationConvexHullLib.obj
 0001:0004f2e0       ??0QuickHullConvexHullLib@physx@@QEAA@AEBVPxConvexMeshDesc@1@AEBUPxCookingParams@1@@Z 00000001800502e0 f   QuickHullConvexHullLib.obj
 0001:0004f3e0       ??1QuickHullConvexHullLib@physx@@UEAA@XZ 00000001800503e0 f   QuickHullConvexHullLib.obj
 0001:0004f4c0       ?createConvexHull@QuickHullConvexHullLib@physx@@UEAA?AW4Enum@PxConvexMeshCookingResult@2@XZ 00000001800504c0 f   QuickHullConvexHullLib.obj
 0001:0004fa60       ?fillConvexMeshDesc@QuickHullConvexHullLib@physx@@UEAAXAEAVPxConvexMeshDesc@2@@Z 0000000180050a60 f   QuickHullConvexHullLib.obj
 0001:0004faf0       ?createEdgeList@QuickHullConvexHullLib@physx@@UEAA_NIPEBEPEAPEAEPEAPEAG2@Z 0000000180050af0 f   QuickHullConvexHullLib.obj
 0001:00050050       ?expandHullOBB@QuickHullConvexHullLib@physx@@IEAA?AW4Enum@PxConvexMeshCookingResult@2@XZ 0000000180051050 f   QuickHullConvexHullLib.obj
 0001:00050620       ?expandHull@QuickHullConvexHullLib@physx@@IEAA?AW4Enum@PxConvexMeshCookingResult@2@XZ 0000000180051620 f   QuickHullConvexHullLib.obj
 0001:00050db0       ?cleanupForSimplex@QuickHullConvexHullLib@physx@@IEAA_NPEAVPxVec3@2@IPEAUQuickHullVertex@local@@1AEAM2@Z 0000000180051db0 f   QuickHullConvexHullLib.obj
 0001:00051820       ?fillConvexMeshDescFromQuickHull@QuickHullConvexHullLib@physx@@IEAAXAEAVPxConvexMeshDesc@2@@Z 0000000180052820 f   QuickHullConvexHullLib.obj
 0001:00052010       ?fillConvexMeshDescFromCroppedHull@QuickHullConvexHullLib@physx@@IEAAXAEAVPxConvexMeshDesc@2@@Z 0000000180053010 f   QuickHullConvexHullLib.obj
 0001:000525a0       ?getOppositeFaceDistance@QuickHullHalfEdge@local@@QEBAMXZ 00000001800535a0 f   QuickHullConvexHullLib.obj
 0001:000526a0       ?mergeAdjacentFace@QuickHullFace@local@@QEAA_NPEAUQuickHullHalfEdge@2@AEAV?$Array@PEAUQuickHullFace@local@@VNamedAllocator@shdfnd@physx@@@shdfnd@physx@@@Z 00000001800536a0 f   QuickHullConvexHullLib.obj
 0001:00052920       ?checkFaceConsistency@QuickHullFace@local@@QEAA_NXZ 0000000180053920 f   QuickHullConvexHullLib.obj
 0001:00052be0       ?connectHalfEdges@QuickHullFace@local@@AEAAPEAU12@PEAUQuickHullHalfEdge@2@0@Z 0000000180053be0 f   QuickHullConvexHullLib.obj
 0001:00052d60       ??0QuickHull@local@@QEAA@AEBUPxCookingParams@physx@@AEBVPxConvexMeshDesc@3@@Z 0000000180053d60 f   QuickHullConvexHullLib.obj
 0001:00052f90       ??1QuickHull@local@@QEAA@XZ 0000000180053f90 f   QuickHullConvexHullLib.obj
 0001:00053040       ?preallocate@QuickHull@local@@QEAAXI@Z 0000000180054040 f   QuickHullConvexHullLib.obj
 0001:00053200       ?parseInputVertices@QuickHull@local@@QEAAXPEBVPxVec3@physx@@I@Z 0000000180054200 f   QuickHullConvexHullLib.obj
 0001:00053340       ?releaseHull@QuickHull@local@@QEAAXXZ 0000000180054340 f   QuickHullConvexHullLib.obj
 0001:000533a0       ?setPrecomputedMinMax@QuickHull@local@@QEAAXPEBUQuickHullVertex@2@0MM@Z 00000001800543a0 f   QuickHullConvexHullLib.obj
 0001:00053480       ?buildHull@QuickHull@local@@QEAA?AW4Enum@QuickHullResult@2@XZ 0000000180054480 f   QuickHullConvexHullLib.obj
 0001:000537b0       ?maxNumVertsPerFace@QuickHull@local@@QEBAIXZ 00000001800547b0 f   QuickHullConvexHullLib.obj
 0001:00053850       ?computeMinMaxVerts@QuickHull@local@@IEAAXXZ 0000000180054850 f   QuickHullConvexHullLib.obj
 0001:00053ba0       ?findSimplex@QuickHull@local@@IEAA_NXZ 0000000180054ba0 f   QuickHullConvexHullLib.obj
 0001:000540f0       ?addSimplex@QuickHull@local@@IEAAXPEAUQuickHullVertex@2@_N@Z 00000001800550f0 f   QuickHullConvexHullLib.obj
 0001:00054930       ?nextPointToAdd@QuickHull@local@@IEAAPEAUQuickHullVertex@2@AEAPEAUQuickHullFace@2@@Z 0000000180055930 f   QuickHullConvexHullLib.obj
 0001:00054a80       ?addPointToHull@QuickHull@local@@IEAA_NPEBUQuickHullVertex@2@AEAUQuickHullFace@2@AEA_N@Z 0000000180055a80 f   QuickHullConvexHullLib.obj
 0001:00054dc0       ?createTriangle@QuickHull@local@@IEAAPEAUQuickHullFace@2@AEBUQuickHullVertex@2@00@Z 0000000180055dc0 f   QuickHullConvexHullLib.obj
 0001:00054f00       ?addPointToFace@QuickHull@local@@IEAAXAEAUQuickHullFace@2@PEAUQuickHullVertex@2@M@Z 0000000180055f00 f   QuickHullConvexHullLib.obj
 0001:00055030       ?removeEyePointFromFace@QuickHull@local@@IEAAXAEAUQuickHullFace@2@PEBUQuickHullVertex@2@@Z 0000000180056030 f   QuickHullConvexHullLib.obj
 0001:000550d0       ?calculateHorizon@QuickHull@local@@IEAAXAEBVPxVec3@physx@@PEAUQuickHullHalfEdge@2@AEAUQuickHullFace@2@AEAV?$Array@PEAUQuickHullHalfEdge@local@@VNamedAllocator@shdfnd@physx@@@shdfnd@4@AEAV?$Array@PEAUQuickHullFace@local@@VNamedAllocator@shdfnd@physx@@@84@@Z 00000001800560d0 f   QuickHullConvexHullLib.obj
 0001:00055270       ?addNewFacesFromHorizon@QuickHull@local@@IEAAXPEBUQuickHullVertex@2@AEBV?$Array@PEAUQuickHullHalfEdge@local@@VNamedAllocator@shdfnd@physx@@@shdfnd@physx@@AEAV?$Array@PEAUQuickHullFace@local@@VNamedAllocator@shdfnd@physx@@@56@@Z 0000000180056270 f   QuickHullConvexHullLib.obj
 0001:000553e0       ?doAdjacentMerge@QuickHull@local@@IEAA_NAEAUQuickHullFace@2@_NAEA_N@Z 00000001800563e0 f   QuickHullConvexHullLib.obj
 0001:000556c0       ?doPostAdjacentMerge@QuickHull@local@@IEAA_NAEAUQuickHullFace@2@M@Z 00000001800566c0 f   QuickHullConvexHullLib.obj
 0001:000558e0       ?deleteFacePoints@QuickHull@local@@IEAAXAEAUQuickHullFace@2@PEAU32@@Z 00000001800568e0 f   QuickHullConvexHullLib.obj
 0001:00055a10       ?resolveUnclaimedPoints@QuickHull@local@@IEAAXAEBV?$Array@PEAUQuickHullFace@local@@VNamedAllocator@shdfnd@physx@@@shdfnd@physx@@@Z 0000000180056a10 f   QuickHullConvexHullLib.obj
 0001:00055b80       ?postMergeHull@QuickHull@local@@IEAAXXZ 0000000180056b80 f   QuickHullConvexHullLib.obj
 0001:00055c70       ?canMergeFaces@QuickHull@local@@IEAA_NAEBUQuickHullHalfEdge@2@@Z 0000000180056c70 f   QuickHullConvexHullLib.obj
 0001:00056560       ?getExpandPoint@local@@YAXAEBUQuickHullHalfEdge@1@AEAUExpandPoint@1@PEBV?$Array@IVNamedAllocator@shdfnd@physx@@@shdfnd@physx@@@Z 0000000180057560 f   QuickHullConvexHullLib.obj
 0001:000567b0       ?addExpandPoint@local@@YAXAEBUExpandPoint@1@AEAV?$Array@UExpandPoint@local@@VNamedAllocator@shdfnd@physx@@@shdfnd@physx@@@Z 00000001800577b0 f   QuickHullConvexHullLib.obj
 0001:000586a0       ??$?2V?$ReflectionAllocator@VQuickHull@local@@@shdfnd@physx@@@UserAllocated@shdfnd@physx@@SAPEAX_KV?$ReflectionAllocator@VQuickHull@local@@@12@PEBDH@Z 00000001800596a0 f i QuickHullConvexHullLib.obj
 0001:000586f0       ??$PX_UNUSED@PEAUQuickHullFace@local@@@@YAXAEBQEAUQuickHullFace@local@@@Z 00000001800596f0 f i QuickHullConvexHullLib.obj
 0001:00058700       ??$PX_UNUSED@PEBUQuickHullVertex@local@@@@YAXAEBQEBUQuickHullVertex@local@@@Z 0000000180059700 f i QuickHullConvexHullLib.obj
 0001:00058710       ??$PX_UNUSED@W4PxZERO@physx@@@@YAXAEBW4PxZERO@physx@@@Z 0000000180059710 f i QuickHullConvexHullLib.obj
 0001:00058720       ??0?$Array@PEAUQuickHullFace@local@@VNamedAllocator@shdfnd@physx@@@shdfnd@physx@@QEAA@AEBVNamedAllocator@12@@Z 0000000180059720 f i QuickHullConvexHullLib.obj
 0001:00058780       ??0?$Array@PEAUQuickHullHalfEdge@local@@VNamedAllocator@shdfnd@physx@@@shdfnd@physx@@QEAA@AEBVNamedAllocator@12@@Z 0000000180059780 f i QuickHullConvexHullLib.obj
 0001:000587e0       ??0?$Array@PEAUQuickHullVertex@local@@VNamedAllocator@shdfnd@physx@@@shdfnd@physx@@QEAA@AEBVNamedAllocator@12@@Z 00000001800597e0 f i QuickHullConvexHullLib.obj
 0001:00058840       ??0?$Array@UExpandPoint@local@@VNamedAllocator@shdfnd@physx@@@shdfnd@physx@@QEAA@AEBVNamedAllocator@12@@Z 0000000180059840 f i QuickHullConvexHullLib.obj
 0001:000588a0       ??0?$MemBlock@UQuickHullFace@local@@$00@local@@QEAA@XZ 00000001800598a0 f i QuickHullConvexHullLib.obj
 0001:00058920       ??0?$MemBlock@UQuickHullHalfEdge@local@@$0A@@local@@QEAA@XZ 0000000180059920 f i QuickHullConvexHullLib.obj
 0001:000589a0       ??0?$ReflectionAllocator@VQuickHull@local@@@shdfnd@physx@@QEAA@PEBD@Z 00000001800599a0 f i QuickHullConvexHullLib.obj
 0001:000589c0       ??0?$ScopedPointer@UQuickHullHalfEdge@local@@VTempAllocator@shdfnd@physx@@@shdfnd@physx@@QEAA@XZ 00000001800599c0 f i QuickHullConvexHullLib.obj
 0001:000589f0       ??0?$ScopedPointer@VPxVec3@physx@@VTempAllocator@shdfnd@2@@shdfnd@physx@@QEAA@XZ 00000001800599f0 f i QuickHullConvexHullLib.obj
 0001:00058a20       ??0ExpandPoint@local@@QEAA@AEBU01@@Z 0000000180059a20 f i QuickHullConvexHullLib.obj
 0001:00058aa0       ??0ExpandPoint@local@@QEAA@XZ 0000000180059aa0 f i QuickHullConvexHullLib.obj
 0001:00058ae0       ??0PxVec3@physx@@QEAA@W4PxZERO@1@@Z 0000000180059ae0 f i QuickHullConvexHullLib.obj
 0001:00058b40       ??0QuickHullFace@local@@QEAA@I@Z 0000000180059b40 f i QuickHullConvexHullLib.obj
 0001:00058c30       ??0QuickHullFace@local@@QEAA@XZ 0000000180059c30 f i QuickHullConvexHullLib.obj
 0001:00058d00       ??0QuickHullHalfEdge@local@@QEAA@I@Z 0000000180059d00 f i QuickHullConvexHullLib.obj
 0001:00058d80       ??0QuickHullVertex@local@@QEAA@XZ 0000000180059d80 f i QuickHullConvexHullLib.obj
 0001:00058db0       ??1?$Array@PEAUQuickHullFace@local@@VNamedAllocator@shdfnd@physx@@@shdfnd@physx@@QEAA@XZ 0000000180059db0 f i QuickHullConvexHullLib.obj
 0001:00058e40       ??1?$Array@PEAUQuickHullHalfEdge@local@@VNamedAllocator@shdfnd@physx@@@shdfnd@physx@@QEAA@XZ 0000000180059e40 f i QuickHullConvexHullLib.obj
 0001:00058ed0       ??1?$Array@PEAUQuickHullVertex@local@@VNamedAllocator@shdfnd@physx@@@shdfnd@physx@@QEAA@XZ 0000000180059ed0 f i QuickHullConvexHullLib.obj
 0001:00058f60       ??1?$Array@UExpandPoint@local@@VNamedAllocator@shdfnd@physx@@@shdfnd@physx@@QEAA@XZ 0000000180059f60 f i QuickHullConvexHullLib.obj
 0001:00058ff0       ??1?$MemBlock@UQuickHullFace@local@@$00@local@@QEAA@XZ 0000000180059ff0 f i QuickHullConvexHullLib.obj
 0001:000590b0       ??1?$MemBlock@UQuickHullHalfEdge@local@@$0A@@local@@QEAA@XZ 000000018005a0b0 f i QuickHullConvexHullLib.obj
 0001:00059170       ??1?$ScopedPointer@UQuickHullHalfEdge@local@@VTempAllocator@shdfnd@physx@@@shdfnd@physx@@QEAA@XZ 000000018005a170 f i QuickHullConvexHullLib.obj
 0001:000591b0       ??1?$ScopedPointer@VPxVec3@physx@@VTempAllocator@shdfnd@2@@shdfnd@physx@@QEAA@XZ 000000018005a1b0 f i QuickHullConvexHullLib.obj
 0001:000591f0       ??1QuickHullFace@local@@QEAA@XZ 000000018005a1f0 f i QuickHullConvexHullLib.obj
 0001:00059200       ??4QuickHullVertex@local@@QEAAAEAU01@AEBU01@@Z 000000018005a200 f i QuickHullConvexHullLib.obj
 0001:00059280       ??8ExpandPoint@local@@QEBA_NAEBU01@@Z 000000018005a280 f i QuickHullConvexHullLib.obj
 0001:00059330       ??8QuickHullVertex@local@@QEBA_NAEBU01@@Z 000000018005a330 f i QuickHullConvexHullLib.obj
 0001:00059370       ??A?$Array@IVNamedAllocator@shdfnd@physx@@@shdfnd@physx@@QEBAAEBII@Z 000000018005a370 f i QuickHullConvexHullLib.obj
 0001:00059410       ??A?$Array@PEAUQuickHullFace@local@@VNamedAllocator@shdfnd@physx@@@shdfnd@physx@@QEAAAEAPEAUQuickHullFace@local@@I@Z 000000018005a410 f i QuickHullConvexHullLib.obj
 0001:000594b0       ??A?$Array@PEAUQuickHullFace@local@@VNamedAllocator@shdfnd@physx@@@shdfnd@physx@@QEBAAEBQEAUQuickHullFace@local@@I@Z 000000018005a4b0 f i QuickHullConvexHullLib.obj
 0001:00059550       ??A?$Array@PEAUQuickHullHalfEdge@local@@VNamedAllocator@shdfnd@physx@@@shdfnd@physx@@QEAAAEAPEAUQuickHullHalfEdge@local@@I@Z 000000018005a550 f i QuickHullConvexHullLib.obj
 0001:000595f0       ??A?$Array@PEAUQuickHullHalfEdge@local@@VNamedAllocator@shdfnd@physx@@@shdfnd@physx@@QEBAAEBQEAUQuickHullHalfEdge@local@@I@Z 000000018005a5f0 f i QuickHullConvexHullLib.obj
 0001:00059690       ??A?$Array@PEAUQuickHullVertex@local@@VNamedAllocator@shdfnd@physx@@@shdfnd@physx@@QEAAAEAPEAUQuickHullVertex@local@@I@Z 000000018005a690 f i QuickHullConvexHullLib.obj
 0001:00059730       ??A?$Array@UExpandPoint@local@@VNamedAllocator@shdfnd@physx@@@shdfnd@physx@@QEAAAEAUExpandPoint@local@@I@Z 000000018005a730 f i QuickHullConvexHullLib.obj
 0001:000597d0       ??B?$ScopedPointer@UQuickHullHalfEdge@local@@VTempAllocator@shdfnd@physx@@@shdfnd@physx@@QEBAPEAUQuickHullHalfEdge@local@@XZ 000000018005a7d0 f i QuickHullConvexHullLib.obj
 0001:000597f0       ??B?$ScopedPointer@VPxVec3@physx@@VTempAllocator@shdfnd@2@@shdfnd@physx@@QEBAPEAVPxVec3@2@XZ 000000018005a7f0 f i QuickHullConvexHullLib.obj
 0001:00059810       ??_GQuickHull@local@@QEAAPEAXI@Z 000000018005a810 f i QuickHullConvexHullLib.obj
 0001:00059880       ??_EQuickHullConvexHullLib@physx@@UEAAPEAXI@Z 000000018005a880 f i QuickHullConvexHullLib.obj
 0001:00059880       ??_GQuickHullConvexHullLib@physx@@UEAAPEAXI@Z 000000018005a880 f i QuickHullConvexHullLib.obj
 0001:000598f0       ??__G@YAXPEAX0_K1P6APEAX00@Z@Z 000000018005a8f0 f i QuickHullConvexHullLib.obj
 0001:000599b0       ?allocate@?$Array@PEAUQuickHullFace@local@@VNamedAllocator@shdfnd@physx@@@shdfnd@physx@@IEAAPEAPEAUQuickHullFace@local@@I@Z 000000018005a9b0 f i QuickHullConvexHullLib.obj
 0001:00059a60       ?allocate@?$Array@PEAUQuickHullHalfEdge@local@@VNamedAllocator@shdfnd@physx@@@shdfnd@physx@@IEAAPEAPEAUQuickHullHalfEdge@local@@I@Z 000000018005aa60 f i QuickHullConvexHullLib.obj
 0001:00059b10       ?allocate@?$Array@PEAUQuickHullVertex@local@@VNamedAllocator@shdfnd@physx@@@shdfnd@physx@@IEAAPEAPEAUQuickHullVertex@local@@I@Z 000000018005ab10 f i QuickHullConvexHullLib.obj
 0001:00059bc0       ?allocate@?$Array@UExpandPoint@local@@VNamedAllocator@shdfnd@physx@@@shdfnd@physx@@IEAAPEAUExpandPoint@local@@I@Z 000000018005abc0 f i QuickHullConvexHullLib.obj
 0001:00059c70       ?allocate@?$ReflectionAllocator@VQuickHull@local@@@shdfnd@physx@@QEAAPEAX_KPEBDH@Z 000000018005ac70 f i QuickHullConvexHullLib.obj
 0001:00059d10       ?capacity@?$Array@PEAUQuickHullFace@local@@VNamedAllocator@shdfnd@physx@@@shdfnd@physx@@QEBAIXZ 000000018005ad10 f i QuickHullConvexHullLib.obj
 0001:00059d30       ?capacity@?$Array@PEAUQuickHullHalfEdge@local@@VNamedAllocator@shdfnd@physx@@@shdfnd@physx@@QEBAIXZ 000000018005ad30 f i QuickHullConvexHullLib.obj
 0001:00059d50       ?capacity@?$Array@PEAUQuickHullVertex@local@@VNamedAllocator@shdfnd@physx@@@shdfnd@physx@@QEBAIXZ 000000018005ad50 f i QuickHullConvexHullLib.obj
 0001:00059d70       ?capacity@?$Array@UExpandPoint@local@@VNamedAllocator@shdfnd@physx@@@shdfnd@physx@@QEBAIXZ 000000018005ad70 f i QuickHullConvexHullLib.obj
 0001:00059d90       ?capacityIncrement@?$Array@PEAUQuickHullFace@local@@VNamedAllocator@shdfnd@physx@@@shdfnd@physx@@IEBAIXZ 000000018005ad90 f i QuickHullConvexHullLib.obj
 0001:00059de0       ?capacityIncrement@?$Array@PEAUQuickHullHalfEdge@local@@VNamedAllocator@shdfnd@physx@@@shdfnd@physx@@IEBAIXZ 000000018005ade0 f i QuickHullConvexHullLib.obj
 0001:00059e30       ?capacityIncrement@?$Array@PEAUQuickHullVertex@local@@VNamedAllocator@shdfnd@physx@@@shdfnd@physx@@IEBAIXZ 000000018005ae30 f i QuickHullConvexHullLib.obj
 0001:00059e80       ?capacityIncrement@?$Array@UExpandPoint@local@@VNamedAllocator@shdfnd@physx@@@shdfnd@physx@@IEBAIXZ 000000018005ae80 f i QuickHullConvexHullLib.obj
 0001:00059ed0       ?clear@?$Array@PEAUQuickHullFace@local@@VNamedAllocator@shdfnd@physx@@@shdfnd@physx@@QEAAXXZ 000000018005aed0 f i QuickHullConvexHullLib.obj
 0001:00059f20       ?clear@?$Array@PEAUQuickHullHalfEdge@local@@VNamedAllocator@shdfnd@physx@@@shdfnd@physx@@QEAAXXZ 000000018005af20 f i QuickHullConvexHullLib.obj
 0001:00059f70       ?clear@?$Array@PEAUQuickHullVertex@local@@VNamedAllocator@shdfnd@physx@@@shdfnd@physx@@QEAAXXZ 000000018005af70 f i QuickHullConvexHullLib.obj
 0001:00059fc0       ?computeNormalAndCentroid@QuickHullFace@local@@QEAAXXZ 000000018005afc0 f i QuickHullConvexHullLib.obj
 0001:0005a370       ?copy@?$Array@PEAUQuickHullFace@local@@VNamedAllocator@shdfnd@physx@@@shdfnd@physx@@KAXPEAPEAUQuickHullFace@local@@0PEBQEAU45@@Z 000000018005b370 f i QuickHullConvexHullLib.obj
 0001:0005a410       ?copy@?$Array@PEAUQuickHullHalfEdge@local@@VNamedAllocator@shdfnd@physx@@@shdfnd@physx@@KAXPEAPEAUQuickHullHalfEdge@local@@0PEBQEAU45@@Z 000000018005b410 f i QuickHullConvexHullLib.obj
 0001:0005a4b0       ?copy@?$Array@PEAUQuickHullVertex@local@@VNamedAllocator@shdfnd@physx@@@shdfnd@physx@@KAXPEAPEAUQuickHullVertex@local@@0PEBQEAU45@@Z 000000018005b4b0 f i QuickHullConvexHullLib.obj
 0001:0005a550       ?copy@?$Array@UExpandPoint@local@@VNamedAllocator@shdfnd@physx@@@shdfnd@physx@@KAXPEAUExpandPoint@local@@0PEBU45@@Z 000000018005b550 f i QuickHullConvexHullLib.obj
 0001:0005a5f0       ?deallocate@?$Array@PEAUQuickHullFace@local@@VNamedAllocator@shdfnd@physx@@@shdfnd@physx@@IEAAXPEAX@Z 000000018005b5f0 f i QuickHullConvexHullLib.obj
 0001:0005a620       ?deallocate@?$Array@PEAUQuickHullHalfEdge@local@@VNamedAllocator@shdfnd@physx@@@shdfnd@physx@@IEAAXPEAX@Z 000000018005b620 f i QuickHullConvexHullLib.obj
 0001:0005a650       ?deallocate@?$Array@PEAUQuickHullVertex@local@@VNamedAllocator@shdfnd@physx@@@shdfnd@physx@@IEAAXPEAX@Z 000000018005b650 f i QuickHullConvexHullLib.obj
 0001:0005a680       ?deallocate@?$Array@UExpandPoint@local@@VNamedAllocator@shdfnd@physx@@@shdfnd@physx@@IEAAXPEAX@Z 000000018005b680 f i QuickHullConvexHullLib.obj
 0001:0005a6b0       ?destroy@?$Array@PEAUQuickHullFace@local@@VNamedAllocator@shdfnd@physx@@@shdfnd@physx@@KAXPEAPEAUQuickHullFace@local@@0@Z 000000018005b6b0 f i QuickHullConvexHullLib.obj
 0001:0005a6f0       ?destroy@?$Array@PEAUQuickHullHalfEdge@local@@VNamedAllocator@shdfnd@physx@@@shdfnd@physx@@KAXPEAPEAUQuickHullHalfEdge@local@@0@Z 000000018005b6f0 f i QuickHullConvexHullLib.obj
 0001:0005a730       ?destroy@?$Array@PEAUQuickHullVertex@local@@VNamedAllocator@shdfnd@physx@@@shdfnd@physx@@KAXPEAPEAUQuickHullVertex@local@@0@Z 000000018005b730 f i QuickHullConvexHullLib.obj
 0001:0005a770       ?destroy@?$Array@UExpandPoint@local@@VNamedAllocator@shdfnd@physx@@@shdfnd@physx@@KAXPEAUExpandPoint@local@@0@Z 000000018005b770 f i QuickHullConvexHullLib.obj
 0001:0005a7b0       ?distanceToPlane@QuickHullFace@local@@QEBAMVPxVec3@physx@@@Z 000000018005b7b0 f i QuickHullConvexHullLib.obj
 0001:0005a7f0       ?getEdge@QuickHullFace@local@@QEBAPEAUQuickHullHalfEdge@2@I@Z 000000018005b7f0 f i QuickHullConvexHullLib.obj
 0001:0005a850       ?getFreeHullFace@QuickHull@local@@IEAAPEAUQuickHullFace@2@XZ 000000018005b850 f i QuickHullConvexHullLib.obj
 0001:0005a880       ?getFreeHullHalfEdge@QuickHull@local@@IEAAPEAUQuickHullHalfEdge@2@XZ 000000018005b880 f i QuickHullConvexHullLib.obj
 0001:0005a8b0       ?getFreeItem@?$MemBlock@UQuickHullFace@local@@$00@local@@QEAAPEAUQuickHullFace@2@XZ 000000018005b8b0 f i QuickHullConvexHullLib.obj
 0001:0005ab80       ?getFreeItem@?$MemBlock@UQuickHullHalfEdge@local@@$0A@@local@@QEAAPEAUQuickHullHalfEdge@2@XZ 000000018005bb80 f i QuickHullConvexHullLib.obj
 0001:0005ae50       ?getHead@QuickHullHalfEdge@local@@QEBAAEBUQuickHullVertex@2@XZ 000000018005be50 f i QuickHullConvexHullLib.obj
 0001:0005aee0       ?getItem@?$MemBlock@UQuickHullFace@local@@$00@local@@QEAAPEAUQuickHullFace@2@I@Z 000000018005bee0 f i QuickHullConvexHullLib.obj
 0001:0005b030       ?getName@?$ReflectionAllocator@VQuickHull@local@@@shdfnd@physx@@CAPEBDXZ 000000018005c030 f i QuickHullConvexHullLib.obj
 0001:0005b080       ?getNbHullVerts@QuickHull@local@@IEAAIXZ 000000018005c080 f i QuickHullConvexHullLib.obj
 0001:0005b0a0       ?getOppositeFace@QuickHullHalfEdge@local@@QEBAPEAUQuickHullFace@2@XZ 000000018005c0a0 f i QuickHullConvexHullLib.obj
 0001:0005b0c0       ?getTail@QuickHullHalfEdge@local@@QEBAAEBUQuickHullVertex@2@XZ 000000018005c0c0 f i QuickHullConvexHullLib.obj
 0001:0005b0d0       ?grow@?$Array@PEAUQuickHullFace@local@@VNamedAllocator@shdfnd@physx@@@shdfnd@physx@@IEAAXI@Z 000000018005c0d0 f i QuickHullConvexHullLib.obj
 0001:0005b170       ?grow@?$Array@PEAUQuickHullHalfEdge@local@@VNamedAllocator@shdfnd@physx@@@shdfnd@physx@@IEAAXI@Z 000000018005c170 f i QuickHullConvexHullLib.obj
 0001:0005b210       ?grow@?$Array@PEAUQuickHullVertex@local@@VNamedAllocator@shdfnd@physx@@@shdfnd@physx@@IEAAXI@Z 000000018005c210 f i QuickHullConvexHullLib.obj
 0001:0005b2b0       ?grow@?$Array@UExpandPoint@local@@VNamedAllocator@shdfnd@physx@@@shdfnd@physx@@IEAAXI@Z 000000018005c2b0 f i QuickHullConvexHullLib.obj
 0001:0005b350       ?growAndPushBack@?$Array@PEAUQuickHullFace@local@@VNamedAllocator@shdfnd@physx@@@shdfnd@physx@@IEAAAEAPEAUQuickHullFace@local@@AEBQEAU45@@Z 000000018005c350 f i QuickHullConvexHullLib.obj
 0001:0005b530       ?growAndPushBack@?$Array@PEAUQuickHullHalfEdge@local@@VNamedAllocator@shdfnd@physx@@@shdfnd@physx@@IEAAAEAPEAUQuickHullHalfEdge@local@@AEBQEAU45@@Z 000000018005c530 f i QuickHullConvexHullLib.obj
 0001:0005b710       ?growAndPushBack@?$Array@PEAUQuickHullVertex@local@@VNamedAllocator@shdfnd@physx@@@shdfnd@physx@@IEAAAEAPEAUQuickHullVertex@local@@AEBQEAU45@@Z 000000018005c710 f i QuickHullConvexHullLib.obj
 0001:0005b8f0       ?growAndPushBack@?$Array@UExpandPoint@local@@VNamedAllocator@shdfnd@physx@@@shdfnd@physx@@IEAAAEAUExpandPoint@local@@AEBU45@@Z 000000018005c8f0 f i QuickHullConvexHullLib.obj
 0001:0005bae0       ?init@?$MemBlock@UQuickHullFace@local@@$00@local@@QEAAXI@Z 000000018005cae0 f i QuickHullConvexHullLib.obj
 0001:0005bc60       ?init@?$MemBlock@UQuickHullHalfEdge@local@@$0A@@local@@QEAAXI@Z 000000018005cc60 f i QuickHullConvexHullLib.obj
 0001:0005bde0       ?isInUserMemory@?$Array@PEAUQuickHullFace@local@@VNamedAllocator@shdfnd@physx@@@shdfnd@physx@@QEBAIXZ 000000018005cde0 f i QuickHullConvexHullLib.obj
 0001:0005be00       ?isInUserMemory@?$Array@PEAUQuickHullHalfEdge@local@@VNamedAllocator@shdfnd@physx@@@shdfnd@physx@@QEBAIXZ 000000018005ce00 f i QuickHullConvexHullLib.obj
 0001:0005be20       ?isInUserMemory@?$Array@PEAUQuickHullVertex@local@@VNamedAllocator@shdfnd@physx@@@shdfnd@physx@@QEBAIXZ 000000018005ce20 f i QuickHullConvexHullLib.obj
 0001:0005be40       ?isInUserMemory@?$Array@UExpandPoint@local@@VNamedAllocator@shdfnd@physx@@@shdfnd@physx@@QEBAIXZ 000000018005ce40 f i QuickHullConvexHullLib.obj
 0001:0005be60       ?isTriangle@QuickHullFace@local@@AEBA_NXZ 000000018005ce60 f i QuickHullConvexHullLib.obj
 0001:0005bea0       ?pushBack@?$Array@PEAUQuickHullFace@local@@VNamedAllocator@shdfnd@physx@@@shdfnd@physx@@QEAAAEAPEAUQuickHullFace@local@@AEBQEAU45@@Z 000000018005cea0 f i QuickHullConvexHullLib.obj
 0001:0005bf70       ?pushBack@?$Array@PEAUQuickHullHalfEdge@local@@VNamedAllocator@shdfnd@physx@@@shdfnd@physx@@QEAAAEAPEAUQuickHullHalfEdge@local@@AEBQEAU45@@Z 000000018005cf70 f i QuickHullConvexHullLib.obj
 0001:0005c040       ?pushBack@?$Array@PEAUQuickHullVertex@local@@VNamedAllocator@shdfnd@physx@@@shdfnd@physx@@QEAAAEAPEAUQuickHullVertex@local@@AEBQEAU45@@Z 000000018005d040 f i QuickHullConvexHullLib.obj
 0001:0005c110       ?pushBack@?$Array@UExpandPoint@local@@VNamedAllocator@shdfnd@physx@@@shdfnd@physx@@QEAAAEAUExpandPoint@local@@AEBU45@@Z 000000018005d110 f i QuickHullConvexHullLib.obj
 0001:0005c1e0       ?recreate@?$Array@PEAUQuickHullFace@local@@VNamedAllocator@shdfnd@physx@@@shdfnd@physx@@IEAAXI@Z 000000018005d1e0 f i QuickHullConvexHullLib.obj
 0001:0005c340       ?recreate@?$Array@PEAUQuickHullHalfEdge@local@@VNamedAllocator@shdfnd@physx@@@shdfnd@physx@@IEAAXI@Z 000000018005d340 f i QuickHullConvexHullLib.obj
 0001:0005c4a0       ?recreate@?$Array@PEAUQuickHullVertex@local@@VNamedAllocator@shdfnd@physx@@@shdfnd@physx@@IEAAXI@Z 000000018005d4a0 f i QuickHullConvexHullLib.obj
 0001:0005c600       ?recreate@?$Array@UExpandPoint@local@@VNamedAllocator@shdfnd@physx@@@shdfnd@physx@@IEAAXI@Z 000000018005d600 f i QuickHullConvexHullLib.obj
 0001:0005c760       ?reserve@?$Array@PEAUQuickHullFace@local@@VNamedAllocator@shdfnd@physx@@@shdfnd@physx@@QEAAXI@Z 000000018005d760 f i QuickHullConvexHullLib.obj
 0001:0005c7a0       ?reserve@?$Array@PEAUQuickHullHalfEdge@local@@VNamedAllocator@shdfnd@physx@@@shdfnd@physx@@QEAAXI@Z 000000018005d7a0 f i QuickHullConvexHullLib.obj
 0001:0005c7e0       ?reserve@?$Array@PEAUQuickHullVertex@local@@VNamedAllocator@shdfnd@physx@@@shdfnd@physx@@QEAAXI@Z 000000018005d7e0 f i QuickHullConvexHullLib.obj
 0001:0005c820       ?reserve@?$Array@UExpandPoint@local@@VNamedAllocator@shdfnd@physx@@@shdfnd@physx@@QEAAXI@Z 000000018005d820 f i QuickHullConvexHullLib.obj
 0001:0005c860       ?reset@?$MemBlock@UQuickHullFace@local@@$00@local@@QEAAXXZ 000000018005d860 f i QuickHullConvexHullLib.obj
 0001:0005c940       ?reset@?$MemBlock@UQuickHullHalfEdge@local@@$0A@@local@@QEAAXXZ 000000018005d940 f i QuickHullConvexHullLib.obj
 0001:0005ca20       ?setTwin@QuickHullHalfEdge@local@@QEAAXPEAU12@@Z 000000018005da20 f i QuickHullConvexHullLib.obj
 0001:0005ca50       ?size@?$Array@PEAUQuickHullFace@local@@VNamedAllocator@shdfnd@physx@@@shdfnd@physx@@QEBAIXZ 000000018005da50 f i QuickHullConvexHullLib.obj
 0001:0005ca70       ?size@?$Array@PEAUQuickHullHalfEdge@local@@VNamedAllocator@shdfnd@physx@@@shdfnd@physx@@QEBAIXZ 000000018005da70 f i QuickHullConvexHullLib.obj
 0001:0005ca90       ?size@?$Array@PEAUQuickHullVertex@local@@VNamedAllocator@shdfnd@physx@@@shdfnd@physx@@QEBAIXZ 000000018005da90 f i QuickHullConvexHullLib.obj
 0001:0005cab0       ?size@?$Array@UExpandPoint@local@@VNamedAllocator@shdfnd@physx@@@shdfnd@physx@@QEBAIXZ 000000018005dab0 f i QuickHullConvexHullLib.obj
 0001:0005cb50       ?computeVolumeIntegrals@physx@@YA_NAEBVPxSimpleTriangleMesh@1@MAEAUPxIntegrals@1@@Z 000000018005db50 f   VolumeIntegration.obj
 0001:0005cbe0       ?computeVolumeIntegralsEberly@physx@@YA_NAEBVPxConvexMeshDesc@1@MAEAUPxIntegrals@1@AEBVPxVec3@1@@Z 000000018005dbe0 f   VolumeIntegration.obj
 0001:0005cc50       ?computeVolumeIntegralsEberlySIMD@physx@@YA_NAEBVPxConvexMeshDesc@1@MAEAUPxIntegrals@1@AEBVPxVec3@1@@Z 000000018005dc50 f   VolumeIntegration.obj
 0001:00063b80       ??$swap@VPxVec3@physx@@@shdfnd@physx@@YAXAEAVPxVec3@1@0@Z 0000000180064b80 f i VolumeIntegration.obj
 0001:00063bd0       ??0PxSimpleTriangleMesh@physx@@QEAA@XZ 0000000180064bd0 f i VolumeIntegration.obj
 0001:00063c30       ??4?$PxFlags@W4Enum@PxMeshFlag@physx@@G@physx@@QEAAAEAV01@AEBV01@@Z 0000000180064c30 f i VolumeIntegration.obj
 0001:00063c60       ??4PxSimpleTriangleMesh@physx@@QEAAAEAV01@AEBV01@@Z 0000000180064c60 f i VolumeIntegration.obj
 0001:00063ce0       ?FAllGrtr@aos@shdfnd@physx@@YAIT__m128@@0@Z 0000000180064ce0 f i VolumeIntegration.obj
 0001:00063e20       ?V4Cross@aos@shdfnd@physx@@YA?AT__m128@@T4@0@Z 0000000180064e20 f i VolumeIntegration.obj
 0001:00063f50       ?V4Dot3@aos@shdfnd@physx@@YA?AT__m128@@T4@0@Z 0000000180064f50 f i VolumeIntegration.obj
 0001:00064040       ?V4PermYZXW@aos@shdfnd@physx@@YA?AT__m128@@T4@@Z 0000000180065040 f i VolumeIntegration.obj
 0001:00064070       ?V4ScaleInv@aos@shdfnd@physx@@YA?AT__m128@@T4@0@Z 0000000180065070 f i VolumeIntegration.obj
 0001:00064130       ?Vec4V_From_PxVec3_WUndefined@aos@shdfnd@physx@@YA?AT__m128@@AEBVPxVec3@3@@Z 0000000180065130 f i VolumeIntegration.obj
 0001:00064190       ?isZero@PxVec3@physx@@QEBA_NXZ 0000000180065190 f i VolumeIntegration.obj
 0001:000641f0       ?ComputeNbBoundaryEdges@AdjTriangle@physx@@QEBAIXZ 00000001800651f0 f   Adjacencies.obj
 0001:00064280       ?ComputeNbNeighbors@AdjTriangle@physx@@QEBAIXZ 0000000180065280 f   Adjacencies.obj
 0001:00064310       ?HasNeighbor@AdjTriangle@physx@@QEBA_NIPEAI@Z 0000000180065310 f   Adjacencies.obj
 0001:00064420       ?Flip@AdjTriangle@physx@@QEAAXXZ 0000000180065420 f   Adjacencies.obj
 0001:00064470       ??0Adjacencies@physx@@QEAA@XZ 0000000180065470 f   Adjacencies.obj
 0001:000644a0       ??1Adjacencies@physx@@QEAA@XZ 00000001800654a0 f   Adjacencies.obj
 0001:00064500       ?Load@Adjacencies@physx@@QEAA_NAEAVPxInputStream@2@@Z 0000000180065500 f   Adjacencies.obj
 0001:00064690       ?ComputeNbBoundaryEdges@Adjacencies@physx@@QEBAIXZ 0000000180065690 f   Adjacencies.obj
 0001:00064710       ?GetBoundaryVertices@Adjacencies@physx@@QEBA_NIPEA_NPEBU?$TriangleT@I@Gu@2@@Z 0000000180065710 f   Adjacencies.obj
 0001:00064a20       ?MakeLastRef@Adjacencies@physx@@QEAA_NAEAVAdjTriangle@2@IPEAU?$TriangleT@I@Gu@2@@Z 0000000180065a20 f   Adjacencies.obj
 0001:00064d80       ?AssignNewEdgeCode@Adjacencies@physx@@AEAAXIE@Z 0000000180065d80 f   Adjacencies.obj
 0001:00064e20       ??0AdjacenciesBuilder@physx@@QEAA@XZ 0000000180065e20 f   Adjacencies.obj
 0001:00064e50       ??1AdjacenciesBuilder@physx@@QEAA@XZ 0000000180065e50 f   Adjacencies.obj
 0001:00064e70       ?Init@AdjacenciesBuilder@physx@@QEAA_NAEBUADJACENCIESCREATE@2@@Z 0000000180065e70 f   Adjacencies.obj
 0001:00066940       ??$?_UV?$ReflectionAllocator@VAdjEdge@@@shdfnd@physx@@@UserAllocated@shdfnd@physx@@SAPEAX_KV?$ReflectionAllocator@VAdjEdge@@@12@PEBDH@Z 0000000180067940 f i Adjacencies.obj
 0001:00066990       ??$?_UV?$ReflectionAllocator@VAdjTriangle@physx@@@shdfnd@physx@@@UserAllocated@shdfnd@physx@@SAPEAX_KV?$ReflectionAllocator@VAdjTriangle@physx@@@12@PEBDH@Z 0000000180067990 f i Adjacencies.obj
 0001:000669e0       ??0?$ReflectionAllocator@VAdjEdge@@@shdfnd@physx@@QEAA@PEBD@Z 00000001800679e0 f i Adjacencies.obj
 0001:00066a00       ??0?$ReflectionAllocator@VAdjTriangle@physx@@@shdfnd@physx@@QEAA@PEBD@Z 0000000180067a00 f i Adjacencies.obj
 0001:00066a20       ??0?$TriangleT@I@Gu@physx@@QEAA@XZ 0000000180067a20 f i Adjacencies.obj
 0001:00066a30       ??0AdjEdge@@QEAA@XZ        0000000180067a30 f i Adjacencies.obj
 0001:00066a40       ??0AdjTriangle@physx@@QEAA@XZ 0000000180067a40 f i Adjacencies.obj
 0001:00066a50       ??1AdjEdge@@QEAA@XZ        0000000180067a50 f i Adjacencies.obj
 0001:00066a60       ??1AdjTriangle@physx@@QEAA@XZ 0000000180067a60 f i Adjacencies.obj
 0001:00066a70       ??_EAdjEdge@@QEAAPEAXI@Z   0000000180067a70 f i Adjacencies.obj
 0001:00066b80       ??_EAdjTriangle@physx@@QEAAPEAXI@Z 0000000180067b80 f i Adjacencies.obj
 0001:00066c90       ??_I@YAXPEAX_K1P6AX0@Z@Z   0000000180067c90 f i Adjacencies.obj
 0001:00066d50       ??_VUserAllocated@shdfnd@physx@@SAXPEAX@Z 0000000180067d50 f i Adjacencies.obj
 0001:00066d80       ?allocate@?$ReflectionAllocator@VAdjEdge@@@shdfnd@physx@@QEAAPEAX_KPEBDH@Z 0000000180067d80 f i Adjacencies.obj
 0001:00066e20       ?allocate@?$ReflectionAllocator@VAdjTriangle@physx@@@shdfnd@physx@@QEAAPEAX_KPEBDH@Z 0000000180067e20 f i Adjacencies.obj
 0001:00066ec0       ?findEdge@?$TriangleT@I@Gu@physx@@QEBAEII@Z 0000000180067ec0 f i Adjacencies.obj
 0001:00067070       ?getName@?$ReflectionAllocator@VAdjEdge@@@shdfnd@physx@@CAPEBDXZ 0000000180068070 f i Adjacencies.obj
 0001:000670c0       ?getName@?$ReflectionAllocator@VAdjTriangle@physx@@@shdfnd@physx@@CAPEBDXZ 00000001800680c0 f i Adjacencies.obj
 0001:00067110       PxCreateCooking            0000000180068110 f   Cooking.obj
 0001:00067200       ?release@Cooking@physx@@UEAAXXZ 0000000180068200 f   Cooking.obj
 0001:00067260       ?setParams@Cooking@physx@@UEAAXAEBUPxCookingParams@2@@Z 0000000180068260 f   Cooking.obj
 0001:00067290       ?getParams@Cooking@physx@@UEBAAEBUPxCookingParams@2@XZ 0000000180068290 f   Cooking.obj
 0001:000672b0       ?platformMismatch@Cooking@physx@@UEBA_NXZ 00000001800682b0 f   Cooking.obj
 0001:00067340       ?cookTriangleMesh@Cooking@physx@@UEBA_NAEBVPxTriangleMeshDesc@2@AEAVPxOutputStream@2@PEAW4Enum@PxTriangleMeshCookingResult@2@@Z 0000000180068340 f   Cooking.obj
 0001:00067460       ?createTriangleMesh@Cooking@physx@@UEBAPEAVPxTriangleMesh@2@AEBVPxTriangleMeshDesc@2@AEAVPxPhysicsInsertionCallback@2@PEAW4Enum@PxTriangleMeshCookingResult@2@@Z 0000000180068460 f   Cooking.obj
 0001:00067580       ?validateTriangleMesh@Cooking@physx@@UEBA_NAEBVPxTriangleMeshDesc@2@@Z 0000000180068580 f   Cooking.obj
 0001:00067650       ?cookConvexMesh@Cooking@physx@@UEBA_NAEBVPxConvexMeshDesc@2@AEAVPxOutputStream@2@PEAW4Enum@PxConvexMeshCookingResult@2@@Z 0000000180068650 f   Cooking.obj
 0001:00067a30       ?createConvexMesh@Cooking@physx@@UEBAPEAVPxConvexMesh@2@AEBVPxConvexMeshDesc@2@AEAVPxPhysicsInsertionCallback@2@PEAW4Enum@PxConvexMeshCookingResult@2@@Z 0000000180068a30 f   Cooking.obj
 0001:00067ef0       ?validateConvexMesh@Cooking@physx@@UEBA_NAEBVPxConvexMeshDesc@2@@Z 0000000180068ef0 f   Cooking.obj
 0001:00067f70       ?computeHullPolygons@Cooking@physx@@UEBA_NAEBVPxSimpleTriangleMesh@2@AEAVPxAllocatorCallback@2@AEAIAEAPEAVPxVec3@2@2AEAPEAI2AEAPEAUPxHullPolygon@2@@Z 0000000180068f70 f   Cooking.obj
 0001:00068240       ?cookHeightField@Cooking@physx@@UEBA_NAEBVPxHeightFieldDesc@2@AEAVPxOutputStream@2@@Z 0000000180069240 f   Cooking.obj
 0001:000683b0       ?createHeightField@Cooking@physx@@UEBAPEAVPxHeightField@2@AEBVPxHeightFieldDesc@2@AEAVPxPhysicsInsertionCallback@2@@Z 00000001800693b0 f   Cooking.obj
 0001:000686a0       ?cookConvexMeshInternal@Cooking@physx@@AEBA_NAEBVPxConvexMeshDesc@2@AEAVConvexMeshBuilder@2@PEAVConvexHullLib@2@PEAW4Enum@PxConvexMeshCookingResult@2@@Z 00000001800696a0 f   Cooking.obj
 0001:000689c0       ?cookTriangleMesh@Cooking@physx@@AEBA_NAEAVTriangleMeshBuilder@2@AEBVPxTriangleMeshDesc@2@AEAVPxOutputStream@2@PEAW4Enum@PxTriangleMeshCookingResult@2@@Z 00000001800699c0 f   Cooking.obj
 0001:00068aa0       ?createTriangleMesh@Cooking@physx@@AEBAPEAVPxTriangleMesh@2@AEAVTriangleMeshBuilder@2@AEBVPxTriangleMeshDesc@2@AEAVPxPhysicsInsertionCallback@2@PEAW4Enum@PxTriangleMeshCookingResult@2@@Z 0000000180069aa0 f   Cooking.obj
 0001:00069270       ??$?2V?$ReflectionAllocator@VCooking@physx@@@shdfnd@physx@@@UserAllocated@shdfnd@physx@@SAPEAX_KV?$ReflectionAllocator@VCooking@physx@@@12@PEBDH@Z 000000018006a270 f i Cooking.obj
 0001:000692c0       ??$?2V?$ReflectionAllocator@VInflationConvexHullLib@physx@@@shdfnd@physx@@@UserAllocated@shdfnd@physx@@SAPEAX_KV?$ReflectionAllocator@VInflationConvexHullLib@physx@@@12@PEBDH@Z 000000018006a2c0 f i Cooking.obj
 0001:00069310       ??$?2V?$ReflectionAllocator@VQuickHullConvexHullLib@physx@@@shdfnd@physx@@@UserAllocated@shdfnd@physx@@SAPEAX_KV?$ReflectionAllocator@VQuickHullConvexHullLib@physx@@@12@PEBDH@Z 000000018006a310 f i Cooking.obj
 0001:00069360       ??$PX_UNUSED@VPxFoundation@physx@@@@YAXAEBVPxFoundation@physx@@@Z 000000018006a360 f i Cooking.obj
 0001:00069370       ??$PxMin@G@physx@@YAGGG@Z  000000018006a370 f i Cooking.obj
 0001:000693c0       ??0?$PxBitAndDataT@I$0IAAAAAAA@@physx@@QEAA@I_N@Z 000000018006a3c0 f i Cooking.obj
 0001:00069420       ??0?$PxFlags@W4Enum@PxConvexFlag@physx@@G@physx@@QEAA@W4Enum@PxConvexFlag@1@@Z 000000018006a420 f i Cooking.obj
 0001:00069450       ??0?$PxFlags@W4Enum@PxHeightFieldFlag@physx@@G@physx@@QEAA@AEBV01@@Z 000000018006a450 f i Cooking.obj
 0001:00069480       ??0?$ReflectionAllocator@VCooking@physx@@@shdfnd@physx@@QEAA@PEBD@Z 000000018006a480 f i Cooking.obj
 0001:000694a0       ??0?$ReflectionAllocator@VHeightField@Gu@physx@@@shdfnd@physx@@QEAA@PEBD@Z 000000018006a4a0 f i Cooking.obj
 0001:000694c0       ??0?$ReflectionAllocator@VInflationConvexHullLib@physx@@@shdfnd@physx@@QEAA@PEBD@Z 000000018006a4c0 f i Cooking.obj
 0001:000694e0       ??0?$ReflectionAllocator@VQuickHullConvexHullLib@physx@@@shdfnd@physx@@QEAA@PEBD@Z 000000018006a4e0 f i Cooking.obj
 0001:00069500       ??0Cooking@physx@@QEAA@AEBUPxCookingParams@1@@Z 000000018006a500 f i Cooking.obj
 0001:00069560       ??0PxConvexMeshDesc@physx@@QEAA@AEBV01@@Z 000000018006a560 f i Cooking.obj
 0001:00069630       ??0PxCooking@physx@@QEAA@XZ 000000018006a630 f i Cooking.obj
 0001:00069650       ??0PxCookingParams@physx@@QEAA@AEBU01@@Z 000000018006a650 f i Cooking.obj
 0001:000697e0       ??1Cooking@physx@@UEAA@XZ  000000018006a7e0 f i Cooking.obj
 0001:00069800       ??1PxCooking@physx@@MEAA@XZ 000000018006a800 f i Cooking.obj
 0001:00069820       ??4?$PxFlags@W4Enum@PxMeshPreprocessingFlag@physx@@I@physx@@QEAAAEAV01@AEBV01@@Z 000000018006a820 f i Cooking.obj
 0001:00069850       ??4PxCookingParams@physx@@QEAAAEAU01@AEBU01@@Z 000000018006a850 f i Cooking.obj
 0001:000699e0       ??9?$PxFlags@W4Enum@PxHeightFieldFlag@physx@@G@physx@@QEBA_NAEBV01@@Z 000000018006a9e0 f i Cooking.obj
 0001:00069a30       ??I?$PxFlags@W4Enum@PxHeightFieldFlag@physx@@G@physx@@QEBA?AV01@W4Enum@PxHeightFieldFlag@1@@Z 000000018006aa30 f i Cooking.obj
 0001:00069aa0       ??S?$PxFlags@W4Enum@PxConvexFlag@physx@@G@physx@@QEBA?AV01@XZ 000000018006aaa0 f i Cooking.obj
 0001:00069af0       ??Sphysx@@YA?AV?$PxFlags@W4Enum@PxConvexFlag@physx@@G@0@W4Enum@PxConvexFlag@0@@Z 000000018006aaf0 f i Cooking.obj
 0001:00069b30       ??_4?$PxFlags@W4Enum@PxConvexFlag@physx@@G@physx@@QEAAAEAV01@AEBV01@@Z 000000018006ab30 f i Cooking.obj
 0001:00069b70       ??_ECooking@physx@@UEAAPEAXI@Z 000000018006ab70 f i Cooking.obj
 0001:00069b70       ??_GCooking@physx@@UEAAPEAXI@Z 000000018006ab70 f i Cooking.obj
 0001:00069be0       ??_EPxCooking@physx@@MEAAPEAXI@Z 000000018006abe0 f i Cooking.obj
 0001:00069be0       ??_GPxCooking@physx@@MEAAPEAXI@Z 000000018006abe0 f i Cooking.obj
 0001:00069c30       ?allocate@?$ReflectionAllocator@VCooking@physx@@@shdfnd@physx@@QEAAPEAX_KPEBDH@Z 000000018006ac30 f i Cooking.obj
 0001:00069cd0       ?allocate@?$ReflectionAllocator@VHeightField@Gu@physx@@@shdfnd@physx@@QEAAPEAX_KPEBDH@Z 000000018006acd0 f i Cooking.obj
 0001:00069d70       ?allocate@?$ReflectionAllocator@VInflationConvexHullLib@physx@@@shdfnd@physx@@QEAAPEAX_KPEBDH@Z 000000018006ad70 f i Cooking.obj
 0001:00069e10       ?allocate@?$ReflectionAllocator@VQuickHullConvexHullLib@physx@@@shdfnd@physx@@QEAAPEAX_KPEBDH@Z 000000018006ae10 f i Cooking.obj
 0001:00069eb0       ?getBigConvexData@ConvexMeshBuilder@physx@@QEBAPEAVBigConvexData@2@XZ 000000018006aeb0 f i Cooking.obj
 0001:00069ed0       ?getInertia@ConvexMeshBuilder@physx@@QEBAAEBVPxMat33@2@XZ 000000018006aed0 f i Cooking.obj
 0001:00069ef0       ?getMass@ConvexMeshBuilder@physx@@QEBAMXZ 000000018006aef0 f i Cooking.obj
 0001:00069f10       ?getMeshData@TriangleMeshBuilder@physx@@QEAAAEAVTriangleMeshData@Gu@2@XZ 000000018006af10 f i Cooking.obj
 0001:00069f30       ?getName@?$ReflectionAllocator@VCooking@physx@@@shdfnd@physx@@CAPEBDXZ 000000018006af30 f i Cooking.obj
 0001:00069f80       ?getName@?$ReflectionAllocator@VHeightField@Gu@physx@@@shdfnd@physx@@CAPEBDXZ 000000018006af80 f i Cooking.obj
 0001:00069fd0       ?getName@?$ReflectionAllocator@VInflationConvexHullLib@physx@@@shdfnd@physx@@CAPEBDXZ 000000018006afd0 f i Cooking.obj
 0001:0006a020       ?getName@?$ReflectionAllocator@VQuickHullConvexHullLib@physx@@@shdfnd@physx@@CAPEBDXZ 000000018006b020 f i Cooking.obj
 0001:0006a070       ?isValid@PxHeightFieldDesc@physx@@QEBA_NXZ 000000018006b070 f i Cooking.obj
 0001:0006a180       ?littleEndian@shdfnd@physx@@YADXZ 000000018006b180 f i Cooking.obj
 0001:0006a1a0       ?setBigConvexData@ConvexMesh@Gu@physx@@QEAAXPEAVBigConvexData@3@@Z 000000018006b1a0 f i Cooking.obj
 0001:0006a1c0       ?setBigConvexData@ConvexMeshBuilder@physx@@QEAAXPEAVBigConvexData@2@@Z 000000018006b1c0 f i Cooking.obj
 0001:0006a1f0       ?setInertia@ConvexMesh@Gu@physx@@QEAAXAEBVPxMat33@3@@Z 000000018006b1f0 f i Cooking.obj
 0001:0006a230       ?setMass@ConvexMesh@Gu@physx@@QEAAXM@Z 000000018006b230 f i Cooking.obj
 0001:0006a260       ?setNb@ConvexMesh@Gu@physx@@QEAAXI@Z 000000018006b260 f i Cooking.obj
 0001:0006a2a0       ??0ReducedVertexCloud@physx@@QEAA@PEBVPxVec3@1@I@Z 000000018006b2a0 f   CookingUtils.obj
 0001:0006a300       ??1ReducedVertexCloud@physx@@QEAA@XZ 000000018006b300 f   CookingUtils.obj
 0001:0006a320       ?Clean@ReducedVertexCloud@physx@@QEAAAEAV12@XZ 000000018006b320 f   CookingUtils.obj
 0001:0006a390       ?Reduce@ReducedVertexCloud@physx@@QEAA_NPEAUREDUCEDCLOUD@2@@Z 000000018006b390 f   CookingUtils.obj
 0001:0006aa10       ??$?_UM@@YAPEAX_KV?$ReflectionAllocator@M@shdfnd@physx@@PEBDH@Z 000000018006ba10 f i CookingUtils.obj
 0001:0006aa60       ??0?$ReflectionAllocator@M@shdfnd@physx@@QEAA@PEBD@Z 000000018006ba60 f i CookingUtils.obj
 0001:0006aa80       ?allocate@?$ReflectionAllocator@M@shdfnd@physx@@QEAAPEAX_KPEBDH@Z 000000018006ba80 f i CookingUtils.obj
 0001:0006ab20       ?getName@?$ReflectionAllocator@M@shdfnd@physx@@CAPEBDXZ 000000018006bb20 f i CookingUtils.obj
 0001:0006ab70       ??0EdgeList@Gu@physx@@QEAA@XZ 000000018006bb70 f   EdgeList.obj
 0001:0006abc0       ??1EdgeList@Gu@physx@@QEAA@XZ 000000018006bbc0 f   EdgeList.obj
 0001:0006ac80       ?load@EdgeList@Gu@physx@@QEAA_NAEAVPxInputStream@3@@Z 000000018006bc80 f   EdgeList.obj
 0001:0006afc0       ??0EdgeListBuilder@Gu@physx@@QEAA@XZ 000000018006bfc0 f   EdgeList.obj
 0001:0006aff0       ??1EdgeListBuilder@Gu@physx@@QEAA@XZ 000000018006bff0 f   EdgeList.obj
 0001:0006b010       ?init@EdgeListBuilder@Gu@physx@@QEAA_NAEBUEDGELISTCREATE@23@@Z 000000018006c010 f   EdgeList.obj
 0001:0006b1f0       ?createFacesToEdges@EdgeListBuilder@Gu@physx@@AEAA_NIPEBIPEBG@Z 000000018006c1f0 f   EdgeList.obj
 0001:0006b9c0       ?createEdgesToFaces@EdgeListBuilder@Gu@physx@@AEAA_NIPEBIPEBG@Z 000000018006c9c0 f   EdgeList.obj
 0001:0006bf60       ?computeActiveEdges@EdgeListBuilder@Gu@physx@@AEAA_NIPEBIPEBGPEBVPxVec3@3@M@Z 000000018006cf60 f   EdgeList.obj
 0001:0006e620       ??$?_UUEdgeData@Gu@physx@@@@YAPEAX_KV?$ReflectionAllocator@UEdgeData@Gu@physx@@@shdfnd@physx@@PEBDH@Z 000000018006f620 f i EdgeList.obj
 0001:0006e670       ??$?_UUEdgeTriangleData@Gu@physx@@@@YAPEAX_KV?$ReflectionAllocator@UEdgeTriangleData@Gu@physx@@@shdfnd@physx@@PEBDH@Z 000000018006f670 f i EdgeList.obj
 0001:0006e6c0       ??0?$ReflectionAllocator@UEdgeData@Gu@physx@@@shdfnd@physx@@QEAA@PEBD@Z 000000018006f6c0 f i EdgeList.obj
 0001:0006e6e0       ??0?$ReflectionAllocator@UEdgeTriangleData@Gu@physx@@@shdfnd@physx@@QEAA@PEBD@Z 000000018006f6e0 f i EdgeList.obj
 0001:0006e700       ??0PxTriangle@physx@@QEAA@AEBVPxVec3@1@00@Z 000000018006f700 f i EdgeList.obj
 0001:0006e7d0       ??1PxTriangle@physx@@QEAA@XZ 000000018006f7d0 f i EdgeList.obj
 0001:0006e7e0       ?PxAtan2@physx@@YAMMM@Z    000000018006f7e0 f i EdgeList.obj
 0001:0006e810       ?allocate@?$ReflectionAllocator@UEdgeData@Gu@physx@@@shdfnd@physx@@QEAAPEAX_KPEBDH@Z 000000018006f810 f i EdgeList.obj
 0001:0006e8b0       ?allocate@?$ReflectionAllocator@UEdgeTriangleData@Gu@physx@@@shdfnd@physx@@QEAAPEAX_KPEBDH@Z 000000018006f8b0 f i EdgeList.obj
 0001:0006e950       ?angle@shdfnd@physx@@YAMAEBVPxVec3@2@0@Z 000000018006f950 f i EdgeList.obj
 0001:0006e9d0       ?getName@?$ReflectionAllocator@UEdgeData@Gu@physx@@@shdfnd@physx@@CAPEBDXZ 000000018006f9d0 f i EdgeList.obj
 0001:0006ea20       ?getName@?$ReflectionAllocator@UEdgeTriangleData@Gu@physx@@@shdfnd@physx@@CAPEBDXZ 000000018006fa20 f i EdgeList.obj
 0001:0006ea70       ?normal@PxTriangle@physx@@QEBAXAEAVPxVec3@2@@Z 000000018006fa70 f i EdgeList.obj
 0001:0006eb60       ??0MeshCleaner@physx@@QEAA@IPEBVPxVec3@1@IPEBIM@Z 000000018006fb60 f   MeshCleaner.obj
 0001:0006f840       ??1MeshCleaner@physx@@QEAA@XZ 0000000180070840 f   MeshCleaner.obj
 0001:0006ff50       ??9Indices@@QEBA_NAEBU0@@Z 0000000180070f50 f i MeshCleaner.obj
 0001:00070010       ??9PxVec3@physx@@QEBA_NAEBV01@@Z 0000000180071010 f i MeshCleaner.obj
 0001:00070090       ?PxFloor@physx@@YAMM@Z     0000000180071090 f i MeshCleaner.obj
 0001:000700b0       ?nextPowerOfTwo@shdfnd@physx@@YAII@Z 00000001800710b0 f i MeshCleaner.obj
 0001:00070140       ?createQuantizer@physx@@YAPEAVQuantizer@1@XZ 0000000180071140 f   Quantizer.obj
 0001:000701c0       ?kmeans_cluster3d@@YAIPEBVPxVec3@physx@@IIPEAV12@PEAIMM@Z 00000001800711c0 f   Quantizer.obj
 0001:00070250       ??$?2V?$ReflectionAllocator@VQuantizerImpl@@@shdfnd@physx@@@UserAllocated@shdfnd@physx@@SAPEAX_KV?$ReflectionAllocator@VQuantizerImpl@@@12@PEBDH@Z 0000000180071250 f i Quantizer.obj
 0001:000702a0       ??$kmeans_cluster@VPxVec3@physx@@M@@YAIPEBVPxVec3@physx@@IIPEAV01@PEAIMM@Z 00000001800712a0 f i Quantizer.obj
 0001:00070be0       ??0?$ReflectionAllocator@VQuantizerImpl@@@shdfnd@physx@@QEAA@PEBD@Z 0000000180071be0 f i Quantizer.obj
 0001:00070c00       ??0Quantizer@physx@@QEAA@XZ 0000000180071c00 f i Quantizer.obj
 0001:00070c20       ??0QuantizerImpl@@QEAA@XZ  0000000180071c20 f i Quantizer.obj
 0001:00070d60       ??1Quantizer@physx@@MEAA@XZ 0000000180071d60 f i Quantizer.obj
 0001:00070d80       ??1QuantizerImpl@@EEAA@XZ  0000000180071d80 f i Quantizer.obj
 0001:00070de0       ??_EQuantizer@physx@@MEAAPEAXI@Z 0000000180071de0 f i Quantizer.obj
 0001:00070de0       ??_GQuantizer@physx@@MEAAPEAXI@Z 0000000180071de0 f i Quantizer.obj
 0001:00070e30       ??_EQuantizerImpl@@EEAAPEAXI@Z 0000000180071e30 f i Quantizer.obj
 0001:00070e30       ??_GQuantizerImpl@@EEAAPEAXI@Z 0000000180071e30 f i Quantizer.obj
 0001:00070ea0       ?allocate@?$ReflectionAllocator@VQuantizerImpl@@@shdfnd@physx@@QEAAPEAX_KPEBDH@Z 0000000180071ea0 f i Quantizer.obj
 0001:00070f40       ?clear@?$Array@VPxVec3@physx@@VNamedAllocator@shdfnd@2@@shdfnd@physx@@QEAAXXZ 0000000180071f40 f i Quantizer.obj
 0001:00070f90       ?getDenormalizeCenter@QuantizerImpl@@UEBAAEBVPxVec3@physx@@XZ 0000000180071f90 f i Quantizer.obj
 0001:00070fb0       ?getDenormalizeScale@QuantizerImpl@@UEBAAEBVPxVec3@physx@@XZ 0000000180071fb0 f i Quantizer.obj
 0001:00070fd0       ?getName@?$ReflectionAllocator@VQuantizerImpl@@@shdfnd@physx@@CAPEBDXZ 0000000180071fd0 f i Quantizer.obj
 0001:00071020       ?kmeansQuantize3D@QuantizerImpl@@UEAAPEBVPxVec3@physx@@IPEBV23@I_NIAEAI@Z 0000000180072020 f i Quantizer.obj
 0001:00071420       ?normalizeInput@QuantizerImpl@@AEAAXIPEBVPxVec3@physx@@I@Z 0000000180072420 f i Quantizer.obj
 0001:00071770       ?release@QuantizerImpl@@UEAAXXZ 0000000180072770 f i Quantizer.obj
 0001:000717c6       LoadLibraryA               00000001800727c6 f   kernel32:KERNEL32.dll
 0001:000717cc       ?writeWord@physx@@YAXG_NAEAVPxOutputStream@1@@Z 00000001800727cc f   PhysXCommon_64:PhysXCommon_64.dll
 0001:000717d2       ?writeDword@physx@@YAXI_NAEAVPxOutputStream@1@@Z 00000001800727d2 f   PhysXCommon_64:PhysXCommon_64.dll
 0001:000717d8       ?writeFloat@physx@@YAXM_NAEAVPxOutputStream@1@@Z 00000001800727d8 f   PhysXCommon_64:PhysXCommon_64.dll
 0001:000717de       ?writeHeader@physx@@YA_NCCCCI_NAEAVPxOutputStream@1@@Z 00000001800727de f   PhysXCommon_64:PhysXCommon_64.dll
 0001:000717e4       ?validate@RTree@Gu@physx@@QEAAXPEAUCallbackRefit@123@@Z 00000001800727e4 f   PhysXCommon_64:PhysXCommon_64.dll
 0001:000717ea       ??0SourceMesh@Gu@physx@@QEAA@XZ 00000001800727ea f   PhysXCommon_64:PhysXCommon_64.dll
 0001:000717f0       ??1SourceMesh@Gu@physx@@QEAA@XZ 00000001800727f0 f   PhysXCommon_64:PhysXCommon_64.dll
 0001:000717f6       ??0BV4Tree@Gu@physx@@QEAA@XZ 00000001800727f6 f   PhysXCommon_64:PhysXCommon_64.dll
 0001:000717fc       ??1BV4Tree@Gu@physx@@QEAA@XZ 00000001800727fc f   PhysXCommon_64:PhysXCommon_64.dll
 0001:00071802       ??0BV32Tree@Gu@physx@@QEAA@XZ 0000000180072802 f   PhysXCommon_64:PhysXCommon_64.dll
 0001:00071808       ??1BV32Tree@Gu@physx@@QEAA@XZ 0000000180072808 f   PhysXCommon_64:PhysXCommon_64.dll
 0001:0007180e       ?writeFloatBuffer@physx@@YAXPEBMI_NAEAVPxOutputStream@1@@Z 000000018007280e f   PhysXCommon_64:PhysXCommon_64.dll
 0001:00071814       ?writeWordBuffer@physx@@YAXPEBGI_NAEAVPxOutputStream@1@@Z 0000000180072814 f   PhysXCommon_64:PhysXCommon_64.dll
 0001:0007181a       ?computeMaxIndex@physx@@YAIPEBII@Z 000000018007281a f   PhysXCommon_64:PhysXCommon_64.dll
 0001:00071820       ?storeIndices@physx@@YAXIIPEBIAEAVPxOutputStream@1@_N@Z 0000000180072820 f   PhysXCommon_64:PhysXCommon_64.dll
 0001:00071826       ?computeBoundsAroundVertices@Gu@physx@@YAXAEAVPxBounds3@2@IPEIBVPxVec3@2@@Z 0000000180072826 f   PhysXCommon_64:PhysXCommon_64.dll
 0001:0007182c       ?BuildBV4Ex@Gu@physx@@YA_NAEAVBV4Tree@12@AEAVSourceMesh@12@MI@Z 000000018007282c f   PhysXCommon_64:PhysXCommon_64.dll
 0001:00071832       ?BuildBV32Ex@Gu@physx@@YA_NAEAVBV32Tree@12@AEAVSourceMesh@12@MI@Z 0000000180072832 f   PhysXCommon_64:PhysXCommon_64.dll
 0001:00071838       ?computeMaxIndex@physx@@YAGPEBGI@Z 0000000180072838 f   PhysXCommon_64:PhysXCommon_64.dll
 0001:0007183e       ?WriteHeader@Gu@physx@@YA_NEEEEI_NAEAVPxOutputStream@2@@Z 000000018007283e f   PhysXCommon_64:PhysXCommon_64.dll
 0001:00071844       ?StoreIndices@Gu@physx@@YAXGIPEBGAEAVPxOutputStream@2@_N@Z 0000000180072844 f   PhysXCommon_64:PhysXCommon_64.dll
 0001:0007184a       ?CreateOffsets@BigConvexData@physx@@IEAAXXZ 000000018007284a f   PhysXCommon_64:PhysXCommon_64.dll
 0001:00071850       ?GetRanks@RadixSort@Cm@physx@@QEBAPEBIXZ 0000000180072850 f   PhysXCommon_64:PhysXCommon_64.dll
 0001:00071856       ??0RadixSortBuffered@Cm@physx@@QEAA@XZ 0000000180072856 f   PhysXCommon_64:PhysXCommon_64.dll
 0001:0007185c       ??1RadixSortBuffered@Cm@physx@@UEAA@XZ 000000018007285c f   PhysXCommon_64:PhysXCommon_64.dll
 0001:00071862       ?Sort@RadixSortBuffered@Cm@physx@@QEAAAEAV123@PEBIIW4RadixHint@23@@Z 0000000180072862 f   PhysXCommon_64:PhysXCommon_64.dll
 0001:00071868       ?computeOBBPoints@Gu@physx@@YAXPEIAVPxVec3@2@AEBV32@1111@Z 0000000180072868 f   PhysXCommon_64:PhysXCommon_64.dll
 0001:0007186e       ??0BigConvexData@physx@@QEAA@XZ 000000018007286e f   PhysXCommon_64:PhysXCommon_64.dll
 0001:00071874       ??1BigConvexData@physx@@QEAA@XZ 0000000180072874 f   PhysXCommon_64:PhysXCommon_64.dll
 0001:0007187a       ?readDword@physx@@YAI_NAEAVPxInputStream@1@@Z 000000018007287a f   PhysXCommon_64:PhysXCommon_64.dll
 0001:00071880       ?ReadHeader@Gu@physx@@YA_NEEEEAEAIAEA_NAEAVPxInputStream@2@@Z 0000000180072880 f   PhysXCommon_64:PhysXCommon_64.dll
 0001:00071886       ??0HeightField@Gu@physx@@QEAA@PEAVGuMeshFactory@2@@Z 0000000180072886 f   PhysXCommon_64:PhysXCommon_64.dll
 0001:0007188c       ?loadFromDesc@HeightField@Gu@physx@@QEAA_NAEBVPxHeightFieldDesc@3@@Z 000000018007288c f   PhysXCommon_64:PhysXCommon_64.dll
 0001:00071892       ?releaseMemory@HeightField@Gu@physx@@QEAAXXZ 0000000180072892 f   PhysXCommon_64:PhysXCommon_64.dll
 0001:00071898       ??1HeightField@Gu@physx@@UEAA@XZ 0000000180072898 f   PhysXCommon_64:PhysXCommon_64.dll
 0001:0007189e       ?PxGetAssertHandler@physx@@YAAEAVPxAssertHandler@1@XZ 000000018007289e f   PhysXFoundation_64:PhysXFoundation_64.dll
 0001:000718a4       ?getAllocator@shdfnd@physx@@YAAEAVPxAllocatorCallback@2@XZ 00000001800728a4 f   PhysXFoundation_64:PhysXFoundation_64.dll
 0001:000718aa       ?allocate@TempAllocator@shdfnd@physx@@QEAAPEAX_KPEBDH@Z 00000001800728aa f   PhysXFoundation_64:PhysXFoundation_64.dll
 0001:000718b0       ?deallocate@TempAllocator@shdfnd@physx@@QEAAXPEAX@Z 00000001800728b0 f   PhysXFoundation_64:PhysXFoundation_64.dll
 0001:000718b6       PxGetFoundation            00000001800728b6 f   PhysXFoundation_64:PhysXFoundation_64.dll
 0001:000718bc       ?getInstance@Foundation@shdfnd@physx@@SAAEAV123@XZ 00000001800728bc f   PhysXFoundation_64:PhysXFoundation_64.dll
 0001:000718c2       ?error@Foundation@shdfnd@physx@@QEAAXW4Enum@PxErrorCode@3@PEBDH1ZZ 00000001800728c2 f   PhysXFoundation_64:PhysXFoundation_64.dll
 0001:000718c8       ?PxDiagonalize@physx@@YA?AVPxVec3@1@AEBVPxMat33@1@AEAVPxQuat@1@@Z 00000001800728c8 f   PhysXFoundation_64:PhysXFoundation_64.dll
 0001:000718ce       ?incRefCount@Foundation@shdfnd@physx@@SAXXZ 00000001800728ce f   PhysXFoundation_64:PhysXFoundation_64.dll
 0001:000718d4       ?decRefCount@Foundation@shdfnd@physx@@SAXXZ 00000001800728d4 f   PhysXFoundation_64:PhysXFoundation_64.dll
 0001:000718da       ??0FPUGuard@shdfnd@physx@@QEAA@XZ 00000001800728da f   PhysXFoundation_64:PhysXFoundation_64.dll
 0001:000718e0       ??1FPUGuard@shdfnd@physx@@QEAA@XZ 00000001800728e0 f   PhysXFoundation_64:PhysXFoundation_64.dll
 0001:000718e6       __imp_load_??0NamedAllocator@shdfnd@physx@@QEAA@PEBD@Z 00000001800728e6 f   PxFoundationDEBUG_x64:PxFoundationDEBUG_x64.dll
 0001:000718f2       ??0NamedAllocator@shdfnd@physx@@QEAA@PEBD@Z 00000001800728f2 f   PxFoundationDEBUG_x64:PxFoundationDEBUG_x64.dll
 0001:000718f8       __tailMerge_pxfoundationdebug_x64_dll 00000001800728f8     PxFoundationDEBUG_x64:PxFoundationDEBUG_x64.dll
 0001:00071971       __imp_load_??0NamedAllocator@shdfnd@physx@@QEAA@AEBV012@@Z 0000000180072971 f   PxFoundationDEBUG_x64:PxFoundationDEBUG_x64.dll
 0001:0007197d       ??0NamedAllocator@shdfnd@physx@@QEAA@AEBV012@@Z 000000018007297d f   PxFoundationDEBUG_x64:PxFoundationDEBUG_x64.dll
 0001:00071983       __imp_load_??1NamedAllocator@shdfnd@physx@@QEAA@XZ 0000000180072983 f   PxFoundationDEBUG_x64:PxFoundationDEBUG_x64.dll
 0001:0007198f       ??1NamedAllocator@shdfnd@physx@@QEAA@XZ 000000018007298f f   PxFoundationDEBUG_x64:PxFoundationDEBUG_x64.dll
 0001:00071995       __imp_load_?allocate@NamedAllocator@shdfnd@physx@@QEAAPEAX_KPEBDH@Z 0000000180072995 f   PxFoundationDEBUG_x64:PxFoundationDEBUG_x64.dll
 0001:000719a1       ?allocate@NamedAllocator@shdfnd@physx@@QEAAPEAX_KPEBDH@Z 00000001800729a1 f   PxFoundationDEBUG_x64:PxFoundationDEBUG_x64.dll
 0001:000719a7       __imp_load_?deallocate@NamedAllocator@shdfnd@physx@@QEAAXPEAX@Z 00000001800729a7 f   PxFoundationDEBUG_x64:PxFoundationDEBUG_x64.dll
 0001:000719b3       ?deallocate@NamedAllocator@shdfnd@physx@@QEAAXPEAX@Z 00000001800729b3 f   PxFoundationDEBUG_x64:PxFoundationDEBUG_x64.dll
 0001:000719bc       ??$PFromRva@PEAP6A_JXZ@@YAPEAP6A_JXZK@Z 00000001800729bc f i delayimp:delayhlp.obj
 0001:000719cc       ??$PFromRva@PEAPEAUHINSTANCE__@@@@YAPEAPEAUHINSTANCE__@@K@Z 00000001800729cc f i delayimp:delayhlp.obj
 0001:000719dc       ??$PFromRva@PEAU_IMAGE_IMPORT_BY_NAME@@@@YAPEAU_IMAGE_IMPORT_BY_NAME@@K@Z 00000001800729dc f i delayimp:delayhlp.obj
 0001:000719ec       ??$PFromRva@PEAU_IMAGE_THUNK_DATA64@@@@YAPEAU_IMAGE_THUNK_DATA64@@K@Z 00000001800729ec f i delayimp:delayhlp.obj
 0001:000719fc       ??$PFromRva@PEBD@@YAPEBDK@Z 00000001800729fc f i delayimp:delayhlp.obj
 0001:00071a0c       ??$PFromRva@PEBUImgDelayDescr@@@@YAPEBUImgDelayDescr@@K@Z 0000000180072a0c f i delayimp:delayhlp.obj
 0001:00071a1c       ??$PFromRva@PEBU_IMAGE_THUNK_DATA64@@@@YAPEBU_IMAGE_THUNK_DATA64@@K@Z 0000000180072a1c f i delayimp:delayhlp.obj
 0001:00071a2c       ?CountOfImports@@YAIPEBU_IMAGE_THUNK_DATA64@@@Z 0000000180072a2c f i delayimp:delayhlp.obj
 0001:00071a48       ?DloadAcquireSectionWriteAccess@@YAXXZ 0000000180072a48 f i delayimp:delayhlp.obj
 0001:00071b1c       ?DloadGetSRWLockFunctionPointers@@YAEXZ 0000000180072b1c f i delayimp:delayhlp.obj
 0001:00071be4       ?DloadLock@@YAXXZ          0000000180072be4 f i delayimp:delayhlp.obj
 0001:00071c3c       ?DloadMakePermanentImageCommit@@YAXPEAX_K@Z 0000000180072c3c f i delayimp:delayhlp.obj
 0001:00071cfc       ?DloadObtainSection@@YAPEAXPEAK0@Z 0000000180072cfc f i delayimp:delayhlp.obj
 0001:00071dbc       ?DloadProtectSection@@YAXKPEAK@Z 0000000180072dbc f i delayimp:delayhlp.obj
 0001:00071e70       ?DloadReleaseSectionWriteAccess@@YAXXZ 0000000180072e70 f i delayimp:delayhlp.obj
 0001:00071f28       ?DloadUnlock@@YAXXZ        0000000180072f28 f i delayimp:delayhlp.obj
 0001:00071f78       ?IndexFromPImgThunkData@@YAIPEBU_IMAGE_THUNK_DATA64@@0@Z 0000000180072f78 f i delayimp:delayhlp.obj
 0001:0007210c       HRESULT_FROM_WIN32         000000018007310c f i delayimp:delayhlp.obj
 0001:00072120       ReadAcquire64              0000000180073120 f i delayimp:delayhlp.obj
 0001:00072124       ReadPointerAcquire         0000000180073124 f i delayimp:delayhlp.obj
 0001:00072128       WritePointerRelease        0000000180073128 f i delayimp:delayhlp.obj
 0001:0007212c       WriteRelease64             000000018007312c f i delayimp:delayhlp.obj
 0001:00072130       __FUnloadDelayLoadedDLL2   0000000180073130 f   delayimp:delayhlp.obj
 0001:00072218       __HrLoadAllImportsForDll   0000000180073218 f   delayimp:delayhlp.obj
 0001:000722a8       __delayLoadHelper2         00000001800732a8 f   delayimp:delayhlp.obj
 0001:00072640       _CRT_RTC_INIT              0000000180073640 f   LIBCMTD:init.obj
 0001:00072650       _CRT_RTC_INITW             0000000180073650 f   LIBCMTD:init.obj
 0001:00072660       _RTC_InitBase              0000000180073660 f   LIBCMTD:init.obj
 0001:000726b0       _RTC_Shutdown              00000001800736b0 f   LIBCMTD:init.obj
 0001:000726f0       __chkstk                   00000001800736f0 f   LIBCMTD:chkstk.obj
 0001:000726f0       _alloca_probe              00000001800736f0 f   LIBCMTD:chkstk.obj
 0001:00072760       ??3@YAXPEAX_K@Z            0000000180073760 f   LIBCMTD:delete_scalar_size.obj
 0001:00072790       ??1type_info@@UEAA@XZ      0000000180073790 f   LIBCMTD:std_type_info_static.obj
 0001:000727b0       ??_Etype_info@@UEAAPEAXI@Z 00000001800737b0 f i LIBCMTD:std_type_info_static.obj
 0001:000727b0       ??_Gtype_info@@UEAAPEAXI@Z 00000001800737b0 f i LIBCMTD:std_type_info_static.obj
 0001:00072800       ?__scrt_initialize_type_info@@YAXXZ 0000000180073800 f   LIBCMTD:tncleanup.obj
 0001:00072820       ?__scrt_uninitialize_type_info@@YAXXZ 0000000180073820 f   LIBCMTD:tncleanup.obj
 0001:00072d40       _CRT_INIT                  0000000180073d40 f   LIBCMTD:dll_dllmain.obj
 0001:00072d80       _DllMainCRTStartup         0000000180073d80 f   LIBCMTD:dll_dllmain.obj
 0001:00072dd0       _guard_check_icall_nop     0000000180073dd0 f i LIBCMTD:guard_support.obj
 0001:00072de0       ReadNoFence64              0000000180073de0 f i LIBCMTD:guard_support.obj
 0001:00072e10       ReadPointerNoFence         0000000180073e10 f i LIBCMTD:guard_support.obj
 0001:00072e30       __castguard_check_failure_debugbreak 0000000180073e30 f i LIBCMTD:guard_support.obj
 0001:00072e60       __castguard_check_failure_fastfail 0000000180073e60 f i LIBCMTD:guard_support.obj
 0001:00072e90       __castguard_check_failure_nop 0000000180073e90 f i LIBCMTD:guard_support.obj
 0001:00072ea0       __castguard_check_failure_os_handled 0000000180073ea0 f i LIBCMTD:guard_support.obj
 0001:00072fa0       __castguard_slow_path_check_debugbreak 0000000180073fa0 f i LIBCMTD:guard_support.obj
 0001:00072ff0       __castguard_slow_path_check_fastfail 0000000180073ff0 f i LIBCMTD:guard_support.obj
 0001:00073050       __castguard_slow_path_check_nop 0000000180074050 f i LIBCMTD:guard_support.obj
 0001:00073070       __castguard_slow_path_check_os_handled 0000000180074070 f i LIBCMTD:guard_support.obj
 0001:00073160       _guard_icall_checks_enforced 0000000180074160 f i LIBCMTD:guard_support.obj
 0001:000731b0       _guard_rf_checks_enforced  00000001800741b0 f i LIBCMTD:guard_support.obj
 0001:000731c0       ?_RTC_GetErrorFunc@@YAP6AHHPEBDH00ZZPEBX@Z 00000001800741c0 f   LIBCMTD:userapi.obj
 0001:000731d0       ?_RTC_GetErrorFuncW@@YAP6AHHPEB_WH00ZZPEBX@Z 00000001800741d0 f   LIBCMTD:userapi.obj
 0001:000731e0       _RTC_GetErrDesc            00000001800741e0 f   LIBCMTD:userapi.obj
 0001:00073200       _RTC_NumErrors             0000000180074200 f   LIBCMTD:userapi.obj
 0001:00073210       _RTC_SetErrorFunc          0000000180074210 f   LIBCMTD:userapi.obj
 0001:00073230       _RTC_SetErrorFuncW         0000000180074230 f   LIBCMTD:userapi.obj
 0001:00073250       _RTC_SetErrorType          0000000180074250 f   LIBCMTD:userapi.obj
 0001:00073280       ??3@YAXPEAX@Z              0000000180074280 f   LIBCMTD:delete_scalar.obj
 0001:000733a0       __security_init_cookie     00000001800743a0 f   LIBCMTD:gs_support.obj
 0001:00073440       DllMain                    0000000180074440 f   LIBCMTD:dll_dllmain_stub.obj
 0001:00073460       __local_stdio_printf_options 0000000180074460 f i LIBCMTD:default_local_stdio_options.obj
 0001:00073470       __local_stdio_scanf_options 0000000180074470 f i LIBCMTD:default_local_stdio_options.obj
 0001:00073480       __scrt_initialize_default_local_stdio_options 0000000180074480 f   LIBCMTD:default_local_stdio_options.obj
 0001:000734e0       ?configure_argv@__scrt_narrow_argv_policy@@SAHXZ 00000001800744e0 f i LIBCMTD:utility.obj
 0001:00073600       ?initialize_environment@__scrt_narrow_environment_policy@@SAHXZ 0000000180074600 f i LIBCMTD:utility.obj
 0001:000736d0       NtCurrentTeb               00000001800746d0 f i LIBCMTD:utility.obj
 0001:000736e0       __scrt_acquire_startup_lock 00000001800746e0 f   LIBCMTD:utility.obj
 0001:00073760       __scrt_dllmain_after_initialize_c 0000000180074760 f   LIBCMTD:utility.obj
 0001:000737a0       __scrt_dllmain_before_initialize_c 00000001800747a0 f   LIBCMTD:utility.obj
 0001:000737d0       __scrt_dllmain_crt_thread_attach 00000001800747d0 f   LIBCMTD:utility.obj
 0001:00073810       __scrt_dllmain_crt_thread_detach 0000000180074810 f   LIBCMTD:utility.obj
 0001:00073830       __scrt_dllmain_exception_filter 0000000180074830 f   LIBCMTD:utility.obj
 0001:000738b0       __scrt_dllmain_uninitialize_c 00000001800748b0 f   LIBCMTD:utility.obj
 0001:000738f0       __scrt_dllmain_uninitialize_critical 00000001800748f0 f   LIBCMTD:utility.obj
 0001:00073910       __scrt_initialize_crt      0000000180074910 f   LIBCMTD:utility.obj
 0001:00073970       __scrt_initialize_onexit_tables 0000000180074970 f   LIBCMTD:utility.obj
 0001:00073ac0       __scrt_is_nonwritable_in_current_image 0000000180074ac0 f   LIBCMTD:utility.obj
 0001:00073b70       __scrt_release_startup_lock 0000000180074b70 f   LIBCMTD:utility.obj
 0001:00073bb0       __scrt_uninitialize_crt    0000000180074bb0 f   LIBCMTD:utility.obj
 0001:00073c00       _onexit                    0000000180074c00 f   LIBCMTD:utility.obj
 0001:00073ca0       at_quick_exit              0000000180074ca0 f   LIBCMTD:utility.obj
 0001:00073d00       atexit                     0000000180074d00 f   LIBCMTD:utility.obj
 0001:00073d40       __scrt_get_dyn_tls_init_callback 0000000180074d40 f   LIBCMTD:dyn_tls_init.obj
 0001:00073d50       __crt_debugger_hook        0000000180074d50 f   LIBCMTD:utility_desktop.obj
 0001:00073d70       __scrt_fastfail            0000000180074d70 f   LIBCMTD:utility_desktop.obj
 0001:00073f70       __scrt_get_show_window_mode 0000000180074f70 f   LIBCMTD:utility_desktop.obj
 0001:00073fe0       __scrt_initialize_mta      0000000180074fe0 f   LIBCMTD:utility_desktop.obj
 0001:00074000       __scrt_initialize_winrt    0000000180075000 f   LIBCMTD:utility_desktop.obj
 0001:00074010       __scrt_is_managed_app      0000000180075010 f   LIBCMTD:utility_desktop.obj
 0001:000740e0       __scrt_set_unhandled_exception_filter 00000001800750e0 f   LIBCMTD:utility_desktop.obj
 0001:00074100       __scrt_exe_initialize_mta  0000000180075100 f   LIBCMTD:utility_desktop.obj
 0001:00074100       __scrt_stub_for_initialize_mta 0000000180075100 f   LIBCMTD:utility_desktop.obj
 0001:00074110       __scrt_unhandled_exception_filter 0000000180075110 f   LIBCMTD:utility_desktop.obj
 0001:000741d0       _RTC_Initialize            00000001800751d0 f   LIBCMTD:initsect.obj
 0001:00074230       _RTC_Terminate             0000000180075230 f   LIBCMTD:initsect.obj
 0001:00074340       ?_RTC_AllocaFailure@@YAXPEAXPEAU_RTC_ALLOCA_NODE@@H@Z 0000000180075340 f   LIBCMTD:error.obj
 0001:000744f0       ?_RTC_Failure@@YAXPEAXH@Z  00000001800754f0 f   LIBCMTD:error.obj
 0001:00074560       ?_RTC_StackFailure@@YAXPEAXPEBD@Z 0000000180075560 f   LIBCMTD:error.obj
 0001:00074aa0       _RTC_UninitUse             0000000180075aa0 f   LIBCMTD:error.obj
 0001:00074ba0       _vsprintf_s_l              0000000180075ba0 f i LIBCMTD:error.obj
 0001:00074c20       sprintf_s                  0000000180075c20 f i LIBCMTD:error.obj
 0001:00074c50       __isa_available_init       0000000180075c50 f   LIBCMTD:cpu_disp.obj
 0001:000750e0       _get_startup_argv_mode     00000001800760e0 f   LIBCMTD:argv_mode.obj
 0001:000750f0       __scrt_is_ucrt_dll_in_use  00000001800760f0 f   LIBCMTD:ucrt_detection.obj
 0001:00075790       ?_RTC_GetSrcLine@@YAHPEAEPEA_WKPEAH1K@Z 0000000180076790 f   LIBCMTD:pdblkup.obj
 0001:00075c50       __GSHandlerCheck           0000000180076c50 f   LIBCMTD:gshandler.obj
 0001:00075ca0       __GSHandlerCheckCommon     0000000180076ca0 f   LIBCMTD:gshandler.obj
 0001:00075df0       __security_check_cookie    0000000180076df0 f   LIBCMTD:amdsecgs.obj
 0001:00075e20       __raise_securityfailure    0000000180076e20 f   LIBCMTD:gs_report.obj
 0001:00075e70       __report_gsfailure         0000000180076e70 f   LIBCMTD:gs_report.obj
 0001:00075f80       __report_rangecheckfailure 0000000180076f80 f   LIBCMTD:gs_report.obj
 0001:00075fa0       __report_securityfailure   0000000180076fa0 f   LIBCMTD:gs_report.obj
 0001:00076070       __report_securityfailureEx 0000000180077070 f   LIBCMTD:gs_report.obj
 0001:00076370       strstr                     0000000180077370 f   libvcruntimed:strstr.obj
 0001:00076b50       memcpy_repmovs             0000000180077b50 f   libvcruntimed:memcpy.obj
 0001:00076b70       memcpy                     0000000180077b70 f   libvcruntimed:memcpy.obj
 0001:00076b70       memmove                    0000000180077b70 f   libvcruntimed:memcpy.obj
 0001:00077390       ??$__crt_interlocked_exchange_pointer@$$A6AXXZP6AXXZ@@YAP6AXXZPEDS6AXXZQ6AXXZ@Z 0000000180078390 f i libvcruntimed:purevirt.obj
 0001:000773b0       ??$__crt_interlocked_read_pointer@$$A6AXXZ@@YAP6AXXZPEDS6AXXZ@Z 00000001800783b0 f i libvcruntimed:purevirt.obj
 0001:000773d0       ?__crt_interlocked_read_64@@YA_JPED_J@Z 00000001800783d0 f i libvcruntimed:purevirt.obj
 0001:00077400       _get_purecall_handler      0000000180078400 f   libvcruntimed:purevirt.obj
 0001:00077420       _purecall                  0000000180078420 f   libvcruntimed:purevirt.obj
 0001:00077470       _set_purecall_handler      0000000180078470 f   libvcruntimed:purevirt.obj
 0001:000774e0       ??$?RD@__crt_internal_free_policy@@QEBAXQEBD@Z 00000001800784e0 f i libvcruntimed:std_type_info.obj
 0001:00077510       ??$?RX@__crt_internal_free_policy@@QEBAXQEBX@Z 0000000180078510 f i libvcruntimed:std_type_info.obj
 0001:00077540       ??$__crt_interlocked_compare_exchange_pointer@$$CBDPEAD$$T@@YAPEBDPEDSEBDQEAD$$T@Z 0000000180078540 f i libvcruntimed:std_type_info.obj
 0001:00077590       ??$__crt_interlocked_read_pointer@$$CBD@@YAPEBDPEDSEBD@Z 0000000180078590 f i libvcruntimed:std_type_info.obj
 0001:000775b0       ??0?$__crt_unique_heap_ptr@DU__crt_internal_free_policy@@@@QEAA@QEAD@Z 00000001800785b0 f i libvcruntimed:std_type_info.obj
 0001:000775e0       ??0?$__crt_unique_heap_ptr@XU__crt_internal_free_policy@@@@QEAA@QEAX@Z 00000001800785e0 f i libvcruntimed:std_type_info.obj
 0001:00077610       ??1?$__crt_unique_heap_ptr@DU__crt_internal_free_policy@@@@QEAA@XZ 0000000180078610 f i libvcruntimed:std_type_info.obj
 0001:00077630       ??1?$__crt_unique_heap_ptr@XU__crt_internal_free_policy@@@@QEAA@XZ 0000000180078630 f i libvcruntimed:std_type_info.obj
 0001:00077650       ??B?$__crt_unique_heap_ptr@DU__crt_internal_free_policy@@@@QEBA_NXZ 0000000180078650 f i libvcruntimed:std_type_info.obj
 0001:00077670       ??B?$__crt_unique_heap_ptr@XU__crt_internal_free_policy@@@@QEBA_NXZ 0000000180078670 f i libvcruntimed:std_type_info.obj
 0001:00077720       ?detach@?$__crt_unique_heap_ptr@XU__crt_internal_free_policy@@@@QEAAPEAXXZ 0000000180078720 f i libvcruntimed:std_type_info.obj
 0001:00077760       ?get@?$__crt_unique_heap_ptr@DU__crt_internal_free_policy@@@@QEBAPEADXZ 0000000180078760 f i libvcruntimed:std_type_info.obj
 0001:00077780       ?get@?$__crt_unique_heap_ptr@XU__crt_internal_free_policy@@@@QEBAPEAXXZ 0000000180078780 f i libvcruntimed:std_type_info.obj
 0001:000777a0       ?is_valid@?$__crt_unique_heap_ptr@DU__crt_internal_free_policy@@@@QEBA_NXZ 00000001800787a0 f i libvcruntimed:std_type_info.obj
 0001:000777e0       ?is_valid@?$__crt_unique_heap_ptr@XU__crt_internal_free_policy@@@@QEBA_NXZ 00000001800787e0 f i libvcruntimed:std_type_info.obj
 0001:00077820       ?release@?$__crt_unique_heap_ptr@DU__crt_internal_free_policy@@@@QEAAXXZ 0000000180078820 f i libvcruntimed:std_type_info.obj
 0001:00077860       ?release@?$__crt_unique_heap_ptr@XU__crt_internal_free_policy@@@@QEAAXXZ 0000000180078860 f i libvcruntimed:std_type_info.obj
 0001:000778a0       __std_type_info_compare    00000001800788a0 f   libvcruntimed:std_type_info.obj
 0001:000778f0       __std_type_info_destroy_list 00000001800788f0 f   libvcruntimed:std_type_info.obj
 0001:00077960       __std_type_info_hash       0000000180078960 f   libvcruntimed:std_type_info.obj
 0001:00077a40       __std_type_info_name       0000000180078a40 f   libvcruntimed:std_type_info.obj
 0001:00077db0       memset_repstos             0000000180078db0 f   libvcruntimed:memset.obj
 0001:00077dd0       memset                     0000000180078dd0 f   libvcruntimed:memset.obj
 0001:00078250       __C_specific_handler       0000000180079250 f   libvcruntimed:riscchandler.obj
 0001:000787e0       __vcrt_initialize          00000001800797e0 f   libvcruntimed:initialization.obj
 0001:00078830       __vcrt_thread_attach       0000000180079830 f   libvcruntimed:initialization.obj
 0001:00078850       __vcrt_thread_detach       0000000180079850 f   libvcruntimed:initialization.obj
 0001:00078870       __vcrt_uninitialize        0000000180079870 f   libvcruntimed:initialization.obj
 0001:00078890       __vcrt_uninitialize_critical 0000000180079890 f   libvcruntimed:initialization.obj
 0001:000788c0       __DestructExceptionObject  00000001800798c0 f   libvcruntimed:ehhelpers.obj
 0001:00078a00       ?_CallMemberFunction0@@YAXQEAX0@Z 0000000180079a00 f i libvcruntimed:ehhelpers.obj
 0001:00078b10       ?raw_name@type_info@@QEBAPEBDXZ 0000000180079b10 f i libvcruntimed:ehhelpers.obj
 0001:00078b30       _IsExceptionObjectToBeDestroyed 0000000180079b30 f   libvcruntimed:ehhelpers.obj
 0001:00078ba0       _SetWinRTOutOfMemoryExceptionCallback 0000000180079ba0 f   libvcruntimed:ehhelpers.obj
 0001:00078bc0       __AdjustPointer            0000000180079bc0 f   libvcruntimed:ehhelpers.obj
 0001:00078c60       __FrameUnwindFilter        0000000180079c60 f   libvcruntimed:ehhelpers.obj
 0001:00078d30       __GetPlatformExceptionInfo 0000000180079d30 f   libvcruntimed:ehhelpers.obj
 0001:00078e10       __current_exception        0000000180079e10 f   libvcruntimed:ehhelpers.obj
 0001:00078e30       __current_exception_context 0000000180079e30 f   libvcruntimed:ehhelpers.obj
 0001:00078e50       __processing_throw         0000000180079e50 f   libvcruntimed:ehhelpers.obj
 0001:00078e70       __std_terminate            0000000180079e70 f   libvcruntimed:ehhelpers.obj
 0001:00078e90       _is_exception_typeof       0000000180079e90 f   libvcruntimed:ehhelpers.obj
 0001:00079030       __C_specific_handler_noexcept 000000018007a030 f   libvcruntimed:chandler_noexcept.obj
 0001:000790e0       __vcrt_GetModuleFileNameW  000000018007a0e0 f   libvcruntimed:winapi_thunks.obj
 0001:00079120       __vcrt_GetModuleHandleW    000000018007a120 f   libvcruntimed:winapi_thunks.obj
 0001:00079140       __vcrt_LoadLibraryExW      000000018007a140 f   libvcruntimed:winapi_thunks.obj
 0001:00079180       ??$?0$00@DName@@QEAA@PEBDU?$StringLifeSelector@$00@@@Z 000000018007a180 f i libvcruntimed:undname.obj
 0001:00079200       ??$?0$00@pcharNode@@QEAA@PEBDHU?$StringLifeSelector@$00@@@Z 000000018007a200 f i libvcruntimed:undname.obj
 0001:00079270       ??$?0$01@DName@@QEAA@PEBDU?$StringLifeSelector@$01@@@Z 000000018007a270 f i libvcruntimed:undname.obj
 0001:000792f0       ??$?0$01@pcharNode@@QEAA@PEBDHU?$StringLifeSelector@$01@@@Z 000000018007a2f0 f i libvcruntimed:undname.obj
 0001:000793c0       ??$?0$0A@@DName@@QEAA@PEBDU?$StringLifeSelector@$0A@@@@Z 000000018007a3c0 f i libvcruntimed:undname.obj
 0001:00079440       ??$?0$0A@@pcharNode@@QEAA@PEBDHU?$StringLifeSelector@$0A@@@@Z 000000018007a440 f i libvcruntimed:undname.obj
 0001:00079510       ??$?0_K$0A@@?$optional@_K@std@@QEAA@$$QEA_K@Z 000000018007a510 f i libvcruntimed:undname.obj
 0001:00079570       ??$?0_K@?$_Optional_construct_base@_K@std@@QEAA@Uin_place_t@1@$$QEA_K@Z 000000018007a570 f i libvcruntimed:undname.obj
 0001:000795b0       ??$?0_K@?$_Optional_destruct_base@_K$00@std@@QEAA@Uin_place_t@1@$$QEA_K@Z 000000018007a5b0 f i libvcruntimed:undname.obj
 0001:00079600       ??$append@VDNameNode@@@DName@@AEAAXPEBVDNameNode@@@Z 000000018007a600 f i libvcruntimed:undname.obj
 0001:000796e0       ??$append@VDNameStatusNode@@@DName@@AEAAXPEBVDNameStatusNode@@@Z 000000018007a6e0 f i libvcruntimed:undname.obj
 0001:000797c0       ??$append@VcharNode@@@DName@@AEAAXPEBVcharNode@@@Z 000000018007a7c0 f i libvcruntimed:undname.obj
 0001:000798a0       ??$append@VpDNameNode@@@DName@@AEAAXPEBVpDNameNode@@@Z 000000018007a8a0 f i libvcruntimed:undname.obj
 0001:00079980       ??$append@VpcharNode@@@DName@@AEAAXPEBVpcharNode@@@Z 000000018007a980 f i libvcruntimed:undname.obj
 0001:00079a60       ??$doPchar@$00@DName@@AEAAXPEBDH@Z 000000018007aa60 f i libvcruntimed:undname.obj
 0001:00079c20       ??$doPchar@$01@DName@@AEAAXPEBDH@Z 000000018007ac20 f i libvcruntimed:undname.obj
 0001:00079de0       ??$doPchar@$0A@@DName@@AEAAXPEBDH@Z 000000018007ade0 f i libvcruntimed:undname.obj
 0001:00079fa0       ??$forward@_K@std@@YA$$QEA_KAEA_K@Z 000000018007afa0 f i libvcruntimed:undname.obj
 0001:0007a190       ??$size@D$04@std@@YA_KAEAY04$$CBD@Z 000000018007b190 f i libvcruntimed:undname.obj
 0001:0007a1a0       ??0?$_Optional_construct_base@_K@std@@QEAA@XZ 000000018007b1a0 f i libvcruntimed:undname.obj
 0001:0007a1d0       ??0?$_Optional_destruct_base@_K$00@std@@QEAA@XZ 000000018007b1d0 f i libvcruntimed:undname.obj
 0001:0007a210       ??0?$optional@_K@std@@QEAA@XZ 000000018007b210 f i libvcruntimed:undname.obj
 0001:0007a240       ??0Block@_HeapManager@@QEAA@XZ 000000018007b240 f i libvcruntimed:undname.obj
 0001:0007a260       ??0DName@@QEAA@AEAPEBDD@Z  000000018007b260 f   libvcruntimed:undname.obj
 0001:0007a4a0       ??0DName@@QEAA@AEBUStringLiteral@@@Z 000000018007b4a0 f   libvcruntimed:undname.obj
 0001:0007a510       ??0DName@@QEAA@AEBV0@@Z    000000018007b510 f i libvcruntimed:undname.obj
 0001:0007a550       ??0DName@@QEAA@D@Z         000000018007b550 f   libvcruntimed:undname.obj
 0001:0007a5a0       ??0DName@@QEAA@PEAV0@@Z    000000018007b5a0 f   libvcruntimed:undname.obj
 0001:0007a6c0       ??0DName@@QEAA@W4DNameStatus@@@Z 000000018007b6c0 f   libvcruntimed:undname.obj
 0001:0007a7a0       ??0DName@@QEAA@XZ          000000018007b7a0 f i libvcruntimed:undname.obj
 0001:0007a7d0       ??0DName@@QEAA@_J@Z        000000018007b7d0 f   libvcruntimed:undname.obj
 0001:0007a920       ??0DName@@QEAA@_K@Z        000000018007b920 f   libvcruntimed:undname.obj
 0001:0007aa30       ??0DNameNode@@IEAA@XZ      000000018007ba30 f i libvcruntimed:undname.obj
 0001:0007aa50       ??0Replicator@@QEAA@XZ     000000018007ba50 f i libvcruntimed:undname.obj
 0001:0007aa90       ??0UnDecorator@@QEAA@PEBDP6APEADJ@ZK@Z 000000018007ba90 f i libvcruntimed:undname.obj
 0001:0007ab60       ??0_Nontrivial_dummy_type@std@@QEAA@XZ 000000018007bb60 f i libvcruntimed:undname.obj
 0001:0007ab70       ??0charNode@@QEAA@D@Z      000000018007bb70 f i libvcruntimed:undname.obj
 0001:0007abc0       ??0pDNameNode@@QEAA@PEAVDName@@@Z 000000018007bbc0 f   libvcruntimed:undname.obj
 0001:0007ac60       ??0pairNode@@QEAA@PEBVDNameNode@@0@Z 000000018007bc60 f i libvcruntimed:undname.obj
 0001:0007ad00       ??2@YAPEAX_KAEAV_HeapManager@@H@Z 000000018007bd00 f   libvcruntimed:undname.obj
 0001:0007ad80       ??4DName@@QEAAAEAV0@AEBUStringLiteral@@@Z 000000018007bd80 f   libvcruntimed:undname.obj
 0001:0007ade0       ??4DName@@QEAAAEAV0@AEBV0@@Z 000000018007bde0 f   libvcruntimed:undname.obj
 0001:0007ae20       ??4DName@@QEAAAEAV0@D@Z    000000018007be20 f i libvcruntimed:undname.obj
 0001:0007ae70       ??4DName@@QEAAAEAV0@PEAV0@@Z 000000018007be70 f   libvcruntimed:undname.obj
 0001:0007af70       ??4DName@@QEAAAEAV0@W4DNameStatus@@@Z 000000018007bf70 f   libvcruntimed:undname.obj
 0001:0007b030       ??AReplicator@@QEBA?AVDName@@H@Z 000000018007c030 f   libvcruntimed:undname.obj
 0001:0007b0e0       ??B?$optional@_K@std@@QEBA_NXZ 000000018007c0e0 f i libvcruntimed:undname.obj
 0001:0007b100       ??D?$_Optional_construct_base@_K@std@@QEGAAAEA_KXZ 000000018007c100 f i libvcruntimed:undname.obj
 0001:0007b1c0       ??H@YA?AVDName@@AEBUStringLiteral@@AEBV0@@Z 000000018007c1c0 f i libvcruntimed:undname.obj
 0001:0007b220       ??H@YA?AVDName@@DAEBV0@@Z  000000018007c220 f i libvcruntimed:undname.obj
 0001:0007b280       ??H@YA?AVDName@@W4DNameStatus@@AEBV0@@Z 000000018007c280 f i libvcruntimed:undname.obj
 0001:0007b2e0       ??HDName@@QEBA?AV0@AEBUStringLiteral@@@Z 000000018007c2e0 f   libvcruntimed:undname.obj
 0001:0007b340       ??HDName@@QEBA?AV0@AEBV0@@Z 000000018007c340 f   libvcruntimed:undname.obj
 0001:0007b3a0       ??HDName@@QEBA?AV0@D@Z     000000018007c3a0 f   libvcruntimed:undname.obj
 0001:0007b400       ??HDName@@QEBA?AV0@PEAV0@@Z 000000018007c400 f   libvcruntimed:undname.obj
 0001:0007b460       ??HDName@@QEBA?AV0@W4DNameStatus@@@Z 000000018007c460 f   libvcruntimed:undname.obj
 0001:0007b4c0       ??HStringLiteral@@QEBA?AU0@H@Z 000000018007c4c0 f i libvcruntimed:undname.obj
 0001:0007b510       ??YDName@@QEAAAEAV0@AEBUStringLiteral@@@Z 000000018007c510 f   libvcruntimed:undname.obj
 0001:0007b610       ??YDName@@QEAAAEAV0@AEBV0@@Z 000000018007c610 f   libvcruntimed:undname.obj
 0001:0007b700       ??YDName@@QEAAAEAV0@D@Z    000000018007c700 f   libvcruntimed:undname.obj
 0001:0007b7d0       ??YDName@@QEAAAEAV0@PEAV0@@Z 000000018007c7d0 f   libvcruntimed:undname.obj
 0001:0007b8f0       ??YDName@@QEAAAEAV0@W4DNameStatus@@@Z 000000018007c8f0 f   libvcruntimed:undname.obj
 0001:0007b980       ??YReplicator@@QEAAAEAV0@AEBVDName@@@Z 000000018007c980 f   libvcruntimed:undname.obj
 0001:0007ba70       ??_5DName@@QEAAAEAV0@AEBV0@@Z 000000018007ca70 f   libvcruntimed:undname.obj
 0001:0007baf0       ??__K_l@@YA?AUStringLiteral@@PEBD_K@Z 000000018007caf0 f i libvcruntimed:undname.obj
 0001:0007bb50       ?Constructor@_HeapManager@@QEAAXP6APEAX_K@ZP6AXPEAX@Z@Z 000000018007cb50 f i libvcruntimed:undname.obj
 0001:0007bbc0       ?Destructor@_HeapManager@@QEAAXXZ 000000018007cbc0 f i libvcruntimed:undname.obj
 0001:0007bc80       ?UScore@UnDecorator@@SA?AUStringLiteral@@W4Tokens@@@Z 000000018007cc80 f   libvcruntimed:undname.obj
 0001:0007bd30       ?composeDeclaration@UnDecorator@@CA?AVDName@@AEBV2@@Z 000000018007cd30 f i libvcruntimed:undname.obj
 0001:0007eb70       ?dbGetString@DName@@QEBAPEADXZ 000000018007fb70 f   libvcruntimed:undname.obj
 0001:0007ebb0       ?doAccessSpecifiers@UnDecorator@@SAHXZ 000000018007fbb0 f i libvcruntimed:undname.obj
 0001:0007ebf0       ?doAllocationLanguage@UnDecorator@@SAHXZ 000000018007fbf0 f i libvcruntimed:undname.obj
 0001:0007ec30       ?doAllocationModel@UnDecorator@@SAHXZ 000000018007fc30 f i libvcruntimed:undname.obj
 0001:0007ec70       ?doEcsu@UnDecorator@@SAHXZ 000000018007fc70 f i libvcruntimed:undname.obj
 0001:0007ecb0       ?doEllipsis@UnDecorator@@SAHXZ 000000018007fcb0 f i libvcruntimed:undname.obj
 0001:0007ecf0       ?doFunctionReturns@UnDecorator@@SAHXZ 000000018007fcf0 f i libvcruntimed:undname.obj
 0001:0007ed30       ?doMSKeywords@UnDecorator@@SAHXZ 000000018007fd30 f i libvcruntimed:undname.obj
 0001:0007ed70       ?doMemberTypes@UnDecorator@@SAHXZ 000000018007fd70 f i libvcruntimed:undname.obj
 0001:0007edb0       ?doNameOnly@UnDecorator@@SAHXZ 000000018007fdb0 f i libvcruntimed:undname.obj
 0001:0007edc0       ?doNoIdentCharCheck@UnDecorator@@SAHXZ 000000018007fdc0 f i libvcruntimed:undname.obj
 0001:0007edd0       ?doPchar@DName@@AEAAXD@Z   000000018007fdd0 f   libvcruntimed:undname.obj
 0001:0007ee80       ?doPtr64@UnDecorator@@SAHXZ 000000018007fe80 f i libvcruntimed:undname.obj
 0001:0007eec0       ?doRestrictionSpec@UnDecorator@@SAHXZ 000000018007fec0 f i libvcruntimed:undname.obj
 0001:0007ef00       ?doThisTypes@UnDecorator@@SAHXZ 000000018007ff00 f i libvcruntimed:undname.obj
 0001:0007ef40       ?doThrowTypes@UnDecorator@@SAHXZ 000000018007ff40 f i libvcruntimed:undname.obj
 0001:0007ef80       ?doTypeOnly@UnDecorator@@SAHXZ 000000018007ff80 f i libvcruntimed:undname.obj
 0001:0007ef90       ?doUnderScore@UnDecorator@@SAHXZ 000000018007ff90 f i libvcruntimed:undname.obj
 0001:0007efd0       ?getAddressOf@UnDecorator@@CA?AVDName@@XZ 000000018007ffd0 f   libvcruntimed:undname.obj
 0001:0007f0a0       ?getArgumentList@UnDecorator@@CA?AVDName@@XZ 00000001800800a0 f   libvcruntimed:undname.obj
 0001:0007f2a0       ?getArgumentTypes@UnDecorator@@CA?AVDName@@XZ 00000001800802a0 f   libvcruntimed:undname.obj
 0001:0007f630       ?getArrayAccess@UnDecorator@@CA?AVDName@@XZ 0000000180080630 f   libvcruntimed:undname.obj
 0001:0007f720       ?getArrayObject@UnDecorator@@CA?AVDName@@XZ 0000000180080720 f   libvcruntimed:undname.obj
 0001:0007f880       ?getArrayType@UnDecorator@@CA?AVDName@@AEBV2@@Z 0000000180080880 f i libvcruntimed:undname.obj
 0001:0007fd30       ?getBasedType@UnDecorator@@CA?AVDName@@XZ 0000000180080d30 f   libvcruntimed:undname.obj
 0001:0007ff00       ?getBasicDataType@UnDecorator@@CA?AVDName@@AEBV2@@Z 0000000180080f00 f   libvcruntimed:undname.obj
 0001:00081090       ?getCHPEName@UnDecorator@@QEAAPEADPEADH@Z 0000000180082090 f i libvcruntimed:undname.obj
 0001:000812d0       ?getCallIndex@UnDecorator@@CA?AVDName@@XZ 00000001800822d0 f i libvcruntimed:undname.obj
 0001:00081300       ?getCallingConvention@UnDecorator@@CA?AVDName@@XZ 0000000180082300 f   libvcruntimed:undname.obj
 0001:000817e0       ?getDataIndirectType@UnDecorator@@CA?AVDName@@AEBV2@W4IndirectionKind@@0H@Z 00000001800827e0 f   libvcruntimed:undname.obj
 0001:000827a0       ?getDataIndirectType@UnDecorator@@CA?AVDName@@XZ 00000001800837a0 f i libvcruntimed:undname.obj
 0001:00082810       ?getDataType@UnDecorator@@CA?AVDName@@PEAV2@@Z 0000000180083810 f   libvcruntimed:undname.obj
 0001:00082a60       ?getDecoratedName@UnDecorator@@CA?AVDName@@XZ 0000000180083a60 f   libvcruntimed:undname.obj
 0001:00083090       ?getDimension@UnDecorator@@CA?AVDName@@_N@Z 0000000180084090 f   libvcruntimed:undname.obj
 0001:00083460       ?getDispatchTarget@UnDecorator@@CA?AVDName@@XZ 0000000180084460 f   libvcruntimed:undname.obj
 0001:00083560       ?getDisplacement@UnDecorator@@CA?AVDName@@XZ 0000000180084560 f i libvcruntimed:undname.obj
 0001:00083590       ?getECSUDataType@UnDecorator@@CA?AVDName@@XZ 0000000180084590 f   libvcruntimed:undname.obj
 0001:00083a10       ?getECSUName@UnDecorator@@CA?AVDName@@XZ 0000000180084a10 f i libvcruntimed:undname.obj
 0001:00083a40       ?getEnumType@UnDecorator@@CA?AVDName@@XZ 0000000180084a40 f i libvcruntimed:undname.obj
 0001:00083d70       ?getExtendedDataIndirectType@UnDecorator@@CA?AVDName@@AEAW4IndirectionKind@@AEA_NH@Z 0000000180084d70 f   libvcruntimed:undname.obj
 0001:00084150       ?getExternalDataType@UnDecorator@@CA?AVDName@@AEBV2@@Z 0000000180085150 f i libvcruntimed:undname.obj
 0001:00084260       ?getFloatingPoint@UnDecorator@@CA?AVDName@@H@Z 0000000180085260 f   libvcruntimed:undname.obj
 0001:00084450       ?getFunctionIndirectType@UnDecorator@@CA?AVDName@@AEBV2@@Z 0000000180085450 f   libvcruntimed:undname.obj
 0001:00084c10       ?getGuardNumber@UnDecorator@@CA?AVDName@@XZ 0000000180085c10 f i libvcruntimed:undname.obj
 0001:00084c40       ?getLastChar@DName@@QEBADXZ 0000000180085c40 f i libvcruntimed:undname.obj
 0001:00084ca0       ?getLastChar@DNameStatusNode@@UEBADXZ 0000000180085ca0 f i libvcruntimed:undname.obj
 0001:00084cf0       ?getLastChar@charNode@@UEBADXZ 0000000180085cf0 f i libvcruntimed:undname.obj
 0001:00084d10       ?getLastChar@pDNameNode@@UEBADXZ 0000000180085d10 f i libvcruntimed:undname.obj
 0001:00084d60       ?getLastChar@pairNode@@UEBADXZ 0000000180085d60 f i libvcruntimed:undname.obj
 0001:00084e00       ?getLastChar@pcharNode@@UEBADXZ 0000000180085e00 f i libvcruntimed:undname.obj
 0001:00084e50       ?getLexicalFrame@UnDecorator@@CA?AVDName@@XZ 0000000180085e50 f i libvcruntimed:undname.obj
 0001:00084eb0       ?getMemberAccess@UnDecorator@@CA?AVDName@@XZ 0000000180085eb0 f   libvcruntimed:undname.obj
 0001:00084f90       ?getMemoryWithBuffer@_HeapManager@@QEAAPEAX_K@Z 0000000180085f90 f   libvcruntimed:undname.obj
 0001:00085130       ?getMemoryWithoutBuffer@_HeapManager@@QEAAPEAX_K@Z 0000000180086130 f   libvcruntimed:undname.obj
 0001:00085190       ?getNoexcept@UnDecorator@@CA?AVDName@@XZ 0000000180086190 f   libvcruntimed:undname.obj
 0001:00085270       ?getNumberOfDimensions@UnDecorator@@CAHXZ 0000000180086270 f   libvcruntimed:undname.obj
 0001:000853e0       ?getOperatorName@UnDecorator@@CA?AVDName@@_NPEA_N@Z 00000001800863e0 f i libvcruntimed:undname.obj
 0001:000867c0       ?getPointerToMember@UnDecorator@@CA?AVDName@@XZ 00000001800877c0 f   libvcruntimed:undname.obj
 0001:00086960       ?getPointerType@UnDecorator@@CA?AVDName@@AEBV2@0@Z 0000000180087960 f i libvcruntimed:undname.obj
 0001:000869b0       ?getPointerTypeArray@UnDecorator@@CA?AVDName@@AEBV2@0@Z 00000001800879b0 f i libvcruntimed:undname.obj
 0001:00086a00       ?getPrimaryDataType@UnDecorator@@CA?AVDName@@AEBV2@@Z 0000000180087a00 f   libvcruntimed:undname.obj
 0001:000871b0       ?getPtrRefDataType@UnDecorator@@CA?AVDName@@AEBV2@H@Z 00000001800881b0 f   libvcruntimed:undname.obj
 0001:000876a0       ?getPtrRefType@UnDecorator@@CA?AVDName@@AEBV2@0W4IndirectionKind@@@Z 00000001800886a0 f   libvcruntimed:undname.obj
 0001:00087960       ?getReferenceType@UnDecorator@@CA?AVDName@@AEBV2@0W4IndirectionKind@@@Z 0000000180088960 f i libvcruntimed:undname.obj
 0001:000879b0       ?getRestrictionSpec@UnDecorator@@CA?AVDName@@XZ 00000001800889b0 f   libvcruntimed:undname.obj
 0001:00087ce0       ?getReturnType@UnDecorator@@CA?AVDName@@PEAV2@@Z 0000000180088ce0 f   libvcruntimed:undname.obj
 0001:00087d60       ?getScope@UnDecorator@@CA?AVDName@@XZ 0000000180088d60 f   libvcruntimed:undname.obj
 0001:00088690       ?getScopedName@UnDecorator@@CA?AVDName@@XZ 0000000180089690 f   libvcruntimed:undname.obj
 0001:00088910       ?getSignedDimension@UnDecorator@@CA?AVDName@@XZ 0000000180089910 f   libvcruntimed:undname.obj
 0001:000889c0       ?getStorageConvention@UnDecorator@@CA?AVDName@@XZ 00000001800899c0 f i libvcruntimed:undname.obj
 0001:000889f0       ?getString@DName@@QEBAPEADPEAD0@Z 00000001800899f0 f i libvcruntimed:undname.obj
 0001:00088a80       ?getString@DName@@QEBAPEADPEADH@Z 0000000180089a80 f i libvcruntimed:undname.obj
 0001:00088b60       ?getString@DNameStatusNode@@UEBAPEADPEAD0@Z 0000000180089b60 f i libvcruntimed:undname.obj
 0001:00088bc0       ?getString@charNode@@UEBAPEADPEAD0@Z 0000000180089bc0 f i libvcruntimed:undname.obj
 0001:00088c10       ?getString@pDNameNode@@UEBAPEADPEAD0@Z 0000000180089c10 f i libvcruntimed:undname.obj
 0001:00088c90       ?getString@pairNode@@UEBAPEADPEAD0@Z 0000000180089c90 f i libvcruntimed:undname.obj
 0001:00088d90       ?getString@pcharNode@@UEBAPEADPEAD0@Z 0000000180089d90 f i libvcruntimed:undname.obj
 0001:00088de0       ?getStringEncoding@UnDecorator@@CA?AVDName@@W4PrefixKind@@H@Z 0000000180089de0 f   libvcruntimed:undname.obj
 0001:00088f90       ?getStringHelper@@YAPEADPEADPEBD1H@Z 0000000180089f90 f i libvcruntimed:undname.obj
 0001:00089010       ?getStringObject@UnDecorator@@CA?AVDName@@XZ 000000018008a010 f   libvcruntimed:undname.obj
 0001:00089120       ?getSymbolName@UnDecorator@@CA?AVDName@@XZ 000000018008a120 f i libvcruntimed:undname.obj
 0001:000891e0       ?getTemplateArgumentList@UnDecorator@@CA?AVDName@@XZ 000000018008a1e0 f   libvcruntimed:undname.obj
 0001:000895f0       ?getTemplateName@UnDecorator@@CA?AVDName@@_N@Z 000000018008a5f0 f   libvcruntimed:undname.obj
 0001:000898b0       ?getTemplateNonTypeArgument@UnDecorator@@CA?AVDName@@XZ 000000018008a8b0 f   libvcruntimed:undname.obj
 0001:0008a380       ?getTemplateTypeArgument@UnDecorator@@CA?AVDName@@XZ 000000018008b380 f   libvcruntimed:undname.obj
 0001:0008a6b0       ?getThisType@UnDecorator@@CA?AVDName@@XZ 000000018008b6b0 f i libvcruntimed:undname.obj
 0001:0008a720       ?getThrowTypes@UnDecorator@@CA?AVDName@@XZ 000000018008b720 f   libvcruntimed:undname.obj
 0001:0008a790       ?getTypeEncoding@UnDecorator@@CAHXZ 000000018008b790 f i libvcruntimed:undname.obj
 0001:0008b700       ?getUndecoratedName@UnDecorator@@QEAAPEADPEADH@Z 000000018008c700 f i libvcruntimed:undname.obj
 0001:0008b970       ?getUnionObject@UnDecorator@@CA?AVDName@@XZ 000000018008c970 f   libvcruntimed:undname.obj
 0001:0008bac0       ?getVCallThunkType@UnDecorator@@CA?AVDName@@XZ 000000018008cac0 f i libvcruntimed:undname.obj
 0001:0008bba0       ?getValue@UnDecorator@@CA?AV?$optional@_K@std@@XZ 000000018008cba0 f   libvcruntimed:undname.obj
 0001:0008bca0       ?getValueObject@UnDecorator@@CA?AVDName@@XZ 000000018008cca0 f   libvcruntimed:undname.obj
 0001:0008bf40       ?getVbTableType@UnDecorator@@CA?AVDName@@AEBV2@@Z 000000018008cf40 f i libvcruntimed:undname.obj
 0001:0008bf70       ?getVdispMapType@UnDecorator@@CA?AVDName@@AEBV2@@Z 000000018008cf70 f i libvcruntimed:undname.obj
 0001:0008c060       ?getVfTableType@UnDecorator@@CA?AVDName@@AEBV2@@Z 000000018008d060 f i libvcruntimed:undname.obj
 0001:0008c3b0       ?getZName@UnDecorator@@CA?AVDName@@_N0@Z 000000018008d3b0 f   libvcruntimed:undname.obj
 0001:0008c950       ?haveTemplateParameters@UnDecorator@@SAHXZ 000000018008d950 f i libvcruntimed:undname.obj
 0001:0008c960       ?isArray@DName@@QEBAHXZ    000000018008d960 f i libvcruntimed:undname.obj
 0001:0008c980       ?isComArray@DName@@QEBAHXZ 000000018008d980 f i libvcruntimed:undname.obj
 0001:0008c9a0       ?isEmpty@DName@@QEBAHXZ    000000018008d9a0 f i libvcruntimed:undname.obj
 0001:0008c9e0       ?isFull@Replicator@@QEBAHXZ 000000018008d9e0 f i libvcruntimed:undname.obj
 0001:0008ca20       ?isNoTE@DName@@QEBAHXZ     000000018008da20 f i libvcruntimed:undname.obj
 0001:0008ca40       ?isPinPtr@DName@@QEBAHXZ   000000018008da40 f i libvcruntimed:undname.obj
 0001:0008ca60       ?isPtrRef@DName@@QEBAHXZ   000000018008da60 f i libvcruntimed:undname.obj
 0001:0008ca80       ?isUDC@DName@@QEBAHXZ      000000018008da80 f i libvcruntimed:undname.obj
 0001:0008cae0       ?isUDTThunk@DName@@QEBAHXZ 000000018008dae0 f i libvcruntimed:undname.obj
 0001:0008cb40       ?isVCallThunk@DName@@QEBAHXZ 000000018008db40 f i libvcruntimed:undname.obj
 0001:0008cb60       ?isValid@DName@@QEBAHXZ    000000018008db60 f i libvcruntimed:undname.obj
 0001:0008cbb0       ?length@DName@@QEBAHXZ     000000018008dbb0 f i libvcruntimed:undname.obj
 0001:0008cc10       ?length@DNameStatusNode@@UEBAHXZ 000000018008dc10 f i libvcruntimed:undname.obj
 0001:0008cc30       ?length@charNode@@UEBAHXZ  000000018008dc30 f i libvcruntimed:undname.obj
 0001:0008cc40       ?length@pDNameNode@@UEBAHXZ 000000018008dc40 f i libvcruntimed:undname.obj
 0001:0008cc90       ?length@pairNode@@UEBAHXZ  000000018008dc90 f i libvcruntimed:undname.obj
 0001:0008cd40       ?length@pcharNode@@UEBAHXZ 000000018008dd40 f i libvcruntimed:undname.obj
 0001:0008cd60       ?make@DNameStatusNode@@SAPEBV1@W4DNameStatus@@@Z 000000018008dd60 f i libvcruntimed:undname.obj
 0001:0008cdc0       ?parseDecoratedName@UnDecorator@@CA?AVDName@@XZ 000000018008ddc0 f   libvcruntimed:undname.obj
 0001:0008d030       ?raw_length@DNameStatusNode@@UEBAHXZ 000000018008e030 f i libvcruntimed:undname.obj
 0001:0008d050       ?raw_length@charNode@@UEBAHXZ 000000018008e050 f i libvcruntimed:undname.obj
 0001:0008d070       ?raw_length@pDNameNode@@UEBAHXZ 000000018008e070 f i libvcruntimed:undname.obj
 0001:0008d080       ?raw_length@pairNode@@UEBAHXZ 000000018008e080 f i libvcruntimed:undname.obj
 0001:0008d0a0       ?raw_length@pcharNode@@UEBAHXZ 000000018008e0a0 f i libvcruntimed:undname.obj
 0001:0008d0c0       ?setIsArray@DName@@QEAAXXZ 000000018008e0c0 f i libvcruntimed:undname.obj
 0001:0008d0e0       ?setIsComArray@DName@@QEAAXXZ 000000018008e0e0 f i libvcruntimed:undname.obj
 0001:0008d100       ?setIsNoTE@DName@@QEAAXXZ  000000018008e100 f i libvcruntimed:undname.obj
 0001:0008d120       ?setIsPinPtr@DName@@QEAAXXZ 000000018008e120 f i libvcruntimed:undname.obj
 0001:0008d140       ?setIsUDC@DName@@QEAAXXZ   000000018008e140 f i libvcruntimed:undname.obj
 0001:0008d180       ?setIsVCallThunk@DName@@QEAAXXZ 000000018008e180 f i libvcruntimed:undname.obj
 0001:0008d1a0       ?setPtrRef@DName@@QEAAAEAV1@XZ 000000018008e1a0 f i libvcruntimed:undname.obj
 0001:0008d1d0       ?status@DName@@QEBA?AW4DNameStatus@@XZ 000000018008e1d0 f i libvcruntimed:undname.obj
 0001:0008d340       __unDName                  000000018008e340 f   libvcruntimed:undname.obj
 0001:0008d3b0       __unDNameEx                000000018008e3b0 f   libvcruntimed:undname.obj
 0001:0008d4a0       snprintf                   000000018008e4a0 f i libvcruntimed:undname.obj
 0001:0008d510       unDNameGenerateCHPE        000000018008e510 f   libvcruntimed:undname.obj
 0001:0008d5e0       vsnprintf                  000000018008e5e0 f i libvcruntimed:undname.obj
 0001:0008d690       _NLG_Notify                000000018008e690 f   libvcruntimed:notify.obj
 0001:0008d6b0       __NLG_Dispatch2            000000018008e6b0 f   libvcruntimed:notify.obj
 0001:0008d6c0       __NLG_Return2              000000018008e6c0 f   libvcruntimed:notify.obj
 0001:0008d700       __except_validate_context_record 000000018008e700 f   libvcruntimed:jbcxrval.obj
 0001:0008d770       __except_validate_jump_buffer 000000018008e770 f   libvcruntimed:jbcxrval.obj
 0001:0008d7a0       __except_validate_jump_buffer_common 000000018008e7a0 f i libvcruntimed:jbcxrval.obj
 0001:0008d840       ??$?RU__vcrt_ptd@@@__crt_internal_free_policy@@QEBAXQEBU__vcrt_ptd@@@Z 000000018008e840 f i libvcruntimed:per_thread_data.obj
 0001:0008d870       ??0?$__crt_unique_heap_ptr@U__vcrt_ptd@@U__crt_internal_free_policy@@@@QEAA@QEAU__vcrt_ptd@@@Z 000000018008e870 f i libvcruntimed:per_thread_data.obj
 0001:0008d8d0       ??1?$__crt_unique_heap_ptr@U__vcrt_ptd@@U__crt_internal_free_policy@@@@QEAA@XZ 000000018008e8d0 f i libvcruntimed:per_thread_data.obj
 0001:0008d920       ??B?$__crt_unique_heap_ptr@U__vcrt_ptd@@U__crt_internal_free_policy@@@@QEBA_NXZ 000000018008e920 f i libvcruntimed:per_thread_data.obj
 0001:0008d940       ?detach@?$__crt_unique_heap_ptr@U__vcrt_ptd@@U__crt_internal_free_policy@@@@QEAAPEAU__vcrt_ptd@@XZ 000000018008e940 f i libvcruntimed:per_thread_data.obj
 0001:0008d980       ?get@?$__crt_unique_heap_ptr@U__vcrt_ptd@@U__crt_internal_free_policy@@@@QEBAPEAU__vcrt_ptd@@XZ 000000018008e980 f i libvcruntimed:per_thread_data.obj
 0001:0008d9a0       ?is_valid@?$__crt_unique_heap_ptr@U__vcrt_ptd@@U__crt_internal_free_policy@@@@QEBA_NXZ 000000018008e9a0 f i libvcruntimed:per_thread_data.obj
 0001:0008d9e0       ?release@?$__crt_unique_heap_ptr@U__vcrt_ptd@@U__crt_internal_free_policy@@@@QEAAXXZ 000000018008e9e0 f i libvcruntimed:per_thread_data.obj
 0001:0008da70       __vcrt_freefls             000000018008ea70 f   libvcruntimed:per_thread_data.obj
 0001:0008dac0       __vcrt_freeptd             000000018008eac0 f   libvcruntimed:per_thread_data.obj
 0001:0008db40       __vcrt_getptd              000000018008eb40 f   libvcruntimed:per_thread_data.obj
 0001:0008db70       __vcrt_getptd_noexit       000000018008eb70 f   libvcruntimed:per_thread_data.obj
 0001:0008dd80       __vcrt_getptd_noinit       000000018008ed80 f   libvcruntimed:per_thread_data.obj
 0001:0008de00       __vcrt_initialize_ptd      000000018008ee00 f   libvcruntimed:per_thread_data.obj
 0001:0008de60       __vcrt_uninitialize_ptd    000000018008ee60 f   libvcruntimed:per_thread_data.obj
 0001:0008dea0       __vcrt_initialize_locks    000000018008eea0 f   libvcruntimed:locks.obj
 0001:0008df30       __vcrt_lock                000000018008ef30 f   libvcruntimed:locks.obj
 0001:0008df70       __vcrt_uninitialize_locks  000000018008ef70 f   libvcruntimed:locks.obj
 0001:0008dfe0       __vcrt_unlock              000000018008efe0 f   libvcruntimed:locks.obj
 0001:0008e020       ??$?0AEAViterator@TryBlockMap4@FH4@@AEAV012@$0A@@?$pair@Viterator@TryBlockMap4@FH4@@V123@@std@@QEAA@AEAViterator@TryBlockMap4@FH4@@0@Z 000000018008f020 f i libvcruntimed:risctrnsctrl.obj
 0001:0008e090       ??$?0AEAViterator@TryBlockMap@__FrameHandler3@@AEAV012@$0A@@?$pair@Viterator@TryBlockMap@__FrameHandler3@@V123@@std@@QEAA@AEAViterator@TryBlockMap@__FrameHandler3@@0@Z 000000018008f090 f i libvcruntimed:risctrnsctrl.obj
 0001:0008e2d0       ??$_CallSETranslator@V__FrameHandler3@@@@YAHPEAUEHExceptionRecord@@PEA_KPEAU_CONTEXT@@PEAU_xDISPATCHER_CONTEXT@@PEBU_s_FuncInfo@@K1H@Z 000000018008f2d0 f i libvcruntimed:risctrnsctrl.obj
 0001:0008e390       ??$_CallSETranslator@V__FrameHandler4@@@@YAHPEAUEHExceptionRecord@@PEA_KPEAU_CONTEXT@@PEAU_xDISPATCHER_CONTEXT@@PEAUFuncInfo4@FH4@@K1H@Z 000000018008f390 f i libvcruntimed:risctrnsctrl.obj
 0001:0008e450       ??$forward@AEAViterator@TryBlockMap4@FH4@@@std@@YAAEAViterator@TryBlockMap4@FH4@@AEAV123@@Z 000000018008f450 f i libvcruntimed:risctrnsctrl.obj
 0001:0008e460       ??$forward@AEAViterator@TryBlockMap@__FrameHandler3@@@std@@YAAEAViterator@TryBlockMap@__FrameHandler3@@AEAV123@@Z 000000018008f460 f i libvcruntimed:risctrnsctrl.obj
 0001:0008e470       ??0FuncInfo4@FH4@@QEAA@XZ  000000018008f470 f i libvcruntimed:risctrnsctrl.obj
 0001:0008e4f0       ??0FuncInfoHeader@FH4@@QEAA@XZ 000000018008f4f0 f i libvcruntimed:risctrnsctrl.obj
 0001:0008e510       ??0iterator@TryBlockMap4@FH4@@QEAA@AEAV12@I@Z 000000018008f510 f i libvcruntimed:risctrnsctrl.obj
 0001:0008e550       ??0iterator@TryBlockMap@__FrameHandler3@@QEAA@AEAV12@I@Z 000000018008f550 f i libvcruntimed:risctrnsctrl.obj
 0001:0008e590       ??4iterator@TryBlockMap4@FH4@@QEAAAEAV012@AEBV012@@Z 000000018008f590 f i libvcruntimed:risctrnsctrl.obj
 0001:0008e5c0       ??9iterator@TryBlockMap4@FH4@@QEBA_NAEBV012@@Z 000000018008f5c0 f i libvcruntimed:risctrnsctrl.obj
 0001:0008e610       ??Diterator@TryBlockMap4@FH4@@QEAA?AUTryBlockMapEntry4@2@XZ 000000018008f610 f i libvcruntimed:risctrnsctrl.obj
 0001:0008e650       ??Eiterator@TryBlockMap4@FH4@@QEAAAEAV012@XZ 000000018008f650 f i libvcruntimed:risctrnsctrl.obj
 0001:0008e690       ?CatchTryBlock@__FrameHandler3@@SAPEBU_s_TryBlockMapEntry@@PEBU_s_FuncInfo@@H@Z 000000018008f690 f   libvcruntimed:risctrnsctrl.obj
 0001:0008e740       ?DecompFuncInfo@FH4@@YA_JPEAEAEAUFuncInfo4@1@_KH@Z 000000018008f740 f i libvcruntimed:risctrnsctrl.obj
 0001:0008e790       ?DecompFuncInfo@FH4@@YA_JPEAEAEAUFuncInfo4@1@_KH_N@Z 000000018008f790 f i libvcruntimed:risctrnsctrl.obj
 0001:0008e9e0       ?DecompTryBlock@TryBlockMap4@FH4@@AEAAXXZ 000000018008f9e0 f i libvcruntimed:risctrnsctrl.obj
 0001:0008ea70       ?ExecutionInCatch@__FrameHandler3@@SA_NPEAU_xDISPATCHER_CONTEXT@@PEBU_s_FuncInfo@@@Z 000000018008fa70 f   libvcruntimed:risctrnsctrl.obj
 0001:0008eae0       ?ExecutionInCatch@__FrameHandler4@@SA_NPEAU_xDISPATCHER_CONTEXT@@PEAUFuncInfo4@FH4@@@Z 000000018008fae0 f   libvcruntimed:risctrnsctrl.obj
 0001:0008eb00       ?FrameUnwindToEmptyState@__FrameHandler3@@SAXPEA_KPEAU_xDISPATCHER_CONTEXT@@PEBU_s_FuncInfo@@@Z 000000018008fb00 f   libvcruntimed:risctrnsctrl.obj
 0001:0008ebc0       ?FrameUnwindToEmptyState@__FrameHandler4@@SAXPEA_KPEAU_xDISPATCHER_CONTEXT@@PEAUFuncInfo4@FH4@@@Z 000000018008fbc0 f   libvcruntimed:risctrnsctrl.obj
 0001:0008ec30       ?GetEstablisherFrame@__FrameHandler3@@SAPEA_KPEA_KPEAU_xDISPATCHER_CONTEXT@@PEBU_s_FuncInfo@@0@Z 000000018008fc30 f   libvcruntimed:risctrnsctrl.obj
 0001:0008ee00       ?GetEstablisherFrame@__FrameHandler4@@SAPEA_KPEA_KPEAU_xDISPATCHER_CONTEXT@@PEAUFuncInfo4@FH4@@0@Z 000000018008fe00 f   libvcruntimed:risctrnsctrl.obj
 0001:0008ee80       ?GetRangeOfTrysToCheck@__FrameHandler3@@SA?AU?$pair@Viterator@TryBlockMap@__FrameHandler3@@V123@@std@@AEAVTryBlockMap@1@HPEAU_xDISPATCHER_CONTEXT@@PEBU_s_FuncInfo@@H@Z 000000018008fe80 f   libvcruntimed:risctrnsctrl.obj
 0001:0008f150       ?GetRangeOfTrysToCheck@__FrameHandler4@@SA?AU?$pair@Viterator@TryBlockMap4@FH4@@V123@@std@@AEAVTryBlockMap4@FH4@@HPEAU_xDISPATCHER_CONTEXT@@PEAUFuncInfo4@5@H@Z 0000000180090150 f   libvcruntimed:risctrnsctrl.obj
 0001:0008f370       ?ReadInt@FH4@@YAHPEAPEAE@Z 0000000180090370 f i libvcruntimed:risctrnsctrl.obj
 0001:0008f3b0       ?ReadUnsigned@FH4@@YAIPEAPEAE@Z 00000001800903b0 f i libvcruntimed:risctrnsctrl.obj
 0001:0008f460       ?UnwindNestedFrames@__FrameHandler3@@SAXPEA_KPEAUEHExceptionRecord@@PEAU_CONTEXT@@0PEAXPEBU_s_FuncInfo@@HHPEBU_s_HandlerType@@PEAU_xDISPATCHER_CONTEXT@@E@Z 0000000180090460 f   libvcruntimed:risctrnsctrl.obj
 0001:0008f630       ?UnwindNestedFrames@__FrameHandler4@@SAXPEA_KPEAUEHExceptionRecord@@PEAU_CONTEXT@@0PEAXPEAUFuncInfo4@FH4@@HHPEAUHandlerType4@5@PEAU_xDISPATCHER_CONTEXT@@E@Z 0000000180090630 f   libvcruntimed:risctrnsctrl.obj
 0001:0008f870       ?begin@TryBlockMap4@FH4@@QEAA?AViterator@12@XZ 0000000180090870 f i libvcruntimed:risctrnsctrl.obj
 0001:0008f8b0       ?end@TryBlockMap4@FH4@@QEAA?AViterator@12@XZ 00000001800908b0 f i libvcruntimed:risctrnsctrl.obj
 0001:0008f8f0       ?imageRelToByteBuffer@FH4@@YAPEAE_KH@Z 00000001800908f0 f i libvcruntimed:risctrnsctrl.obj
 0001:0008f910       ?incrementToSentinel@iterator@TryBlockMap4@FH4@@QEAAXXZ 0000000180090910 f i libvcruntimed:risctrnsctrl.obj
 0001:0008f930       ?setBuffer@TryBlockMap4@FH4@@QEAAXViterator@12@@Z 0000000180090930 f i libvcruntimed:risctrnsctrl.obj
 0001:0008f9c0       _CreateFrameInfo           00000001800909c0 f   libvcruntimed:risctrnsctrl.obj
 0001:0008fa50       _FindAndUnlinkFrame        0000000180090a50 f   libvcruntimed:risctrnsctrl.obj
 0001:0008faf0       _GetImageBase              0000000180090af0 f   libvcruntimed:risctrnsctrl.obj
 0001:0008fb10       _GetThrowImageBase         0000000180090b10 f   libvcruntimed:risctrnsctrl.obj
 0001:0008fb30       _SetImageBase              0000000180090b30 f   libvcruntimed:risctrnsctrl.obj
 0001:0008fb60       _SetThrowImageBase         0000000180090b60 f   libvcruntimed:risctrnsctrl.obj
 0001:0008fb90       __CxxFrameHandler          0000000180090b90 f   libvcruntimed:risctrnsctrl.obj
 0001:0008fbe0       __CxxFrameHandler2         0000000180090be0 f   libvcruntimed:risctrnsctrl.obj
 0001:0008fc30       __CxxFrameHandler3         0000000180090c30 f   libvcruntimed:risctrnsctrl.obj
 0001:0008fd40       __CxxFrameHandler4         0000000180090d40 f   libvcruntimed:risctrnsctrl.obj
 0001:0008fe90       ??$__crt_interlocked_exchange_pointer@UHINSTANCE__@@PEAU1@@@YAPEAUHINSTANCE__@@PEDSEAU0@QEAU0@@Z 0000000180090e90 f i libvcruntimed:winapi_downlevel.obj
 0001:0008feb0       ??$__crt_interlocked_exchange_pointer@UHINSTANCE__@@PEAX@@YAPEAUHINSTANCE__@@PEDSEAU0@QEAX@Z 0000000180090eb0 f i libvcruntimed:winapi_downlevel.obj
 0001:0008fed0       ??$__crt_interlocked_exchange_pointer@XPEAX@@YAPEAXPEDSEAXQEAX@Z 0000000180090ed0 f i libvcruntimed:winapi_downlevel.obj
 0001:0008fef0       ??$__crt_interlocked_read_pointer@UHINSTANCE__@@@@YAPEAUHINSTANCE__@@PEDSEAU0@@Z 0000000180090ef0 f i libvcruntimed:winapi_downlevel.obj
 0001:0008ff10       ??$__crt_interlocked_read_pointer@X@@YAPEAXPEDSEAX@Z 0000000180090f10 f i libvcruntimed:winapi_downlevel.obj
 0001:00090570       __vcrt_FlsAlloc            0000000180091570 f   libvcruntimed:winapi_downlevel.obj
 0001:000905d0       __vcrt_FlsFree             00000001800915d0 f   libvcruntimed:winapi_downlevel.obj
 0001:00090640       __vcrt_FlsGetValue         0000000180091640 f   libvcruntimed:winapi_downlevel.obj
 0001:000906b0       __vcrt_FlsSetValue         00000001800916b0 f   libvcruntimed:winapi_downlevel.obj
 0001:00090730       __vcrt_InitializeCriticalSectionEx 0000000180091730 f   libvcruntimed:winapi_downlevel.obj
 0001:000907b0       ?GetCurrentState@__FrameHandler3@@SAHPEA_KPEAU_xDISPATCHER_CONTEXT@@PEBU_s_FuncInfo@@@Z 00000001800917b0 f   libvcruntimed:ehstate.obj
 0001:00090820       ?GetUnwindTryBlock@__FrameHandler3@@SAHPEA_KPEAU_xDISPATCHER_CONTEXT@@PEBU_s_FuncInfo@@@Z 0000000180091820 f   libvcruntimed:ehstate.obj
 0001:00090880       ?SetState@__FrameHandler3@@SAXPEA_KPEBU_s_FuncInfo@@H@Z 0000000180091880 f   libvcruntimed:ehstate.obj
 0001:000908c0       ?SetUnwindTryBlock@__FrameHandler3@@SAXPEA_KPEAU_xDISPATCHER_CONTEXT@@PEBU_s_FuncInfo@@H@Z 00000001800918c0 f   libvcruntimed:ehstate.obj
 0001:00090950       ?StateFromControlPc@__FrameHandler3@@SAHPEBU_s_FuncInfo@@PEAU_xDISPATCHER_CONTEXT@@@Z 0000000180091950 f   libvcruntimed:ehstate.obj
 0001:000909a0       ?StateFromControlPc@__FrameHandler4@@SAHPEAUFuncInfo4@FH4@@PEAU_xDISPATCHER_CONTEXT@@@Z 00000001800919a0 f   libvcruntimed:ehstate.obj
 0001:000909f0       ?StateFromIp@__FrameHandler3@@SAHPEBU_s_FuncInfo@@PEAU_xDISPATCHER_CONTEXT@@_K@Z 00000001800919f0 f   libvcruntimed:ehstate.obj
 0001:00090b20       ?StateFromIp@__FrameHandler4@@SAHPEAUFuncInfo4@FH4@@PEAU_xDISPATCHER_CONTEXT@@_K@Z 0000000180091b20 f   libvcruntimed:ehstate.obj
 0001:00090c40       ?__FuncRelToRealOffset@@YA_KPEAU_xDISPATCHER_CONTEXT@@I@Z 0000000180091c40 f i libvcruntimed:ehstate.obj
 0001:00090c80       ?__RVAtoRealOffset@@YA_KPEAU_xDISPATCHER_CONTEXT@@H@Z 0000000180091c80 f i libvcruntimed:ehstate.obj
 0001:00093780       ??$TypeMatchHelper@V__FrameHandler3@@@@YAHPEBU_s_HandlerType@@PEBU_s_CatchableType@@PEBU_s_ThrowInfo@@@Z 0000000180094780 f i libvcruntimed:frame.obj
 0001:00093a00       ??$TypeMatchHelper@V__FrameHandler4@@@@YAHPEAUHandlerType4@FH4@@PEBU_s_CatchableType@@PEBU_s_ThrowInfo@@@Z 0000000180094a00 f i libvcruntimed:frame.obj
 0001:00093c90       ??$__InternalCxxFrameHandler@V__FrameHandler3@@@@YA?AW4_EXCEPTION_DISPOSITION@@PEAUEHExceptionRecord@@PEA_KPEAU_CONTEXT@@PEAU_xDISPATCHER_CONTEXT@@PEBU_s_FuncInfo@@H1E@Z 0000000180094c90 f i libvcruntimed:frame.obj
 0001:00094220       ??$__InternalCxxFrameHandler@V__FrameHandler4@@@@YA?AW4_EXCEPTION_DISPOSITION@@PEAUEHExceptionRecord@@PEA_KPEAU_CONTEXT@@PEAU_xDISPATCHER_CONTEXT@@PEAUFuncInfo4@FH4@@H1E@Z 0000000180095220 f i libvcruntimed:frame.obj
 0001:000947e0       ??0HandlerMap4@FH4@@QEAA@PEBUTryBlockMapEntry4@1@_KH@Z 00000001800957e0 f i libvcruntimed:frame.obj
 0001:000948d0       ??0HandlerMap@__FrameHandler3@@QEAA@PEBU_s_TryBlockMapEntry@@_KI@Z 00000001800958d0 f i libvcruntimed:frame.obj
 0001:00094930       ??0HandlerType4@FH4@@QEAA@XZ 0000000180095930 f i libvcruntimed:frame.obj
 0001:00094960       ??0TryBlockMap4@FH4@@QEAA@PEBUFuncInfo4@1@_K@Z 0000000180095960 f i libvcruntimed:frame.obj
 0001:00094a10       ??0TryBlockMap@__FrameHandler3@@QEAA@PEBU_s_FuncInfo@@_K@Z 0000000180095a10 f i libvcruntimed:frame.obj
 0001:00094a50       ??0UWMap4@FH4@@QEAA@PEBUFuncInfo4@1@_K@Z 0000000180095a50 f i libvcruntimed:frame.obj
 0001:00094ae0       ??0bad_exception@std@@QEAA@AEBV01@@Z 0000000180095ae0 f i libvcruntimed:frame.obj
 0001:00094b30       ??0bad_exception@std@@QEAA@XZ 0000000180095b30 f i libvcruntimed:frame.obj
 0001:00094b80       ??0exception@std@@QEAA@AEBV01@@Z 0000000180095b80 f i libvcruntimed:frame.obj
 0001:00094bf0       ??0exception@std@@QEAA@QEBDH@Z 0000000180095bf0 f i libvcruntimed:frame.obj
 0001:00094c50       ??0iterator@HandlerMap4@FH4@@QEAA@AEAV12@I@Z 0000000180095c50 f i libvcruntimed:frame.obj
 0001:00094c90       ??0iterator@HandlerMap@__FrameHandler3@@QEAA@AEAV12@I@Z 0000000180095c90 f i libvcruntimed:frame.obj
 0001:00094cd0       ??0iterator@UWMap4@FH4@@QEAA@AEAV12@PEAE@Z 0000000180095cd0 f i libvcruntimed:frame.obj
 0001:00094d10       ??1bad_exception@std@@UEAA@XZ 0000000180095d10 f i libvcruntimed:frame.obj
 0001:00094d30       ??1exception@std@@UEAA@XZ  0000000180095d30 f i libvcruntimed:frame.obj
 0001:00094d70       ??4iterator@UWMap4@FH4@@QEAAAEAV012@AEBV012@@Z 0000000180095d70 f i libvcruntimed:frame.obj
 0001:00094dd0       ??8iterator@HandlerMap4@FH4@@QEBA_NAEBV012@@Z 0000000180095dd0 f i libvcruntimed:frame.obj
 0001:00094e20       ??8iterator@HandlerMap@__FrameHandler3@@QEBA_NAEBV012@@Z 0000000180095e20 f i libvcruntimed:frame.obj
 0001:00094e70       ??8type_info@@QEBA_NAEBV0@@Z 0000000180095e70 f i libvcruntimed:frame.obj
 0001:00094ed0       ??9iterator@HandlerMap4@FH4@@QEBA_NAEBV012@@Z 0000000180095ed0 f i libvcruntimed:frame.obj
 0001:00094f20       ??9iterator@HandlerMap@__FrameHandler3@@QEBA_NAEBV012@@Z 0000000180095f20 f i libvcruntimed:frame.obj
 0001:00094f70       ??Diterator@HandlerMap4@FH4@@QEAA?AUHandlerType4@2@XZ 0000000180095f70 f i libvcruntimed:frame.obj
 0001:00094fb0       ??Diterator@HandlerMap@__FrameHandler3@@QEAA?BU_s_HandlerType@@XZ 0000000180095fb0 f i libvcruntimed:frame.obj
 0001:00095000       ??Diterator@TryBlockMap@__FrameHandler3@@QEAA?BU_s_TryBlockMapEntry@@XZ 0000000180096000 f i libvcruntimed:frame.obj
 0001:00095070       ??Diterator@UWMap4@FH4@@QEAA?AUUnwindMapEntry4@2@XZ 0000000180096070 f i libvcruntimed:frame.obj
 0001:00095100       ??Eiterator@HandlerMap4@FH4@@QEAAAEAV012@XZ 0000000180096100 f i libvcruntimed:frame.obj
 0001:00095140       ??Eiterator@HandlerMap@__FrameHandler3@@QEAAAEAV012@XZ 0000000180096140 f i libvcruntimed:frame.obj
 0001:00095170       ??Eiterator@TryBlockMap@__FrameHandler3@@QEAAAEAV012@XZ 0000000180096170 f i libvcruntimed:frame.obj
 0001:000951a0       ??Eiterator@UWMap4@FH4@@QEAAAEAV012@XZ 00000001800961a0 f i libvcruntimed:frame.obj
 0001:000951f0       ??Giterator@UWMap4@FH4@@QEBA_JAEBV012@@Z 00000001800961f0 f i libvcruntimed:frame.obj
 0001:00095220       ??Miterator@TryBlockMap4@FH4@@QEBA_NAEBV012@@Z 0000000180096220 f i libvcruntimed:frame.obj
 0001:00095270       ??Miterator@TryBlockMap@__FrameHandler3@@QEBA_NAEBV012@@Z 0000000180096270 f i libvcruntimed:frame.obj
 0001:000952c0       ??Oiterator@UWMap4@FH4@@QEBA_NAEBV012@@Z 00000001800962c0 f i libvcruntimed:frame.obj
 0001:00095310       ??Piterator@UWMap4@FH4@@QEBA_NAEBV012@@Z 0000000180096310 f i libvcruntimed:frame.obj
 0001:00095360       ??_Ebad_exception@std@@UEAAPEAXI@Z 0000000180096360 f i libvcruntimed:frame.obj
 0001:00095360       ??_Gbad_exception@std@@UEAAPEAXI@Z 0000000180096360 f i libvcruntimed:frame.obj
 0001:000953b0       ??_Eexception@std@@UEAAPEAXI@Z 00000001800963b0 f i libvcruntimed:frame.obj
 0001:000953b0       ??_Gexception@std@@UEAAPEAXI@Z 00000001800963b0 f i libvcruntimed:frame.obj
 0001:00095400       ?BuildCatchObject@__FrameHandler3@@SAXPEAUEHExceptionRecord@@PEAXPEBU_s_HandlerType@@PEBU_s_CatchableType@@@Z 0000000180096400 f   libvcruntimed:frame.obj
 0001:00095450       ?BuildCatchObject@__FrameHandler4@@SAXPEAUEHExceptionRecord@@PEAXPEAUHandlerType4@FH4@@PEBU_s_CatchableType@@@Z 0000000180096450 f   libvcruntimed:frame.obj
 0001:000954a0       ?BuildCatchObjectHelper@__FrameHandler3@@SAHPEAUEHExceptionRecord@@PEAXPEBU_s_HandlerType@@PEBU_s_CatchableType@@@Z 00000001800964a0 f   libvcruntimed:frame.obj
 0001:000954f0       ?BuildCatchObjectHelper@__FrameHandler4@@SAHPEAUEHExceptionRecord@@PEAXPEAUHandlerType4@FH4@@PEBU_s_CatchableType@@@Z 00000001800964f0 f   libvcruntimed:frame.obj
 0001:00095540       ?CxxCallCatchBlock@__FrameHandler3@@SAPEAXPEAU_EXCEPTION_RECORD@@@Z 0000000180096540 f   libvcruntimed:frame.obj
 0001:00095830       ?CxxCallCatchBlock@__FrameHandler4@@SAPEAXPEAU_EXCEPTION_RECORD@@@Z 0000000180096830 f   libvcruntimed:frame.obj
 0001:00095c20       ?DecompHandler@HandlerMap4@FH4@@AEAAXXZ 0000000180096c20 f i libvcruntimed:frame.obj
 0001:000960d0       ?FrameUnwindToState@__FrameHandler3@@SAXPEA_KPEAU_xDISPATCHER_CONTEXT@@PEBU_s_FuncInfo@@H@Z 00000001800970d0 f   libvcruntimed:frame.obj
 0001:000963b0       ?FrameUnwindToState@__FrameHandler4@@SAXPEA_KPEAU_xDISPATCHER_CONTEXT@@PEAUFuncInfo4@FH4@@H@Z 00000001800973b0 f   libvcruntimed:frame.obj
 0001:00096780       ?GetHandlerSearchState@__FrameHandler3@@SAHPEA_KPEAU_xDISPATCHER_CONTEXT@@PEBU_s_FuncInfo@@@Z 0000000180097780 f i libvcruntimed:frame.obj
 0001:00096860       ?GetHandlerSearchState@__FrameHandler4@@SAHPEA_KPEAU_xDISPATCHER_CONTEXT@@PEAUFuncInfo4@FH4@@@Z 0000000180097860 f i libvcruntimed:frame.obj
 0001:00096900       ?GetMaxState@__FrameHandler3@@SAHPEAU_xDISPATCHER_CONTEXT@@PEBU_s_FuncInfo@@@Z 0000000180097900 f i libvcruntimed:frame.obj
 0001:00096920       ?GetMaxState@__FrameHandler4@@SAHPEAU_xDISPATCHER_CONTEXT@@PEAUFuncInfo4@FH4@@@Z 0000000180097920 f i libvcruntimed:frame.obj
 0001:00096bd0       ?ReadEntry@UWMap4@FH4@@AEAAXPEAPEAE@Z 0000000180097bd0 f i libvcruntimed:frame.obj
 0001:00096ca0       ?TypeMatch@__FrameHandler3@@SAHPEBU_s_HandlerType@@PEBU_s_CatchableType@@PEBU_s_ThrowInfo@@@Z 0000000180097ca0 f   libvcruntimed:frame.obj
 0001:00096ce0       ?TypeMatch@__FrameHandler4@@SAHPEAUHandlerType4@FH4@@PEBU_s_CatchableType@@PEBU_s_ThrowInfo@@@Z 0000000180097ce0 f   libvcruntimed:frame.obj
 0001:00096d20       ?WalkBack@UWMap4@FH4@@AEAAXPEAPEAE@Z 0000000180097d20 f i libvcruntimed:frame.obj
 0001:00096d80       ?WalkBack@iterator@UWMap4@FH4@@QEAAXXZ 0000000180097d80 f i libvcruntimed:frame.obj
 0001:00096dc0       ?WalkForward@UWMap4@FH4@@AEAAXPEAPEAE@Z 0000000180097dc0 f i libvcruntimed:frame.obj
 0001:00096df0       ?_CallMemberFunction1@@YAXQEAX00@Z 0000000180097df0 f i libvcruntimed:frame.obj
 0001:00096e40       ?_CallMemberFunction2@@YAXQEAX00H@Z 0000000180097e40 f i libvcruntimed:frame.obj
 0001:00096ef0       ?begin@HandlerMap4@FH4@@QEAA?AViterator@12@XZ 0000000180097ef0 f i libvcruntimed:frame.obj
 0001:00096f30       ?begin@HandlerMap@__FrameHandler3@@QEAA?AViterator@12@XZ 0000000180097f30 f i libvcruntimed:frame.obj
 0001:00096f70       ?begin@UWMap4@FH4@@QEAA?AViterator@12@XZ 0000000180097f70 f i libvcruntimed:frame.obj
 0001:00096fb0       ?end@HandlerMap4@FH4@@QEAA?AViterator@12@XZ 0000000180097fb0 f i libvcruntimed:frame.obj
 0001:00096ff0       ?end@HandlerMap@__FrameHandler3@@QEAA?AViterator@12@XZ 0000000180097ff0 f i libvcruntimed:frame.obj
 0001:00097030       ?getESTypes@__FrameHandler3@@SAPEBU_s_ESTypeList@@PEBU_s_FuncInfo@@@Z 0000000180098030 f i libvcruntimed:frame.obj
 0001:00097080       ?getESTypes@__FrameHandler4@@SAPEBU_s_ESTypeList@@PEAUFuncInfo4@FH4@@@Z 0000000180098080 f i libvcruntimed:frame.obj
 0001:00097090       ?getLastEntry@HandlerMap4@FH4@@QEAAPEAUHandlerType4@2@XZ 0000000180098090 f i libvcruntimed:frame.obj
 0001:000970e0       ?getLastEntry@HandlerMap@__FrameHandler3@@QEAAPEBU_s_HandlerType@@XZ 00000001800980e0 f i libvcruntimed:frame.obj
 0001:00097110       ?getMagicNum@__FrameHandler3@@SAIPEBU_s_FuncInfo@@@Z 0000000180098110 f i libvcruntimed:frame.obj
 0001:00097130       ?getMagicNum@__FrameHandler4@@SAIPEAUFuncInfo4@FH4@@@Z 0000000180098130 f i libvcruntimed:frame.obj
 0001:00097140       ?getNumTryBlocks@TryBlockMap4@FH4@@QEAAIXZ 0000000180098140 f i libvcruntimed:frame.obj
 0001:00097150       ?getNumTryBlocks@TryBlockMap@__FrameHandler3@@QEAAIXZ 0000000180098150 f i libvcruntimed:frame.obj
 0001:00097170       ?getStartStop@UWMap4@FH4@@QEAAXHHAEAViterator@12@0@Z 0000000180098170 f i libvcruntimed:frame.obj
 0001:000972d0       ?getStateFromIterators@UWMap4@FH4@@SAHAEBViterator@12@H0H0@Z 00000001800982d0 f i libvcruntimed:frame.obj
 0001:00097460       ?isEHs@__FrameHandler3@@SA_NPEBU_s_FuncInfo@@@Z 0000000180098460 f i libvcruntimed:frame.obj
 0001:000974a0       ?isEHs@__FrameHandler4@@SA_NPEAUFuncInfo4@FH4@@@Z 00000001800984a0 f i libvcruntimed:frame.obj
 0001:000974c0       ?isNoExcept@__FrameHandler3@@SA_NPEBU_s_FuncInfo@@@Z 00000001800984c0 f i libvcruntimed:frame.obj
 0001:00097500       ?isNoExcept@__FrameHandler4@@SA_NPEAUFuncInfo4@FH4@@@Z 0000000180098500 f i libvcruntimed:frame.obj
 0001:00097520       ?reset@HandlerType4@FH4@@QEAAXXZ 0000000180098520 f i libvcruntimed:frame.obj
 0001:000975a0       ?resetBuffer@HandlerMap4@FH4@@QEAAXXZ 00000001800985a0 f i libvcruntimed:frame.obj
 0001:000975c0       ?setBuffer@HandlerMap4@FH4@@QEAAXI@Z 00000001800985c0 f i libvcruntimed:frame.obj
 0001:00097630       ?what@exception@std@@UEBAPEBDXZ 0000000180098630 f i libvcruntimed:frame.obj
 0001:00097680       __BuildCatchObject         0000000180098680 f   libvcruntimed:frame.obj
 0001:000976d0       __BuildCatchObjectHelper   00000001800986d0 f   libvcruntimed:frame.obj
 0001:00097720       __TypeMatch                0000000180098720 f   libvcruntimed:frame.obj
 0001:00097760       __vcrt_EncodePointer       0000000180098760 f i libvcruntimed:frame.obj
 0001:00097790       _CallSettingFrame          0000000180098790 f   libvcruntimed:handlers.obj
 0001:000977e0       _CallSettingFrame_LookupContinuationIndex 00000001800987e0 f   libvcruntimed:handlers.obj
 0001:00097810       _CallSettingFrame_NotifyContinuationAddr 0000000180098810 f   libvcruntimed:handlers.obj
 0001:00097840       _CallSettingFrameEncoded   0000000180098840 f   libvcruntimed:handlers.obj
 0001:000978d0       ??$?RD@__crt_public_free_policy@@QEBAXQEBD@Z 00000001800988d0 f i libvcruntimed:std_exception.obj
 0001:00097900       ??0?$__crt_unique_heap_ptr@DU__crt_public_free_policy@@@@QEAA@QEAD@Z 0000000180098900 f i libvcruntimed:std_exception.obj
 0001:00097930       ??1?$__crt_unique_heap_ptr@DU__crt_public_free_policy@@@@QEAA@XZ 0000000180098930 f i libvcruntimed:std_exception.obj
 0001:00097950       ??B?$__crt_unique_heap_ptr@DU__crt_public_free_policy@@@@QEBA_NXZ 0000000180098950 f i libvcruntimed:std_exception.obj
 0001:00097970       ?detach@?$__crt_unique_heap_ptr@DU__crt_public_free_policy@@@@QEAAPEADXZ 0000000180098970 f i libvcruntimed:std_exception.obj
 0001:000979b0       ?get@?$__crt_unique_heap_ptr@DU__crt_public_free_policy@@@@QEBAPEADXZ 00000001800989b0 f i libvcruntimed:std_exception.obj
 0001:000979d0       ?is_valid@?$__crt_unique_heap_ptr@DU__crt_public_free_policy@@@@QEBA_NXZ 00000001800989d0 f i libvcruntimed:std_exception.obj
 0001:00097a10       ?release@?$__crt_unique_heap_ptr@DU__crt_public_free_policy@@@@QEAAXXZ 0000000180098a10 f i libvcruntimed:std_exception.obj
 0001:00097a50       __std_exception_copy       0000000180098a50 f   libvcruntimed:std_exception.obj
 0001:00097be0       __std_exception_destroy    0000000180098be0 f   libvcruntimed:std_exception.obj
 0001:00097c30       _CxxThrowException         0000000180098c30 f   libvcruntimed:throw.obj
 0001:00097db0       _abs64                     0000000180098db0 f   libucrtd:abs.obj
 0001:00097df0       abs                        0000000180098df0 f   libucrtd:abs.obj
 0001:00097e50       fabs                       0000000180098e50 f   libucrtd:fabs.obj
 0001:00097e70       _fpclass                   0000000180098e70 f   libucrtd:ieeemisc.obj
 0001:000980a0       _fpclassf                  00000001800990a0 f   libucrtd:ieeemisc.obj
 0001:00098220       _isnan                     0000000180099220 f   libucrtd:ieeemisc.obj
 0001:000982a0       _isnanf                    00000001800992a0 f   libucrtd:ieeemisc.obj
 0001:00098300       _nextafter                 0000000180099300 f   libucrtd:ieeemisc.obj
 0001:00098330       _nextafterf                0000000180099330 f   libucrtd:ieeemisc.obj
 0001:00098360       _scalb                     0000000180099360 f   libucrtd:ieeemisc.obj
 0001:00098870       _scalbf                    0000000180099870 f   libucrtd:ieeemisc.obj
 0001:00098cc0       powf                       0000000180099cc0 f   libucrtd:powf.obj
 0001:00099f40       sqrtf                      000000018009af40 f   libucrtd:sqrtf.obj
 0001:0009a0c0       cosf                       000000018009b0c0 f   libucrtd:cosf.obj
 0001:0009a700       sinf                       000000018009b700 f   libucrtd:sinf.obj
 0001:0009afc0       atan2f                     000000018009bfc0 f   libucrtd:atan2f.obj
 0001:0009bd80       floorf                     000000018009cd80 f   libucrtd:floorf.obj
 0001:0009bf20       ??$?RU?$__crt_report_hook_node@D@@@__crt_internal_free_policy@@QEBAXQEBU?$__crt_report_hook_node@D@@@Z 000000018009cf20 f i libucrtd:dbgrpt.obj
 0001:0009bf50       ??$?RU?$__crt_report_hook_node@_W@@@__crt_internal_free_policy@@QEBAXQEBU?$__crt_report_hook_node@_W@@@Z 000000018009cf50 f i libucrtd:dbgrpt.obj
 0001:0009d660       ??$get_module_file_name@AEAPEAUHINSTANCE__@@AEAY0BAF@DK@?$__crt_char_traits@D@@SAKAEAPEAUHINSTANCE__@@AEAY0BAF@D$$QEAK@Z 000000018009e660 f i libucrtd:dbgrpt.obj
 0001:0009d6a0       ??$get_module_file_name@AEAPEAUHINSTANCE__@@AEAY0BAF@_WK@?$__crt_char_traits@_W@@SAKAEAPEAUHINSTANCE__@@AEAY0BAF@_W$$QEAK@Z 000000018009e6a0 f i libucrtd:dbgrpt.obj
 0001:0009d6e0       ??$tcscpy_s@AEAY0BAF@D_KPEBD@?$__crt_char_traits@D@@SAHAEAY0BAF@D$$QEA_K$$QEAPEBD@Z 000000018009e6e0 f i libucrtd:dbgrpt.obj
 0001:0009d720       ??$tcscpy_s@AEAY0BAF@_W_KPEB_W@?$__crt_char_traits@_W@@SAHAEAY0BAF@_W$$QEA_K$$QEAPEB_W@Z 000000018009e720 f i libucrtd:dbgrpt.obj
 0001:0009d760       ??$tcslen@AEAY0BAF@D@?$__crt_char_traits@D@@SA_KAEAY0BAF@D@Z 000000018009e760 f i libucrtd:dbgrpt.obj
 0001:0009d780       ??$tcslen@AEAY0BAF@_W@?$__crt_char_traits@_W@@SA_KAEAY0BAF@_W@Z 000000018009e780 f i libucrtd:dbgrpt.obj
 0001:0009d7a0       ??$tcslen@AEBQEBD@?$__crt_char_traits@D@@SA_KAEBQEBD@Z 000000018009e7a0 f i libucrtd:dbgrpt.obj
 0001:0009d7d0       ??$tcslen@AEBQEB_W@?$__crt_char_traits@_W@@SA_KAEBQEB_W@Z 000000018009e7d0 f i libucrtd:dbgrpt.obj
 0001:0009d940       ??0?$__crt_unique_heap_ptr@U?$__crt_report_hook_node@D@@U__crt_internal_free_policy@@@@QEAA@QEAU?$__crt_report_hook_node@D@@@Z 000000018009e940 f i libucrtd:dbgrpt.obj
 0001:0009d970       ??0?$__crt_unique_heap_ptr@U?$__crt_report_hook_node@_W@@U__crt_internal_free_policy@@@@QEAA@QEAU?$__crt_report_hook_node@_W@@@Z 000000018009e970 f i libucrtd:dbgrpt.obj
 0001:0009d9a0       ??1?$__crt_unique_heap_ptr@U?$__crt_report_hook_node@D@@U__crt_internal_free_policy@@@@QEAA@XZ 000000018009e9a0 f i libucrtd:dbgrpt.obj
 0001:0009d9c0       ??1?$__crt_unique_heap_ptr@U?$__crt_report_hook_node@_W@@U__crt_internal_free_policy@@@@QEAA@XZ 000000018009e9c0 f i libucrtd:dbgrpt.obj
 0001:0009d9e0       ??B?$__crt_unique_heap_ptr@U?$__crt_report_hook_node@D@@U__crt_internal_free_policy@@@@QEBA_NXZ 000000018009e9e0 f i libucrtd:dbgrpt.obj
 0001:0009da00       ??B?$__crt_unique_heap_ptr@U?$__crt_report_hook_node@_W@@U__crt_internal_free_policy@@@@QEBA_NXZ 000000018009ea00 f i libucrtd:dbgrpt.obj
 0001:0009e2a0       ?detach@?$__crt_unique_heap_ptr@U?$__crt_report_hook_node@D@@U__crt_internal_free_policy@@@@QEAAPEAU?$__crt_report_hook_node@D@@XZ 000000018009f2a0 f i libucrtd:dbgrpt.obj
 0001:0009e2e0       ?detach@?$__crt_unique_heap_ptr@U?$__crt_report_hook_node@_W@@U__crt_internal_free_policy@@@@QEAAPEAU?$__crt_report_hook_node@_W@@XZ 000000018009f2e0 f i libucrtd:dbgrpt.obj
 0001:0009e320       ?get@?$__crt_unique_heap_ptr@U?$__crt_report_hook_node@D@@U__crt_internal_free_policy@@@@QEBAPEAU?$__crt_report_hook_node@D@@XZ 000000018009f320 f i libucrtd:dbgrpt.obj
 0001:0009e340       ?get@?$__crt_unique_heap_ptr@U?$__crt_report_hook_node@_W@@U__crt_internal_free_policy@@@@QEBAPEAU?$__crt_report_hook_node@_W@@XZ 000000018009f340 f i libucrtd:dbgrpt.obj
 0001:0009e3c0       ?is_valid@?$__crt_unique_heap_ptr@U?$__crt_report_hook_node@D@@U__crt_internal_free_policy@@@@QEBA_NXZ 000000018009f3c0 f i libucrtd:dbgrpt.obj
 0001:0009e400       ?is_valid@?$__crt_unique_heap_ptr@U?$__crt_report_hook_node@_W@@U__crt_internal_free_policy@@@@QEBA_NXZ 000000018009f400 f i libucrtd:dbgrpt.obj
 0001:0009e440       ?release@?$__crt_unique_heap_ptr@U?$__crt_report_hook_node@D@@U__crt_internal_free_policy@@@@QEAAXXZ 000000018009f440 f i libucrtd:dbgrpt.obj
 0001:0009e480       ?release@?$__crt_unique_heap_ptr@U?$__crt_report_hook_node@_W@@U__crt_internal_free_policy@@@@QEAAXXZ 000000018009f480 f i libucrtd:dbgrpt.obj
 0001:0009e4c0       _CrtDbgReport              000000018009f4c0 f   libucrtd:dbgrpt.obj
 0001:0009e560       _CrtDbgReportW             000000018009f560 f   libucrtd:dbgrpt.obj
 0001:0009e600       _CrtSetReportHook2         000000018009f600 f   libucrtd:dbgrpt.obj
 0001:0009e630       _CrtSetReportHookW2        000000018009f630 f   libucrtd:dbgrpt.obj
 0001:0009e660       __acrt_MessageWindowA      000000018009f660 f   libucrtd:dbgrpt.obj
 0001:0009e6c0       __acrt_MessageWindowW      000000018009f6c0 f   libucrtd:dbgrpt.obj
 0001:0009e720       _invoke_watson_if_error    000000018009f720 f i libucrtd:dbgrpt.obj
 0001:0009e780       _invoke_watson_if_oneof    000000018009f780 f i libucrtd:dbgrpt.obj
 0001:0009e800       _snwprintf_s               000000018009f800 f i libucrtd:dbgrpt.obj
 0001:0009e880       _vsnwprintf_s_l            000000018009f880 f i libucrtd:dbgrpt.obj
 0001:0009e920       _initterm                  000000018009f920 f   libucrtd:initterm.obj
 0001:0009e9b0       _initterm_e                000000018009f9b0 f   libucrtd:initterm.obj
 0001:0009ea50       ??0_LocaleUpdate@@QEAA@QEAU__crt_locale_pointers@@@Z 000000018009fa50 f i libucrtd:debug_heap.obj
 0001:0009ebb0       ??1_LocaleUpdate@@QEAA@XZ  000000018009fbb0 f i libucrtd:debug_heap.obj
 0001:0009ebf0       ?GetLocaleT@_LocaleUpdate@@QEAAPEAU__crt_locale_pointers@@XZ 000000018009fbf0 f i libucrtd:debug_heap.obj
 0001:000a1890       _CrtCheckMemory            00000001800a2890 f   libucrtd:debug_heap.obj
 0001:000a1a90       _CrtDoForAllClientObjects  00000001800a2a90 f   libucrtd:debug_heap.obj
 0001:000a1c30       _CrtDumpMemoryLeaks        00000001800a2c30 f   libucrtd:debug_heap.obj
 0001:000a1d20       _CrtGetAllocHook           00000001800a2d20 f   libucrtd:debug_heap.obj
 0001:000a1d30       _CrtGetDumpClient          00000001800a2d30 f   libucrtd:debug_heap.obj
 0001:000a1d40       _CrtIsMemoryBlock          00000001800a2d40 f   libucrtd:debug_heap.obj
 0001:000a1ed0       _CrtIsValidHeapPointer     00000001800a2ed0 f   libucrtd:debug_heap.obj
 0001:000a1f30       _CrtIsValidPointer         00000001800a2f30 f   libucrtd:debug_heap.obj
 0001:000a1f70       _CrtMemCheckpoint          00000001800a2f70 f   libucrtd:debug_heap.obj
 0001:000a2290       _CrtMemDifference          00000001800a3290 f   libucrtd:debug_heap.obj
 0001:000a26c0       _CrtMemDumpAllObjectsSince 00000001800a36c0 f   libucrtd:debug_heap.obj
 0001:000a2730       _CrtMemDumpStatistics      00000001800a3730 f   libucrtd:debug_heap.obj
 0001:000a2930       _CrtReportBlockType        00000001800a3930 f   libucrtd:debug_heap.obj
 0001:000a2970       _CrtSetAllocHook           00000001800a3970 f   libucrtd:debug_heap.obj
 0001:000a29b0       _CrtSetBreakAlloc          00000001800a39b0 f   libucrtd:debug_heap.obj
 0001:000a29e0       _CrtSetDbgBlockType        00000001800a39e0 f   libucrtd:debug_heap.obj
 0001:000a2aa0       _CrtSetDbgFlag             00000001800a3aa0 f   libucrtd:debug_heap.obj
 0001:000a2c50       _CrtSetDumpClient          00000001800a3c50 f   libucrtd:debug_heap.obj
 0001:000a2c90       __acrt_disable_global_locale_sync 00000001800a3c90 f i libucrtd:debug_heap.obj
 0001:000a2cc0       __acrt_enable_global_locale_sync 00000001800a3cc0 f i libucrtd:debug_heap.obj
 0001:000a2d00       __acrt_get_locale_data_prefix 00000001800a3d00 f i libucrtd:debug_heap.obj
 0001:000a2d30       __acrt_locale_changed      00000001800a3d30 f i libucrtd:debug_heap.obj
 0001:000a2d60       __p__crtBreakAlloc         00000001800a3d60 f   libucrtd:debug_heap.obj
 0001:000a2d70       __p__crtDbgFlag            00000001800a3d70 f   libucrtd:debug_heap.obj
 0001:000a2d80       _aligned_free_dbg          00000001800a3d80 f   libucrtd:debug_heap.obj
 0001:000a2ea0       _aligned_malloc_dbg        00000001800a3ea0 f   libucrtd:debug_heap.obj
 0001:000a2ef0       _aligned_msize_dbg         00000001800a3ef0 f   libucrtd:debug_heap.obj
 0001:000a3130       _aligned_offset_malloc_dbg 00000001800a4130 f   libucrtd:debug_heap.obj
 0001:000a34d0       _aligned_offset_realloc_dbg 00000001800a44d0 f   libucrtd:debug_heap.obj
 0001:000a3ab0       _aligned_offset_recalloc_dbg 00000001800a4ab0 f   libucrtd:debug_heap.obj
 0001:000a3c10       _aligned_realloc_dbg       00000001800a4c10 f   libucrtd:debug_heap.obj
 0001:000a3c70       _aligned_recalloc_dbg      00000001800a4c70 f   libucrtd:debug_heap.obj
 0001:000a3ce0       _calloc_dbg                00000001800a4ce0 f   libucrtd:debug_heap.obj
 0001:000a3da0       _chvalidchk_l              00000001800a4da0 f i libucrtd:debug_heap.obj
 0001:000a3de0       _expand_dbg                00000001800a4de0 f   libucrtd:debug_heap.obj
 0001:000a3f60       _free_dbg                  00000001800a4f60 f   libucrtd:debug_heap.obj
 0001:000a3fe0       _ischartype_l              00000001800a4fe0 f i libucrtd:debug_heap.obj
 0001:000a4090       _malloc_dbg                00000001800a5090 f   libucrtd:debug_heap.obj
 0001:000a40e0       _msize_dbg                 00000001800a50e0 f   libucrtd:debug_heap.obj
 0001:000a42e0       _realloc_dbg               00000001800a52e0 f   libucrtd:debug_heap.obj
 0001:000a4370       _recalloc_dbg              00000001800a5370 f   libucrtd:debug_heap.obj
 0001:000a4530       _seh_filter_dll            00000001800a5530 f   libucrtd:exception_filter.obj
 0001:000a4570       _seh_filter_exe            00000001800a5570 f   libucrtd:exception_filter.obj
 0001:000a48f0       ??$?B$$A6AXPEAXK0@Z@__crt_fast_encoded_nullptr_t@@QEBAP6AXPEAXK0@ZXZ 00000001800a58f0 f i libucrtd:exit.obj
 0001:000a49e0       ??$__crt_fast_decode_pointer@P6AXPEAXK0@Z@@YAP6AXPEAXK0@ZQ6AX0K0@Z@Z 00000001800a59e0 f i libucrtd:exit.obj
 0001:000a4a30       ??$__crt_fast_encode_pointer@P6AXPEAXK0@Z@@YAP6AXPEAXK0@ZQ6AX0K0@Z@Z 00000001800a5a30 f i libucrtd:exit.obj
 0001:000a4a80       ??$__crt_get_proc_address@P6AXI@Z@@YAP6AXI@ZQEAUHINSTANCE__@@QEBD@Z 00000001800a5a80 f i libucrtd:exit.obj
 0001:000a4ab0       ??$__crt_interlocked_read@J@@YAJPEDJ@Z 00000001800a5ab0 f i libucrtd:exit.obj
 0001:000a4b90       ??0?$__crt_unique_handle_t@U__crt_hmodule_traits@@@@QEAA@QEAUHINSTANCE__@@@Z 00000001800a5b90 f i libucrtd:exit.obj
 0001:000a4bc0       ??1?$__crt_unique_handle_t@U__crt_hmodule_traits@@@@QEAA@XZ 00000001800a5bc0 f i libucrtd:exit.obj
 0001:000a4d80       ?__acrt_select_exit_lock@@YA?AW4__acrt_lock_id@@XZ 00000001800a5d80 f i libucrtd:exit.obj
 0001:000a4d90       ?__crt_fast_encode_pointer@@YA?AU__crt_fast_encoded_nullptr_t@@$$T@Z 00000001800a5d90 f i libucrtd:exit.obj
 0001:000a4db0       ?__crt_interlocked_read_32@@YAHPEDH@Z 00000001800a5db0 f i libucrtd:exit.obj
 0001:000a4de0       ?__crt_rotate_pointer_value@@YA_K_KH@Z 00000001800a5de0 f i libucrtd:exit.obj
 0001:000a4e20       ?close@?$__crt_unique_handle_t@U__crt_hmodule_traits@@@@QEAAXXZ 00000001800a5e20 f i libucrtd:exit.obj
 0001:000a4e70       ?close@__crt_hmodule_traits@@SA_NPEAUHINSTANCE__@@@Z 00000001800a5e70 f i libucrtd:exit.obj
 0001:000a4fd0       ?get@?$__crt_unique_handle_t@U__crt_hmodule_traits@@@@QEBAPEAUHINSTANCE__@@XZ 00000001800a5fd0 f i libucrtd:exit.obj
 0001:000a4ff0       ?get_address_of@?$__crt_unique_handle_t@U__crt_hmodule_traits@@@@QEAAPEAPEAUHINSTANCE__@@XZ 00000001800a5ff0 f i libucrtd:exit.obj
 0001:000a5000       ?get_invalid_value@__crt_hmodule_traits@@SAPEAUHINSTANCE__@@XZ 00000001800a6000 f i libucrtd:exit.obj
 0001:000a5240       _Exit                      00000001800a6240 f   libucrtd:exit.obj
 0001:000a5270       __acrt_initialize_thread_local_exit_callback 00000001800a6270 f   libucrtd:exit.obj
 0001:000a5290       _c_exit                    00000001800a6290 f   libucrtd:exit.obj
 0001:000a52c0       _cexit                     00000001800a62c0 f   libucrtd:exit.obj
 0001:000a52e0       _exit                      00000001800a62e0 f   libucrtd:exit.obj
 0001:000a5310       _is_c_termination_complete 00000001800a6310 f   libucrtd:exit.obj
 0001:000a5330       _register_thread_local_exe_atexit_callback 00000001800a6330 f   libucrtd:exit.obj
 0001:000a5390       exit                       00000001800a6390 f   libucrtd:exit.obj
 0001:000a53c0       quick_exit                 00000001800a63c0 f   libucrtd:exit.obj
 0001:000a53f0       ??$?RE@__crt_internal_free_policy@@QEBAXQEBE@Z 00000001800a63f0 f i libucrtd:argv_parsing.obj
 0001:000a5420       ??$?RPEAD@__crt_internal_free_policy@@QEBAXQEBQEAD@Z 00000001800a6420 f i libucrtd:argv_parsing.obj
 0001:000a5450       ??$?RPEA_W@__crt_internal_free_policy@@QEBAXQEBQEA_W@Z 00000001800a6450 f i libucrtd:argv_parsing.obj
 0001:000a5d80       ??$get_module_file_name@$$TAEAY0BAF@DH@?$__crt_char_traits@D@@SAK$$QEA$$TAEAY0BAF@D$$QEAH@Z 00000001800a6d80 f i libucrtd:argv_parsing.obj
 0001:000a5dc0       ??$get_module_file_name@$$TAEAY0BAF@_WH@?$__crt_char_traits@_W@@SAK$$QEA$$TAEAY0BAF@_W$$QEAH@Z 00000001800a6dc0 f i libucrtd:argv_parsing.obj
 0001:000a6a20       ??$set_program_name@PEAD@?$__crt_char_traits@D@@SAX$$QEAPEAD@Z 00000001800a7a20 f i libucrtd:argv_parsing.obj
 0001:000a6a50       ??$set_program_name@PEA_W@?$__crt_char_traits@_W@@SAX$$QEAPEA_W@Z 00000001800a7a50 f i libucrtd:argv_parsing.obj
 0001:000a6ae0       ??0?$__crt_unique_heap_ptr@EU__crt_internal_free_policy@@@@QEAA@QEAE@Z 00000001800a7ae0 f i libucrtd:argv_parsing.obj
 0001:000a6b10       ??0?$__crt_unique_heap_ptr@PEADU__crt_internal_free_policy@@@@QEAA@QEAPEAD@Z 00000001800a7b10 f i libucrtd:argv_parsing.obj
 0001:000a6b40       ??0?$__crt_unique_heap_ptr@PEA_WU__crt_internal_free_policy@@@@QEAA@QEAPEA_W@Z 00000001800a7b40 f i libucrtd:argv_parsing.obj
 0001:000a6b70       ??1?$__crt_unique_heap_ptr@EU__crt_internal_free_policy@@@@QEAA@XZ 00000001800a7b70 f i libucrtd:argv_parsing.obj
 0001:000a6b90       ??1?$__crt_unique_heap_ptr@PEADU__crt_internal_free_policy@@@@QEAA@XZ 00000001800a7b90 f i libucrtd:argv_parsing.obj
 0001:000a6bb0       ??1?$__crt_unique_heap_ptr@PEA_WU__crt_internal_free_policy@@@@QEAA@XZ 00000001800a7bb0 f i libucrtd:argv_parsing.obj
 0001:000a6bd0       ??B?$__crt_unique_heap_ptr@EU__crt_internal_free_policy@@@@QEBA_NXZ 00000001800a7bd0 f i libucrtd:argv_parsing.obj
 0001:000a6cd0       ?detach@?$__crt_unique_heap_ptr@EU__crt_internal_free_policy@@@@QEAAPEAEXZ 00000001800a7cd0 f i libucrtd:argv_parsing.obj
 0001:000a6d10       ?detach@?$__crt_unique_heap_ptr@PEADU__crt_internal_free_policy@@@@QEAAPEAPEADXZ 00000001800a7d10 f i libucrtd:argv_parsing.obj
 0001:000a6d50       ?detach@?$__crt_unique_heap_ptr@PEA_WU__crt_internal_free_policy@@@@QEAAPEAPEA_WXZ 00000001800a7d50 f i libucrtd:argv_parsing.obj
 0001:000a6e20       ?get@?$__crt_unique_heap_ptr@EU__crt_internal_free_policy@@@@QEBAPEAEXZ 00000001800a7e20 f i libucrtd:argv_parsing.obj
 0001:000a6e40       ?get@?$__crt_unique_heap_ptr@PEADU__crt_internal_free_policy@@@@QEBAPEAPEADXZ 00000001800a7e40 f i libucrtd:argv_parsing.obj
 0001:000a6e60       ?get@?$__crt_unique_heap_ptr@PEA_WU__crt_internal_free_policy@@@@QEBAPEAPEA_WXZ 00000001800a7e60 f i libucrtd:argv_parsing.obj
 0001:000a6e80       ?get_address_of@?$__crt_unique_heap_ptr@PEADU__crt_internal_free_policy@@@@QEAAPEAPEAPEADXZ 00000001800a7e80 f i libucrtd:argv_parsing.obj
 0001:000a6e90       ?get_address_of@?$__crt_unique_heap_ptr@PEA_WU__crt_internal_free_policy@@@@QEAAPEAPEAPEA_WXZ 00000001800a7e90 f i libucrtd:argv_parsing.obj
 0001:000a6ee0       ?is_valid@?$__crt_unique_heap_ptr@EU__crt_internal_free_policy@@@@QEBA_NXZ 00000001800a7ee0 f i libucrtd:argv_parsing.obj
 0001:000a6f20       ?release@?$__crt_unique_heap_ptr@EU__crt_internal_free_policy@@@@QEAAXXZ 00000001800a7f20 f i libucrtd:argv_parsing.obj
 0001:000a6f60       ?release@?$__crt_unique_heap_ptr@PEADU__crt_internal_free_policy@@@@QEAAXXZ 00000001800a7f60 f i libucrtd:argv_parsing.obj
 0001:000a6fa0       ?release@?$__crt_unique_heap_ptr@PEA_WU__crt_internal_free_policy@@@@QEAAXXZ 00000001800a7fa0 f i libucrtd:argv_parsing.obj
 0001:000a7040       __acrt_allocate_buffer_for_argv 00000001800a8040 f   libucrtd:argv_parsing.obj
 0001:000a71a0       _configure_narrow_argv     00000001800a81a0 f   libucrtd:argv_parsing.obj
 0001:000a71c0       _configure_wide_argv       00000001800a81c0 f   libucrtd:argv_parsing.obj
 0001:000a71e0       _set_pgmptr                00000001800a81e0 f i libucrtd:argv_parsing.obj
 0001:000a7200       _set_wpgmptr               00000001800a8200 f i libucrtd:argv_parsing.obj
 0001:000a7220       ??$?R_W@__crt_internal_free_policy@@QEBAXQEB_W@Z 00000001800a8220 f i libucrtd:environment_initialization.obj
 0001:000a7e40       ??$get_environment_from_os@$$V@?$__crt_char_traits@D@@SAPEADXZ 00000001800a8e40 f i libucrtd:environment_initialization.obj
 0001:000a7e60       ??$get_environment_from_os@$$V@?$__crt_char_traits@_W@@SAPEA_WXZ 00000001800a8e60 f i libucrtd:environment_initialization.obj
 0001:000a8240       ??$set_variable_in_environment_nolock@PEADH@?$__crt_char_traits@D@@SAH$$QEAPEAD$$QEAH@Z 00000001800a9240 f i libucrtd:environment_initialization.obj
 0001:000a8270       ??$set_variable_in_environment_nolock@PEA_WH@?$__crt_char_traits@_W@@SAH$$QEAPEA_W$$QEAH@Z 00000001800a9270 f i libucrtd:environment_initialization.obj
 0001:000a82a0       ??$tcscpy_s@PEADAEB_KAEAPEAD@?$__crt_char_traits@D@@SAH$$QEAPEADAEB_KAEAPEAD@Z 00000001800a92a0 f i libucrtd:environment_initialization.obj
 0001:000a82f0       ??$tcscpy_s@PEA_WAEB_KAEAPEA_W@?$__crt_char_traits@_W@@SAH$$QEAPEA_WAEB_KAEAPEA_W@Z 00000001800a92f0 f i libucrtd:environment_initialization.obj
 0001:000a8340       ??$tcslen@AEAPEAD@?$__crt_char_traits@D@@SA_KAEAPEAD@Z 00000001800a9340 f i libucrtd:environment_initialization.obj
 0001:000a8370       ??$tcslen@AEAPEA_W@?$__crt_char_traits@_W@@SA_KAEAPEA_W@Z 00000001800a9370 f i libucrtd:environment_initialization.obj
 0001:000a83a0       ??$uninitialize@A6AXAEAPEAPEAD@_E@?$dual_state_global@PEAPEAD@__crt_state_management@@QEAAXA6AXAEAPEAPEAD@_E@Z 00000001800a93a0 f i libucrtd:environment_initialization.obj
 0001:000a8440       ??$uninitialize@A6AXAEAPEAPEA_W@_E@?$dual_state_global@PEAPEA_W@__crt_state_management@@QEAAXA6AXAEAPEAPEA_W@_E@Z 00000001800a9440 f i libucrtd:environment_initialization.obj
 0001:000a8560       ??0?$__crt_unique_heap_ptr@_WU__crt_internal_free_policy@@@@QEAA@QEA_W@Z 00000001800a9560 f i libucrtd:environment_initialization.obj
 0001:000a8590       ??1?$__crt_unique_heap_ptr@_WU__crt_internal_free_policy@@@@QEAA@XZ 00000001800a9590 f i libucrtd:environment_initialization.obj
 0001:000a85b0       ??B?$__crt_unique_heap_ptr@PEADU__crt_internal_free_policy@@@@QEBA_NXZ 00000001800a95b0 f i libucrtd:environment_initialization.obj
 0001:000a85d0       ??B?$__crt_unique_heap_ptr@PEA_WU__crt_internal_free_policy@@@@QEBA_NXZ 00000001800a95d0 f i libucrtd:environment_initialization.obj
 0001:000a85f0       ??B?$__crt_unique_heap_ptr@_WU__crt_internal_free_policy@@@@QEBA_NXZ 00000001800a95f0 f i libucrtd:environment_initialization.obj
 0001:000a8610       ?__crt_compute_required_transform_buffer_count@@YA_KIQEBD@Z 00000001800a9610 f i libucrtd:environment_initialization.obj
 0001:000a8660       ?__crt_compute_required_transform_buffer_count@@YA_KIQEB_W@Z 00000001800a9660 f i libucrtd:environment_initialization.obj
 0001:000a86c0       ?__crt_transform_string@@YA_KIQEBDQEA_W_K@Z 00000001800a96c0 f i libucrtd:environment_initialization.obj
 0001:000a8730       ?__crt_transform_string@@YA_KIQEB_WQEAD_K@Z 00000001800a9730 f i libucrtd:environment_initialization.obj
 0001:000a87b0       ?detach@?$__crt_unique_heap_ptr@DU__crt_internal_free_policy@@@@QEAAPEADXZ 00000001800a97b0 f i libucrtd:environment_initialization.obj
 0001:000a87f0       ?detach@?$__crt_unique_heap_ptr@_WU__crt_internal_free_policy@@@@QEAAPEA_WXZ 00000001800a97f0 f i libucrtd:environment_initialization.obj
 0001:000a8830       ?get@?$__crt_unique_heap_ptr@_WU__crt_internal_free_policy@@@@QEBAPEA_WXZ 00000001800a9830 f i libucrtd:environment_initialization.obj
 0001:000a8850       ?get_current_state_index@__crt_state_management@@YA_KXZ 00000001800a9850 f i libucrtd:environment_initialization.obj
 0001:000a88e0       ?initialize@?$dual_state_global@PEAPEAD@__crt_state_management@@QEAAXQEAPEAD@Z 00000001800a98e0 f i libucrtd:environment_initialization.obj
 0001:000a8940       ?initialize@?$dual_state_global@PEAPEA_W@__crt_state_management@@QEAAXQEAPEA_W@Z 00000001800a9940 f i libucrtd:environment_initialization.obj
 0001:000a89a0       ?is_valid@?$__crt_unique_heap_ptr@PEADU__crt_internal_free_policy@@@@QEBA_NXZ 00000001800a99a0 f i libucrtd:environment_initialization.obj
 0001:000a89e0       ?is_valid@?$__crt_unique_heap_ptr@PEA_WU__crt_internal_free_policy@@@@QEBA_NXZ 00000001800a99e0 f i libucrtd:environment_initialization.obj
 0001:000a8a20       ?is_valid@?$__crt_unique_heap_ptr@_WU__crt_internal_free_policy@@@@QEBA_NXZ 00000001800a9a20 f i libucrtd:environment_initialization.obj
 0001:000a8a90       ?release@?$__crt_unique_heap_ptr@_WU__crt_internal_free_policy@@@@QEAAXXZ 00000001800a9a90 f i libucrtd:environment_initialization.obj
 0001:000a8ad0       ?value@?$dual_state_global@PEAPEAD@__crt_state_management@@QEAAAEAPEAPEADXZ 00000001800a9ad0 f i libucrtd:environment_initialization.obj
 0001:000a8b00       ?value@?$dual_state_global@PEAPEA_W@__crt_state_management@@QEAAAEAPEAPEA_WXZ 00000001800a9b00 f i libucrtd:environment_initialization.obj
 0001:000a8b30       __dcrt_get_or_create_narrow_environment_nolock 00000001800a9b30 f   libucrtd:environment_initialization.obj
 0001:000a8b50       __dcrt_get_or_create_wide_environment_nolock 00000001800a9b50 f   libucrtd:environment_initialization.obj
 0001:000a8b70       __dcrt_uninitialize_environments_nolock 00000001800a9b70 f   libucrtd:environment_initialization.obj
 0001:000a8bd0       __p__environ               00000001800a9bd0 f   libucrtd:environment_initialization.obj
 0001:000a8bf0       __p__wenviron              00000001800a9bf0 f   libucrtd:environment_initialization.obj
 0001:000a8c10       _get_initial_narrow_environment 00000001800a9c10 f   libucrtd:environment_initialization.obj
 0001:000a8c30       _get_initial_wide_environment 00000001800a9c30 f   libucrtd:environment_initialization.obj
 0001:000a8c50       _initialize_narrow_environment 00000001800a9c50 f   libucrtd:environment_initialization.obj
 0001:000a8c70       _initialize_wide_environment 00000001800a9c70 f   libucrtd:environment_initialization.obj
 0001:000a8c90       ??$?B$$A6AXXZ@__crt_fast_encoded_nullptr_t@@QEBAP6AXXZXZ 00000001800a9c90 f i libucrtd:onexit.obj
 0001:000a8cb0       ??$?BP6AXXZ@__crt_fast_encoded_nullptr_t@@QEBAPEAP6AXXZXZ 00000001800a9cb0 f i libucrtd:onexit.obj
 0001:000a8cd0       ??$?RP6AXXZ@__crt_internal_free_policy@@QEBAXQEBQ6AXXZ@Z 00000001800a9cd0 f i libucrtd:onexit.obj
 0001:000a8ec0       ??$__crt_fast_decode_pointer@P6AXXZ@@YAP6AXXZQ6AXXZ@Z 00000001800a9ec0 f i libucrtd:onexit.obj
 0001:000a8f10       ??$__crt_fast_decode_pointer@PEAP6AXXZ@@YAPEAP6AXXZQEAP6AXXZ@Z 00000001800a9f10 f i libucrtd:onexit.obj
 0001:000a8f60       ??$__crt_fast_encode_pointer@P6AHXZ@@YAP6AHXZQ6AHXZ@Z 00000001800a9f60 f i libucrtd:onexit.obj
 0001:000a8fb0       ??$__crt_fast_encode_pointer@P6AXXZ@@YAP6AXXZQ6AXXZ@Z 00000001800a9fb0 f i libucrtd:onexit.obj
 0001:000a9000       ??$__crt_fast_encode_pointer@PEAP6AXXZ@@YAPEAP6AXXZQEAP6AXXZ@Z 00000001800aa000 f i libucrtd:onexit.obj
 0001:000a9180       ??0?$__crt_unique_heap_ptr@P6AXXZU__crt_internal_free_policy@@@@QEAA@QEAP6AXXZ@Z 00000001800aa180 f i libucrtd:onexit.obj
 0001:000a91b0       ??1?$__crt_unique_heap_ptr@P6AXXZU__crt_internal_free_policy@@@@QEAA@XZ 00000001800aa1b0 f i libucrtd:onexit.obj
 0001:000a91d0       ??1scoped_global_state_reset@__crt_state_management@@QEAA@XZ 00000001800aa1d0 f i libucrtd:onexit.obj
 0001:000a9930       ?detach@?$__crt_unique_heap_ptr@P6AXXZU__crt_internal_free_policy@@@@QEAAPEAP6AXXZXZ 00000001800aa930 f i libucrtd:onexit.obj
 0001:000a9970       ?release@?$__crt_unique_heap_ptr@P6AXXZU__crt_internal_free_policy@@@@QEAAXXZ 00000001800aa970 f i libucrtd:onexit.obj
 0001:000a99b0       _crt_at_quick_exit         00000001800aa9b0 f   libucrtd:onexit.obj
 0001:000a99e0       _crt_atexit                00000001800aa9e0 f   libucrtd:onexit.obj
 0001:000a9a10       _execute_onexit_table      00000001800aaa10 f   libucrtd:onexit.obj
 0001:000a9a60       _initialize_onexit_table   00000001800aaa60 f   libucrtd:onexit.obj
 0001:000a9b00       _register_onexit_function  00000001800aab00 f   libucrtd:onexit.obj
 0001:000a9de0       ??$?BX@__crt_fast_encoded_nullptr_t@@QEBAPEAXXZ 00000001800aade0 f i libucrtd:initialization.obj
 0001:000a9e00       ??$__crt_fast_encode_pointer@PEAX@@YAPEAXQEAX@Z 00000001800aae00 f i libucrtd:initialization.obj
 0001:000a9f40       ?initialize@?$dual_state_global@PEAU__crt_locale_data@@@__crt_state_management@@QEAAXQEAU__crt_locale_data@@@Z 00000001800aaf40 f i libucrtd:initialization.obj
 0001:000a9fa0       __acrt_initialize          00000001800aafa0 f   libucrtd:initialization.obj
 0001:000a9fd0       __acrt_thread_attach       00000001800aafd0 f   libucrtd:initialization.obj
 0001:000a9ff0       __acrt_thread_detach       00000001800aaff0 f   libucrtd:initialization.obj
 0001:000aa010       __acrt_uninitialize        00000001800ab010 f   libucrtd:initialization.obj
 0001:000aa050       __acrt_uninitialize_critical 00000001800ab050 f   libucrtd:initialization.obj
 0001:000aa0c0       _get_terminate             00000001800ab0c0 f   libucrtd:terminate.obj
 0001:000aa0e0       set_terminate              00000001800ab0e0 f   libucrtd:terminate.obj
 0001:000aa130       terminate                  00000001800ab130 f   libucrtd:terminate.obj
 0001:000aa7b0       strcpy_s                   00000001800ab7b0 f   libucrtd:strcpy_s.obj
 0001:000ab000       strcat_s                   00000001800ac000 f   libucrtd:strcat_s.obj
 0001:000ab040       ??$?0AEBV?$stream_output_adapter@D@__crt_stdio_output@@AEB_KAEBQEBDAEAV__crt_cached_ptd_host@@AEBQEAD@?$format_validation_base@DV?$stream_output_adapter@D@__crt_stdio_output@@@__crt_stdio_output@@IEAA@AEBV?$stream_output_adapter@D@1@AEB_KAEBQEBDAEAV__crt_cached_ptd_host@@AEBQEAD@Z 00000001800ac040 f i libucrtd:output.obj
 0001:000ab0b0       ??$?0AEBV?$stream_output_adapter@D@__crt_stdio_output@@AEB_KAEBQEBDAEAV__crt_cached_ptd_host@@AEBQEAD@?$positional_parameter_base@DV?$stream_output_adapter@D@__crt_stdio_output@@@__crt_stdio_output@@IEAA@AEBV?$stream_output_adapter@D@1@AEB_KAEBQEBDAEAV__crt_cached_ptd_host@@AEBQEAD@Z 00000001800ac0b0 f i libucrtd:output.obj
 0001:000ab180       ??$?0AEBV?$stream_output_adapter@D@__crt_stdio_output@@AEB_KAEBQEBDAEAV__crt_cached_ptd_host@@AEBQEAD@?$standard_base@DV?$stream_output_adapter@D@__crt_stdio_output@@@__crt_stdio_output@@IEAA@AEBV?$stream_output_adapter@D@1@AEB_KAEBQEBDAEAV__crt_cached_ptd_host@@AEBQEAD@Z 00000001800ac180 f i libucrtd:output.obj
 0001:000ab200       ??$?0AEBV?$stream_output_adapter@_W@__crt_stdio_output@@AEB_KAEBQEB_WAEAV__crt_cached_ptd_host@@AEBQEAD@?$format_validation_base@_WV?$stream_output_adapter@_W@__crt_stdio_output@@@__crt_stdio_output@@IEAA@AEBV?$stream_output_adapter@_W@1@AEB_KAEBQEB_WAEAV__crt_cached_ptd_host@@AEBQEAD@Z 00000001800ac200 f i libucrtd:output.obj
 0001:000ab270       ??$?0AEBV?$stream_output_adapter@_W@__crt_stdio_output@@AEB_KAEBQEB_WAEAV__crt_cached_ptd_host@@AEBQEAD@?$positional_parameter_base@_WV?$stream_output_adapter@_W@__crt_stdio_output@@@__crt_stdio_output@@IEAA@AEBV?$stream_output_adapter@_W@1@AEB_KAEBQEB_WAEAV__crt_cached_ptd_host@@AEBQEAD@Z 00000001800ac270 f i libucrtd:output.obj
 0001:000ab340       ??$?0AEBV?$stream_output_adapter@_W@__crt_stdio_output@@AEB_KAEBQEB_WAEAV__crt_cached_ptd_host@@AEBQEAD@?$standard_base@_WV?$stream_output_adapter@_W@__crt_stdio_output@@@__crt_stdio_output@@IEAA@AEBV?$stream_output_adapter@_W@1@AEB_KAEBQEB_WAEAV__crt_cached_ptd_host@@AEBQEAD@Z 00000001800ac340 f i libucrtd:output.obj
 0001:000ab3c0       ??$?0AEBV?$string_output_adapter@D@__crt_stdio_output@@AEB_KAEBQEBDAEAV__crt_cached_ptd_host@@AEBQEAD@?$format_validation_base@DV?$string_output_adapter@D@__crt_stdio_output@@@__crt_stdio_output@@IEAA@AEBV?$string_output_adapter@D@1@AEB_KAEBQEBDAEAV__crt_cached_ptd_host@@AEBQEAD@Z 00000001800ac3c0 f i libucrtd:output.obj
 0001:000ab430       ??$?0AEBV?$string_output_adapter@D@__crt_stdio_output@@AEB_KAEBQEBDAEAV__crt_cached_ptd_host@@AEBQEAD@?$positional_parameter_base@DV?$string_output_adapter@D@__crt_stdio_output@@@__crt_stdio_output@@IEAA@AEBV?$string_output_adapter@D@1@AEB_KAEBQEBDAEAV__crt_cached_ptd_host@@AEBQEAD@Z 00000001800ac430 f i libucrtd:output.obj
 0001:000ab500       ??$?0AEBV?$string_output_adapter@D@__crt_stdio_output@@AEB_KAEBQEBDAEAV__crt_cached_ptd_host@@AEBQEAD@?$standard_base@DV?$string_output_adapter@D@__crt_stdio_output@@@__crt_stdio_output@@IEAA@AEBV?$string_output_adapter@D@1@AEB_KAEBQEBDAEAV__crt_cached_ptd_host@@AEBQEAD@Z 00000001800ac500 f i libucrtd:output.obj
 0001:000ab580       ??$?0AEBV?$string_output_adapter@_W@__crt_stdio_output@@AEB_KAEBQEB_WAEAV__crt_cached_ptd_host@@AEBQEAD@?$format_validation_base@_WV?$string_output_adapter@_W@__crt_stdio_output@@@__crt_stdio_output@@IEAA@AEBV?$string_output_adapter@_W@1@AEB_KAEBQEB_WAEAV__crt_cached_ptd_host@@AEBQEAD@Z 00000001800ac580 f i libucrtd:output.obj
 0001:000ab5f0       ??$?0AEBV?$string_output_adapter@_W@__crt_stdio_output@@AEB_KAEBQEB_WAEAV__crt_cached_ptd_host@@AEBQEAD@?$positional_parameter_base@_WV?$string_output_adapter@_W@__crt_stdio_output@@@__crt_stdio_output@@IEAA@AEBV?$string_output_adapter@_W@1@AEB_KAEBQEB_WAEAV__crt_cached_ptd_host@@AEBQEAD@Z 00000001800ac5f0 f i libucrtd:output.obj
 0001:000ab6c0       ??$?0AEBV?$string_output_adapter@_W@__crt_stdio_output@@AEB_KAEBQEB_WAEAV__crt_cached_ptd_host@@AEBQEAD@?$standard_base@_WV?$string_output_adapter@_W@__crt_stdio_output@@@__crt_stdio_output@@IEAA@AEBV?$string_output_adapter@_W@1@AEB_KAEBQEB_WAEAV__crt_cached_ptd_host@@AEBQEAD@Z 00000001800ac6c0 f i libucrtd:output.obj
 0001:000abc80       ??$_tcstol_internal@DPEAPEAD$0A@@@YAJAEAV__crt_cached_ptd_host@@QEBDQEAPEADH@Z 00000001800acc80 f i libucrtd:output.obj
 0001:000abcf0       ??$_tcstol_internal@_WPEAPEA_W$0A@@@YAJAEAV__crt_cached_ptd_host@@QEB_WQEAPEA_WH@Z 00000001800accf0 f i libucrtd:output.obj
 0001:000b0c70       ??$count@D@formatting_buffer@__crt_stdio_output@@QEBA_KXZ 00000001800b1c70 f i libucrtd:output.obj
 0001:000b0cd0       ??$count@_W@formatting_buffer@__crt_stdio_output@@QEBA_KXZ 00000001800b1cd0 f i libucrtd:output.obj
 0001:000b0d40       ??$data@D@formatting_buffer@__crt_stdio_output@@QEAAPEADXZ 00000001800b1d40 f i libucrtd:output.obj
 0001:000b0da0       ??$data@_W@formatting_buffer@__crt_stdio_output@@QEAAPEA_WXZ 00000001800b1da0 f i libucrtd:output.obj
 0001:000b0e00       ??$ensure_buffer_is_big_enough@D@formatting_buffer@__crt_stdio_output@@QEAA_N_KAEAV__crt_cached_ptd_host@@@Z 00000001800b1e00 f i libucrtd:output.obj
 0001:000b0f90       ??$ensure_buffer_is_big_enough@_W@formatting_buffer@__crt_stdio_output@@QEAA_N_KAEAV__crt_cached_ptd_host@@@Z 00000001800b1f90 f i libucrtd:output.obj
 0001:000b1120       ??$extract_argument_from_va_list@C_J@?$positional_parameter_base@DV?$stream_output_adapter@D@__crt_stdio_output@@@__crt_stdio_output@@IEAA_NAEA_J@Z 00000001800b2120 f i libucrtd:output.obj
 0001:000b1350       ??$extract_argument_from_va_list@C_J@?$positional_parameter_base@DV?$string_output_adapter@D@__crt_stdio_output@@@__crt_stdio_output@@IEAA_NAEA_J@Z 00000001800b2350 f i libucrtd:output.obj
 0001:000b1580       ??$extract_argument_from_va_list@C_J@?$positional_parameter_base@_WV?$stream_output_adapter@_W@__crt_stdio_output@@@__crt_stdio_output@@IEAA_NAEA_J@Z 00000001800b2580 f i libucrtd:output.obj
 0001:000b17b0       ??$extract_argument_from_va_list@C_J@?$positional_parameter_base@_WV?$string_output_adapter@_W@__crt_stdio_output@@@__crt_stdio_output@@IEAA_NAEA_J@Z 00000001800b27b0 f i libucrtd:output.obj
 0001:000b19e0       ??$extract_argument_from_va_list@C_J@?$standard_base@DV?$stream_output_adapter@D@__crt_stdio_output@@@__crt_stdio_output@@IEAA_NAEA_J@Z 00000001800b29e0 f i libucrtd:output.obj
 0001:000b1a20       ??$extract_argument_from_va_list@C_J@?$standard_base@DV?$string_output_adapter@D@__crt_stdio_output@@@__crt_stdio_output@@IEAA_NAEA_J@Z 00000001800b2a20 f i libucrtd:output.obj
 0001:000b1a60       ??$extract_argument_from_va_list@C_J@?$standard_base@_WV?$stream_output_adapter@_W@__crt_stdio_output@@@__crt_stdio_output@@IEAA_NAEA_J@Z 00000001800b2a60 f i libucrtd:output.obj
 0001:000b1aa0       ??$extract_argument_from_va_list@C_J@?$standard_base@_WV?$string_output_adapter@_W@__crt_stdio_output@@@__crt_stdio_output@@IEAA_NAEA_J@Z 00000001800b2aa0 f i libucrtd:output.obj
 0001:000b1ae0       ??$extract_argument_from_va_list@E_J@?$positional_parameter_base@DV?$stream_output_adapter@D@__crt_stdio_output@@@__crt_stdio_output@@IEAA_NAEA_J@Z 00000001800b2ae0 f i libucrtd:output.obj
 0001:000b1d10       ??$extract_argument_from_va_list@E_J@?$positional_parameter_base@DV?$string_output_adapter@D@__crt_stdio_output@@@__crt_stdio_output@@IEAA_NAEA_J@Z 00000001800b2d10 f i libucrtd:output.obj
 0001:000b1f40       ??$extract_argument_from_va_list@E_J@?$positional_parameter_base@_WV?$stream_output_adapter@_W@__crt_stdio_output@@@__crt_stdio_output@@IEAA_NAEA_J@Z 00000001800b2f40 f i libucrtd:output.obj
 0001:000b2170       ??$extract_argument_from_va_list@E_J@?$positional_parameter_base@_WV?$string_output_adapter@_W@__crt_stdio_output@@@__crt_stdio_output@@IEAA_NAEA_J@Z 00000001800b3170 f i libucrtd:output.obj
 0001:000b23a0       ??$extract_argument_from_va_list@E_J@?$standard_base@DV?$stream_output_adapter@D@__crt_stdio_output@@@__crt_stdio_output@@IEAA_NAEA_J@Z 00000001800b33a0 f i libucrtd:output.obj
 0001:000b23e0       ??$extract_argument_from_va_list@E_J@?$standard_base@DV?$string_output_adapter@D@__crt_stdio_output@@@__crt_stdio_output@@IEAA_NAEA_J@Z 00000001800b33e0 f i libucrtd:output.obj
 0001:000b2420       ??$extract_argument_from_va_list@E_J@?$standard_base@_WV?$stream_output_adapter@_W@__crt_stdio_output@@@__crt_stdio_output@@IEAA_NAEA_J@Z 00000001800b3420 f i libucrtd:output.obj
 0001:000b2460       ??$extract_argument_from_va_list@E_J@?$standard_base@_WV?$string_output_adapter@_W@__crt_stdio_output@@@__crt_stdio_output@@IEAA_NAEA_J@Z 00000001800b3460 f i libucrtd:output.obj
 0001:000b24a0       ??$extract_argument_from_va_list@F_J@?$positional_parameter_base@DV?$stream_output_adapter@D@__crt_stdio_output@@@__crt_stdio_output@@IEAA_NAEA_J@Z 00000001800b34a0 f i libucrtd:output.obj
 0001:000b26d0       ??$extract_argument_from_va_list@F_J@?$positional_parameter_base@DV?$string_output_adapter@D@__crt_stdio_output@@@__crt_stdio_output@@IEAA_NAEA_J@Z 00000001800b36d0 f i libucrtd:output.obj
 0001:000b2900       ??$extract_argument_from_va_list@F_J@?$positional_parameter_base@_WV?$stream_output_adapter@_W@__crt_stdio_output@@@__crt_stdio_output@@IEAA_NAEA_J@Z 00000001800b3900 f i libucrtd:output.obj
 0001:000b2b30       ??$extract_argument_from_va_list@F_J@?$positional_parameter_base@_WV?$string_output_adapter@_W@__crt_stdio_output@@@__crt_stdio_output@@IEAA_NAEA_J@Z 00000001800b3b30 f i libucrtd:output.obj
 0001:000b2d60       ??$extract_argument_from_va_list@F_J@?$standard_base@DV?$stream_output_adapter@D@__crt_stdio_output@@@__crt_stdio_output@@IEAA_NAEA_J@Z 00000001800b3d60 f i libucrtd:output.obj
 0001:000b2da0       ??$extract_argument_from_va_list@F_J@?$standard_base@DV?$string_output_adapter@D@__crt_stdio_output@@@__crt_stdio_output@@IEAA_NAEA_J@Z 00000001800b3da0 f i libucrtd:output.obj
 0001:000b2de0       ??$extract_argument_from_va_list@F_J@?$standard_base@_WV?$stream_output_adapter@_W@__crt_stdio_output@@@__crt_stdio_output@@IEAA_NAEA_J@Z 00000001800b3de0 f i libucrtd:output.obj
 0001:000b2e20       ??$extract_argument_from_va_list@F_J@?$standard_base@_WV?$string_output_adapter@_W@__crt_stdio_output@@@__crt_stdio_output@@IEAA_NAEA_J@Z 00000001800b3e20 f i libucrtd:output.obj
 0001:000b2e60       ??$extract_argument_from_va_list@GD@?$positional_parameter_base@DV?$stream_output_adapter@D@__crt_stdio_output@@@__crt_stdio_output@@IEAA_NAEAD@Z 00000001800b3e60 f i libucrtd:output.obj
 0001:000b3090       ??$extract_argument_from_va_list@GD@?$positional_parameter_base@DV?$string_output_adapter@D@__crt_stdio_output@@@__crt_stdio_output@@IEAA_NAEAD@Z 00000001800b4090 f i libucrtd:output.obj
 0001:000b32c0       ??$extract_argument_from_va_list@GD@?$standard_base@DV?$stream_output_adapter@D@__crt_stdio_output@@@__crt_stdio_output@@IEAA_NAEAD@Z 00000001800b42c0 f i libucrtd:output.obj
 0001:000b3300       ??$extract_argument_from_va_list@GD@?$standard_base@DV?$string_output_adapter@D@__crt_stdio_output@@@__crt_stdio_output@@IEAA_NAEAD@Z 00000001800b4300 f i libucrtd:output.obj
 0001:000b3340       ??$extract_argument_from_va_list@G_J@?$positional_parameter_base@DV?$stream_output_adapter@D@__crt_stdio_output@@@__crt_stdio_output@@IEAA_NAEA_J@Z 00000001800b4340 f i libucrtd:output.obj
 0001:000b3570       ??$extract_argument_from_va_list@G_J@?$positional_parameter_base@DV?$string_output_adapter@D@__crt_stdio_output@@@__crt_stdio_output@@IEAA_NAEA_J@Z 00000001800b4570 f i libucrtd:output.obj
 0001:000b37a0       ??$extract_argument_from_va_list@G_J@?$positional_parameter_base@_WV?$stream_output_adapter@_W@__crt_stdio_output@@@__crt_stdio_output@@IEAA_NAEA_J@Z 00000001800b47a0 f i libucrtd:output.obj
 0001:000b39d0       ??$extract_argument_from_va_list@G_J@?$positional_parameter_base@_WV?$string_output_adapter@_W@__crt_stdio_output@@@__crt_stdio_output@@IEAA_NAEA_J@Z 00000001800b49d0 f i libucrtd:output.obj
 0001:000b3c00       ??$extract_argument_from_va_list@G_J@?$standard_base@DV?$stream_output_adapter@D@__crt_stdio_output@@@__crt_stdio_output@@IEAA_NAEA_J@Z 00000001800b4c00 f i libucrtd:output.obj
 0001:000b3c40       ??$extract_argument_from_va_list@G_J@?$standard_base@DV?$string_output_adapter@D@__crt_stdio_output@@@__crt_stdio_output@@IEAA_NAEA_J@Z 00000001800b4c40 f i libucrtd:output.obj
 0001:000b3c80       ??$extract_argument_from_va_list@G_J@?$standard_base@_WV?$stream_output_adapter@_W@__crt_stdio_output@@@__crt_stdio_output@@IEAA_NAEA_J@Z 00000001800b4c80 f i libucrtd:output.obj
 0001:000b3cc0       ??$extract_argument_from_va_list@G_J@?$standard_base@_WV?$string_output_adapter@_W@__crt_stdio_output@@@__crt_stdio_output@@IEAA_NAEA_J@Z 00000001800b4cc0 f i libucrtd:output.obj
 0001:000b3d00       ??$extract_argument_from_va_list@H_J@?$positional_parameter_base@DV?$stream_output_adapter@D@__crt_stdio_output@@@__crt_stdio_output@@IEAA_NAEA_J@Z 00000001800b4d00 f i libucrtd:output.obj
 0001:000b3f30       ??$extract_argument_from_va_list@H_J@?$positional_parameter_base@DV?$string_output_adapter@D@__crt_stdio_output@@@__crt_stdio_output@@IEAA_NAEA_J@Z 00000001800b4f30 f i libucrtd:output.obj
 0001:000b4160       ??$extract_argument_from_va_list@H_J@?$positional_parameter_base@_WV?$stream_output_adapter@_W@__crt_stdio_output@@@__crt_stdio_output@@IEAA_NAEA_J@Z 00000001800b5160 f i libucrtd:output.obj
 0001:000b4390       ??$extract_argument_from_va_list@H_J@?$positional_parameter_base@_WV?$string_output_adapter@_W@__crt_stdio_output@@@__crt_stdio_output@@IEAA_NAEA_J@Z 00000001800b5390 f i libucrtd:output.obj
 0001:000b45c0       ??$extract_argument_from_va_list@H_J@?$standard_base@DV?$stream_output_adapter@D@__crt_stdio_output@@@__crt_stdio_output@@IEAA_NAEA_J@Z 00000001800b55c0 f i libucrtd:output.obj
 0001:000b4600       ??$extract_argument_from_va_list@H_J@?$standard_base@DV?$string_output_adapter@D@__crt_stdio_output@@@__crt_stdio_output@@IEAA_NAEA_J@Z 00000001800b5600 f i libucrtd:output.obj
 0001:000b4640       ??$extract_argument_from_va_list@H_J@?$standard_base@_WV?$stream_output_adapter@_W@__crt_stdio_output@@@__crt_stdio_output@@IEAA_NAEA_J@Z 00000001800b5640 f i libucrtd:output.obj
 0001:000b4680       ??$extract_argument_from_va_list@H_J@?$standard_base@_WV?$string_output_adapter@_W@__crt_stdio_output@@@__crt_stdio_output@@IEAA_NAEA_J@Z 00000001800b5680 f i libucrtd:output.obj
 0001:000b46c0       ??$extract_argument_from_va_list@I_J@?$positional_parameter_base@DV?$stream_output_adapter@D@__crt_stdio_output@@@__crt_stdio_output@@IEAA_NAEA_J@Z 00000001800b56c0 f i libucrtd:output.obj
 0001:000b48f0       ??$extract_argument_from_va_list@I_J@?$positional_parameter_base@DV?$string_output_adapter@D@__crt_stdio_output@@@__crt_stdio_output@@IEAA_NAEA_J@Z 00000001800b58f0 f i libucrtd:output.obj
 0001:000b4b20       ??$extract_argument_from_va_list@I_J@?$positional_parameter_base@_WV?$stream_output_adapter@_W@__crt_stdio_output@@@__crt_stdio_output@@IEAA_NAEA_J@Z 00000001800b5b20 f i libucrtd:output.obj
 0001:000b4d50       ??$extract_argument_from_va_list@I_J@?$positional_parameter_base@_WV?$string_output_adapter@_W@__crt_stdio_output@@@__crt_stdio_output@@IEAA_NAEA_J@Z 00000001800b5d50 f i libucrtd:output.obj
 0001:000b4f80       ??$extract_argument_from_va_list@I_J@?$standard_base@DV?$stream_output_adapter@D@__crt_stdio_output@@@__crt_stdio_output@@IEAA_NAEA_J@Z 00000001800b5f80 f i libucrtd:output.obj
 0001:000b4fc0       ??$extract_argument_from_va_list@I_J@?$standard_base@DV?$string_output_adapter@D@__crt_stdio_output@@@__crt_stdio_output@@IEAA_NAEA_J@Z 00000001800b5fc0 f i libucrtd:output.obj
 0001:000b5000       ??$extract_argument_from_va_list@I_J@?$standard_base@_WV?$stream_output_adapter@_W@__crt_stdio_output@@@__crt_stdio_output@@IEAA_NAEA_J@Z 00000001800b6000 f i libucrtd:output.obj
 0001:000b5040       ??$extract_argument_from_va_list@I_J@?$standard_base@_WV?$string_output_adapter@_W@__crt_stdio_output@@@__crt_stdio_output@@IEAA_NAEA_J@Z 00000001800b6040 f i libucrtd:output.obj
 0001:000b5080       ??$extract_argument_from_va_list@PEADPEAD@?$positional_parameter_base@DV?$stream_output_adapter@D@__crt_stdio_output@@@__crt_stdio_output@@IEAA_NAEAPEAD@Z 00000001800b6080 f i libucrtd:output.obj
 0001:000b52b0       ??$extract_argument_from_va_list@PEADPEAD@?$positional_parameter_base@DV?$string_output_adapter@D@__crt_stdio_output@@@__crt_stdio_output@@IEAA_NAEAPEAD@Z 00000001800b62b0 f i libucrtd:output.obj
 0001:000b54e0       ??$extract_argument_from_va_list@PEADPEAD@?$positional_parameter_base@_WV?$stream_output_adapter@_W@__crt_stdio_output@@@__crt_stdio_output@@IEAA_NAEAPEAD@Z 00000001800b64e0 f i libucrtd:output.obj
 0001:000b5710       ??$extract_argument_from_va_list@PEADPEAD@?$positional_parameter_base@_WV?$string_output_adapter@_W@__crt_stdio_output@@@__crt_stdio_output@@IEAA_NAEAPEAD@Z 00000001800b6710 f i libucrtd:output.obj
 0001:000b5940       ??$extract_argument_from_va_list@PEADPEAD@?$standard_base@DV?$stream_output_adapter@D@__crt_stdio_output@@@__crt_stdio_output@@IEAA_NAEAPEAD@Z 00000001800b6940 f i libucrtd:output.obj
 0001:000b5980       ??$extract_argument_from_va_list@PEADPEAD@?$standard_base@DV?$string_output_adapter@D@__crt_stdio_output@@@__crt_stdio_output@@IEAA_NAEAPEAD@Z 00000001800b6980 f i libucrtd:output.obj
 0001:000b59c0       ??$extract_argument_from_va_list@PEADPEAD@?$standard_base@_WV?$stream_output_adapter@_W@__crt_stdio_output@@@__crt_stdio_output@@IEAA_NAEAPEAD@Z 00000001800b69c0 f i libucrtd:output.obj
 0001:000b5a00       ??$extract_argument_from_va_list@PEADPEAD@?$standard_base@_WV?$string_output_adapter@_W@__crt_stdio_output@@@__crt_stdio_output@@IEAA_NAEAPEAD@Z 00000001800b6a00 f i libucrtd:output.obj
 0001:000b5a40       ??$extract_argument_from_va_list@PEAUansi_string@?1??type_case_Z@?$output_processor@DV?$stream_output_adapter@D@__crt_stdio_output@@V?$format_validation_base@DV?$stream_output_adapter@D@__crt_stdio_output@@@2@@__crt_stdio_output@@AEAA_NXZ@PEAU1?1??234@AEAA_NXZ@@?$standard_base@DV?$stream_output_adapter@D@__crt_stdio_output@@@__crt_stdio_output@@IEAA_NAEAPEAUansi_string@?1??type_case_Z@?$output_processor@DV?$stream_output_adapter@D@__crt_stdio_output@@V?$format_validation_base@DV?$stream_output_adapter@D@__crt_stdio_output@@@2@@1@AEAA_NXZ@@Z 00000001800b6a40 f i libucrtd:output.obj
 0001:000b5a80       ??$extract_argument_from_va_list@PEAUansi_string@?1??type_case_Z@?$output_processor@DV?$stream_output_adapter@D@__crt_stdio_output@@V?$positional_parameter_base@DV?$stream_output_adapter@D@__crt_stdio_output@@@2@@__crt_stdio_output@@AEAA_NXZ@PEAU1?1??234@AEAA_NXZ@@?$positional_parameter_base@DV?$stream_output_adapter@D@__crt_stdio_output@@@__crt_stdio_output@@IEAA_NAEAPEAUansi_string@?1??type_case_Z@?$output_processor@DV?$stream_output_adapter@D@__crt_stdio_output@@V?$positional_parameter_base@DV?$stream_output_adapter@D@__crt_stdio_output@@@2@@1@AEAA_NXZ@@Z 00000001800b6a80 f i libucrtd:output.obj
 0001:000b5cb0       ??$extract_argument_from_va_list@PEAUansi_string@?1??type_case_Z@?$output_processor@DV?$stream_output_adapter@D@__crt_stdio_output@@V?$positional_parameter_base@DV?$stream_output_adapter@D@__crt_stdio_output@@@2@@__crt_stdio_output@@AEAA_NXZ@PEAU1?1??234@AEAA_NXZ@@?$standard_base@DV?$stream_output_adapter@D@__crt_stdio_output@@@__crt_stdio_output@@IEAA_NAEAPEAUansi_string@?1??type_case_Z@?$output_processor@DV?$stream_output_adapter@D@__crt_stdio_output@@V?$positional_parameter_base@DV?$stream_output_adapter@D@__crt_stdio_output@@@2@@1@AEAA_NXZ@@Z 00000001800b6cb0 f i libucrtd:output.obj
 0001:000b5cf0       ??$extract_argument_from_va_list@PEAUansi_string@?1??type_case_Z@?$output_processor@DV?$stream_output_adapter@D@__crt_stdio_output@@V?$standard_base@DV?$stream_output_adapter@D@__crt_stdio_output@@@2@@__crt_stdio_output@@AEAA_NXZ@PEAU1?1??234@AEAA_NXZ@@?$standard_base@DV?$stream_output_adapter@D@__crt_stdio_output@@@__crt_stdio_output@@IEAA_NAEAPEAUansi_string@?1??type_case_Z@?$output_processor@DV?$stream_output_adapter@D@__crt_stdio_output@@V?$standard_base@DV?$stream_output_adapter@D@__crt_stdio_output@@@2@@1@AEAA_NXZ@@Z 00000001800b6cf0 f i libucrtd:output.obj
 0001:000b5d30       ??$extract_argument_from_va_list@PEAUansi_string@?1??type_case_Z@?$output_processor@DV?$string_output_adapter@D@__crt_stdio_output@@V?$format_validation_base@DV?$string_output_adapter@D@__crt_stdio_output@@@2@@__crt_stdio_output@@AEAA_NXZ@PEAU1?1??234@AEAA_NXZ@@?$standard_base@DV?$string_output_adapter@D@__crt_stdio_output@@@__crt_stdio_output@@IEAA_NAEAPEAUansi_string@?1??type_case_Z@?$output_processor@DV?$string_output_adapter@D@__crt_stdio_output@@V?$format_validation_base@DV?$string_output_adapter@D@__crt_stdio_output@@@2@@1@AEAA_NXZ@@Z 00000001800b6d30 f i libucrtd:output.obj
 0001:000b5d70       ??$extract_argument_from_va_list@PEAUansi_string@?1??type_case_Z@?$output_processor@DV?$string_output_adapter@D@__crt_stdio_output@@V?$positional_parameter_base@DV?$string_output_adapter@D@__crt_stdio_output@@@2@@__crt_stdio_output@@AEAA_NXZ@PEAU1?1??234@AEAA_NXZ@@?$positional_parameter_base@DV?$string_output_adapter@D@__crt_stdio_output@@@__crt_stdio_output@@IEAA_NAEAPEAUansi_string@?1??type_case_Z@?$output_processor@DV?$string_output_adapter@D@__crt_stdio_output@@V?$positional_parameter_base@DV?$string_output_adapter@D@__crt_stdio_output@@@2@@1@AEAA_NXZ@@Z 00000001800b6d70 f i libucrtd:output.obj
 0001:000b5fa0       ??$extract_argument_from_va_list@PEAUansi_string@?1??type_case_Z@?$output_processor@DV?$string_output_adapter@D@__crt_stdio_output@@V?$positional_parameter_base@DV?$string_output_adapter@D@__crt_stdio_output@@@2@@__crt_stdio_output@@AEAA_NXZ@PEAU1?1??234@AEAA_NXZ@@?$standard_base@DV?$string_output_adapter@D@__crt_stdio_output@@@__crt_stdio_output@@IEAA_NAEAPEAUansi_string@?1??type_case_Z@?$output_processor@DV?$string_output_adapter@D@__crt_stdio_output@@V?$positional_parameter_base@DV?$string_output_adapter@D@__crt_stdio_output@@@2@@1@AEAA_NXZ@@Z 00000001800b6fa0 f i libucrtd:output.obj
 0001:000b5fe0       ??$extract_argument_from_va_list@PEAUansi_string@?1??type_case_Z@?$output_processor@DV?$string_output_adapter@D@__crt_stdio_output@@V?$standard_base@DV?$string_output_adapter@D@__crt_stdio_output@@@2@@__crt_stdio_output@@AEAA_NXZ@PEAU1?1??234@AEAA_NXZ@@?$standard_base@DV?$string_output_adapter@D@__crt_stdio_output@@@__crt_stdio_output@@IEAA_NAEAPEAUansi_string@?1??type_case_Z@?$output_processor@DV?$string_output_adapter@D@__crt_stdio_output@@V?$standard_base@DV?$string_output_adapter@D@__crt_stdio_output@@@2@@1@AEAA_NXZ@@Z 00000001800b6fe0 f i libucrtd:output.obj
 0001:000b6020       ??$extract_argument_from_va_list@PEAUansi_string@?1??type_case_Z@?$output_processor@_WV?$stream_output_adapter@_W@__crt_stdio_output@@V?$format_validation_base@_WV?$stream_output_adapter@_W@__crt_stdio_output@@@2@@__crt_stdio_output@@AEAA_NXZ@PEAU1?1??234@AEAA_NXZ@@?$standard_base@_WV?$stream_output_adapter@_W@__crt_stdio_output@@@__crt_stdio_output@@IEAA_NAEAPEAUansi_string@?1??type_case_Z@?$output_processor@_WV?$stream_output_adapter@_W@__crt_stdio_output@@V?$format_validation_base@_WV?$stream_output_adapter@_W@__crt_stdio_output@@@2@@1@AEAA_NXZ@@Z 00000001800b7020 f i libucrtd:output.obj
 0001:000b6060       ??$extract_argument_from_va_list@PEAUansi_string@?1??type_case_Z@?$output_processor@_WV?$stream_output_adapter@_W@__crt_stdio_output@@V?$positional_parameter_base@_WV?$stream_output_adapter@_W@__crt_stdio_output@@@2@@__crt_stdio_output@@AEAA_NXZ@PEAU1?1??234@AEAA_NXZ@@?$positional_parameter_base@_WV?$stream_output_adapter@_W@__crt_stdio_output@@@__crt_stdio_output@@IEAA_NAEAPEAUansi_string@?1??type_case_Z@?$output_processor@_WV?$stream_output_adapter@_W@__crt_stdio_output@@V?$positional_parameter_base@_WV?$stream_output_adapter@_W@__crt_stdio_output@@@2@@1@AEAA_NXZ@@Z 00000001800b7060 f i libucrtd:output.obj
 0001:000b6290       ??$extract_argument_from_va_list@PEAUansi_string@?1??type_case_Z@?$output_processor@_WV?$stream_output_adapter@_W@__crt_stdio_output@@V?$positional_parameter_base@_WV?$stream_output_adapter@_W@__crt_stdio_output@@@2@@__crt_stdio_output@@AEAA_NXZ@PEAU1?1??234@AEAA_NXZ@@?$standard_base@_WV?$stream_output_adapter@_W@__crt_stdio_output@@@__crt_stdio_output@@IEAA_NAEAPEAUansi_string@?1??type_case_Z@?$output_processor@_WV?$stream_output_adapter@_W@__crt_stdio_output@@V?$positional_parameter_base@_WV?$stream_output_adapter@_W@__crt_stdio_output@@@2@@1@AEAA_NXZ@@Z 00000001800b7290 f i libucrtd:output.obj
 0001:000b62d0       ??$extract_argument_from_va_list@PEAUansi_string@?1??type_case_Z@?$output_processor@_WV?$stream_output_adapter@_W@__crt_stdio_output@@V?$standard_base@_WV?$stream_output_adapter@_W@__crt_stdio_output@@@2@@__crt_stdio_output@@AEAA_NXZ@PEAU1?1??234@AEAA_NXZ@@?$standard_base@_WV?$stream_output_adapter@_W@__crt_stdio_output@@@__crt_stdio_output@@IEAA_NAEAPEAUansi_string@?1??type_case_Z@?$output_processor@_WV?$stream_output_adapter@_W@__crt_stdio_output@@V?$standard_base@_WV?$stream_output_adapter@_W@__crt_stdio_output@@@2@@1@AEAA_NXZ@@Z 00000001800b72d0 f i libucrtd:output.obj
 0001:000b6310       ??$extract_argument_from_va_list@PEAUansi_string@?1??type_case_Z@?$output_processor@_WV?$string_output_adapter@_W@__crt_stdio_output@@V?$format_validation_base@_WV?$string_output_adapter@_W@__crt_stdio_output@@@2@@__crt_stdio_output@@AEAA_NXZ@PEAU1?1??234@AEAA_NXZ@@?$standard_base@_WV?$string_output_adapter@_W@__crt_stdio_output@@@__crt_stdio_output@@IEAA_NAEAPEAUansi_string@?1??type_case_Z@?$output_processor@_WV?$string_output_adapter@_W@__crt_stdio_output@@V?$format_validation_base@_WV?$string_output_adapter@_W@__crt_stdio_output@@@2@@1@AEAA_NXZ@@Z 00000001800b7310 f i libucrtd:output.obj
 0001:000b6350       ??$extract_argument_from_va_list@PEAUansi_string@?1??type_case_Z@?$output_processor@_WV?$string_output_adapter@_W@__crt_stdio_output@@V?$positional_parameter_base@_WV?$string_output_adapter@_W@__crt_stdio_output@@@2@@__crt_stdio_output@@AEAA_NXZ@PEAU1?1??234@AEAA_NXZ@@?$positional_parameter_base@_WV?$string_output_adapter@_W@__crt_stdio_output@@@__crt_stdio_output@@IEAA_NAEAPEAUansi_string@?1??type_case_Z@?$output_processor@_WV?$string_output_adapter@_W@__crt_stdio_output@@V?$positional_parameter_base@_WV?$string_output_adapter@_W@__crt_stdio_output@@@2@@1@AEAA_NXZ@@Z 00000001800b7350 f i libucrtd:output.obj
 0001:000b6580       ??$extract_argument_from_va_list@PEAUansi_string@?1??type_case_Z@?$output_processor@_WV?$string_output_adapter@_W@__crt_stdio_output@@V?$positional_parameter_base@_WV?$string_output_adapter@_W@__crt_stdio_output@@@2@@__crt_stdio_output@@AEAA_NXZ@PEAU1?1??234@AEAA_NXZ@@?$standard_base@_WV?$string_output_adapter@_W@__crt_stdio_output@@@__crt_stdio_output@@IEAA_NAEAPEAUansi_string@?1??type_case_Z@?$output_processor@_WV?$string_output_adapter@_W@__crt_stdio_output@@V?$positional_parameter_base@_WV?$string_output_adapter@_W@__crt_stdio_output@@@2@@1@AEAA_NXZ@@Z 00000001800b7580 f i libucrtd:output.obj
 0001:000b65c0       ??$extract_argument_from_va_list@PEAUansi_string@?1??type_case_Z@?$output_processor@_WV?$string_output_adapter@_W@__crt_stdio_output@@V?$standard_base@_WV?$string_output_adapter@_W@__crt_stdio_output@@@2@@__crt_stdio_output@@AEAA_NXZ@PEAU1?1??234@AEAA_NXZ@@?$standard_base@_WV?$string_output_adapter@_W@__crt_stdio_output@@@__crt_stdio_output@@IEAA_NAEAPEAUansi_string@?1??type_case_Z@?$output_processor@_WV?$string_output_adapter@_W@__crt_stdio_output@@V?$standard_base@_WV?$string_output_adapter@_W@__crt_stdio_output@@@2@@1@AEAA_NXZ@@Z 00000001800b75c0 f i libucrtd:output.obj
 0001:000b6600       ??$extract_argument_from_va_list@PEAXPEAX@?$positional_parameter_base@DV?$stream_output_adapter@D@__crt_stdio_output@@@__crt_stdio_output@@IEAA_NAEAPEAX@Z 00000001800b7600 f i libucrtd:output.obj
 0001:000b6830       ??$extract_argument_from_va_list@PEAXPEAX@?$positional_parameter_base@DV?$string_output_adapter@D@__crt_stdio_output@@@__crt_stdio_output@@IEAA_NAEAPEAX@Z 00000001800b7830 f i libucrtd:output.obj
 0001:000b6a60       ??$extract_argument_from_va_list@PEAXPEAX@?$positional_parameter_base@_WV?$stream_output_adapter@_W@__crt_stdio_output@@@__crt_stdio_output@@IEAA_NAEAPEAX@Z 00000001800b7a60 f i libucrtd:output.obj
 0001:000b6c90       ??$extract_argument_from_va_list@PEAXPEAX@?$positional_parameter_base@_WV?$string_output_adapter@_W@__crt_stdio_output@@@__crt_stdio_output@@IEAA_NAEAPEAX@Z 00000001800b7c90 f i libucrtd:output.obj
 0001:000b6ec0       ??$extract_argument_from_va_list@PEAXPEAX@?$standard_base@DV?$stream_output_adapter@D@__crt_stdio_output@@@__crt_stdio_output@@IEAA_NAEAPEAX@Z 00000001800b7ec0 f i libucrtd:output.obj
 0001:000b6f00       ??$extract_argument_from_va_list@PEAXPEAX@?$standard_base@DV?$string_output_adapter@D@__crt_stdio_output@@@__crt_stdio_output@@IEAA_NAEAPEAX@Z 00000001800b7f00 f i libucrtd:output.obj
 0001:000b6f40       ??$extract_argument_from_va_list@PEAXPEAX@?$standard_base@_WV?$stream_output_adapter@_W@__crt_stdio_output@@@__crt_stdio_output@@IEAA_NAEAPEAX@Z 00000001800b7f40 f i libucrtd:output.obj
 0001:000b6f80       ??$extract_argument_from_va_list@PEAXPEAX@?$standard_base@_WV?$string_output_adapter@_W@__crt_stdio_output@@@__crt_stdio_output@@IEAA_NAEAPEAX@Z 00000001800b7f80 f i libucrtd:output.obj
 0001:000b6fc0       ??$extract_argument_from_va_list@U_CRT_DOUBLE@@U1@@?$positional_parameter_base@DV?$stream_output_adapter@D@__crt_stdio_output@@@__crt_stdio_output@@IEAA_NAEAU_CRT_DOUBLE@@@Z 00000001800b7fc0 f i libucrtd:output.obj
 0001:000b7260       ??$extract_argument_from_va_list@U_CRT_DOUBLE@@U1@@?$positional_parameter_base@DV?$string_output_adapter@D@__crt_stdio_output@@@__crt_stdio_output@@IEAA_NAEAU_CRT_DOUBLE@@@Z 00000001800b8260 f i libucrtd:output.obj
 0001:000b7500       ??$extract_argument_from_va_list@U_CRT_DOUBLE@@U1@@?$positional_parameter_base@_WV?$stream_output_adapter@_W@__crt_stdio_output@@@__crt_stdio_output@@IEAA_NAEAU_CRT_DOUBLE@@@Z 00000001800b8500 f i libucrtd:output.obj
 0001:000b77a0       ??$extract_argument_from_va_list@U_CRT_DOUBLE@@U1@@?$positional_parameter_base@_WV?$string_output_adapter@_W@__crt_stdio_output@@@__crt_stdio_output@@IEAA_NAEAU_CRT_DOUBLE@@@Z 00000001800b87a0 f i libucrtd:output.obj
 0001:000b7a40       ??$extract_argument_from_va_list@U_CRT_DOUBLE@@U1@@?$standard_base@DV?$stream_output_adapter@D@__crt_stdio_output@@@__crt_stdio_output@@IEAA_NAEAU_CRT_DOUBLE@@@Z 00000001800b8a40 f i libucrtd:output.obj
 0001:000b7aa0       ??$extract_argument_from_va_list@U_CRT_DOUBLE@@U1@@?$standard_base@DV?$string_output_adapter@D@__crt_stdio_output@@@__crt_stdio_output@@IEAA_NAEAU_CRT_DOUBLE@@@Z 00000001800b8aa0 f i libucrtd:output.obj
 0001:000b7b00       ??$extract_argument_from_va_list@U_CRT_DOUBLE@@U1@@?$standard_base@_WV?$stream_output_adapter@_W@__crt_stdio_output@@@__crt_stdio_output@@IEAA_NAEAU_CRT_DOUBLE@@@Z 00000001800b8b00 f i libucrtd:output.obj
 0001:000b7b60       ??$extract_argument_from_va_list@U_CRT_DOUBLE@@U1@@?$standard_base@_WV?$string_output_adapter@_W@__crt_stdio_output@@@__crt_stdio_output@@IEAA_NAEAU_CRT_DOUBLE@@@Z 00000001800b8b60 f i libucrtd:output.obj
 0001:000b7bc0       ??$extract_argument_from_va_list@_J_J@?$positional_parameter_base@DV?$stream_output_adapter@D@__crt_stdio_output@@@__crt_stdio_output@@IEAA_NAEA_J@Z 00000001800b8bc0 f i libucrtd:output.obj
 0001:000b7df0       ??$extract_argument_from_va_list@_J_J@?$positional_parameter_base@DV?$string_output_adapter@D@__crt_stdio_output@@@__crt_stdio_output@@IEAA_NAEA_J@Z 00000001800b8df0 f i libucrtd:output.obj
 0001:000b8020       ??$extract_argument_from_va_list@_J_J@?$positional_parameter_base@_WV?$stream_output_adapter@_W@__crt_stdio_output@@@__crt_stdio_output@@IEAA_NAEA_J@Z 00000001800b9020 f i libucrtd:output.obj
 0001:000b8250       ??$extract_argument_from_va_list@_J_J@?$positional_parameter_base@_WV?$string_output_adapter@_W@__crt_stdio_output@@@__crt_stdio_output@@IEAA_NAEA_J@Z 00000001800b9250 f i libucrtd:output.obj
 0001:000b8480       ??$extract_argument_from_va_list@_J_J@?$standard_base@DV?$stream_output_adapter@D@__crt_stdio_output@@@__crt_stdio_output@@IEAA_NAEA_J@Z 00000001800b9480 f i libucrtd:output.obj
 0001:000b84c0       ??$extract_argument_from_va_list@_J_J@?$standard_base@DV?$string_output_adapter@D@__crt_stdio_output@@@__crt_stdio_output@@IEAA_NAEA_J@Z 00000001800b94c0 f i libucrtd:output.obj
 0001:000b8500       ??$extract_argument_from_va_list@_J_J@?$standard_base@_WV?$stream_output_adapter@_W@__crt_stdio_output@@@__crt_stdio_output@@IEAA_NAEA_J@Z 00000001800b9500 f i libucrtd:output.obj
 0001:000b8540       ??$extract_argument_from_va_list@_J_J@?$standard_base@_WV?$string_output_adapter@_W@__crt_stdio_output@@@__crt_stdio_output@@IEAA_NAEA_J@Z 00000001800b9540 f i libucrtd:output.obj
 0001:000b8580       ??$extract_argument_from_va_list@_K_J@?$positional_parameter_base@DV?$stream_output_adapter@D@__crt_stdio_output@@@__crt_stdio_output@@IEAA_NAEA_J@Z 00000001800b9580 f i libucrtd:output.obj
 0001:000b87b0       ??$extract_argument_from_va_list@_K_J@?$positional_parameter_base@DV?$string_output_adapter@D@__crt_stdio_output@@@__crt_stdio_output@@IEAA_NAEA_J@Z 00000001800b97b0 f i libucrtd:output.obj
 0001:000b89e0       ??$extract_argument_from_va_list@_K_J@?$positional_parameter_base@_WV?$stream_output_adapter@_W@__crt_stdio_output@@@__crt_stdio_output@@IEAA_NAEA_J@Z 00000001800b99e0 f i libucrtd:output.obj
 0001:000b8c10       ??$extract_argument_from_va_list@_K_J@?$positional_parameter_base@_WV?$string_output_adapter@_W@__crt_stdio_output@@@__crt_stdio_output@@IEAA_NAEA_J@Z 00000001800b9c10 f i libucrtd:output.obj
 0001:000b8e40       ??$extract_argument_from_va_list@_K_J@?$standard_base@DV?$stream_output_adapter@D@__crt_stdio_output@@@__crt_stdio_output@@IEAA_NAEA_J@Z 00000001800b9e40 f i libucrtd:output.obj
 0001:000b8e80       ??$extract_argument_from_va_list@_K_J@?$standard_base@DV?$string_output_adapter@D@__crt_stdio_output@@@__crt_stdio_output@@IEAA_NAEA_J@Z 00000001800b9e80 f i libucrtd:output.obj
 0001:000b8ec0       ??$extract_argument_from_va_list@_K_J@?$standard_base@_WV?$stream_output_adapter@_W@__crt_stdio_output@@@__crt_stdio_output@@IEAA_NAEA_J@Z 00000001800b9ec0 f i libucrtd:output.obj
 0001:000b8f00       ??$extract_argument_from_va_list@_K_J@?$standard_base@_WV?$string_output_adapter@_W@__crt_stdio_output@@@__crt_stdio_output@@IEAA_NAEA_J@Z 00000001800b9f00 f i libucrtd:output.obj
 0001:000b8f40       ??$extract_argument_from_va_list@_W_W@?$positional_parameter_base@DV?$stream_output_adapter@D@__crt_stdio_output@@@__crt_stdio_output@@IEAA_NAEA_W@Z 00000001800b9f40 f i libucrtd:output.obj
 0001:000b9170       ??$extract_argument_from_va_list@_W_W@?$positional_parameter_base@DV?$string_output_adapter@D@__crt_stdio_output@@@__crt_stdio_output@@IEAA_NAEA_W@Z 00000001800ba170 f i libucrtd:output.obj
 0001:000b93a0       ??$extract_argument_from_va_list@_W_W@?$positional_parameter_base@_WV?$stream_output_adapter@_W@__crt_stdio_output@@@__crt_stdio_output@@IEAA_NAEA_W@Z 00000001800ba3a0 f i libucrtd:output.obj
 0001:000b95d0       ??$extract_argument_from_va_list@_W_W@?$positional_parameter_base@_WV?$string_output_adapter@_W@__crt_stdio_output@@@__crt_stdio_output@@IEAA_NAEA_W@Z 00000001800ba5d0 f i libucrtd:output.obj
 0001:000b9800       ??$extract_argument_from_va_list@_W_W@?$standard_base@DV?$stream_output_adapter@D@__crt_stdio_output@@@__crt_stdio_output@@IEAA_NAEA_W@Z 00000001800ba800 f i libucrtd:output.obj
 0001:000b9840       ??$extract_argument_from_va_list@_W_W@?$standard_base@DV?$string_output_adapter@D@__crt_stdio_output@@@__crt_stdio_output@@IEAA_NAEA_W@Z 00000001800ba840 f i libucrtd:output.obj
 0001:000b9880       ??$extract_argument_from_va_list@_W_W@?$standard_base@_WV?$stream_output_adapter@_W@__crt_stdio_output@@@__crt_stdio_output@@IEAA_NAEA_W@Z 00000001800ba880 f i libucrtd:output.obj
 0001:000b98c0       ??$extract_argument_from_va_list@_W_W@?$standard_base@_WV?$string_output_adapter@_W@__crt_stdio_output@@@__crt_stdio_output@@IEAA_NAEA_W@Z 00000001800ba8c0 f i libucrtd:output.obj
 0001:000b9900       ??$get_parameter_type@D@?$positional_parameter_base@DV?$stream_output_adapter@D@__crt_stdio_output@@@__crt_stdio_output@@CA?AW4parameter_type@01@PEAD@Z 00000001800ba900 f i libucrtd:output.obj
 0001:000b9910       ??$get_parameter_type@D@?$positional_parameter_base@DV?$string_output_adapter@D@__crt_stdio_output@@@__crt_stdio_output@@CA?AW4parameter_type@01@PEAD@Z 00000001800ba910 f i libucrtd:output.obj
 0001:000b9920       ??$get_parameter_type@D@?$positional_parameter_base@_WV?$stream_output_adapter@_W@__crt_stdio_output@@@__crt_stdio_output@@CA?AW4parameter_type@01@PEAD@Z 00000001800ba920 f i libucrtd:output.obj
 0001:000b9930       ??$get_parameter_type@D@?$positional_parameter_base@_WV?$string_output_adapter@_W@__crt_stdio_output@@@__crt_stdio_output@@CA?AW4parameter_type@01@PEAD@Z 00000001800ba930 f i libucrtd:output.obj
 0001:000b9940       ??$get_parameter_type@Uansi_string@?1??type_case_Z@?$output_processor@DV?$stream_output_adapter@D@__crt_stdio_output@@V?$positional_parameter_base@DV?$stream_output_adapter@D@__crt_stdio_output@@@2@@__crt_stdio_output@@AEAA_NXZ@@?$positional_parameter_base@DV?$stream_output_adapter@D@__crt_stdio_output@@@__crt_stdio_output@@CA?AW4parameter_type@01@PEAUansi_string@?1??type_case_Z@?$output_processor@DV?$stream_output_adapter@D@__crt_stdio_output@@V?$positional_parameter_base@DV?$stream_output_adapter@D@__crt_stdio_output@@@2@@1@AEAA_NXZ@@Z 00000001800ba940 f i libucrtd:output.obj
 0001:000b9950       ??$get_parameter_type@Uansi_string@?1??type_case_Z@?$output_processor@DV?$string_output_adapter@D@__crt_stdio_output@@V?$positional_parameter_base@DV?$string_output_adapter@D@__crt_stdio_output@@@2@@__crt_stdio_output@@AEAA_NXZ@@?$positional_parameter_base@DV?$string_output_adapter@D@__crt_stdio_output@@@__crt_stdio_output@@CA?AW4parameter_type@01@PEAUansi_string@?1??type_case_Z@?$output_processor@DV?$string_output_adapter@D@__crt_stdio_output@@V?$positional_parameter_base@DV?$string_output_adapter@D@__crt_stdio_output@@@2@@1@AEAA_NXZ@@Z 00000001800ba950 f i libucrtd:output.obj
 0001:000b9960       ??$get_parameter_type@Uansi_string@?1??type_case_Z@?$output_processor@_WV?$stream_output_adapter@_W@__crt_stdio_output@@V?$positional_parameter_base@_WV?$stream_output_adapter@_W@__crt_stdio_output@@@2@@__crt_stdio_output@@AEAA_NXZ@@?$positional_parameter_base@_WV?$stream_output_adapter@_W@__crt_stdio_output@@@__crt_stdio_output@@CA?AW4parameter_type@01@PEAUansi_string@?1??type_case_Z@?$output_processor@_WV?$stream_output_adapter@_W@__crt_stdio_output@@V?$positional_parameter_base@_WV?$stream_output_adapter@_W@__crt_stdio_output@@@2@@1@AEAA_NXZ@@Z 00000001800ba960 f i libucrtd:output.obj
 0001:000b9970       ??$get_parameter_type@Uansi_string@?1??type_case_Z@?$output_processor@_WV?$string_output_adapter@_W@__crt_stdio_output@@V?$positional_parameter_base@_WV?$string_output_adapter@_W@__crt_stdio_output@@@2@@__crt_stdio_output@@AEAA_NXZ@@?$positional_parameter_base@_WV?$string_output_adapter@_W@__crt_stdio_output@@@__crt_stdio_output@@CA?AW4parameter_type@01@PEAUansi_string@?1??type_case_Z@?$output_processor@_WV?$string_output_adapter@_W@__crt_stdio_output@@V?$positional_parameter_base@_WV?$string_output_adapter@_W@__crt_stdio_output@@@2@@1@AEAA_NXZ@@Z 00000001800ba970 f i libucrtd:output.obj
 0001:000b9980       ??$get_parameter_type@X@?$positional_parameter_base@DV?$stream_output_adapter@D@__crt_stdio_output@@@__crt_stdio_output@@CA?AW4parameter_type@01@PEAX@Z 00000001800ba980 f i libucrtd:output.obj
 0001:000b9990       ??$get_parameter_type@X@?$positional_parameter_base@DV?$string_output_adapter@D@__crt_stdio_output@@@__crt_stdio_output@@CA?AW4parameter_type@01@PEAX@Z 00000001800ba990 f i libucrtd:output.obj
 0001:000b99a0       ??$get_parameter_type@X@?$positional_parameter_base@_WV?$stream_output_adapter@_W@__crt_stdio_output@@@__crt_stdio_output@@CA?AW4parameter_type@01@PEAX@Z 00000001800ba9a0 f i libucrtd:output.obj
 0001:000b99b0       ??$get_parameter_type@X@?$positional_parameter_base@_WV?$string_output_adapter@_W@__crt_stdio_output@@@__crt_stdio_output@@CA?AW4parameter_type@01@PEAX@Z 00000001800ba9b0 f i libucrtd:output.obj
 0001:000b99c0       ??$is_character_specifier@D@?$positional_parameter_base@DV?$stream_output_adapter@D@__crt_stdio_output@@@__crt_stdio_output@@CA_ND@Z 00000001800ba9c0 f i libucrtd:output.obj
 0001:000b9a10       ??$is_character_specifier@D@?$positional_parameter_base@DV?$string_output_adapter@D@__crt_stdio_output@@@__crt_stdio_output@@CA_ND@Z 00000001800baa10 f i libucrtd:output.obj
 0001:000b9a60       ??$is_character_specifier@_W@?$positional_parameter_base@_WV?$stream_output_adapter@_W@__crt_stdio_output@@@__crt_stdio_output@@CA_N_W@Z 00000001800baa60 f i libucrtd:output.obj
 0001:000b9ab0       ??$is_character_specifier@_W@?$positional_parameter_base@_WV?$string_output_adapter@_W@__crt_stdio_output@@@__crt_stdio_output@@CA_N_W@Z 00000001800baab0 f i libucrtd:output.obj
 0001:000b9b00       ??$is_integral_specifier@D@?$positional_parameter_base@DV?$stream_output_adapter@D@__crt_stdio_output@@@__crt_stdio_output@@CA_ND@Z 00000001800bab00 f i libucrtd:output.obj
 0001:000b9b80       ??$is_integral_specifier@D@?$positional_parameter_base@DV?$string_output_adapter@D@__crt_stdio_output@@@__crt_stdio_output@@CA_ND@Z 00000001800bab80 f i libucrtd:output.obj
 0001:000b9c00       ??$is_integral_specifier@_W@?$positional_parameter_base@_WV?$stream_output_adapter@_W@__crt_stdio_output@@@__crt_stdio_output@@CA_N_W@Z 00000001800bac00 f i libucrtd:output.obj
 0001:000b9c90       ??$is_integral_specifier@_W@?$positional_parameter_base@_WV?$string_output_adapter@_W@__crt_stdio_output@@@__crt_stdio_output@@CA_N_W@Z 00000001800bac90 f i libucrtd:output.obj
 0001:000b9d20       ??$is_overflow_condition@K@__crt_strtox@@YA_NIK@Z 00000001800bad20 f i libucrtd:output.obj
 0001:000b9da0       ??$is_pointer_specifier@D@?$positional_parameter_base@DV?$stream_output_adapter@D@__crt_stdio_output@@@__crt_stdio_output@@CA_ND@Z 00000001800bada0 f i libucrtd:output.obj
 0001:000b9de0       ??$is_pointer_specifier@D@?$positional_parameter_base@DV?$string_output_adapter@D@__crt_stdio_output@@@__crt_stdio_output@@CA_ND@Z 00000001800bade0 f i libucrtd:output.obj
 0001:000b9e20       ??$is_pointer_specifier@_W@?$positional_parameter_base@_WV?$stream_output_adapter@_W@__crt_stdio_output@@@__crt_stdio_output@@CA_N_W@Z 00000001800bae20 f i libucrtd:output.obj
 0001:000b9e60       ??$is_pointer_specifier@_W@?$positional_parameter_base@_WV?$string_output_adapter@_W@__crt_stdio_output@@@__crt_stdio_output@@CA_N_W@Z 00000001800bae60 f i libucrtd:output.obj
 0001:000b9ea0       ??$is_string_specifier@D@?$positional_parameter_base@DV?$stream_output_adapter@D@__crt_stdio_output@@@__crt_stdio_output@@CA_ND@Z 00000001800baea0 f i libucrtd:output.obj
 0001:000b9ef0       ??$is_string_specifier@D@?$positional_parameter_base@DV?$string_output_adapter@D@__crt_stdio_output@@@__crt_stdio_output@@CA_ND@Z 00000001800baef0 f i libucrtd:output.obj
 0001:000b9f40       ??$is_string_specifier@_W@?$positional_parameter_base@_WV?$stream_output_adapter@_W@__crt_stdio_output@@@__crt_stdio_output@@CA_N_W@Z 00000001800baf40 f i libucrtd:output.obj
 0001:000b9f90       ??$is_string_specifier@_W@?$positional_parameter_base@_WV?$string_output_adapter@_W@__crt_stdio_output@@@__crt_stdio_output@@CA_N_W@Z 00000001800baf90 f i libucrtd:output.obj
 0001:000b9fe0       ??$is_wide_character_specifier@D@__crt_stdio_output@@YA_N_KDW4length_modifier@0@@Z 00000001800bafe0 f i libucrtd:output.obj
 0001:000ba0a0       ??$is_wide_character_specifier@_W@__crt_stdio_output@@YA_N_K_WW4length_modifier@0@@Z 00000001800bb0a0 f i libucrtd:output.obj
 0001:000ba1a0       ??$make_c_string_character_source@DPEAPEAD@__crt_strtox@@YA?AV?$c_string_character_source@D@0@QEBDQEAPEAD@Z 00000001800bb1a0 f i libucrtd:output.obj
 0001:000ba1e0       ??$make_c_string_character_source@_WPEAPEA_W@__crt_strtox@@YA?AV?$c_string_character_source@_W@0@QEB_WQEAPEA_W@Z 00000001800bb1e0 f i libucrtd:output.obj
 0001:000ba220       ??$parse_integer@KV?$c_string_character_source@D@__crt_strtox@@$0A@@__crt_strtox@@YAKAEAV__crt_cached_ptd_host@@V?$c_string_character_source@D@0@H_N@Z 00000001800bb220 f i libucrtd:output.obj
 0001:000ba7c0       ??$parse_integer@KV?$c_string_character_source@_W@__crt_strtox@@$0A@@__crt_strtox@@YAKAEAV__crt_cached_ptd_host@@V?$c_string_character_source@_W@0@H_N@Z 00000001800bb7c0 f i libucrtd:output.obj
 0001:000bad60       ??$peek_va_arg@C@__crt_stdio_output@@YACPEAD@Z 00000001800bbd60 f i libucrtd:output.obj
 0001:000badd0       ??$peek_va_arg@E@__crt_stdio_output@@YAEPEAD@Z 00000001800bbdd0 f i libucrtd:output.obj
 0001:000bae40       ??$peek_va_arg@F@__crt_stdio_output@@YAFPEAD@Z 00000001800bbe40 f i libucrtd:output.obj
 0001:000baeb0       ??$peek_va_arg@G@__crt_stdio_output@@YAGPEAD@Z 00000001800bbeb0 f i libucrtd:output.obj
 0001:000baf20       ??$peek_va_arg@H@__crt_stdio_output@@YAHPEAD@Z 00000001800bbf20 f i libucrtd:output.obj
 0001:000baf90       ??$peek_va_arg@I@__crt_stdio_output@@YAIPEAD@Z 00000001800bbf90 f i libucrtd:output.obj
 0001:000bb000       ??$peek_va_arg@PEAD@__crt_stdio_output@@YAPEADPEAD@Z 00000001800bc000 f i libucrtd:output.obj
 0001:000bb070       ??$peek_va_arg@PEAUansi_string@?1??type_case_Z@?$output_processor@DV?$stream_output_adapter@D@__crt_stdio_output@@V?$positional_parameter_base@DV?$stream_output_adapter@D@__crt_stdio_output@@@2@@__crt_stdio_output@@AEAA_NXZ@@__crt_stdio_output@@YAPEAUansi_string@?1??type_case_Z@?$output_processor@DV?$stream_output_adapter@D@__crt_stdio_output@@V?$positional_parameter_base@DV?$stream_output_adapter@D@__crt_stdio_output@@@2@@0@AEAA_NXZ@PEAD@Z 00000001800bc070 f i libucrtd:output.obj
 0001:000bb0e0       ??$peek_va_arg@PEAUansi_string@?1??type_case_Z@?$output_processor@DV?$string_output_adapter@D@__crt_stdio_output@@V?$positional_parameter_base@DV?$string_output_adapter@D@__crt_stdio_output@@@2@@__crt_stdio_output@@AEAA_NXZ@@__crt_stdio_output@@YAPEAUansi_string@?1??type_case_Z@?$output_processor@DV?$string_output_adapter@D@__crt_stdio_output@@V?$positional_parameter_base@DV?$string_output_adapter@D@__crt_stdio_output@@@2@@0@AEAA_NXZ@PEAD@Z 00000001800bc0e0 f i libucrtd:output.obj
 0001:000bb150       ??$peek_va_arg@PEAUansi_string@?1??type_case_Z@?$output_processor@_WV?$stream_output_adapter@_W@__crt_stdio_output@@V?$positional_parameter_base@_WV?$stream_output_adapter@_W@__crt_stdio_output@@@2@@__crt_stdio_output@@AEAA_NXZ@@__crt_stdio_output@@YAPEAUansi_string@?1??type_case_Z@?$output_processor@_WV?$stream_output_adapter@_W@__crt_stdio_output@@V?$positional_parameter_base@_WV?$stream_output_adapter@_W@__crt_stdio_output@@@2@@0@AEAA_NXZ@PEAD@Z 00000001800bc150 f i libucrtd:output.obj
 0001:000bb1c0       ??$peek_va_arg@PEAUansi_string@?1??type_case_Z@?$output_processor@_WV?$string_output_adapter@_W@__crt_stdio_output@@V?$positional_parameter_base@_WV?$string_output_adapter@_W@__crt_stdio_output@@@2@@__crt_stdio_output@@AEAA_NXZ@@__crt_stdio_output@@YAPEAUansi_string@?1??type_case_Z@?$output_processor@_WV?$string_output_adapter@_W@__crt_stdio_output@@V?$positional_parameter_base@_WV?$string_output_adapter@_W@__crt_stdio_output@@@2@@0@AEAA_NXZ@PEAD@Z 00000001800bc1c0 f i libucrtd:output.obj
 0001:000bb230       ??$peek_va_arg@PEAX@__crt_stdio_output@@YAPEAXPEAD@Z 00000001800bc230 f i libucrtd:output.obj
 0001:000bb2a0       ??$peek_va_arg@U_CRT_DOUBLE@@@__crt_stdio_output@@YA?AU_CRT_DOUBLE@@PEAD@Z 00000001800bc2a0 f i libucrtd:output.obj
 0001:000bb310       ??$peek_va_arg@_J@__crt_stdio_output@@YA_JPEAD@Z 00000001800bc310 f i libucrtd:output.obj
 0001:000bb380       ??$peek_va_arg@_K@__crt_stdio_output@@YA_KPEAD@Z 00000001800bc380 f i libucrtd:output.obj
 0001:000bb3f0       ??$peek_va_arg@_W@__crt_stdio_output@@YA_WPEAD@Z 00000001800bc3f0 f i libucrtd:output.obj
 0001:000bb460       ??$puttc_nolock_internal@AEBDPEAU_iobuf@@AEAV__crt_cached_ptd_host@@@?$__crt_char_traits@D@@SAHAEBD$$QEAPEAU_iobuf@@AEAV__crt_cached_ptd_host@@@Z 00000001800bc460 f i libucrtd:output.obj
 0001:000bb4b0       ??$puttc_nolock_internal@AEB_WPEAU_iobuf@@AEAV__crt_cached_ptd_host@@@?$__crt_char_traits@_W@@SAGAEB_W$$QEAPEAU_iobuf@@AEAV__crt_cached_ptd_host@@@Z 00000001800bc4b0 f i libucrtd:output.obj
 0001:000bb4f0       ??$read_va_arg@C@__crt_stdio_output@@YACAEAPEAD@Z 00000001800bc4f0 f i libucrtd:output.obj
 0001:000bb570       ??$read_va_arg@E@__crt_stdio_output@@YAEAEAPEAD@Z 00000001800bc570 f i libucrtd:output.obj
 0001:000bb5f0       ??$read_va_arg@F@__crt_stdio_output@@YAFAEAPEAD@Z 00000001800bc5f0 f i libucrtd:output.obj
 0001:000bb670       ??$read_va_arg@G@__crt_stdio_output@@YAGAEAPEAD@Z 00000001800bc670 f i libucrtd:output.obj
 0001:000bb6f0       ??$read_va_arg@H@__crt_stdio_output@@YAHAEAPEAD@Z 00000001800bc6f0 f i libucrtd:output.obj
 0001:000bb770       ??$read_va_arg@I@__crt_stdio_output@@YAIAEAPEAD@Z 00000001800bc770 f i libucrtd:output.obj
 0001:000bb7f0       ??$read_va_arg@PEAD@__crt_stdio_output@@YAPEADAEAPEAD@Z 00000001800bc7f0 f i libucrtd:output.obj
 0001:000bb870       ??$read_va_arg@PEAUansi_string@?1??type_case_Z@?$output_processor@DV?$stream_output_adapter@D@__crt_stdio_output@@V?$format_validation_base@DV?$stream_output_adapter@D@__crt_stdio_output@@@2@@__crt_stdio_output@@AEAA_NXZ@@__crt_stdio_output@@YAPEAUansi_string@?1??type_case_Z@?$output_processor@DV?$stream_output_adapter@D@__crt_stdio_output@@V?$format_validation_base@DV?$stream_output_adapter@D@__crt_stdio_output@@@2@@0@AEAA_NXZ@AEAPEAD@Z 00000001800bc870 f i libucrtd:output.obj
 0001:000bb8f0       ??$read_va_arg@PEAUansi_string@?1??type_case_Z@?$output_processor@DV?$stream_output_adapter@D@__crt_stdio_output@@V?$positional_parameter_base@DV?$stream_output_adapter@D@__crt_stdio_output@@@2@@__crt_stdio_output@@AEAA_NXZ@@__crt_stdio_output@@YAPEAUansi_string@?1??type_case_Z@?$output_processor@DV?$stream_output_adapter@D@__crt_stdio_output@@V?$positional_parameter_base@DV?$stream_output_adapter@D@__crt_stdio_output@@@2@@0@AEAA_NXZ@AEAPEAD@Z 00000001800bc8f0 f i libucrtd:output.obj
 0001:000bb970       ??$read_va_arg@PEAUansi_string@?1??type_case_Z@?$output_processor@DV?$stream_output_adapter@D@__crt_stdio_output@@V?$standard_base@DV?$stream_output_adapter@D@__crt_stdio_output@@@2@@__crt_stdio_output@@AEAA_NXZ@@__crt_stdio_output@@YAPEAUansi_string@?1??type_case_Z@?$output_processor@DV?$stream_output_adapter@D@__crt_stdio_output@@V?$standard_base@DV?$stream_output_adapter@D@__crt_stdio_output@@@2@@0@AEAA_NXZ@AEAPEAD@Z 00000001800bc970 f i libucrtd:output.obj
 0001:000bb9f0       ??$read_va_arg@PEAUansi_string@?1??type_case_Z@?$output_processor@DV?$string_output_adapter@D@__crt_stdio_output@@V?$format_validation_base@DV?$string_output_adapter@D@__crt_stdio_output@@@2@@__crt_stdio_output@@AEAA_NXZ@@__crt_stdio_output@@YAPEAUansi_string@?1??type_case_Z@?$output_processor@DV?$string_output_adapter@D@__crt_stdio_output@@V?$format_validation_base@DV?$string_output_adapter@D@__crt_stdio_output@@@2@@0@AEAA_NXZ@AEAPEAD@Z 00000001800bc9f0 f i libucrtd:output.obj
 0001:000bba70       ??$read_va_arg@PEAUansi_string@?1??type_case_Z@?$output_processor@DV?$string_output_adapter@D@__crt_stdio_output@@V?$positional_parameter_base@DV?$string_output_adapter@D@__crt_stdio_output@@@2@@__crt_stdio_output@@AEAA_NXZ@@__crt_stdio_output@@YAPEAUansi_string@?1??type_case_Z@?$output_processor@DV?$string_output_adapter@D@__crt_stdio_output@@V?$positional_parameter_base@DV?$string_output_adapter@D@__crt_stdio_output@@@2@@0@AEAA_NXZ@AEAPEAD@Z 00000001800bca70 f i libucrtd:output.obj
 0001:000bbaf0       ??$read_va_arg@PEAUansi_string@?1??type_case_Z@?$output_processor@DV?$string_output_adapter@D@__crt_stdio_output@@V?$standard_base@DV?$string_output_adapter@D@__crt_stdio_output@@@2@@__crt_stdio_output@@AEAA_NXZ@@__crt_stdio_output@@YAPEAUansi_string@?1??type_case_Z@?$output_processor@DV?$string_output_adapter@D@__crt_stdio_output@@V?$standard_base@DV?$string_output_adapter@D@__crt_stdio_output@@@2@@0@AEAA_NXZ@AEAPEAD@Z 00000001800bcaf0 f i libucrtd:output.obj
 0001:000bbb70       ??$read_va_arg@PEAUansi_string@?1??type_case_Z@?$output_processor@_WV?$stream_output_adapter@_W@__crt_stdio_output@@V?$format_validation_base@_WV?$stream_output_adapter@_W@__crt_stdio_output@@@2@@__crt_stdio_output@@AEAA_NXZ@@__crt_stdio_output@@YAPEAUansi_string@?1??type_case_Z@?$output_processor@_WV?$stream_output_adapter@_W@__crt_stdio_output@@V?$format_validation_base@_WV?$stream_output_adapter@_W@__crt_stdio_output@@@2@@0@AEAA_NXZ@AEAPEAD@Z 00000001800bcb70 f i libucrtd:output.obj
 0001:000bbbf0       ??$read_va_arg@PEAUansi_string@?1??type_case_Z@?$output_processor@_WV?$stream_output_adapter@_W@__crt_stdio_output@@V?$positional_parameter_base@_WV?$stream_output_adapter@_W@__crt_stdio_output@@@2@@__crt_stdio_output@@AEAA_NXZ@@__crt_stdio_output@@YAPEAUansi_string@?1??type_case_Z@?$output_processor@_WV?$stream_output_adapter@_W@__crt_stdio_output@@V?$positional_parameter_base@_WV?$stream_output_adapter@_W@__crt_stdio_output@@@2@@0@AEAA_NXZ@AEAPEAD@Z 00000001800bcbf0 f i libucrtd:output.obj
 0001:000bbc70       ??$read_va_arg@PEAUansi_string@?1??type_case_Z@?$output_processor@_WV?$stream_output_adapter@_W@__crt_stdio_output@@V?$standard_base@_WV?$stream_output_adapter@_W@__crt_stdio_output@@@2@@__crt_stdio_output@@AEAA_NXZ@@__crt_stdio_output@@YAPEAUansi_string@?1??type_case_Z@?$output_processor@_WV?$stream_output_adapter@_W@__crt_stdio_output@@V?$standard_base@_WV?$stream_output_adapter@_W@__crt_stdio_output@@@2@@0@AEAA_NXZ@AEAPEAD@Z 00000001800bcc70 f i libucrtd:output.obj
 0001:000bbcf0       ??$read_va_arg@PEAUansi_string@?1??type_case_Z@?$output_processor@_WV?$string_output_adapter@_W@__crt_stdio_output@@V?$format_validation_base@_WV?$string_output_adapter@_W@__crt_stdio_output@@@2@@__crt_stdio_output@@AEAA_NXZ@@__crt_stdio_output@@YAPEAUansi_string@?1??type_case_Z@?$output_processor@_WV?$string_output_adapter@_W@__crt_stdio_output@@V?$format_validation_base@_WV?$string_output_adapter@_W@__crt_stdio_output@@@2@@0@AEAA_NXZ@AEAPEAD@Z 00000001800bccf0 f i libucrtd:output.obj
 0001:000bbd70       ??$read_va_arg@PEAUansi_string@?1??type_case_Z@?$output_processor@_WV?$string_output_adapter@_W@__crt_stdio_output@@V?$positional_parameter_base@_WV?$string_output_adapter@_W@__crt_stdio_output@@@2@@__crt_stdio_output@@AEAA_NXZ@@__crt_stdio_output@@YAPEAUansi_string@?1??type_case_Z@?$output_processor@_WV?$string_output_adapter@_W@__crt_stdio_output@@V?$positional_parameter_base@_WV?$string_output_adapter@_W@__crt_stdio_output@@@2@@0@AEAA_NXZ@AEAPEAD@Z 00000001800bcd70 f i libucrtd:output.obj
 0001:000bbdf0       ??$read_va_arg@PEAUansi_string@?1??type_case_Z@?$output_processor@_WV?$string_output_adapter@_W@__crt_stdio_output@@V?$standard_base@_WV?$string_output_adapter@_W@__crt_stdio_output@@@2@@__crt_stdio_output@@AEAA_NXZ@@__crt_stdio_output@@YAPEAUansi_string@?1??type_case_Z@?$output_processor@_WV?$string_output_adapter@_W@__crt_stdio_output@@V?$standard_base@_WV?$string_output_adapter@_W@__crt_stdio_output@@@2@@0@AEAA_NXZ@AEAPEAD@Z 00000001800bcdf0 f i libucrtd:output.obj
 0001:000bbe70       ??$read_va_arg@PEAX@__crt_stdio_output@@YAPEAXAEAPEAD@Z 00000001800bce70 f i libucrtd:output.obj
 0001:000bbef0       ??$read_va_arg@U_CRT_DOUBLE@@@__crt_stdio_output@@YA?AU_CRT_DOUBLE@@AEAPEAD@Z 00000001800bcef0 f i libucrtd:output.obj
 0001:000bbf70       ??$read_va_arg@_J@__crt_stdio_output@@YA_JAEAPEAD@Z 00000001800bcf70 f i libucrtd:output.obj
 0001:000bbff0       ??$read_va_arg@_K@__crt_stdio_output@@YA_KAEAPEAD@Z 00000001800bcff0 f i libucrtd:output.obj
 0001:000bc070       ??$read_va_arg@_W@__crt_stdio_output@@YA_WAEAPEAD@Z 00000001800bd070 f i libucrtd:output.obj
 0001:000bc0f0       ??$scratch_count@D@formatting_buffer@__crt_stdio_output@@QEBA_KXZ 00000001800bd0f0 f i libucrtd:output.obj
 0001:000bc110       ??$scratch_data@D@formatting_buffer@__crt_stdio_output@@QEAAPEADXZ 00000001800bd110 f i libucrtd:output.obj
 0001:000bc1a0       ??$type_case_integer@$07@?$output_processor@DV?$stream_output_adapter@D@__crt_stdio_output@@V?$format_validation_base@DV?$stream_output_adapter@D@__crt_stdio_output@@@2@@__crt_stdio_output@@AEAA_N_N@Z 00000001800bd1a0 f i libucrtd:output.obj
 0001:000bc730       ??$type_case_integer@$07@?$output_processor@DV?$stream_output_adapter@D@__crt_stdio_output@@V?$positional_parameter_base@DV?$stream_output_adapter@D@__crt_stdio_output@@@2@@__crt_stdio_output@@AEAA_N_N@Z 00000001800bd730 f i libucrtd:output.obj
 0001:000bccc0       ??$type_case_integer@$07@?$output_processor@DV?$stream_output_adapter@D@__crt_stdio_output@@V?$standard_base@DV?$stream_output_adapter@D@__crt_stdio_output@@@2@@__crt_stdio_output@@AEAA_N_N@Z 00000001800bdcc0 f i libucrtd:output.obj
 0001:000bd250       ??$type_case_integer@$07@?$output_processor@DV?$string_output_adapter@D@__crt_stdio_output@@V?$format_validation_base@DV?$string_output_adapter@D@__crt_stdio_output@@@2@@__crt_stdio_output@@AEAA_N_N@Z 00000001800be250 f i libucrtd:output.obj
 0001:000bd7e0       ??$type_case_integer@$07@?$output_processor@DV?$string_output_adapter@D@__crt_stdio_output@@V?$positional_parameter_base@DV?$string_output_adapter@D@__crt_stdio_output@@@2@@__crt_stdio_output@@AEAA_N_N@Z 00000001800be7e0 f i libucrtd:output.obj
 0001:000bdd70       ??$type_case_integer@$07@?$output_processor@DV?$string_output_adapter@D@__crt_stdio_output@@V?$standard_base@DV?$string_output_adapter@D@__crt_stdio_output@@@2@@__crt_stdio_output@@AEAA_N_N@Z 00000001800bed70 f i libucrtd:output.obj
 0001:000be300       ??$type_case_integer@$07@?$output_processor@_WV?$stream_output_adapter@_W@__crt_stdio_output@@V?$format_validation_base@_WV?$stream_output_adapter@_W@__crt_stdio_output@@@2@@__crt_stdio_output@@AEAA_N_N@Z 00000001800bf300 f i libucrtd:output.obj
 0001:000be8a0       ??$type_case_integer@$07@?$output_processor@_WV?$stream_output_adapter@_W@__crt_stdio_output@@V?$positional_parameter_base@_WV?$stream_output_adapter@_W@__crt_stdio_output@@@2@@__crt_stdio_output@@AEAA_N_N@Z 00000001800bf8a0 f i libucrtd:output.obj
 0001:000bee40       ??$type_case_integer@$07@?$output_processor@_WV?$stream_output_adapter@_W@__crt_stdio_output@@V?$standard_base@_WV?$stream_output_adapter@_W@__crt_stdio_output@@@2@@__crt_stdio_output@@AEAA_N_N@Z 00000001800bfe40 f i libucrtd:output.obj
 0001:000bf3e0       ??$type_case_integer@$07@?$output_processor@_WV?$string_output_adapter@_W@__crt_stdio_output@@V?$format_validation_base@_WV?$string_output_adapter@_W@__crt_stdio_output@@@2@@__crt_stdio_output@@AEAA_N_N@Z 00000001800c03e0 f i libucrtd:output.obj
 0001:000bf980       ??$type_case_integer@$07@?$output_processor@_WV?$string_output_adapter@_W@__crt_stdio_output@@V?$positional_parameter_base@_WV?$string_output_adapter@_W@__crt_stdio_output@@@2@@__crt_stdio_output@@AEAA_N_N@Z 00000001800c0980 f i libucrtd:output.obj
 0001:000bff20       ??$type_case_integer@$07@?$output_processor@_WV?$string_output_adapter@_W@__crt_stdio_output@@V?$standard_base@_WV?$string_output_adapter@_W@__crt_stdio_output@@@2@@__crt_stdio_output@@AEAA_N_N@Z 00000001800c0f20 f i libucrtd:output.obj
 0001:000c04c0       ??$type_case_integer@$09@?$output_processor@DV?$stream_output_adapter@D@__crt_stdio_output@@V?$format_validation_base@DV?$stream_output_adapter@D@__crt_stdio_output@@@2@@__crt_stdio_output@@AEAA_N_N@Z 00000001800c14c0 f i libucrtd:output.obj
 0001:000c0a50       ??$type_case_integer@$09@?$output_processor@DV?$stream_output_adapter@D@__crt_stdio_output@@V?$positional_parameter_base@DV?$stream_output_adapter@D@__crt_stdio_output@@@2@@__crt_stdio_output@@AEAA_N_N@Z 00000001800c1a50 f i libucrtd:output.obj
 0001:000c0fe0       ??$type_case_integer@$09@?$output_processor@DV?$stream_output_adapter@D@__crt_stdio_output@@V?$standard_base@DV?$stream_output_adapter@D@__crt_stdio_output@@@2@@__crt_stdio_output@@AEAA_N_N@Z 00000001800c1fe0 f i libucrtd:output.obj
 0001:000c1570       ??$type_case_integer@$09@?$output_processor@DV?$string_output_adapter@D@__crt_stdio_output@@V?$format_validation_base@DV?$string_output_adapter@D@__crt_stdio_output@@@2@@__crt_stdio_output@@AEAA_N_N@Z 00000001800c2570 f i libucrtd:output.obj
 0001:000c1b00       ??$type_case_integer@$09@?$output_processor@DV?$string_output_adapter@D@__crt_stdio_output@@V?$positional_parameter_base@DV?$string_output_adapter@D@__crt_stdio_output@@@2@@__crt_stdio_output@@AEAA_N_N@Z 00000001800c2b00 f i libucrtd:output.obj
 0001:000c2090       ??$type_case_integer@$09@?$output_processor@DV?$string_output_adapter@D@__crt_stdio_output@@V?$standard_base@DV?$string_output_adapter@D@__crt_stdio_output@@@2@@__crt_stdio_output@@AEAA_N_N@Z 00000001800c3090 f i libucrtd:output.obj
 0001:000c2620       ??$type_case_integer@$09@?$output_processor@_WV?$stream_output_adapter@_W@__crt_stdio_output@@V?$format_validation_base@_WV?$stream_output_adapter@_W@__crt_stdio_output@@@2@@__crt_stdio_output@@AEAA_N_N@Z 00000001800c3620 f i libucrtd:output.obj
 0001:000c2bc0       ??$type_case_integer@$09@?$output_processor@_WV?$stream_output_adapter@_W@__crt_stdio_output@@V?$positional_parameter_base@_WV?$stream_output_adapter@_W@__crt_stdio_output@@@2@@__crt_stdio_output@@AEAA_N_N@Z 00000001800c3bc0 f i libucrtd:output.obj
 0001:000c3160       ??$type_case_integer@$09@?$output_processor@_WV?$stream_output_adapter@_W@__crt_stdio_output@@V?$standard_base@_WV?$stream_output_adapter@_W@__crt_stdio_output@@@2@@__crt_stdio_output@@AEAA_N_N@Z 00000001800c4160 f i libucrtd:output.obj
 0001:000c3700       ??$type_case_integer@$09@?$output_processor@_WV?$string_output_adapter@_W@__crt_stdio_output@@V?$format_validation_base@_WV?$string_output_adapter@_W@__crt_stdio_output@@@2@@__crt_stdio_output@@AEAA_N_N@Z 00000001800c4700 f i libucrtd:output.obj
 0001:000c3ca0       ??$type_case_integer@$09@?$output_processor@_WV?$string_output_adapter@_W@__crt_stdio_output@@V?$positional_parameter_base@_WV?$string_output_adapter@_W@__crt_stdio_output@@@2@@__crt_stdio_output@@AEAA_N_N@Z 00000001800c4ca0 f i libucrtd:output.obj
 0001:000c4240       ??$type_case_integer@$09@?$output_processor@_WV?$string_output_adapter@_W@__crt_stdio_output@@V?$standard_base@_WV?$string_output_adapter@_W@__crt_stdio_output@@@2@@__crt_stdio_output@@AEAA_N_N@Z 00000001800c5240 f i libucrtd:output.obj
 0001:000c47e0       ??$type_case_integer@$0BA@@?$output_processor@DV?$stream_output_adapter@D@__crt_stdio_output@@V?$format_validation_base@DV?$stream_output_adapter@D@__crt_stdio_output@@@2@@__crt_stdio_output@@AEAA_N_N@Z 00000001800c57e0 f i libucrtd:output.obj
 0001:000c4d70       ??$type_case_integer@$0BA@@?$output_processor@DV?$stream_output_adapter@D@__crt_stdio_output@@V?$positional_parameter_base@DV?$stream_output_adapter@D@__crt_stdio_output@@@2@@__crt_stdio_output@@AEAA_N_N@Z 00000001800c5d70 f i libucrtd:output.obj
 0001:000c5300       ??$type_case_integer@$0BA@@?$output_processor@DV?$stream_output_adapter@D@__crt_stdio_output@@V?$standard_base@DV?$stream_output_adapter@D@__crt_stdio_output@@@2@@__crt_stdio_output@@AEAA_N_N@Z 00000001800c6300 f i libucrtd:output.obj
 0001:000c5890       ??$type_case_integer@$0BA@@?$output_processor@DV?$string_output_adapter@D@__crt_stdio_output@@V?$format_validation_base@DV?$string_output_adapter@D@__crt_stdio_output@@@2@@__crt_stdio_output@@AEAA_N_N@Z 00000001800c6890 f i libucrtd:output.obj
 0001:000c5e20       ??$type_case_integer@$0BA@@?$output_processor@DV?$string_output_adapter@D@__crt_stdio_output@@V?$positional_parameter_base@DV?$string_output_adapter@D@__crt_stdio_output@@@2@@__crt_stdio_output@@AEAA_N_N@Z 00000001800c6e20 f i libucrtd:output.obj
 0001:000c63b0       ??$type_case_integer@$0BA@@?$output_processor@DV?$string_output_adapter@D@__crt_stdio_output@@V?$standard_base@DV?$string_output_adapter@D@__crt_stdio_output@@@2@@__crt_stdio_output@@AEAA_N_N@Z 00000001800c73b0 f i libucrtd:output.obj
 0001:000c6940       ??$type_case_integer@$0BA@@?$output_processor@_WV?$stream_output_adapter@_W@__crt_stdio_output@@V?$format_validation_base@_WV?$stream_output_adapter@_W@__crt_stdio_output@@@2@@__crt_stdio_output@@AEAA_N_N@Z 00000001800c7940 f i libucrtd:output.obj
 0001:000c6ee0       ??$type_case_integer@$0BA@@?$output_processor@_WV?$stream_output_adapter@_W@__crt_stdio_output@@V?$positional_parameter_base@_WV?$stream_output_adapter@_W@__crt_stdio_output@@@2@@__crt_stdio_output@@AEAA_N_N@Z 00000001800c7ee0 f i libucrtd:output.obj
 0001:000c7480       ??$type_case_integer@$0BA@@?$output_processor@_WV?$stream_output_adapter@_W@__crt_stdio_output@@V?$standard_base@_WV?$stream_output_adapter@_W@__crt_stdio_output@@@2@@__crt_stdio_output@@AEAA_N_N@Z 00000001800c8480 f i libucrtd:output.obj
 0001:000c7a20       ??$type_case_integer@$0BA@@?$output_processor@_WV?$string_output_adapter@_W@__crt_stdio_output@@V?$format_validation_base@_WV?$string_output_adapter@_W@__crt_stdio_output@@@2@@__crt_stdio_output@@AEAA_N_N@Z 00000001800c8a20 f i libucrtd:output.obj
 0001:000c7fc0       ??$type_case_integer@$0BA@@?$output_processor@_WV?$string_output_adapter@_W@__crt_stdio_output@@V?$positional_parameter_base@_WV?$string_output_adapter@_W@__crt_stdio_output@@@2@@__crt_stdio_output@@AEAA_N_N@Z 00000001800c8fc0 f i libucrtd:output.obj
 0001:000c8560       ??$type_case_integer@$0BA@@?$output_processor@_WV?$string_output_adapter@_W@__crt_stdio_output@@V?$standard_base@_WV?$string_output_adapter@_W@__crt_stdio_output@@@2@@__crt_stdio_output@@AEAA_N_N@Z 00000001800c9560 f i libucrtd:output.obj
 0001:000c8b00       ??$type_case_integer_parse_into_buffer@I$07@?$output_processor@DV?$stream_output_adapter@D@__crt_stdio_output@@V?$format_validation_base@DV?$stream_output_adapter@D@__crt_stdio_output@@@2@@__crt_stdio_output@@AEAAXI_N@Z 00000001800c9b00 f i libucrtd:output.obj
 0001:000c8c70       ??$type_case_integer_parse_into_buffer@I$07@?$output_processor@DV?$stream_output_adapter@D@__crt_stdio_output@@V?$positional_parameter_base@DV?$stream_output_adapter@D@__crt_stdio_output@@@2@@__crt_stdio_output@@AEAAXI_N@Z 00000001800c9c70 f i libucrtd:output.obj
 0001:000c8de0       ??$type_case_integer_parse_into_buffer@I$07@?$output_processor@DV?$stream_output_adapter@D@__crt_stdio_output@@V?$standard_base@DV?$stream_output_adapter@D@__crt_stdio_output@@@2@@__crt_stdio_output@@AEAAXI_N@Z 00000001800c9de0 f i libucrtd:output.obj
 0001:000c8f50       ??$type_case_integer_parse_into_buffer@I$07@?$output_processor@DV?$string_output_adapter@D@__crt_stdio_output@@V?$format_validation_base@DV?$string_output_adapter@D@__crt_stdio_output@@@2@@__crt_stdio_output@@AEAAXI_N@Z 00000001800c9f50 f i libucrtd:output.obj
 0001:000c90c0       ??$type_case_integer_parse_into_buffer@I$07@?$output_processor@DV?$string_output_adapter@D@__crt_stdio_output@@V?$positional_parameter_base@DV?$string_output_adapter@D@__crt_stdio_output@@@2@@__crt_stdio_output@@AEAAXI_N@Z 00000001800ca0c0 f i libucrtd:output.obj
 0001:000c9230       ??$type_case_integer_parse_into_buffer@I$07@?$output_processor@DV?$string_output_adapter@D@__crt_stdio_output@@V?$standard_base@DV?$string_output_adapter@D@__crt_stdio_output@@@2@@__crt_stdio_output@@AEAAXI_N@Z 00000001800ca230 f i libucrtd:output.obj
 0001:000c93a0       ??$type_case_integer_parse_into_buffer@I$07@?$output_processor@_WV?$stream_output_adapter@_W@__crt_stdio_output@@V?$format_validation_base@_WV?$stream_output_adapter@_W@__crt_stdio_output@@@2@@__crt_stdio_output@@AEAAXI_N@Z 00000001800ca3a0 f i libucrtd:output.obj
 0001:000c9530       ??$type_case_integer_parse_into_buffer@I$07@?$output_processor@_WV?$stream_output_adapter@_W@__crt_stdio_output@@V?$positional_parameter_base@_WV?$stream_output_adapter@_W@__crt_stdio_output@@@2@@__crt_stdio_output@@AEAAXI_N@Z 00000001800ca530 f i libucrtd:output.obj
 0001:000c96c0       ??$type_case_integer_parse_into_buffer@I$07@?$output_processor@_WV?$stream_output_adapter@_W@__crt_stdio_output@@V?$standard_base@_WV?$stream_output_adapter@_W@__crt_stdio_output@@@2@@__crt_stdio_output@@AEAAXI_N@Z 00000001800ca6c0 f i libucrtd:output.obj
 0001:000c9850       ??$type_case_integer_parse_into_buffer@I$07@?$output_processor@_WV?$string_output_adapter@_W@__crt_stdio_output@@V?$format_validation_base@_WV?$string_output_adapter@_W@__crt_stdio_output@@@2@@__crt_stdio_output@@AEAAXI_N@Z 00000001800ca850 f i libucrtd:output.obj
 0001:000c99e0       ??$type_case_integer_parse_into_buffer@I$07@?$output_processor@_WV?$string_output_adapter@_W@__crt_stdio_output@@V?$positional_parameter_base@_WV?$string_output_adapter@_W@__crt_stdio_output@@@2@@__crt_stdio_output@@AEAAXI_N@Z 00000001800ca9e0 f i libucrtd:output.obj
 0001:000c9b70       ??$type_case_integer_parse_into_buffer@I$07@?$output_processor@_WV?$string_output_adapter@_W@__crt_stdio_output@@V?$standard_base@_WV?$string_output_adapter@_W@__crt_stdio_output@@@2@@__crt_stdio_output@@AEAAXI_N@Z 00000001800cab70 f i libucrtd:output.obj
 0001:000c9d00       ??$type_case_integer_parse_into_buffer@I$09@?$output_processor@DV?$stream_output_adapter@D@__crt_stdio_output@@V?$format_validation_base@DV?$stream_output_adapter@D@__crt_stdio_output@@@2@@__crt_stdio_output@@AEAAXI_N@Z 00000001800cad00 f i libucrtd:output.obj
 0001:000c9e70       ??$type_case_integer_parse_into_buffer@I$09@?$output_processor@DV?$stream_output_adapter@D@__crt_stdio_output@@V?$positional_parameter_base@DV?$stream_output_adapter@D@__crt_stdio_output@@@2@@__crt_stdio_output@@AEAAXI_N@Z 00000001800cae70 f i libucrtd:output.obj
 0001:000c9fe0       ??$type_case_integer_parse_into_buffer@I$09@?$output_processor@DV?$stream_output_adapter@D@__crt_stdio_output@@V?$standard_base@DV?$stream_output_adapter@D@__crt_stdio_output@@@2@@__crt_stdio_output@@AEAAXI_N@Z 00000001800cafe0 f i libucrtd:output.obj
 0001:000ca150       ??$type_case_integer_parse_into_buffer@I$09@?$output_processor@DV?$string_output_adapter@D@__crt_stdio_output@@V?$format_validation_base@DV?$string_output_adapter@D@__crt_stdio_output@@@2@@__crt_stdio_output@@AEAAXI_N@Z 00000001800cb150 f i libucrtd:output.obj
 0001:000ca2c0       ??$type_case_integer_parse_into_buffer@I$09@?$output_processor@DV?$string_output_adapter@D@__crt_stdio_output@@V?$positional_parameter_base@DV?$string_output_adapter@D@__crt_stdio_output@@@2@@__crt_stdio_output@@AEAAXI_N@Z 00000001800cb2c0 f i libucrtd:output.obj
 0001:000ca430       ??$type_case_integer_parse_into_buffer@I$09@?$output_processor@DV?$string_output_adapter@D@__crt_stdio_output@@V?$standard_base@DV?$string_output_adapter@D@__crt_stdio_output@@@2@@__crt_stdio_output@@AEAAXI_N@Z 00000001800cb430 f i libucrtd:output.obj
 0001:000ca5a0       ??$type_case_integer_parse_into_buffer@I$09@?$output_processor@_WV?$stream_output_adapter@_W@__crt_stdio_output@@V?$format_validation_base@_WV?$stream_output_adapter@_W@__crt_stdio_output@@@2@@__crt_stdio_output@@AEAAXI_N@Z 00000001800cb5a0 f i libucrtd:output.obj
 0001:000ca730       ??$type_case_integer_parse_into_buffer@I$09@?$output_processor@_WV?$stream_output_adapter@_W@__crt_stdio_output@@V?$positional_parameter_base@_WV?$stream_output_adapter@_W@__crt_stdio_output@@@2@@__crt_stdio_output@@AEAAXI_N@Z 00000001800cb730 f i libucrtd:output.obj
 0001:000ca8c0       ??$type_case_integer_parse_into_buffer@I$09@?$output_processor@_WV?$stream_output_adapter@_W@__crt_stdio_output@@V?$standard_base@_WV?$stream_output_adapter@_W@__crt_stdio_output@@@2@@__crt_stdio_output@@AEAAXI_N@Z 00000001800cb8c0 f i libucrtd:output.obj
 0001:000caa50       ??$type_case_integer_parse_into_buffer@I$09@?$output_processor@_WV?$string_output_adapter@_W@__crt_stdio_output@@V?$format_validation_base@_WV?$string_output_adapter@_W@__crt_stdio_output@@@2@@__crt_stdio_output@@AEAAXI_N@Z 00000001800cba50 f i libucrtd:output.obj
 0001:000cabe0       ??$type_case_integer_parse_into_buffer@I$09@?$output_processor@_WV?$string_output_adapter@_W@__crt_stdio_output@@V?$positional_parameter_base@_WV?$string_output_adapter@_W@__crt_stdio_output@@@2@@__crt_stdio_output@@AEAAXI_N@Z 00000001800cbbe0 f i libucrtd:output.obj
 0001:000cad70       ??$type_case_integer_parse_into_buffer@I$09@?$output_processor@_WV?$string_output_adapter@_W@__crt_stdio_output@@V?$standard_base@_WV?$string_output_adapter@_W@__crt_stdio_output@@@2@@__crt_stdio_output@@AEAAXI_N@Z 00000001800cbd70 f i libucrtd:output.obj
 0001:000caf00       ??$type_case_integer_parse_into_buffer@I$0BA@@?$output_processor@DV?$stream_output_adapter@D@__crt_stdio_output@@V?$format_validation_base@DV?$stream_output_adapter@D@__crt_stdio_output@@@2@@__crt_stdio_output@@AEAAXI_N@Z 00000001800cbf00 f i libucrtd:output.obj
 0001:000cb070       ??$type_case_integer_parse_into_buffer@I$0BA@@?$output_processor@DV?$stream_output_adapter@D@__crt_stdio_output@@V?$positional_parameter_base@DV?$stream_output_adapter@D@__crt_stdio_output@@@2@@__crt_stdio_output@@AEAAXI_N@Z 00000001800cc070 f i libucrtd:output.obj
 0001:000cb1e0       ??$type_case_integer_parse_into_buffer@I$0BA@@?$output_processor@DV?$stream_output_adapter@D@__crt_stdio_output@@V?$standard_base@DV?$stream_output_adapter@D@__crt_stdio_output@@@2@@__crt_stdio_output@@AEAAXI_N@Z 00000001800cc1e0 f i libucrtd:output.obj
 0001:000cb350       ??$type_case_integer_parse_into_buffer@I$0BA@@?$output_processor@DV?$string_output_adapter@D@__crt_stdio_output@@V?$format_validation_base@DV?$string_output_adapter@D@__crt_stdio_output@@@2@@__crt_stdio_output@@AEAAXI_N@Z 00000001800cc350 f i libucrtd:output.obj
 0001:000cb4c0       ??$type_case_integer_parse_into_buffer@I$0BA@@?$output_processor@DV?$string_output_adapter@D@__crt_stdio_output@@V?$positional_parameter_base@DV?$string_output_adapter@D@__crt_stdio_output@@@2@@__crt_stdio_output@@AEAAXI_N@Z 00000001800cc4c0 f i libucrtd:output.obj
 0001:000cb630       ??$type_case_integer_parse_into_buffer@I$0BA@@?$output_processor@DV?$string_output_adapter@D@__crt_stdio_output@@V?$standard_base@DV?$string_output_adapter@D@__crt_stdio_output@@@2@@__crt_stdio_output@@AEAAXI_N@Z 00000001800cc630 f i libucrtd:output.obj
 0001:000cb7a0       ??$type_case_integer_parse_into_buffer@I$0BA@@?$output_processor@_WV?$stream_output_adapter@_W@__crt_stdio_output@@V?$format_validation_base@_WV?$stream_output_adapter@_W@__crt_stdio_output@@@2@@__crt_stdio_output@@AEAAXI_N@Z 00000001800cc7a0 f i libucrtd:output.obj
 0001:000cb930       ??$type_case_integer_parse_into_buffer@I$0BA@@?$output_processor@_WV?$stream_output_adapter@_W@__crt_stdio_output@@V?$positional_parameter_base@_WV?$stream_output_adapter@_W@__crt_stdio_output@@@2@@__crt_stdio_output@@AEAAXI_N@Z 00000001800cc930 f i libucrtd:output.obj
 0001:000cbac0       ??$type_case_integer_parse_into_buffer@I$0BA@@?$output_processor@_WV?$stream_output_adapter@_W@__crt_stdio_output@@V?$standard_base@_WV?$stream_output_adapter@_W@__crt_stdio_output@@@2@@__crt_stdio_output@@AEAAXI_N@Z 00000001800ccac0 f i libucrtd:output.obj
 0001:000cbc50       ??$type_case_integer_parse_into_buffer@I$0BA@@?$output_processor@_WV?$string_output_adapter@_W@__crt_stdio_output@@V?$format_validation_base@_WV?$string_output_adapter@_W@__crt_stdio_output@@@2@@__crt_stdio_output@@AEAAXI_N@Z 00000001800ccc50 f i libucrtd:output.obj
 0001:000cbde0       ??$type_case_integer_parse_into_buffer@I$0BA@@?$output_processor@_WV?$string_output_adapter@_W@__crt_stdio_output@@V?$positional_parameter_base@_WV?$string_output_adapter@_W@__crt_stdio_output@@@2@@__crt_stdio_output@@AEAAXI_N@Z 00000001800ccde0 f i libucrtd:output.obj
 0001:000cbf70       ??$type_case_integer_parse_into_buffer@I$0BA@@?$output_processor@_WV?$string_output_adapter@_W@__crt_stdio_output@@V?$standard_base@_WV?$string_output_adapter@_W@__crt_stdio_output@@@2@@__crt_stdio_output@@AEAAXI_N@Z 00000001800ccf70 f i libucrtd:output.obj
 0001:000cc100       ??$type_case_integer_parse_into_buffer@_K$07@?$output_processor@DV?$stream_output_adapter@D@__crt_stdio_output@@V?$format_validation_base@DV?$stream_output_adapter@D@__crt_stdio_output@@@2@@__crt_stdio_output@@AEAAX_K_N@Z 00000001800cd100 f i libucrtd:output.obj
 0001:000cc280       ??$type_case_integer_parse_into_buffer@_K$07@?$output_processor@DV?$stream_output_adapter@D@__crt_stdio_output@@V?$positional_parameter_base@DV?$stream_output_adapter@D@__crt_stdio_output@@@2@@__crt_stdio_output@@AEAAX_K_N@Z 00000001800cd280 f i libucrtd:output.obj
 0001:000cc400       ??$type_case_integer_parse_into_buffer@_K$07@?$output_processor@DV?$stream_output_adapter@D@__crt_stdio_output@@V?$standard_base@DV?$stream_output_adapter@D@__crt_stdio_output@@@2@@__crt_stdio_output@@AEAAX_K_N@Z 00000001800cd400 f i libucrtd:output.obj
 0001:000cc580       ??$type_case_integer_parse_into_buffer@_K$07@?$output_processor@DV?$string_output_adapter@D@__crt_stdio_output@@V?$format_validation_base@DV?$string_output_adapter@D@__crt_stdio_output@@@2@@__crt_stdio_output@@AEAAX_K_N@Z 00000001800cd580 f i libucrtd:output.obj
 0001:000cc700       ??$type_case_integer_parse_into_buffer@_K$07@?$output_processor@DV?$string_output_adapter@D@__crt_stdio_output@@V?$positional_parameter_base@DV?$string_output_adapter@D@__crt_stdio_output@@@2@@__crt_stdio_output@@AEAAX_K_N@Z 00000001800cd700 f i libucrtd:output.obj
 0001:000cc880       ??$type_case_integer_parse_into_buffer@_K$07@?$output_processor@DV?$string_output_adapter@D@__crt_stdio_output@@V?$standard_base@DV?$string_output_adapter@D@__crt_stdio_output@@@2@@__crt_stdio_output@@AEAAX_K_N@Z 00000001800cd880 f i libucrtd:output.obj
 0001:000cca00       ??$type_case_integer_parse_into_buffer@_K$07@?$output_processor@_WV?$stream_output_adapter@_W@__crt_stdio_output@@V?$format_validation_base@_WV?$stream_output_adapter@_W@__crt_stdio_output@@@2@@__crt_stdio_output@@AEAAX_K_N@Z 00000001800cda00 f i libucrtd:output.obj
 0001:000ccb90       ??$type_case_integer_parse_into_buffer@_K$07@?$output_processor@_WV?$stream_output_adapter@_W@__crt_stdio_output@@V?$positional_parameter_base@_WV?$stream_output_adapter@_W@__crt_stdio_output@@@2@@__crt_stdio_output@@AEAAX_K_N@Z 00000001800cdb90 f i libucrtd:output.obj
 0001:000ccd20       ??$type_case_integer_parse_into_buffer@_K$07@?$output_processor@_WV?$stream_output_adapter@_W@__crt_stdio_output@@V?$standard_base@_WV?$stream_output_adapter@_W@__crt_stdio_output@@@2@@__crt_stdio_output@@AEAAX_K_N@Z 00000001800cdd20 f i libucrtd:output.obj
 0001:000cceb0       ??$type_case_integer_parse_into_buffer@_K$07@?$output_processor@_WV?$string_output_adapter@_W@__crt_stdio_output@@V?$format_validation_base@_WV?$string_output_adapter@_W@__crt_stdio_output@@@2@@__crt_stdio_output@@AEAAX_K_N@Z 00000001800cdeb0 f i libucrtd:output.obj
 0001:000cd040       ??$type_case_integer_parse_into_buffer@_K$07@?$output_processor@_WV?$string_output_adapter@_W@__crt_stdio_output@@V?$positional_parameter_base@_WV?$string_output_adapter@_W@__crt_stdio_output@@@2@@__crt_stdio_output@@AEAAX_K_N@Z 00000001800ce040 f i libucrtd:output.obj
 0001:000cd1d0       ??$type_case_integer_parse_into_buffer@_K$07@?$output_processor@_WV?$string_output_adapter@_W@__crt_stdio_output@@V?$standard_base@_WV?$string_output_adapter@_W@__crt_stdio_output@@@2@@__crt_stdio_output@@AEAAX_K_N@Z 00000001800ce1d0 f i libucrtd:output.obj
 0001:000cd360       ??$type_case_integer_parse_into_buffer@_K$09@?$output_processor@DV?$stream_output_adapter@D@__crt_stdio_output@@V?$format_validation_base@DV?$stream_output_adapter@D@__crt_stdio_output@@@2@@__crt_stdio_output@@AEAAX_K_N@Z 00000001800ce360 f i libucrtd:output.obj
 0001:000cd4e0       ??$type_case_integer_parse_into_buffer@_K$09@?$output_processor@DV?$stream_output_adapter@D@__crt_stdio_output@@V?$positional_parameter_base@DV?$stream_output_adapter@D@__crt_stdio_output@@@2@@__crt_stdio_output@@AEAAX_K_N@Z 00000001800ce4e0 f i libucrtd:output.obj
 0001:000cd660       ??$type_case_integer_parse_into_buffer@_K$09@?$output_processor@DV?$stream_output_adapter@D@__crt_stdio_output@@V?$standard_base@DV?$stream_output_adapter@D@__crt_stdio_output@@@2@@__crt_stdio_output@@AEAAX_K_N@Z 00000001800ce660 f i libucrtd:output.obj
 0001:000cd7e0       ??$type_case_integer_parse_into_buffer@_K$09@?$output_processor@DV?$string_output_adapter@D@__crt_stdio_output@@V?$format_validation_base@DV?$string_output_adapter@D@__crt_stdio_output@@@2@@__crt_stdio_output@@AEAAX_K_N@Z 00000001800ce7e0 f i libucrtd:output.obj
 0001:000cd960       ??$type_case_integer_parse_into_buffer@_K$09@?$output_processor@DV?$string_output_adapter@D@__crt_stdio_output@@V?$positional_parameter_base@DV?$string_output_adapter@D@__crt_stdio_output@@@2@@__crt_stdio_output@@AEAAX_K_N@Z 00000001800ce960 f i libucrtd:output.obj
 0001:000cdae0       ??$type_case_integer_parse_into_buffer@_K$09@?$output_processor@DV?$string_output_adapter@D@__crt_stdio_output@@V?$standard_base@DV?$string_output_adapter@D@__crt_stdio_output@@@2@@__crt_stdio_output@@AEAAX_K_N@Z 00000001800ceae0 f i libucrtd:output.obj
 0001:000cdc60       ??$type_case_integer_parse_into_buffer@_K$09@?$output_processor@_WV?$stream_output_adapter@_W@__crt_stdio_output@@V?$format_validation_base@_WV?$stream_output_adapter@_W@__crt_stdio_output@@@2@@__crt_stdio_output@@AEAAX_K_N@Z 00000001800cec60 f i libucrtd:output.obj
 0001:000cddf0       ??$type_case_integer_parse_into_buffer@_K$09@?$output_processor@_WV?$stream_output_adapter@_W@__crt_stdio_output@@V?$positional_parameter_base@_WV?$stream_output_adapter@_W@__crt_stdio_output@@@2@@__crt_stdio_output@@AEAAX_K_N@Z 00000001800cedf0 f i libucrtd:output.obj
 0001:000cdf80       ??$type_case_integer_parse_into_buffer@_K$09@?$output_processor@_WV?$stream_output_adapter@_W@__crt_stdio_output@@V?$standard_base@_WV?$stream_output_adapter@_W@__crt_stdio_output@@@2@@__crt_stdio_output@@AEAAX_K_N@Z 00000001800cef80 f i libucrtd:output.obj
 0001:000ce110       ??$type_case_integer_parse_into_buffer@_K$09@?$output_processor@_WV?$string_output_adapter@_W@__crt_stdio_output@@V?$format_validation_base@_WV?$string_output_adapter@_W@__crt_stdio_output@@@2@@__crt_stdio_output@@AEAAX_K_N@Z 00000001800cf110 f i libucrtd:output.obj
 0001:000ce2a0       ??$type_case_integer_parse_into_buffer@_K$09@?$output_processor@_WV?$string_output_adapter@_W@__crt_stdio_output@@V?$positional_parameter_base@_WV?$string_output_adapter@_W@__crt_stdio_output@@@2@@__crt_stdio_output@@AEAAX_K_N@Z 00000001800cf2a0 f i libucrtd:output.obj
 0001:000ce430       ??$type_case_integer_parse_into_buffer@_K$09@?$output_processor@_WV?$string_output_adapter@_W@__crt_stdio_output@@V?$standard_base@_WV?$string_output_adapter@_W@__crt_stdio_output@@@2@@__crt_stdio_output@@AEAAX_K_N@Z 00000001800cf430 f i libucrtd:output.obj
 0001:000ce5c0       ??$type_case_integer_parse_into_buffer@_K$0BA@@?$output_processor@DV?$stream_output_adapter@D@__crt_stdio_output@@V?$format_validation_base@DV?$stream_output_adapter@D@__crt_stdio_output@@@2@@__crt_stdio_output@@AEAAX_K_N@Z 00000001800cf5c0 f i libucrtd:output.obj
 0001:000ce740       ??$type_case_integer_parse_into_buffer@_K$0BA@@?$output_processor@DV?$stream_output_adapter@D@__crt_stdio_output@@V?$positional_parameter_base@DV?$stream_output_adapter@D@__crt_stdio_output@@@2@@__crt_stdio_output@@AEAAX_K_N@Z 00000001800cf740 f i libucrtd:output.obj
 0001:000ce8c0       ??$type_case_integer_parse_into_buffer@_K$0BA@@?$output_processor@DV?$stream_output_adapter@D@__crt_stdio_output@@V?$standard_base@DV?$stream_output_adapter@D@__crt_stdio_output@@@2@@__crt_stdio_output@@AEAAX_K_N@Z 00000001800cf8c0 f i libucrtd:output.obj
 0001:000cea40       ??$type_case_integer_parse_into_buffer@_K$0BA@@?$output_processor@DV?$string_output_adapter@D@__crt_stdio_output@@V?$format_validation_base@DV?$string_output_adapter@D@__crt_stdio_output@@@2@@__crt_stdio_output@@AEAAX_K_N@Z 00000001800cfa40 f i libucrtd:output.obj
 0001:000cebc0       ??$type_case_integer_parse_into_buffer@_K$0BA@@?$output_processor@DV?$string_output_adapter@D@__crt_stdio_output@@V?$positional_parameter_base@DV?$string_output_adapter@D@__crt_stdio_output@@@2@@__crt_stdio_output@@AEAAX_K_N@Z 00000001800cfbc0 f i libucrtd:output.obj
 0001:000ced40       ??$type_case_integer_parse_into_buffer@_K$0BA@@?$output_processor@DV?$string_output_adapter@D@__crt_stdio_output@@V?$standard_base@DV?$string_output_adapter@D@__crt_stdio_output@@@2@@__crt_stdio_output@@AEAAX_K_N@Z 00000001800cfd40 f i libucrtd:output.obj
 0001:000ceec0       ??$type_case_integer_parse_into_buffer@_K$0BA@@?$output_processor@_WV?$stream_output_adapter@_W@__crt_stdio_output@@V?$format_validation_base@_WV?$stream_output_adapter@_W@__crt_stdio_output@@@2@@__crt_stdio_output@@AEAAX_K_N@Z 00000001800cfec0 f i libucrtd:output.obj
 0001:000cf050       ??$type_case_integer_parse_into_buffer@_K$0BA@@?$output_processor@_WV?$stream_output_adapter@_W@__crt_stdio_output@@V?$positional_parameter_base@_WV?$stream_output_adapter@_W@__crt_stdio_output@@@2@@__crt_stdio_output@@AEAAX_K_N@Z 00000001800d0050 f i libucrtd:output.obj
 0001:000cf1e0       ??$type_case_integer_parse_into_buffer@_K$0BA@@?$output_processor@_WV?$stream_output_adapter@_W@__crt_stdio_output@@V?$standard_base@_WV?$stream_output_adapter@_W@__crt_stdio_output@@@2@@__crt_stdio_output@@AEAAX_K_N@Z 00000001800d01e0 f i libucrtd:output.obj
 0001:000cf370       ??$type_case_integer_parse_into_buffer@_K$0BA@@?$output_processor@_WV?$string_output_adapter@_W@__crt_stdio_output@@V?$format_validation_base@_WV?$string_output_adapter@_W@__crt_stdio_output@@@2@@__crt_stdio_output@@AEAAX_K_N@Z 00000001800d0370 f i libucrtd:output.obj
 0001:000cf500       ??$type_case_integer_parse_into_buffer@_K$0BA@@?$output_processor@_WV?$string_output_adapter@_W@__crt_stdio_output@@V?$positional_parameter_base@_WV?$string_output_adapter@_W@__crt_stdio_output@@@2@@__crt_stdio_output@@AEAAX_K_N@Z 00000001800d0500 f i libucrtd:output.obj
 0001:000cf690       ??$type_case_integer_parse_into_buffer@_K$0BA@@?$output_processor@_WV?$string_output_adapter@_W@__crt_stdio_output@@V?$standard_base@_WV?$string_output_adapter@_W@__crt_stdio_output@@@2@@__crt_stdio_output@@AEAAX_K_N@Z 00000001800d0690 f i libucrtd:output.obj
 0001:000cf820       ??$write_multiple_characters@V?$stream_output_adapter@D@__crt_stdio_output@@D@__crt_stdio_output@@YAXAEBV?$stream_output_adapter@D@0@DHQEAHAEAV__crt_cached_ptd_host@@@Z 00000001800d0820 f i libucrtd:output.obj
 0001:000cf8a0       ??$write_multiple_characters@V?$stream_output_adapter@_W@__crt_stdio_output@@D@__crt_stdio_output@@YAXAEBV?$stream_output_adapter@_W@0@DHQEAHAEAV__crt_cached_ptd_host@@@Z 00000001800d08a0 f i libucrtd:output.obj
 0001:000cf920       ??$write_multiple_characters@V?$string_output_adapter@D@__crt_stdio_output@@D@__crt_stdio_output@@YAXAEBV?$string_output_adapter@D@0@DHQEAHAEAV__crt_cached_ptd_host@@@Z 00000001800d0920 f i libucrtd:output.obj
 0001:000cf9a0       ??$write_multiple_characters@V?$string_output_adapter@_W@__crt_stdio_output@@D@__crt_stdio_output@@YAXAEBV?$string_output_adapter@_W@0@DHQEAHAEAV__crt_cached_ptd_host@@@Z 00000001800d09a0 f i libucrtd:output.obj
 0001:000cff60       ??0?$c_string_character_source@D@__crt_strtox@@QEAA@QEBDQEAPEBD@Z 00000001800d0f60 f i libucrtd:output.obj
 0001:000cffc0       ??0?$c_string_character_source@_W@__crt_strtox@@QEAA@QEB_WQEAPEB_W@Z 00000001800d0fc0 f i libucrtd:output.obj
 0001:000d0020       ??0?$cached@H@__crt_cached_ptd_host@@QEAA@XZ 00000001800d1020 f i libucrtd:output.obj
 0001:000d0040       ??0?$cached@K@__crt_cached_ptd_host@@QEAA@XZ 00000001800d1040 f i libucrtd:output.obj
 0001:000d0060       ??0?$common_data@D@__crt_stdio_output@@IEAA@AEAV__crt_cached_ptd_host@@@Z 00000001800d1060 f i libucrtd:output.obj
 0001:000d0150       ??0?$common_data@_W@__crt_stdio_output@@IEAA@AEAV__crt_cached_ptd_host@@@Z 00000001800d1150 f i libucrtd:output.obj
 0001:000d0240       ??0?$output_adapter_data@DV?$stream_output_adapter@D@__crt_stdio_output@@@__crt_stdio_output@@IEAA@AEBV?$stream_output_adapter@D@1@_KQEBDAEAV__crt_cached_ptd_host@@QEAD@Z 00000001800d1240 f i libucrtd:output.obj
 0001:000d02e0       ??0?$output_adapter_data@DV?$string_output_adapter@D@__crt_stdio_output@@@__crt_stdio_output@@IEAA@AEBV?$string_output_adapter@D@1@_KQEBDAEAV__crt_cached_ptd_host@@QEAD@Z 00000001800d12e0 f i libucrtd:output.obj
 0001:000d0380       ??0?$output_adapter_data@_WV?$stream_output_adapter@_W@__crt_stdio_output@@@__crt_stdio_output@@IEAA@AEBV?$stream_output_adapter@_W@1@_KQEB_WAEAV__crt_cached_ptd_host@@QEAD@Z 00000001800d1380 f i libucrtd:output.obj
 0001:000d0420       ??0?$output_adapter_data@_WV?$string_output_adapter@_W@__crt_stdio_output@@@__crt_stdio_output@@IEAA@AEBV?$string_output_adapter@_W@1@_KQEB_WAEAV__crt_cached_ptd_host@@QEAD@Z 00000001800d1420 f i libucrtd:output.obj
 0001:000d04c0       ??0?$output_processor@DV?$stream_output_adapter@D@__crt_stdio_output@@V?$format_validation_base@DV?$stream_output_adapter@D@__crt_stdio_output@@@2@@__crt_stdio_output@@QEAA@AEBV?$stream_output_adapter@D@1@_KQEBDAEAV__crt_cached_ptd_host@@QEAD@Z 00000001800d14c0 f i libucrtd:output.obj
 0001:000d0530       ??0?$output_processor@DV?$stream_output_adapter@D@__crt_stdio_output@@V?$positional_parameter_base@DV?$stream_output_adapter@D@__crt_stdio_output@@@2@@__crt_stdio_output@@QEAA@AEBV?$stream_output_adapter@D@1@_KQEBDAEAV__crt_cached_ptd_host@@QEAD@Z 00000001800d1530 f i libucrtd:output.obj
 0001:000d05a0       ??0?$output_processor@DV?$stream_output_adapter@D@__crt_stdio_output@@V?$standard_base@DV?$stream_output_adapter@D@__crt_stdio_output@@@2@@__crt_stdio_output@@QEAA@AEBV?$stream_output_adapter@D@1@_KQEBDAEAV__crt_cached_ptd_host@@QEAD@Z 00000001800d15a0 f i libucrtd:output.obj
 0001:000d0610       ??0?$output_processor@DV?$string_output_adapter@D@__crt_stdio_output@@V?$format_validation_base@DV?$string_output_adapter@D@__crt_stdio_output@@@2@@__crt_stdio_output@@QEAA@AEBV?$string_output_adapter@D@1@_KQEBDAEAV__crt_cached_ptd_host@@QEAD@Z 00000001800d1610 f i libucrtd:output.obj
 0001:000d0680       ??0?$output_processor@DV?$string_output_adapter@D@__crt_stdio_output@@V?$positional_parameter_base@DV?$string_output_adapter@D@__crt_stdio_output@@@2@@__crt_stdio_output@@QEAA@AEBV?$string_output_adapter@D@1@_KQEBDAEAV__crt_cached_ptd_host@@QEAD@Z 00000001800d1680 f i libucrtd:output.obj
 0001:000d06f0       ??0?$output_processor@DV?$string_output_adapter@D@__crt_stdio_output@@V?$standard_base@DV?$string_output_adapter@D@__crt_stdio_output@@@2@@__crt_stdio_output@@QEAA@AEBV?$string_output_adapter@D@1@_KQEBDAEAV__crt_cached_ptd_host@@QEAD@Z 00000001800d16f0 f i libucrtd:output.obj
 0001:000d0760       ??0?$output_processor@_WV?$stream_output_adapter@_W@__crt_stdio_output@@V?$format_validation_base@_WV?$stream_output_adapter@_W@__crt_stdio_output@@@2@@__crt_stdio_output@@QEAA@AEBV?$stream_output_adapter@_W@1@_KQEB_WAEAV__crt_cached_ptd_host@@QEAD@Z 00000001800d1760 f i libucrtd:output.obj
 0001:000d07d0       ??0?$output_processor@_WV?$stream_output_adapter@_W@__crt_stdio_output@@V?$positional_parameter_base@_WV?$stream_output_adapter@_W@__crt_stdio_output@@@2@@__crt_stdio_output@@QEAA@AEBV?$stream_output_adapter@_W@1@_KQEB_WAEAV__crt_cached_ptd_host@@QEAD@Z 00000001800d17d0 f i libucrtd:output.obj
 0001:000d0840       ??0?$output_processor@_WV?$stream_output_adapter@_W@__crt_stdio_output@@V?$standard_base@_WV?$stream_output_adapter@_W@__crt_stdio_output@@@2@@__crt_stdio_output@@QEAA@AEBV?$stream_output_adapter@_W@1@_KQEB_WAEAV__crt_cached_ptd_host@@QEAD@Z 00000001800d1840 f i libucrtd:output.obj
 0001:000d08b0       ??0?$output_processor@_WV?$string_output_adapter@_W@__crt_stdio_output@@V?$format_validation_base@_WV?$string_output_adapter@_W@__crt_stdio_output@@@2@@__crt_stdio_output@@QEAA@AEBV?$string_output_adapter@_W@1@_KQEB_WAEAV__crt_cached_ptd_host@@QEAD@Z 00000001800d18b0 f i libucrtd:output.obj
 0001:000d0920       ??0?$output_processor@_WV?$string_output_adapter@_W@__crt_stdio_output@@V?$positional_parameter_base@_WV?$string_output_adapter@_W@__crt_stdio_output@@@2@@__crt_stdio_output@@QEAA@AEBV?$string_output_adapter@_W@1@_KQEB_WAEAV__crt_cached_ptd_host@@QEAD@Z 00000001800d1920 f i libucrtd:output.obj
 0001:000d0990       ??0?$output_processor@_WV?$string_output_adapter@_W@__crt_stdio_output@@V?$standard_base@_WV?$string_output_adapter@_W@__crt_stdio_output@@@2@@__crt_stdio_output@@QEAA@AEBV?$string_output_adapter@_W@1@_KQEB_WAEAV__crt_cached_ptd_host@@QEAD@Z 00000001800d1990 f i libucrtd:output.obj
 0001:000d0a00       ??0?$stream_output_adapter@D@__crt_stdio_output@@QEAA@QEAU_iobuf@@@Z 00000001800d1a00 f i libucrtd:output.obj
 0001:000d0a40       ??0?$stream_output_adapter@_W@__crt_stdio_output@@QEAA@QEAU_iobuf@@@Z 00000001800d1a40 f i libucrtd:output.obj
 0001:000d0a80       ??0?$string_output_adapter@D@__crt_stdio_output@@QEAA@QEAU?$string_output_adapter_context@D@1@@Z 00000001800d1a80 f i libucrtd:output.obj
 0001:000d0ab0       ??0?$string_output_adapter@_W@__crt_stdio_output@@QEAA@QEAU?$string_output_adapter_context@_W@1@@Z 00000001800d1ab0 f i libucrtd:output.obj
 0001:000d0ae0       ??0__acrt_stdio_temporary_buffering_guard@@QEAA@QEAU_iobuf@@AEAV__crt_cached_ptd_host@@@Z 00000001800d1ae0 f i libucrtd:output.obj
 0001:000d0b40       ??0__crt_cached_ptd_host@@QEAA@QEAU__crt_locale_pointers@@@Z 00000001800d1b40 f i libucrtd:output.obj
 0001:000d0c20       ??0__crt_scoped_get_last_error_reset@@QEAA@XZ 00000001800d1c20 f i libucrtd:output.obj
 0001:000d0c50       ??0__crt_stdio_stream@@QEAA@QEAU_iobuf@@@Z 00000001800d1c50 f i libucrtd:output.obj
 0001:000d0c80       ??0formatting_buffer@__crt_stdio_output@@QEAA@XZ 00000001800d1c80 f i libucrtd:output.obj
 0001:000d0cd0       ??0guard@?$cached@H@__crt_cached_ptd_host@@QEAA@AEAU12@@Z 00000001800d1cd0 f i libucrtd:output.obj
 0001:000d0d20       ??1?$c_string_character_source@D@__crt_strtox@@QEAA@XZ 00000001800d1d20 f i libucrtd:output.obj
 0001:000d0d50       ??1?$c_string_character_source@_W@__crt_strtox@@QEAA@XZ 00000001800d1d50 f i libucrtd:output.obj
 0001:000d0d80       ??1?$common_data@D@__crt_stdio_output@@QEAA@XZ 00000001800d1d80 f i libucrtd:output.obj
 0001:000d0db0       ??1?$common_data@_W@__crt_stdio_output@@QEAA@XZ 00000001800d1db0 f i libucrtd:output.obj
 0001:000d0de0       ??1?$format_validation_base@DV?$stream_output_adapter@D@__crt_stdio_output@@@__crt_stdio_output@@QEAA@XZ 00000001800d1de0 f i libucrtd:output.obj
 0001:000d0e00       ??1?$format_validation_base@DV?$string_output_adapter@D@__crt_stdio_output@@@__crt_stdio_output@@QEAA@XZ 00000001800d1e00 f i libucrtd:output.obj
 0001:000d0e20       ??1?$format_validation_base@_WV?$stream_output_adapter@_W@__crt_stdio_output@@@__crt_stdio_output@@QEAA@XZ 00000001800d1e20 f i libucrtd:output.obj
 0001:000d0e40       ??1?$format_validation_base@_WV?$string_output_adapter@_W@__crt_stdio_output@@@__crt_stdio_output@@QEAA@XZ 00000001800d1e40 f i libucrtd:output.obj
 0001:000d0e60       ??1?$output_adapter_data@DV?$stream_output_adapter@D@__crt_stdio_output@@@__crt_stdio_output@@QEAA@XZ 00000001800d1e60 f i libucrtd:output.obj
 0001:000d0e80       ??1?$output_adapter_data@DV?$string_output_adapter@D@__crt_stdio_output@@@__crt_stdio_output@@QEAA@XZ 00000001800d1e80 f i libucrtd:output.obj
 0001:000d0ea0       ??1?$output_adapter_data@_WV?$stream_output_adapter@_W@__crt_stdio_output@@@__crt_stdio_output@@QEAA@XZ 00000001800d1ea0 f i libucrtd:output.obj
 0001:000d0ec0       ??1?$output_adapter_data@_WV?$string_output_adapter@_W@__crt_stdio_output@@@__crt_stdio_output@@QEAA@XZ 00000001800d1ec0 f i libucrtd:output.obj
 0001:000d0ee0       ??1?$output_processor@DV?$stream_output_adapter@D@__crt_stdio_output@@V?$format_validation_base@DV?$stream_output_adapter@D@__crt_stdio_output@@@2@@__crt_stdio_output@@QEAA@XZ 00000001800d1ee0 f i libucrtd:output.obj
 0001:000d0f00       ??1?$output_processor@DV?$stream_output_adapter@D@__crt_stdio_output@@V?$positional_parameter_base@DV?$stream_output_adapter@D@__crt_stdio_output@@@2@@__crt_stdio_output@@QEAA@XZ 00000001800d1f00 f i libucrtd:output.obj
 0001:000d0f20       ??1?$output_processor@DV?$stream_output_adapter@D@__crt_stdio_output@@V?$standard_base@DV?$stream_output_adapter@D@__crt_stdio_output@@@2@@__crt_stdio_output@@QEAA@XZ 00000001800d1f20 f i libucrtd:output.obj
 0001:000d0f40       ??1?$output_processor@DV?$string_output_adapter@D@__crt_stdio_output@@V?$format_validation_base@DV?$string_output_adapter@D@__crt_stdio_output@@@2@@__crt_stdio_output@@QEAA@XZ 00000001800d1f40 f i libucrtd:output.obj
 0001:000d0f60       ??1?$output_processor@DV?$string_output_adapter@D@__crt_stdio_output@@V?$positional_parameter_base@DV?$string_output_adapter@D@__crt_stdio_output@@@2@@__crt_stdio_output@@QEAA@XZ 00000001800d1f60 f i libucrtd:output.obj
 0001:000d0f80       ??1?$output_processor@DV?$string_output_adapter@D@__crt_stdio_output@@V?$standard_base@DV?$string_output_adapter@D@__crt_stdio_output@@@2@@__crt_stdio_output@@QEAA@XZ 00000001800d1f80 f i libucrtd:output.obj
 0001:000d0fa0       ??1?$output_processor@_WV?$stream_output_adapter@_W@__crt_stdio_output@@V?$format_validation_base@_WV?$stream_output_adapter@_W@__crt_stdio_output@@@2@@__crt_stdio_output@@QEAA@XZ 00000001800d1fa0 f i libucrtd:output.obj
 0001:000d0fc0       ??1?$output_processor@_WV?$stream_output_adapter@_W@__crt_stdio_output@@V?$positional_parameter_base@_WV?$stream_output_adapter@_W@__crt_stdio_output@@@2@@__crt_stdio_output@@QEAA@XZ 00000001800d1fc0 f i libucrtd:output.obj
 0001:000d0fe0       ??1?$output_processor@_WV?$stream_output_adapter@_W@__crt_stdio_output@@V?$standard_base@_WV?$stream_output_adapter@_W@__crt_stdio_output@@@2@@__crt_stdio_output@@QEAA@XZ 00000001800d1fe0 f i libucrtd:output.obj
 0001:000d1000       ??1?$output_processor@_WV?$string_output_adapter@_W@__crt_stdio_output@@V?$format_validation_base@_WV?$string_output_adapter@_W@__crt_stdio_output@@@2@@__crt_stdio_output@@QEAA@XZ 00000001800d2000 f i libucrtd:output.obj
 0001:000d1020       ??1?$output_processor@_WV?$string_output_adapter@_W@__crt_stdio_output@@V?$positional_parameter_base@_WV?$string_output_adapter@_W@__crt_stdio_output@@@2@@__crt_stdio_output@@QEAA@XZ 00000001800d2020 f i libucrtd:output.obj
 0001:000d1040       ??1?$output_processor@_WV?$string_output_adapter@_W@__crt_stdio_output@@V?$standard_base@_WV?$string_output_adapter@_W@__crt_stdio_output@@@2@@__crt_stdio_output@@QEAA@XZ 00000001800d2040 f i libucrtd:output.obj
 0001:000d1060       ??1?$positional_parameter_base@DV?$stream_output_adapter@D@__crt_stdio_output@@@__crt_stdio_output@@QEAA@XZ 00000001800d2060 f i libucrtd:output.obj
 0001:000d1080       ??1?$positional_parameter_base@DV?$string_output_adapter@D@__crt_stdio_output@@@__crt_stdio_output@@QEAA@XZ 00000001800d2080 f i libucrtd:output.obj
 0001:000d10a0       ??1?$positional_parameter_base@_WV?$stream_output_adapter@_W@__crt_stdio_output@@@__crt_stdio_output@@QEAA@XZ 00000001800d20a0 f i libucrtd:output.obj
 0001:000d10c0       ??1?$positional_parameter_base@_WV?$string_output_adapter@_W@__crt_stdio_output@@@__crt_stdio_output@@QEAA@XZ 00000001800d20c0 f i libucrtd:output.obj
 0001:000d10e0       ??1?$standard_base@DV?$stream_output_adapter@D@__crt_stdio_output@@@__crt_stdio_output@@QEAA@XZ 00000001800d20e0 f i libucrtd:output.obj
 0001:000d1100       ??1?$standard_base@DV?$string_output_adapter@D@__crt_stdio_output@@@__crt_stdio_output@@QEAA@XZ 00000001800d2100 f i libucrtd:output.obj
 0001:000d1120       ??1?$standard_base@_WV?$stream_output_adapter@_W@__crt_stdio_output@@@__crt_stdio_output@@QEAA@XZ 00000001800d2120 f i libucrtd:output.obj
 0001:000d1140       ??1?$standard_base@_WV?$string_output_adapter@_W@__crt_stdio_output@@@__crt_stdio_output@@QEAA@XZ 00000001800d2140 f i libucrtd:output.obj
 0001:000d1160       ??1__acrt_stdio_temporary_buffering_guard@@QEAA@XZ 00000001800d2160 f i libucrtd:output.obj
 0001:000d11a0       ??1__crt_cached_ptd_host@@QEAA@XZ 00000001800d21a0 f i libucrtd:output.obj
 0001:000d1270       ??1__crt_scoped_get_last_error_reset@@QEAA@XZ 00000001800d2270 f i libucrtd:output.obj
 0001:000d12a0       ??1formatting_buffer@__crt_stdio_output@@QEAA@XZ 00000001800d22a0 f i libucrtd:output.obj
 0001:000d12d0       ??1guard@?$cached@H@__crt_cached_ptd_host@@QEAA@XZ 00000001800d22d0 f i libucrtd:output.obj
 0001:000d1300       ??4?$__crt_unique_heap_ptr@DU__crt_internal_free_policy@@@@QEAAAEAV0@$$QEAV0@@Z 00000001800d2300 f i libucrtd:output.obj
 0001:000d1350       ??A?$spectre_mitigated_lookup_table@Ustate_transition_pair@__crt_stdio_output@@$0IA@@__crt_stdio_output@@QEBAAEBUstate_transition_pair@1@_K@Z 00000001800d2350 f i libucrtd:output.obj
 0001:000d1380       ??C__crt_stdio_stream@@QEBAPEAU__crt_stdio_stream_data@@XZ 00000001800d2380 f i libucrtd:output.obj
 0001:000d1e80       ?adjust_hexit@?$output_processor@DV?$stream_output_adapter@D@__crt_stdio_output@@V?$format_validation_base@DV?$stream_output_adapter@D@__crt_stdio_output@@@2@@__crt_stdio_output@@CADH_N@Z 00000001800d2e80 f i libucrtd:output.obj
 0001:000d1ee0       ?adjust_hexit@?$output_processor@DV?$stream_output_adapter@D@__crt_stdio_output@@V?$positional_parameter_base@DV?$stream_output_adapter@D@__crt_stdio_output@@@2@@__crt_stdio_output@@CADH_N@Z 00000001800d2ee0 f i libucrtd:output.obj
 0001:000d1f40       ?adjust_hexit@?$output_processor@DV?$stream_output_adapter@D@__crt_stdio_output@@V?$standard_base@DV?$stream_output_adapter@D@__crt_stdio_output@@@2@@__crt_stdio_output@@CADH_N@Z 00000001800d2f40 f i libucrtd:output.obj
 0001:000d1fa0       ?adjust_hexit@?$output_processor@DV?$string_output_adapter@D@__crt_stdio_output@@V?$format_validation_base@DV?$string_output_adapter@D@__crt_stdio_output@@@2@@__crt_stdio_output@@CADH_N@Z 00000001800d2fa0 f i libucrtd:output.obj
 0001:000d2000       ?adjust_hexit@?$output_processor@DV?$string_output_adapter@D@__crt_stdio_output@@V?$positional_parameter_base@DV?$string_output_adapter@D@__crt_stdio_output@@@2@@__crt_stdio_output@@CADH_N@Z 00000001800d3000 f i libucrtd:output.obj
 0001:000d2060       ?adjust_hexit@?$output_processor@DV?$string_output_adapter@D@__crt_stdio_output@@V?$standard_base@DV?$string_output_adapter@D@__crt_stdio_output@@@2@@__crt_stdio_output@@CADH_N@Z 00000001800d3060 f i libucrtd:output.obj
 0001:000d20c0       ?adjust_hexit@?$output_processor@_WV?$stream_output_adapter@_W@__crt_stdio_output@@V?$format_validation_base@_WV?$stream_output_adapter@_W@__crt_stdio_output@@@2@@__crt_stdio_output@@CADH_N@Z 00000001800d30c0 f i libucrtd:output.obj
 0001:000d2120       ?adjust_hexit@?$output_processor@_WV?$stream_output_adapter@_W@__crt_stdio_output@@V?$positional_parameter_base@_WV?$stream_output_adapter@_W@__crt_stdio_output@@@2@@__crt_stdio_output@@CADH_N@Z 00000001800d3120 f i libucrtd:output.obj
 0001:000d2180       ?adjust_hexit@?$output_processor@_WV?$stream_output_adapter@_W@__crt_stdio_output@@V?$standard_base@_WV?$stream_output_adapter@_W@__crt_stdio_output@@@2@@__crt_stdio_output@@CADH_N@Z 00000001800d3180 f i libucrtd:output.obj
 0001:000d21e0       ?adjust_hexit@?$output_processor@_WV?$string_output_adapter@_W@__crt_stdio_output@@V?$format_validation_base@_WV?$string_output_adapter@_W@__crt_stdio_output@@@2@@__crt_stdio_output@@CADH_N@Z 00000001800d31e0 f i libucrtd:output.obj
 0001:000d2240       ?adjust_hexit@?$output_processor@_WV?$string_output_adapter@_W@__crt_stdio_output@@V?$positional_parameter_base@_WV?$string_output_adapter@_W@__crt_stdio_output@@@2@@__crt_stdio_output@@CADH_N@Z 00000001800d3240 f i libucrtd:output.obj
 0001:000d22a0       ?adjust_hexit@?$output_processor@_WV?$string_output_adapter@_W@__crt_stdio_output@@V?$standard_base@_WV?$string_output_adapter@_W@__crt_stdio_output@@@2@@__crt_stdio_output@@CADH_N@Z 00000001800d32a0 f i libucrtd:output.obj
 0001:000d2300       ?advance_to_next_pass@?$positional_parameter_base@DV?$stream_output_adapter@D@__crt_stdio_output@@@__crt_stdio_output@@IEAA_NXZ 00000001800d3300 f i libucrtd:output.obj
 0001:000d23e0       ?advance_to_next_pass@?$positional_parameter_base@DV?$string_output_adapter@D@__crt_stdio_output@@@__crt_stdio_output@@IEAA_NXZ 00000001800d33e0 f i libucrtd:output.obj
 0001:000d24c0       ?advance_to_next_pass@?$positional_parameter_base@_WV?$stream_output_adapter@_W@__crt_stdio_output@@@__crt_stdio_output@@IEAA_NXZ 00000001800d34c0 f i libucrtd:output.obj
 0001:000d25a0       ?advance_to_next_pass@?$positional_parameter_base@_WV?$string_output_adapter@_W@__crt_stdio_output@@@__crt_stdio_output@@IEAA_NXZ 00000001800d35a0 f i libucrtd:output.obj
 0001:000d2680       ?advance_to_next_pass@?$standard_base@DV?$stream_output_adapter@D@__crt_stdio_output@@@__crt_stdio_output@@IEAA_NXZ 00000001800d3680 f i libucrtd:output.obj
 0001:000d26e0       ?advance_to_next_pass@?$standard_base@DV?$string_output_adapter@D@__crt_stdio_output@@@__crt_stdio_output@@IEAA_NXZ 00000001800d36e0 f i libucrtd:output.obj
 0001:000d2740       ?advance_to_next_pass@?$standard_base@_WV?$stream_output_adapter@_W@__crt_stdio_output@@@__crt_stdio_output@@IEAA_NXZ 00000001800d3740 f i libucrtd:output.obj
 0001:000d27a0       ?advance_to_next_pass@?$standard_base@_WV?$string_output_adapter@_W@__crt_stdio_output@@@__crt_stdio_output@@IEAA_NXZ 00000001800d37a0 f i libucrtd:output.obj
 0001:000d2800       ?check@?$cached@H@__crt_cached_ptd_host@@QEBA_NH@Z 00000001800d3800 f i libucrtd:output.obj
 0001:000d2850       ?check_synchronize_global_state_index@__crt_cached_ptd_host@@AEAA_KAEBV__crt_scoped_get_last_error_reset@@@Z 00000001800d3850 f i libucrtd:output.obj
 0001:000d28a0       ?check_synchronize_per_thread_data@__crt_cached_ptd_host@@AEAAPEAU__acrt_ptd@@XZ 00000001800d38a0 f i libucrtd:output.obj
 0001:000d28f0       ?create_guard@?$cached@H@__crt_cached_ptd_host@@QEAA?AVguard@12@XZ 00000001800d38f0 f i libucrtd:output.obj
 0001:000d2920       ?crop_zeroes@__crt_stdio_output@@YAXPEADQEAU__crt_locale_pointers@@@Z 00000001800d3920 f i libucrtd:output.obj
 0001:000d2ac0       ?disable@guard@?$cached@H@__crt_cached_ptd_host@@QEAAXXZ 00000001800d3ac0 f i libucrtd:output.obj
 0001:000d2ae0       ?enable@guard@?$cached@H@__crt_cached_ptd_host@@QEAAXXZ 00000001800d3ae0 f i libucrtd:output.obj
 0001:000d2b00       ?find_next_state@?$output_processor@DV?$stream_output_adapter@D@__crt_stdio_output@@V?$format_validation_base@DV?$stream_output_adapter@D@__crt_stdio_output@@@2@@__crt_stdio_output@@AEBA?AW4state@2@DW432@@Z 00000001800d3b00 f i libucrtd:output.obj
 0001:000d2bc0       ?find_next_state@?$output_processor@DV?$stream_output_adapter@D@__crt_stdio_output@@V?$positional_parameter_base@DV?$stream_output_adapter@D@__crt_stdio_output@@@2@@__crt_stdio_output@@AEBA?AW4state@2@DW432@@Z 00000001800d3bc0 f i libucrtd:output.obj
 0001:000d2c80       ?find_next_state@?$output_processor@DV?$stream_output_adapter@D@__crt_stdio_output@@V?$standard_base@DV?$stream_output_adapter@D@__crt_stdio_output@@@2@@__crt_stdio_output@@AEBA?AW4state@2@DW432@@Z 00000001800d3c80 f i libucrtd:output.obj
 0001:000d2d40       ?find_next_state@?$output_processor@DV?$string_output_adapter@D@__crt_stdio_output@@V?$format_validation_base@DV?$string_output_adapter@D@__crt_stdio_output@@@2@@__crt_stdio_output@@AEBA?AW4state@2@DW432@@Z 00000001800d3d40 f i libucrtd:output.obj
 0001:000d2e00       ?find_next_state@?$output_processor@DV?$string_output_adapter@D@__crt_stdio_output@@V?$positional_parameter_base@DV?$string_output_adapter@D@__crt_stdio_output@@@2@@__crt_stdio_output@@AEBA?AW4state@2@DW432@@Z 00000001800d3e00 f i libucrtd:output.obj
 0001:000d2ec0       ?find_next_state@?$output_processor@DV?$string_output_adapter@D@__crt_stdio_output@@V?$standard_base@DV?$string_output_adapter@D@__crt_stdio_output@@@2@@__crt_stdio_output@@AEBA?AW4state@2@DW432@@Z 00000001800d3ec0 f i libucrtd:output.obj
 0001:000d2f80       ?find_next_state@?$output_processor@_WV?$stream_output_adapter@_W@__crt_stdio_output@@V?$format_validation_base@_WV?$stream_output_adapter@_W@__crt_stdio_output@@@2@@__crt_stdio_output@@AEBA?AW4state@2@_WW432@@Z 00000001800d3f80 f i libucrtd:output.obj
 0001:000d3040       ?find_next_state@?$output_processor@_WV?$stream_output_adapter@_W@__crt_stdio_output@@V?$positional_parameter_base@_WV?$stream_output_adapter@_W@__crt_stdio_output@@@2@@__crt_stdio_output@@AEBA?AW4state@2@_WW432@@Z 00000001800d4040 f i libucrtd:output.obj
 0001:000d3100       ?find_next_state@?$output_processor@_WV?$stream_output_adapter@_W@__crt_stdio_output@@V?$standard_base@_WV?$stream_output_adapter@_W@__crt_stdio_output@@@2@@__crt_stdio_output@@AEBA?AW4state@2@_WW432@@Z 00000001800d4100 f i libucrtd:output.obj
 0001:000d31c0       ?find_next_state@?$output_processor@_WV?$string_output_adapter@_W@__crt_stdio_output@@V?$format_validation_base@_WV?$string_output_adapter@_W@__crt_stdio_output@@@2@@__crt_stdio_output@@AEBA?AW4state@2@_WW432@@Z 00000001800d41c0 f i libucrtd:output.obj
 0001:000d3280       ?find_next_state@?$output_processor@_WV?$string_output_adapter@_W@__crt_stdio_output@@V?$positional_parameter_base@_WV?$string_output_adapter@_W@__crt_stdio_output@@@2@@__crt_stdio_output@@AEBA?AW4state@2@_WW432@@Z 00000001800d4280 f i libucrtd:output.obj
 0001:000d3340       ?find_next_state@?$output_processor@_WV?$string_output_adapter@_W@__crt_stdio_output@@V?$standard_base@_WV?$string_output_adapter@_W@__crt_stdio_output@@@2@@__crt_stdio_output@@AEBA?AW4state@2@_WW432@@Z 00000001800d4340 f i libucrtd:output.obj
 0001:000d3400       ?force_decimal_point@__crt_stdio_output@@YAXPEADQEAU__crt_locale_pointers@@@Z 00000001800d4400 f i libucrtd:output.obj
 0001:000d3530       ?force_synchronize_global_state_index@__crt_cached_ptd_host@@AEAA_KAEBV__crt_scoped_get_last_error_reset@@@Z 00000001800d4530 f i libucrtd:output.obj
 0001:000d3580       ?force_synchronize_per_thread_data@__crt_cached_ptd_host@@AEAAPEAU__acrt_ptd@@XZ 00000001800d4580 f i libucrtd:output.obj
 0001:000d3600       ?get@?$c_string_character_source@D@__crt_strtox@@QEAADXZ 00000001800d4600 f i libucrtd:output.obj
 0001:000d3640       ?get@?$c_string_character_source@_W@__crt_strtox@@QEAA_WXZ 00000001800d4640 f i libucrtd:output.obj
 0001:000d3690       ?get_current_state_index@__crt_state_management@@YA_KAEBV__crt_scoped_get_last_error_reset@@@Z 00000001800d4690 f i libucrtd:output.obj
 0001:000d36a0       ?get_errno@__crt_cached_ptd_host@@QEAAAEAU?$cached@H@1@XZ 00000001800d46a0 f i libucrtd:output.obj
 0001:000d36c0       ?get_flags@__crt_stdio_stream@@QEBAJXZ 00000001800d46c0 f i libucrtd:output.obj
 0001:000d36f0       ?get_locale@__crt_cached_ptd_host@@QEAAPEAU__crt_locale_pointers@@XZ 00000001800d46f0 f i libucrtd:output.obj
 0001:000d3720       ?get_parameter_type@?$positional_parameter_base@DV?$stream_output_adapter@D@__crt_stdio_output@@@__crt_stdio_output@@CA?AW4parameter_type@12@F@Z 00000001800d4720 f i libucrtd:output.obj
 0001:000d3730       ?get_parameter_type@?$positional_parameter_base@DV?$stream_output_adapter@D@__crt_stdio_output@@@__crt_stdio_output@@CA?AW4parameter_type@12@G@Z 00000001800d4730 f i libucrtd:output.obj
 0001:000d3740       ?get_parameter_type@?$positional_parameter_base@DV?$stream_output_adapter@D@__crt_stdio_output@@@__crt_stdio_output@@CA?AW4parameter_type@12@H@Z 00000001800d4740 f i libucrtd:output.obj
 0001:000d3750       ?get_parameter_type@?$positional_parameter_base@DV?$stream_output_adapter@D@__crt_stdio_output@@@__crt_stdio_output@@CA?AW4parameter_type@12@I@Z 00000001800d4750 f i libucrtd:output.obj
 0001:000d3760       ?get_parameter_type@?$positional_parameter_base@DV?$stream_output_adapter@D@__crt_stdio_output@@@__crt_stdio_output@@CA?AW4parameter_type@12@U_CRT_DOUBLE@@@Z 00000001800d4760 f i libucrtd:output.obj
 0001:000d3770       ?get_parameter_type@?$positional_parameter_base@DV?$stream_output_adapter@D@__crt_stdio_output@@@__crt_stdio_output@@CA?AW4parameter_type@12@_J@Z 00000001800d4770 f i libucrtd:output.obj
 0001:000d3780       ?get_parameter_type@?$positional_parameter_base@DV?$stream_output_adapter@D@__crt_stdio_output@@@__crt_stdio_output@@CA?AW4parameter_type@12@_K@Z 00000001800d4780 f i libucrtd:output.obj
 0001:000d3790       ?get_parameter_type@?$positional_parameter_base@DV?$stream_output_adapter@D@__crt_stdio_output@@@__crt_stdio_output@@CA?AW4parameter_type@12@_W@Z 00000001800d4790 f i libucrtd:output.obj
 0001:000d37a0       ?get_parameter_type@?$positional_parameter_base@DV?$string_output_adapter@D@__crt_stdio_output@@@__crt_stdio_output@@CA?AW4parameter_type@12@F@Z 00000001800d47a0 f i libucrtd:output.obj
 0001:000d37b0       ?get_parameter_type@?$positional_parameter_base@DV?$string_output_adapter@D@__crt_stdio_output@@@__crt_stdio_output@@CA?AW4parameter_type@12@G@Z 00000001800d47b0 f i libucrtd:output.obj
 0001:000d37c0       ?get_parameter_type@?$positional_parameter_base@DV?$string_output_adapter@D@__crt_stdio_output@@@__crt_stdio_output@@CA?AW4parameter_type@12@H@Z 00000001800d47c0 f i libucrtd:output.obj
 0001:000d37d0       ?get_parameter_type@?$positional_parameter_base@DV?$string_output_adapter@D@__crt_stdio_output@@@__crt_stdio_output@@CA?AW4parameter_type@12@I@Z 00000001800d47d0 f i libucrtd:output.obj
 0001:000d37e0       ?get_parameter_type@?$positional_parameter_base@DV?$string_output_adapter@D@__crt_stdio_output@@@__crt_stdio_output@@CA?AW4parameter_type@12@U_CRT_DOUBLE@@@Z 00000001800d47e0 f i libucrtd:output.obj
 0001:000d37f0       ?get_parameter_type@?$positional_parameter_base@DV?$string_output_adapter@D@__crt_stdio_output@@@__crt_stdio_output@@CA?AW4parameter_type@12@_J@Z 00000001800d47f0 f i libucrtd:output.obj
 0001:000d3800       ?get_parameter_type@?$positional_parameter_base@DV?$string_output_adapter@D@__crt_stdio_output@@@__crt_stdio_output@@CA?AW4parameter_type@12@_K@Z 00000001800d4800 f i libucrtd:output.obj
 0001:000d3810       ?get_parameter_type@?$positional_parameter_base@DV?$string_output_adapter@D@__crt_stdio_output@@@__crt_stdio_output@@CA?AW4parameter_type@12@_W@Z 00000001800d4810 f i libucrtd:output.obj
 0001:000d3820       ?get_parameter_type@?$positional_parameter_base@_WV?$stream_output_adapter@_W@__crt_stdio_output@@@__crt_stdio_output@@CA?AW4parameter_type@12@F@Z 00000001800d4820 f i libucrtd:output.obj
 0001:000d3830       ?get_parameter_type@?$positional_parameter_base@_WV?$stream_output_adapter@_W@__crt_stdio_output@@@__crt_stdio_output@@CA?AW4parameter_type@12@G@Z 00000001800d4830 f i libucrtd:output.obj
 0001:000d3840       ?get_parameter_type@?$positional_parameter_base@_WV?$stream_output_adapter@_W@__crt_stdio_output@@@__crt_stdio_output@@CA?AW4parameter_type@12@H@Z 00000001800d4840 f i libucrtd:output.obj
 0001:000d3850       ?get_parameter_type@?$positional_parameter_base@_WV?$stream_output_adapter@_W@__crt_stdio_output@@@__crt_stdio_output@@CA?AW4parameter_type@12@I@Z 00000001800d4850 f i libucrtd:output.obj
 0001:000d3860       ?get_parameter_type@?$positional_parameter_base@_WV?$stream_output_adapter@_W@__crt_stdio_output@@@__crt_stdio_output@@CA?AW4parameter_type@12@U_CRT_DOUBLE@@@Z 00000001800d4860 f i libucrtd:output.obj
 0001:000d3870       ?get_parameter_type@?$positional_parameter_base@_WV?$stream_output_adapter@_W@__crt_stdio_output@@@__crt_stdio_output@@CA?AW4parameter_type@12@_J@Z 00000001800d4870 f i libucrtd:output.obj
 0001:000d3880       ?get_parameter_type@?$positional_parameter_base@_WV?$stream_output_adapter@_W@__crt_stdio_output@@@__crt_stdio_output@@CA?AW4parameter_type@12@_K@Z 00000001800d4880 f i libucrtd:output.obj
 0001:000d3890       ?get_parameter_type@?$positional_parameter_base@_WV?$stream_output_adapter@_W@__crt_stdio_output@@@__crt_stdio_output@@CA?AW4parameter_type@12@_W@Z 00000001800d4890 f i libucrtd:output.obj
 0001:000d38a0       ?get_parameter_type@?$positional_parameter_base@_WV?$string_output_adapter@_W@__crt_stdio_output@@@__crt_stdio_output@@CA?AW4parameter_type@12@F@Z 00000001800d48a0 f i libucrtd:output.obj
 0001:000d38b0       ?get_parameter_type@?$positional_parameter_base@_WV?$string_output_adapter@_W@__crt_stdio_output@@@__crt_stdio_output@@CA?AW4parameter_type@12@G@Z 00000001800d48b0 f i libucrtd:output.obj
 0001:000d38c0       ?get_parameter_type@?$positional_parameter_base@_WV?$string_output_adapter@_W@__crt_stdio_output@@@__crt_stdio_output@@CA?AW4parameter_type@12@H@Z 00000001800d48c0 f i libucrtd:output.obj
 0001:000d38d0       ?get_parameter_type@?$positional_parameter_base@_WV?$string_output_adapter@_W@__crt_stdio_output@@@__crt_stdio_output@@CA?AW4parameter_type@12@I@Z 00000001800d48d0 f i libucrtd:output.obj
 0001:000d38e0       ?get_parameter_type@?$positional_parameter_base@_WV?$string_output_adapter@_W@__crt_stdio_output@@@__crt_stdio_output@@CA?AW4parameter_type@12@U_CRT_DOUBLE@@@Z 00000001800d48e0 f i libucrtd:output.obj
 0001:000d38f0       ?get_parameter_type@?$positional_parameter_base@_WV?$string_output_adapter@_W@__crt_stdio_output@@@__crt_stdio_output@@CA?AW4parameter_type@12@_J@Z 00000001800d48f0 f i libucrtd:output.obj
 0001:000d3900       ?get_parameter_type@?$positional_parameter_base@_WV?$string_output_adapter@_W@__crt_stdio_output@@@__crt_stdio_output@@CA?AW4parameter_type@12@_K@Z 00000001800d4900 f i libucrtd:output.obj
 0001:000d3910       ?get_parameter_type@?$positional_parameter_base@_WV?$string_output_adapter@_W@__crt_stdio_output@@@__crt_stdio_output@@CA?AW4parameter_type@12@_W@Z 00000001800d4910 f i libucrtd:output.obj
 0001:000d3920       ?get_raw_ptd@__crt_cached_ptd_host@@QEAAPEAU__acrt_ptd@@XZ 00000001800d4920 f i libucrtd:output.obj
 0001:000d3940       ?has_flag@?$output_processor@DV?$stream_output_adapter@D@__crt_stdio_output@@V?$format_validation_base@DV?$stream_output_adapter@D@__crt_stdio_output@@@2@@__crt_stdio_output@@AEBA_NI@Z 00000001800d4940 f i libucrtd:output.obj
 0001:000d3990       ?has_flag@?$output_processor@DV?$stream_output_adapter@D@__crt_stdio_output@@V?$positional_parameter_base@DV?$stream_output_adapter@D@__crt_stdio_output@@@2@@__crt_stdio_output@@AEBA_NI@Z 00000001800d4990 f i libucrtd:output.obj
 0001:000d39e0       ?has_flag@?$output_processor@DV?$stream_output_adapter@D@__crt_stdio_output@@V?$standard_base@DV?$stream_output_adapter@D@__crt_stdio_output@@@2@@__crt_stdio_output@@AEBA_NI@Z 00000001800d49e0 f i libucrtd:output.obj
 0001:000d3a30       ?has_flag@?$output_processor@DV?$string_output_adapter@D@__crt_stdio_output@@V?$format_validation_base@DV?$string_output_adapter@D@__crt_stdio_output@@@2@@__crt_stdio_output@@AEBA_NI@Z 00000001800d4a30 f i libucrtd:output.obj
 0001:000d3a80       ?has_flag@?$output_processor@DV?$string_output_adapter@D@__crt_stdio_output@@V?$positional_parameter_base@DV?$string_output_adapter@D@__crt_stdio_output@@@2@@__crt_stdio_output@@AEBA_NI@Z 00000001800d4a80 f i libucrtd:output.obj
 0001:000d3ad0       ?has_flag@?$output_processor@DV?$string_output_adapter@D@__crt_stdio_output@@V?$standard_base@DV?$string_output_adapter@D@__crt_stdio_output@@@2@@__crt_stdio_output@@AEBA_NI@Z 00000001800d4ad0 f i libucrtd:output.obj
 0001:000d3b20       ?has_flag@?$output_processor@_WV?$stream_output_adapter@_W@__crt_stdio_output@@V?$format_validation_base@_WV?$stream_output_adapter@_W@__crt_stdio_output@@@2@@__crt_stdio_output@@AEBA_NI@Z 00000001800d4b20 f i libucrtd:output.obj
 0001:000d3b70       ?has_flag@?$output_processor@_WV?$stream_output_adapter@_W@__crt_stdio_output@@V?$positional_parameter_base@_WV?$stream_output_adapter@_W@__crt_stdio_output@@@2@@__crt_stdio_output@@AEBA_NI@Z 00000001800d4b70 f i libucrtd:output.obj
 0001:000d3bc0       ?has_flag@?$output_processor@_WV?$stream_output_adapter@_W@__crt_stdio_output@@V?$standard_base@_WV?$stream_output_adapter@_W@__crt_stdio_output@@@2@@__crt_stdio_output@@AEBA_NI@Z 00000001800d4bc0 f i libucrtd:output.obj
 0001:000d3c10       ?has_flag@?$output_processor@_WV?$string_output_adapter@_W@__crt_stdio_output@@V?$format_validation_base@_WV?$string_output_adapter@_W@__crt_stdio_output@@@2@@__crt_stdio_output@@AEBA_NI@Z 00000001800d4c10 f i libucrtd:output.obj
 0001:000d3c60       ?has_flag@?$output_processor@_WV?$string_output_adapter@_W@__crt_stdio_output@@V?$positional_parameter_base@_WV?$string_output_adapter@_W@__crt_stdio_output@@@2@@__crt_stdio_output@@AEBA_NI@Z 00000001800d4c60 f i libucrtd:output.obj
 0001:000d3cb0       ?has_flag@?$output_processor@_WV?$string_output_adapter@_W@__crt_stdio_output@@V?$standard_base@_WV?$string_output_adapter@_W@__crt_stdio_output@@@2@@__crt_stdio_output@@AEBA_NI@Z 00000001800d4cb0 f i libucrtd:output.obj
 0001:000d3d00       ?is_positional_parameter_reappearance_consistent@?$positional_parameter_base@DV?$stream_output_adapter@D@__crt_stdio_output@@@__crt_stdio_output@@AEAA_NAEBUparameter_data@12@W4parameter_type@12@DW4length_modifier@2@@Z 00000001800d4d00 f i libucrtd:output.obj
 0001:000d3ff0       ?is_positional_parameter_reappearance_consistent@?$positional_parameter_base@DV?$string_output_adapter@D@__crt_stdio_output@@@__crt_stdio_output@@AEAA_NAEBUparameter_data@12@W4parameter_type@12@DW4length_modifier@2@@Z 00000001800d4ff0 f i libucrtd:output.obj
 0001:000d42e0       ?is_positional_parameter_reappearance_consistent@?$positional_parameter_base@_WV?$stream_output_adapter@_W@__crt_stdio_output@@@__crt_stdio_output@@AEAA_NAEBUparameter_data@12@W4parameter_type@12@_WW4length_modifier@2@@Z 00000001800d52e0 f i libucrtd:output.obj
 0001:000d45d0       ?is_positional_parameter_reappearance_consistent@?$positional_parameter_base@_WV?$string_output_adapter@_W@__crt_stdio_output@@@__crt_stdio_output@@AEAA_NAEBUparameter_data@12@W4parameter_type@12@_WW4length_modifier@2@@Z 00000001800d55d0 f i libucrtd:output.obj
 0001:000d48c0       ?is_string_backed@__crt_stdio_stream@@QEBA_NXZ 00000001800d58c0 f i libucrtd:output.obj
 0001:000d4910       ?maximum_signed_value@__crt_strtox@@YAJK@Z 00000001800d5910 f i libucrtd:output.obj
 0001:000d4920       ?minimum_signed_value@__crt_strtox@@YAJK@Z 00000001800d5920 f i libucrtd:output.obj
 0001:000d4930       ?narrow_null_string@?$output_processor@DV?$stream_output_adapter@D@__crt_stdio_output@@V?$format_validation_base@DV?$stream_output_adapter@D@__crt_stdio_output@@@2@@__crt_stdio_output@@CAPEADXZ 00000001800d5930 f i libucrtd:output.obj
 0001:000d4940       ?narrow_null_string@?$output_processor@DV?$stream_output_adapter@D@__crt_stdio_output@@V?$positional_parameter_base@DV?$stream_output_adapter@D@__crt_stdio_output@@@2@@__crt_stdio_output@@CAPEADXZ 00000001800d5940 f i libucrtd:output.obj
 0001:000d4950       ?narrow_null_string@?$output_processor@DV?$stream_output_adapter@D@__crt_stdio_output@@V?$standard_base@DV?$stream_output_adapter@D@__crt_stdio_output@@@2@@__crt_stdio_output@@CAPEADXZ 00000001800d5950 f i libucrtd:output.obj
 0001:000d4960       ?narrow_null_string@?$output_processor@DV?$string_output_adapter@D@__crt_stdio_output@@V?$format_validation_base@DV?$string_output_adapter@D@__crt_stdio_output@@@2@@__crt_stdio_output@@CAPEADXZ 00000001800d5960 f i libucrtd:output.obj
 0001:000d4970       ?narrow_null_string@?$output_processor@DV?$string_output_adapter@D@__crt_stdio_output@@V?$positional_parameter_base@DV?$string_output_adapter@D@__crt_stdio_output@@@2@@__crt_stdio_output@@CAPEADXZ 00000001800d5970 f i libucrtd:output.obj
 0001:000d4980       ?narrow_null_string@?$output_processor@DV?$string_output_adapter@D@__crt_stdio_output@@V?$standard_base@DV?$string_output_adapter@D@__crt_stdio_output@@@2@@__crt_stdio_output@@CAPEADXZ 00000001800d5980 f i libucrtd:output.obj
 0001:000d4990       ?narrow_null_string@?$output_processor@_WV?$stream_output_adapter@_W@__crt_stdio_output@@V?$format_validation_base@_WV?$stream_output_adapter@_W@__crt_stdio_output@@@2@@__crt_stdio_output@@CAPEADXZ 00000001800d5990 f i libucrtd:output.obj
 0001:000d49a0       ?narrow_null_string@?$output_processor@_WV?$stream_output_adapter@_W@__crt_stdio_output@@V?$positional_parameter_base@_WV?$stream_output_adapter@_W@__crt_stdio_output@@@2@@__crt_stdio_output@@CAPEADXZ 00000001800d59a0 f i libucrtd:output.obj
 0001:000d49b0       ?narrow_null_string@?$output_processor@_WV?$stream_output_adapter@_W@__crt_stdio_output@@V?$standard_base@_WV?$stream_output_adapter@_W@__crt_stdio_output@@@2@@__crt_stdio_output@@CAPEADXZ 00000001800d59b0 f i libucrtd:output.obj
 0001:000d49c0       ?narrow_null_string@?$output_processor@_WV?$string_output_adapter@_W@__crt_stdio_output@@V?$format_validation_base@_WV?$string_output_adapter@_W@__crt_stdio_output@@@2@@__crt_stdio_output@@CAPEADXZ 00000001800d59c0 f i libucrtd:output.obj
 0001:000d49d0       ?narrow_null_string@?$output_processor@_WV?$string_output_adapter@_W@__crt_stdio_output@@V?$positional_parameter_base@_WV?$string_output_adapter@_W@__crt_stdio_output@@@2@@__crt_stdio_output@@CAPEADXZ 00000001800d59d0 f i libucrtd:output.obj
 0001:000d49e0       ?narrow_null_string@?$output_processor@_WV?$string_output_adapter@_W@__crt_stdio_output@@V?$standard_base@_WV?$string_output_adapter@_W@__crt_stdio_output@@@2@@__crt_stdio_output@@CAPEADXZ 00000001800d59e0 f i libucrtd:output.obj
 0001:000d49f0       ?parse_digit@__crt_strtox@@YAID@Z 00000001800d59f0 f i libucrtd:output.obj
 0001:000d4a70       ?parse_digit@__crt_strtox@@YAI_W@Z 00000001800d5a70 f i libucrtd:output.obj
 0001:000d4ae0       ?parse_int_from_format_string@?$output_processor@DV?$stream_output_adapter@D@__crt_stdio_output@@V?$format_validation_base@DV?$stream_output_adapter@D@__crt_stdio_output@@@2@@__crt_stdio_output@@AEAA_NQEAH@Z 00000001800d5ae0 f i libucrtd:output.obj
 0001:000d4c20       ?parse_int_from_format_string@?$output_processor@DV?$stream_output_adapter@D@__crt_stdio_output@@V?$positional_parameter_base@DV?$stream_output_adapter@D@__crt_stdio_output@@@2@@__crt_stdio_output@@AEAA_NQEAH@Z 00000001800d5c20 f i libucrtd:output.obj
 0001:000d4d60       ?parse_int_from_format_string@?$output_processor@DV?$stream_output_adapter@D@__crt_stdio_output@@V?$standard_base@DV?$stream_output_adapter@D@__crt_stdio_output@@@2@@__crt_stdio_output@@AEAA_NQEAH@Z 00000001800d5d60 f i libucrtd:output.obj
 0001:000d4ea0       ?parse_int_from_format_string@?$output_processor@DV?$string_output_adapter@D@__crt_stdio_output@@V?$format_validation_base@DV?$string_output_adapter@D@__crt_stdio_output@@@2@@__crt_stdio_output@@AEAA_NQEAH@Z 00000001800d5ea0 f i libucrtd:output.obj
 0001:000d4fe0       ?parse_int_from_format_string@?$output_processor@DV?$string_output_adapter@D@__crt_stdio_output@@V?$positional_parameter_base@DV?$string_output_adapter@D@__crt_stdio_output@@@2@@__crt_stdio_output@@AEAA_NQEAH@Z 00000001800d5fe0 f i libucrtd:output.obj
 0001:000d5120       ?parse_int_from_format_string@?$output_processor@DV?$string_output_adapter@D@__crt_stdio_output@@V?$standard_base@DV?$string_output_adapter@D@__crt_stdio_output@@@2@@__crt_stdio_output@@AEAA_NQEAH@Z 00000001800d6120 f i libucrtd:output.obj
 0001:000d5260       ?parse_int_from_format_string@?$output_processor@_WV?$stream_output_adapter@_W@__crt_stdio_output@@V?$format_validation_base@_WV?$stream_output_adapter@_W@__crt_stdio_output@@@2@@__crt_stdio_output@@AEAA_NQEAH@Z 00000001800d6260 f i libucrtd:output.obj
 0001:000d53a0       ?parse_int_from_format_string@?$output_processor@_WV?$stream_output_adapter@_W@__crt_stdio_output@@V?$positional_parameter_base@_WV?$stream_output_adapter@_W@__crt_stdio_output@@@2@@__crt_stdio_output@@AEAA_NQEAH@Z 00000001800d63a0 f i libucrtd:output.obj
 0001:000d54e0       ?parse_int_from_format_string@?$output_processor@_WV?$stream_output_adapter@_W@__crt_stdio_output@@V?$standard_base@_WV?$stream_output_adapter@_W@__crt_stdio_output@@@2@@__crt_stdio_output@@AEAA_NQEAH@Z 00000001800d64e0 f i libucrtd:output.obj
 0001:000d5620       ?parse_int_from_format_string@?$output_processor@_WV?$string_output_adapter@_W@__crt_stdio_output@@V?$format_validation_base@_WV?$string_output_adapter@_W@__crt_stdio_output@@@2@@__crt_stdio_output@@AEAA_NQEAH@Z 00000001800d6620 f i libucrtd:output.obj
 0001:000d5760       ?parse_int_from_format_string@?$output_processor@_WV?$string_output_adapter@_W@__crt_stdio_output@@V?$positional_parameter_base@_WV?$string_output_adapter@_W@__crt_stdio_output@@@2@@__crt_stdio_output@@AEAA_NQEAH@Z 00000001800d6760 f i libucrtd:output.obj
 0001:000d58a0       ?parse_int_from_format_string@?$output_processor@_WV?$string_output_adapter@_W@__crt_stdio_output@@V?$standard_base@_WV?$string_output_adapter@_W@__crt_stdio_output@@@2@@__crt_stdio_output@@AEAA_NQEAH@Z 00000001800d68a0 f i libucrtd:output.obj
 0001:000d59e0       ?process@?$output_processor@DV?$stream_output_adapter@D@__crt_stdio_output@@V?$format_validation_base@DV?$stream_output_adapter@D@__crt_stdio_output@@@2@@__crt_stdio_output@@QEAAHXZ 00000001800d69e0 f i libucrtd:output.obj
 0001:000d5e90       ?process@?$output_processor@DV?$stream_output_adapter@D@__crt_stdio_output@@V?$positional_parameter_base@DV?$stream_output_adapter@D@__crt_stdio_output@@@2@@__crt_stdio_output@@QEAAHXZ 00000001800d6e90 f i libucrtd:output.obj
 0001:000d6340       ?process@?$output_processor@DV?$stream_output_adapter@D@__crt_stdio_output@@V?$standard_base@DV?$stream_output_adapter@D@__crt_stdio_output@@@2@@__crt_stdio_output@@QEAAHXZ 00000001800d7340 f i libucrtd:output.obj
 0001:000d67f0       ?process@?$output_processor@DV?$string_output_adapter@D@__crt_stdio_output@@V?$format_validation_base@DV?$string_output_adapter@D@__crt_stdio_output@@@2@@__crt_stdio_output@@QEAAHXZ 00000001800d77f0 f i libucrtd:output.obj
 0001:000d6ca0       ?process@?$output_processor@DV?$string_output_adapter@D@__crt_stdio_output@@V?$positional_parameter_base@DV?$string_output_adapter@D@__crt_stdio_output@@@2@@__crt_stdio_output@@QEAAHXZ 00000001800d7ca0 f i libucrtd:output.obj
 0001:000d7150       ?process@?$output_processor@DV?$string_output_adapter@D@__crt_stdio_output@@V?$standard_base@DV?$string_output_adapter@D@__crt_stdio_output@@@2@@__crt_stdio_output@@QEAAHXZ 00000001800d8150 f i libucrtd:output.obj
 0001:000d7600       ?process@?$output_processor@_WV?$stream_output_adapter@_W@__crt_stdio_output@@V?$format_validation_base@_WV?$stream_output_adapter@_W@__crt_stdio_output@@@2@@__crt_stdio_output@@QEAAHXZ 00000001800d8600 f i libucrtd:output.obj
 0001:000d7ab0       ?process@?$output_processor@_WV?$stream_output_adapter@_W@__crt_stdio_output@@V?$positional_parameter_base@_WV?$stream_output_adapter@_W@__crt_stdio_output@@@2@@__crt_stdio_output@@QEAAHXZ 00000001800d8ab0 f i libucrtd:output.obj
 0001:000d7f60       ?process@?$output_processor@_WV?$stream_output_adapter@_W@__crt_stdio_output@@V?$standard_base@_WV?$stream_output_adapter@_W@__crt_stdio_output@@@2@@__crt_stdio_output@@QEAAHXZ 00000001800d8f60 f i libucrtd:output.obj
 0001:000d8410       ?process@?$output_processor@_WV?$string_output_adapter@_W@__crt_stdio_output@@V?$format_validation_base@_WV?$string_output_adapter@_W@__crt_stdio_output@@@2@@__crt_stdio_output@@QEAAHXZ 00000001800d9410 f i libucrtd:output.obj
 0001:000d88c0       ?process@?$output_processor@_WV?$string_output_adapter@_W@__crt_stdio_output@@V?$positional_parameter_base@_WV?$string_output_adapter@_W@__crt_stdio_output@@@2@@__crt_stdio_output@@QEAAHXZ 00000001800d98c0 f i libucrtd:output.obj
 0001:000d8d70       ?process@?$output_processor@_WV?$string_output_adapter@_W@__crt_stdio_output@@V?$standard_base@_WV?$string_output_adapter@_W@__crt_stdio_output@@@2@@__crt_stdio_output@@QEAAHXZ 00000001800d9d70 f i libucrtd:output.obj
 0001:000d9220       ?public_stream@__crt_stdio_stream@@QEBAPEAU_iobuf@@XZ 00000001800da220 f i libucrtd:output.obj
 0001:000d9240       ?restore_state@?$c_string_character_source@D@__crt_strtox@@QEAA_NQEBD@Z 00000001800da240 f i libucrtd:output.obj
 0001:000d9260       ?restore_state@?$c_string_character_source@_W@__crt_strtox@@QEAA_NQEB_W@Z 00000001800da260 f i libucrtd:output.obj
 0001:000d9280       ?save_state@?$c_string_character_source@D@__crt_strtox@@QEBAPEBDXZ 00000001800da280 f i libucrtd:output.obj
 0001:000d92a0       ?save_state@?$c_string_character_source@_W@__crt_strtox@@QEBAPEB_WXZ 00000001800da2a0 f i libucrtd:output.obj
 0001:000d92c0       ?set@?$cached@H@__crt_cached_ptd_host@@QEAAHH@Z 00000001800da2c0 f i libucrtd:output.obj
 0001:000d92f0       ?set_flag@?$output_processor@DV?$stream_output_adapter@D@__crt_stdio_output@@V?$format_validation_base@DV?$stream_output_adapter@D@__crt_stdio_output@@@2@@__crt_stdio_output@@AEAAXI@Z 00000001800da2f0 f i libucrtd:output.obj
 0001:000d9320       ?set_flag@?$output_processor@DV?$stream_output_adapter@D@__crt_stdio_output@@V?$positional_parameter_base@DV?$stream_output_adapter@D@__crt_stdio_output@@@2@@__crt_stdio_output@@AEAAXI@Z 00000001800da320 f i libucrtd:output.obj
 0001:000d9350       ?set_flag@?$output_processor@DV?$stream_output_adapter@D@__crt_stdio_output@@V?$standard_base@DV?$stream_output_adapter@D@__crt_stdio_output@@@2@@__crt_stdio_output@@AEAAXI@Z 00000001800da350 f i libucrtd:output.obj
 0001:000d9380       ?set_flag@?$output_processor@DV?$string_output_adapter@D@__crt_stdio_output@@V?$format_validation_base@DV?$string_output_adapter@D@__crt_stdio_output@@@2@@__crt_stdio_output@@AEAAXI@Z 00000001800da380 f i libucrtd:output.obj
 0001:000d93b0       ?set_flag@?$output_processor@DV?$string_output_adapter@D@__crt_stdio_output@@V?$positional_parameter_base@DV?$string_output_adapter@D@__crt_stdio_output@@@2@@__crt_stdio_output@@AEAAXI@Z 00000001800da3b0 f i libucrtd:output.obj
 0001:000d93e0       ?set_flag@?$output_processor@DV?$string_output_adapter@D@__crt_stdio_output@@V?$standard_base@DV?$string_output_adapter@D@__crt_stdio_output@@@2@@__crt_stdio_output@@AEAAXI@Z 00000001800da3e0 f i libucrtd:output.obj
 0001:000d9410       ?set_flag@?$output_processor@_WV?$stream_output_adapter@_W@__crt_stdio_output@@V?$format_validation_base@_WV?$stream_output_adapter@_W@__crt_stdio_output@@@2@@__crt_stdio_output@@AEAAXI@Z 00000001800da410 f i libucrtd:output.obj
 0001:000d9440       ?set_flag@?$output_processor@_WV?$stream_output_adapter@_W@__crt_stdio_output@@V?$positional_parameter_base@_WV?$stream_output_adapter@_W@__crt_stdio_output@@@2@@__crt_stdio_output@@AEAAXI@Z 00000001800da440 f i libucrtd:output.obj
 0001:000d9470       ?set_flag@?$output_processor@_WV?$stream_output_adapter@_W@__crt_stdio_output@@V?$standard_base@_WV?$stream_output_adapter@_W@__crt_stdio_output@@@2@@__crt_stdio_output@@AEAAXI@Z 00000001800da470 f i libucrtd:output.obj
 0001:000d94a0       ?set_flag@?$output_processor@_WV?$string_output_adapter@_W@__crt_stdio_output@@V?$format_validation_base@_WV?$string_output_adapter@_W@__crt_stdio_output@@@2@@__crt_stdio_output@@AEAAXI@Z 00000001800da4a0 f i libucrtd:output.obj
 0001:000d94d0       ?set_flag@?$output_processor@_WV?$string_output_adapter@_W@__crt_stdio_output@@V?$positional_parameter_base@_WV?$string_output_adapter@_W@__crt_stdio_output@@@2@@__crt_stdio_output@@AEAAXI@Z 00000001800da4d0 f i libucrtd:output.obj
 0001:000d9500       ?set_flag@?$output_processor@_WV?$string_output_adapter@_W@__crt_stdio_output@@V?$standard_base@_WV?$string_output_adapter@_W@__crt_stdio_output@@@2@@__crt_stdio_output@@AEAAXI@Z 00000001800da500 f i libucrtd:output.obj
 0001:000d9530       ?should_format@?$positional_parameter_base@DV?$stream_output_adapter@D@__crt_stdio_output@@@__crt_stdio_output@@IEAA_NXZ 00000001800da530 f i libucrtd:output.obj
 0001:000d9580       ?should_format@?$positional_parameter_base@DV?$string_output_adapter@D@__crt_stdio_output@@@__crt_stdio_output@@IEAA_NXZ 00000001800da580 f i libucrtd:output.obj
 0001:000d95d0       ?should_format@?$positional_parameter_base@_WV?$stream_output_adapter@_W@__crt_stdio_output@@@__crt_stdio_output@@IEAA_NXZ 00000001800da5d0 f i libucrtd:output.obj
 0001:000d9620       ?should_format@?$positional_parameter_base@_WV?$string_output_adapter@_W@__crt_stdio_output@@@__crt_stdio_output@@IEAA_NXZ 00000001800da620 f i libucrtd:output.obj
 0001:000d9670       ?should_format@?$standard_base@DV?$stream_output_adapter@D@__crt_stdio_output@@@__crt_stdio_output@@IEAA_NXZ 00000001800da670 f i libucrtd:output.obj
 0001:000d9680       ?should_format@?$standard_base@DV?$string_output_adapter@D@__crt_stdio_output@@@__crt_stdio_output@@IEAA_NXZ 00000001800da680 f i libucrtd:output.obj
 0001:000d9690       ?should_format@?$standard_base@_WV?$stream_output_adapter@_W@__crt_stdio_output@@@__crt_stdio_output@@IEAA_NXZ 00000001800da690 f i libucrtd:output.obj
 0001:000d96a0       ?should_format@?$standard_base@_WV?$string_output_adapter@_W@__crt_stdio_output@@@__crt_stdio_output@@IEAA_NXZ 00000001800da6a0 f i libucrtd:output.obj
 0001:000d96b0       ?should_skip_normal_state_processing@?$positional_parameter_base@DV?$stream_output_adapter@D@__crt_stdio_output@@@__crt_stdio_output@@IEAA_NXZ 00000001800da6b0 f i libucrtd:output.obj
 0001:000d9710       ?should_skip_normal_state_processing@?$positional_parameter_base@DV?$string_output_adapter@D@__crt_stdio_output@@@__crt_stdio_output@@IEAA_NXZ 00000001800da710 f i libucrtd:output.obj
 0001:000d9770       ?should_skip_normal_state_processing@?$positional_parameter_base@_WV?$stream_output_adapter@_W@__crt_stdio_output@@@__crt_stdio_output@@IEAA_NXZ 00000001800da770 f i libucrtd:output.obj
 0001:000d97d0       ?should_skip_normal_state_processing@?$positional_parameter_base@_WV?$string_output_adapter@_W@__crt_stdio_output@@@__crt_stdio_output@@IEAA_NXZ 00000001800da7d0 f i libucrtd:output.obj
 0001:000d9830       ?should_skip_normal_state_processing@?$standard_base@DV?$stream_output_adapter@D@__crt_stdio_output@@@__crt_stdio_output@@IEAA_NXZ 00000001800da830 f i libucrtd:output.obj
 0001:000d9840       ?should_skip_normal_state_processing@?$standard_base@DV?$string_output_adapter@D@__crt_stdio_output@@@__crt_stdio_output@@IEAA_NXZ 00000001800da840 f i libucrtd:output.obj
 0001:000d9850       ?should_skip_normal_state_processing@?$standard_base@_WV?$stream_output_adapter@_W@__crt_stdio_output@@@__crt_stdio_output@@IEAA_NXZ 00000001800da850 f i libucrtd:output.obj
 0001:000d9860       ?should_skip_normal_state_processing@?$standard_base@_WV?$string_output_adapter@_W@__crt_stdio_output@@@__crt_stdio_output@@IEAA_NXZ 00000001800da860 f i libucrtd:output.obj
 0001:000d9870       ?should_skip_type_state_output@?$positional_parameter_base@DV?$stream_output_adapter@D@__crt_stdio_output@@@__crt_stdio_output@@IEBA_NXZ 00000001800da870 f i libucrtd:output.obj
 0001:000d98c0       ?should_skip_type_state_output@?$positional_parameter_base@DV?$string_output_adapter@D@__crt_stdio_output@@@__crt_stdio_output@@IEBA_NXZ 00000001800da8c0 f i libucrtd:output.obj
 0001:000d9910       ?should_skip_type_state_output@?$positional_parameter_base@_WV?$stream_output_adapter@_W@__crt_stdio_output@@@__crt_stdio_output@@IEBA_NXZ 00000001800da910 f i libucrtd:output.obj
 0001:000d9960       ?should_skip_type_state_output@?$positional_parameter_base@_WV?$string_output_adapter@_W@__crt_stdio_output@@@__crt_stdio_output@@IEBA_NXZ 00000001800da960 f i libucrtd:output.obj
 0001:000d99b0       ?should_skip_type_state_output@?$standard_base@DV?$stream_output_adapter@D@__crt_stdio_output@@@__crt_stdio_output@@IEBA_NXZ 00000001800da9b0 f i libucrtd:output.obj
 0001:000d99c0       ?should_skip_type_state_output@?$standard_base@DV?$string_output_adapter@D@__crt_stdio_output@@@__crt_stdio_output@@IEBA_NXZ 00000001800da9c0 f i libucrtd:output.obj
 0001:000d99d0       ?should_skip_type_state_output@?$standard_base@_WV?$stream_output_adapter@_W@__crt_stdio_output@@@__crt_stdio_output@@IEBA_NXZ 00000001800da9d0 f i libucrtd:output.obj
 0001:000d99e0       ?should_skip_type_state_output@?$standard_base@_WV?$string_output_adapter@_W@__crt_stdio_output@@@__crt_stdio_output@@IEBA_NXZ 00000001800da9e0 f i libucrtd:output.obj
 0001:000d99f0       ?state_case_dot@?$output_processor@DV?$stream_output_adapter@D@__crt_stdio_output@@V?$format_validation_base@DV?$stream_output_adapter@D@__crt_stdio_output@@@2@@__crt_stdio_output@@AEAA_NXZ 00000001800da9f0 f i libucrtd:output.obj
 0001:000d9a10       ?state_case_dot@?$output_processor@DV?$stream_output_adapter@D@__crt_stdio_output@@V?$positional_parameter_base@DV?$stream_output_adapter@D@__crt_stdio_output@@@2@@__crt_stdio_output@@AEAA_NXZ 00000001800daa10 f i libucrtd:output.obj
 0001:000d9a30       ?state_case_dot@?$output_processor@DV?$stream_output_adapter@D@__crt_stdio_output@@V?$standard_base@DV?$stream_output_adapter@D@__crt_stdio_output@@@2@@__crt_stdio_output@@AEAA_NXZ 00000001800daa30 f i libucrtd:output.obj
 0001:000d9a50       ?state_case_dot@?$output_processor@DV?$string_output_adapter@D@__crt_stdio_output@@V?$format_validation_base@DV?$string_output_adapter@D@__crt_stdio_output@@@2@@__crt_stdio_output@@AEAA_NXZ 00000001800daa50 f i libucrtd:output.obj
 0001:000d9a70       ?state_case_dot@?$output_processor@DV?$string_output_adapter@D@__crt_stdio_output@@V?$positional_parameter_base@DV?$string_output_adapter@D@__crt_stdio_output@@@2@@__crt_stdio_output@@AEAA_NXZ 00000001800daa70 f i libucrtd:output.obj
 0001:000d9a90       ?state_case_dot@?$output_processor@DV?$string_output_adapter@D@__crt_stdio_output@@V?$standard_base@DV?$string_output_adapter@D@__crt_stdio_output@@@2@@__crt_stdio_output@@AEAA_NXZ 00000001800daa90 f i libucrtd:output.obj
 0001:000d9ab0       ?state_case_dot@?$output_processor@_WV?$stream_output_adapter@_W@__crt_stdio_output@@V?$format_validation_base@_WV?$stream_output_adapter@_W@__crt_stdio_output@@@2@@__crt_stdio_output@@AEAA_NXZ 00000001800daab0 f i libucrtd:output.obj
 0001:000d9ad0       ?state_case_dot@?$output_processor@_WV?$stream_output_adapter@_W@__crt_stdio_output@@V?$positional_parameter_base@_WV?$stream_output_adapter@_W@__crt_stdio_output@@@2@@__crt_stdio_output@@AEAA_NXZ 00000001800daad0 f i libucrtd:output.obj
 0001:000d9af0       ?state_case_dot@?$output_processor@_WV?$stream_output_adapter@_W@__crt_stdio_output@@V?$standard_base@_WV?$stream_output_adapter@_W@__crt_stdio_output@@@2@@__crt_stdio_output@@AEAA_NXZ 00000001800daaf0 f i libucrtd:output.obj
 0001:000d9b10       ?state_case_dot@?$output_processor@_WV?$string_output_adapter@_W@__crt_stdio_output@@V?$format_validation_base@_WV?$string_output_adapter@_W@__crt_stdio_output@@@2@@__crt_stdio_output@@AEAA_NXZ 00000001800dab10 f i libucrtd:output.obj
 0001:000d9b30       ?state_case_dot@?$output_processor@_WV?$string_output_adapter@_W@__crt_stdio_output@@V?$positional_parameter_base@_WV?$string_output_adapter@_W@__crt_stdio_output@@@2@@__crt_stdio_output@@AEAA_NXZ 00000001800dab30 f i libucrtd:output.obj
 0001:000d9b50       ?state_case_dot@?$output_processor@_WV?$string_output_adapter@_W@__crt_stdio_output@@V?$standard_base@_WV?$string_output_adapter@_W@__crt_stdio_output@@@2@@__crt_stdio_output@@AEAA_NXZ 00000001800dab50 f i libucrtd:output.obj
 0001:000d9b70       ?state_case_flag@?$output_processor@DV?$stream_output_adapter@D@__crt_stdio_output@@V?$format_validation_base@DV?$stream_output_adapter@D@__crt_stdio_output@@@2@@__crt_stdio_output@@AEAA_NXZ 00000001800dab70 f i libucrtd:output.obj
 0001:000d9c30       ?state_case_flag@?$output_processor@DV?$stream_output_adapter@D@__crt_stdio_output@@V?$positional_parameter_base@DV?$stream_output_adapter@D@__crt_stdio_output@@@2@@__crt_stdio_output@@AEAA_NXZ 00000001800dac30 f i libucrtd:output.obj
 0001:000d9cf0       ?state_case_flag@?$output_processor@DV?$stream_output_adapter@D@__crt_stdio_output@@V?$standard_base@DV?$stream_output_adapter@D@__crt_stdio_output@@@2@@__crt_stdio_output@@AEAA_NXZ 00000001800dacf0 f i libucrtd:output.obj
 0001:000d9db0       ?state_case_flag@?$output_processor@DV?$string_output_adapter@D@__crt_stdio_output@@V?$format_validation_base@DV?$string_output_adapter@D@__crt_stdio_output@@@2@@__crt_stdio_output@@AEAA_NXZ 00000001800dadb0 f i libucrtd:output.obj
 0001:000d9e70       ?state_case_flag@?$output_processor@DV?$string_output_adapter@D@__crt_stdio_output@@V?$positional_parameter_base@DV?$string_output_adapter@D@__crt_stdio_output@@@2@@__crt_stdio_output@@AEAA_NXZ 00000001800dae70 f i libucrtd:output.obj
 0001:000d9f30       ?state_case_flag@?$output_processor@DV?$string_output_adapter@D@__crt_stdio_output@@V?$standard_base@DV?$string_output_adapter@D@__crt_stdio_output@@@2@@__crt_stdio_output@@AEAA_NXZ 00000001800daf30 f i libucrtd:output.obj
 0001:000d9ff0       ?state_case_flag@?$output_processor@_WV?$stream_output_adapter@_W@__crt_stdio_output@@V?$format_validation_base@_WV?$stream_output_adapter@_W@__crt_stdio_output@@@2@@__crt_stdio_output@@AEAA_NXZ 00000001800daff0 f i libucrtd:output.obj
 0001:000da0b0       ?state_case_flag@?$output_processor@_WV?$stream_output_adapter@_W@__crt_stdio_output@@V?$positional_parameter_base@_WV?$stream_output_adapter@_W@__crt_stdio_output@@@2@@__crt_stdio_output@@AEAA_NXZ 00000001800db0b0 f i libucrtd:output.obj
 0001:000da170       ?state_case_flag@?$output_processor@_WV?$stream_output_adapter@_W@__crt_stdio_output@@V?$standard_base@_WV?$stream_output_adapter@_W@__crt_stdio_output@@@2@@__crt_stdio_output@@AEAA_NXZ 00000001800db170 f i libucrtd:output.obj
 0001:000da230       ?state_case_flag@?$output_processor@_WV?$string_output_adapter@_W@__crt_stdio_output@@V?$format_validation_base@_WV?$string_output_adapter@_W@__crt_stdio_output@@@2@@__crt_stdio_output@@AEAA_NXZ 00000001800db230 f i libucrtd:output.obj
 0001:000da2f0       ?state_case_flag@?$output_processor@_WV?$string_output_adapter@_W@__crt_stdio_output@@V?$positional_parameter_base@_WV?$string_output_adapter@_W@__crt_stdio_output@@@2@@__crt_stdio_output@@AEAA_NXZ 00000001800db2f0 f i libucrtd:output.obj
 0001:000da3b0       ?state_case_flag@?$output_processor@_WV?$string_output_adapter@_W@__crt_stdio_output@@V?$standard_base@_WV?$string_output_adapter@_W@__crt_stdio_output@@@2@@__crt_stdio_output@@AEAA_NXZ 00000001800db3b0 f i libucrtd:output.obj
 0001:000da470       ?state_case_normal@?$output_processor@DV?$stream_output_adapter@D@__crt_stdio_output@@V?$format_validation_base@DV?$stream_output_adapter@D@__crt_stdio_output@@@2@@__crt_stdio_output@@AEAA_NXZ 00000001800db470 f i libucrtd:output.obj
 0001:000da5b0       ?state_case_normal@?$output_processor@DV?$stream_output_adapter@D@__crt_stdio_output@@V?$positional_parameter_base@DV?$stream_output_adapter@D@__crt_stdio_output@@@2@@__crt_stdio_output@@AEAA_NXZ 00000001800db5b0 f i libucrtd:output.obj
 0001:000da6f0       ?state_case_normal@?$output_processor@DV?$stream_output_adapter@D@__crt_stdio_output@@V?$standard_base@DV?$stream_output_adapter@D@__crt_stdio_output@@@2@@__crt_stdio_output@@AEAA_NXZ 00000001800db6f0 f i libucrtd:output.obj
 0001:000da830       ?state_case_normal@?$output_processor@DV?$string_output_adapter@D@__crt_stdio_output@@V?$format_validation_base@DV?$string_output_adapter@D@__crt_stdio_output@@@2@@__crt_stdio_output@@AEAA_NXZ 00000001800db830 f i libucrtd:output.obj
 0001:000da970       ?state_case_normal@?$output_processor@DV?$string_output_adapter@D@__crt_stdio_output@@V?$positional_parameter_base@DV?$string_output_adapter@D@__crt_stdio_output@@@2@@__crt_stdio_output@@AEAA_NXZ 00000001800db970 f i libucrtd:output.obj
 0001:000daab0       ?state_case_normal@?$output_processor@DV?$string_output_adapter@D@__crt_stdio_output@@V?$standard_base@DV?$string_output_adapter@D@__crt_stdio_output@@@2@@__crt_stdio_output@@AEAA_NXZ 00000001800dbab0 f i libucrtd:output.obj
 0001:000dabf0       ?state_case_normal@?$output_processor@_WV?$stream_output_adapter@_W@__crt_stdio_output@@V?$format_validation_base@_WV?$stream_output_adapter@_W@__crt_stdio_output@@@2@@__crt_stdio_output@@AEAA_NXZ 00000001800dbbf0 f i libucrtd:output.obj
 0001:000dad30       ?state_case_normal@?$output_processor@_WV?$stream_output_adapter@_W@__crt_stdio_output@@V?$positional_parameter_base@_WV?$stream_output_adapter@_W@__crt_stdio_output@@@2@@__crt_stdio_output@@AEAA_NXZ 00000001800dbd30 f i libucrtd:output.obj
 0001:000dae70       ?state_case_normal@?$output_processor@_WV?$stream_output_adapter@_W@__crt_stdio_output@@V?$standard_base@_WV?$stream_output_adapter@_W@__crt_stdio_output@@@2@@__crt_stdio_output@@AEAA_NXZ 00000001800dbe70 f i libucrtd:output.obj
 0001:000dafb0       ?state_case_normal@?$output_processor@_WV?$string_output_adapter@_W@__crt_stdio_output@@V?$format_validation_base@_WV?$string_output_adapter@_W@__crt_stdio_output@@@2@@__crt_stdio_output@@AEAA_NXZ 00000001800dbfb0 f i libucrtd:output.obj
 0001:000db0f0       ?state_case_normal@?$output_processor@_WV?$string_output_adapter@_W@__crt_stdio_output@@V?$positional_parameter_base@_WV?$string_output_adapter@_W@__crt_stdio_output@@@2@@__crt_stdio_output@@AEAA_NXZ 00000001800dc0f0 f i libucrtd:output.obj
 0001:000db230       ?state_case_normal@?$output_processor@_WV?$string_output_adapter@_W@__crt_stdio_output@@V?$standard_base@_WV?$string_output_adapter@_W@__crt_stdio_output@@@2@@__crt_stdio_output@@AEAA_NXZ 00000001800dc230 f i libucrtd:output.obj
 0001:000db370       ?state_case_normal_common@?$output_processor@DV?$stream_output_adapter@D@__crt_stdio_output@@V?$format_validation_base@DV?$stream_output_adapter@D@__crt_stdio_output@@@2@@__crt_stdio_output@@AEAA_NXZ 00000001800dc370 f i libucrtd:output.obj
 0001:000db3f0       ?state_case_normal_common@?$output_processor@DV?$stream_output_adapter@D@__crt_stdio_output@@V?$positional_parameter_base@DV?$stream_output_adapter@D@__crt_stdio_output@@@2@@__crt_stdio_output@@AEAA_NXZ 00000001800dc3f0 f i libucrtd:output.obj
 0001:000db470       ?state_case_normal_common@?$output_processor@DV?$stream_output_adapter@D@__crt_stdio_output@@V?$standard_base@DV?$stream_output_adapter@D@__crt_stdio_output@@@2@@__crt_stdio_output@@AEAA_NXZ 00000001800dc470 f i libucrtd:output.obj
 0001:000db4f0       ?state_case_normal_common@?$output_processor@DV?$string_output_adapter@D@__crt_stdio_output@@V?$format_validation_base@DV?$string_output_adapter@D@__crt_stdio_output@@@2@@__crt_stdio_output@@AEAA_NXZ 00000001800dc4f0 f i libucrtd:output.obj
 0001:000db570       ?state_case_normal_common@?$output_processor@DV?$string_output_adapter@D@__crt_stdio_output@@V?$positional_parameter_base@DV?$string_output_adapter@D@__crt_stdio_output@@@2@@__crt_stdio_output@@AEAA_NXZ 00000001800dc570 f i libucrtd:output.obj
 0001:000db5f0       ?state_case_normal_common@?$output_processor@DV?$string_output_adapter@D@__crt_stdio_output@@V?$standard_base@DV?$string_output_adapter@D@__crt_stdio_output@@@2@@__crt_stdio_output@@AEAA_NXZ 00000001800dc5f0 f i libucrtd:output.obj
 0001:000db670       ?state_case_normal_common@?$output_processor@_WV?$stream_output_adapter@_W@__crt_stdio_output@@V?$format_validation_base@_WV?$stream_output_adapter@_W@__crt_stdio_output@@@2@@__crt_stdio_output@@AEAA_NXZ 00000001800dc670 f i libucrtd:output.obj
 0001:000db6f0       ?state_case_normal_common@?$output_processor@_WV?$stream_output_adapter@_W@__crt_stdio_output@@V?$positional_parameter_base@_WV?$stream_output_adapter@_W@__crt_stdio_output@@@2@@__crt_stdio_output@@AEAA_NXZ 00000001800dc6f0 f i libucrtd:output.obj
 0001:000db770       ?state_case_normal_common@?$output_processor@_WV?$stream_output_adapter@_W@__crt_stdio_output@@V?$standard_base@_WV?$stream_output_adapter@_W@__crt_stdio_output@@@2@@__crt_stdio_output@@AEAA_NXZ 00000001800dc770 f i libucrtd:output.obj
 0001:000db7f0       ?state_case_normal_common@?$output_processor@_WV?$string_output_adapter@_W@__crt_stdio_output@@V?$format_validation_base@_WV?$string_output_adapter@_W@__crt_stdio_output@@@2@@__crt_stdio_output@@AEAA_NXZ 00000001800dc7f0 f i libucrtd:output.obj
 0001:000db870       ?state_case_normal_common@?$output_processor@_WV?$string_output_adapter@_W@__crt_stdio_output@@V?$positional_parameter_base@_WV?$string_output_adapter@_W@__crt_stdio_output@@@2@@__crt_stdio_output@@AEAA_NXZ 00000001800dc870 f i libucrtd:output.obj
 0001:000db8f0       ?state_case_normal_common@?$output_processor@_WV?$string_output_adapter@_W@__crt_stdio_output@@V?$standard_base@_WV?$string_output_adapter@_W@__crt_stdio_output@@@2@@__crt_stdio_output@@AEAA_NXZ 00000001800dc8f0 f i libucrtd:output.obj
 0001:000db970       ?state_case_normal_tchar@?$output_processor@DV?$stream_output_adapter@D@__crt_stdio_output@@V?$format_validation_base@DV?$stream_output_adapter@D@__crt_stdio_output@@@2@@__crt_stdio_output@@AEAA_ND@Z 00000001800dc970 f i libucrtd:output.obj
 0001:000dbb60       ?state_case_normal_tchar@?$output_processor@DV?$stream_output_adapter@D@__crt_stdio_output@@V?$positional_parameter_base@DV?$stream_output_adapter@D@__crt_stdio_output@@@2@@__crt_stdio_output@@AEAA_ND@Z 00000001800dcb60 f i libucrtd:output.obj
 0001:000dbd50       ?state_case_normal_tchar@?$output_processor@DV?$stream_output_adapter@D@__crt_stdio_output@@V?$standard_base@DV?$stream_output_adapter@D@__crt_stdio_output@@@2@@__crt_stdio_output@@AEAA_ND@Z 00000001800dcd50 f i libucrtd:output.obj
 0001:000dbf40       ?state_case_normal_tchar@?$output_processor@DV?$string_output_adapter@D@__crt_stdio_output@@V?$format_validation_base@DV?$string_output_adapter@D@__crt_stdio_output@@@2@@__crt_stdio_output@@AEAA_ND@Z 00000001800dcf40 f i libucrtd:output.obj
 0001:000dc130       ?state_case_normal_tchar@?$output_processor@DV?$string_output_adapter@D@__crt_stdio_output@@V?$positional_parameter_base@DV?$string_output_adapter@D@__crt_stdio_output@@@2@@__crt_stdio_output@@AEAA_ND@Z 00000001800dd130 f i libucrtd:output.obj
 0001:000dc320       ?state_case_normal_tchar@?$output_processor@DV?$string_output_adapter@D@__crt_stdio_output@@V?$standard_base@DV?$string_output_adapter@D@__crt_stdio_output@@@2@@__crt_stdio_output@@AEAA_ND@Z 00000001800dd320 f i libucrtd:output.obj
 0001:000dc510       ?state_case_normal_tchar@?$output_processor@_WV?$stream_output_adapter@_W@__crt_stdio_output@@V?$format_validation_base@_WV?$stream_output_adapter@_W@__crt_stdio_output@@@2@@__crt_stdio_output@@AEAA_N_W@Z 00000001800dd510 f i libucrtd:output.obj
 0001:000dc530       ?state_case_normal_tchar@?$output_processor@_WV?$stream_output_adapter@_W@__crt_stdio_output@@V?$positional_parameter_base@_WV?$stream_output_adapter@_W@__crt_stdio_output@@@2@@__crt_stdio_output@@AEAA_N_W@Z 00000001800dd530 f i libucrtd:output.obj
 0001:000dc550       ?state_case_normal_tchar@?$output_processor@_WV?$stream_output_adapter@_W@__crt_stdio_output@@V?$standard_base@_WV?$stream_output_adapter@_W@__crt_stdio_output@@@2@@__crt_stdio_output@@AEAA_N_W@Z 00000001800dd550 f i libucrtd:output.obj
 0001:000dc570       ?state_case_normal_tchar@?$output_processor@_WV?$string_output_adapter@_W@__crt_stdio_output@@V?$format_validation_base@_WV?$string_output_adapter@_W@__crt_stdio_output@@@2@@__crt_stdio_output@@AEAA_N_W@Z 00000001800dd570 f i libucrtd:output.obj
 0001:000dc590       ?state_case_normal_tchar@?$output_processor@_WV?$string_output_adapter@_W@__crt_stdio_output@@V?$positional_parameter_base@_WV?$string_output_adapter@_W@__crt_stdio_output@@@2@@__crt_stdio_output@@AEAA_N_W@Z 00000001800dd590 f i libucrtd:output.obj
 0001:000dc5b0       ?state_case_normal_tchar@?$output_processor@_WV?$string_output_adapter@_W@__crt_stdio_output@@V?$standard_base@_WV?$string_output_adapter@_W@__crt_stdio_output@@@2@@__crt_stdio_output@@AEAA_N_W@Z 00000001800dd5b0 f i libucrtd:output.obj
 0001:000dc5d0       ?state_case_percent@?$output_processor@DV?$stream_output_adapter@D@__crt_stdio_output@@V?$format_validation_base@DV?$stream_output_adapter@D@__crt_stdio_output@@@2@@__crt_stdio_output@@AEAA_NXZ 00000001800dd5d0 f i libucrtd:output.obj
 0001:000dc630       ?state_case_percent@?$output_processor@DV?$stream_output_adapter@D@__crt_stdio_output@@V?$positional_parameter_base@DV?$stream_output_adapter@D@__crt_stdio_output@@@2@@__crt_stdio_output@@AEAA_NXZ 00000001800dd630 f i libucrtd:output.obj
 0001:000dc690       ?state_case_percent@?$output_processor@DV?$stream_output_adapter@D@__crt_stdio_output@@V?$standard_base@DV?$stream_output_adapter@D@__crt_stdio_output@@@2@@__crt_stdio_output@@AEAA_NXZ 00000001800dd690 f i libucrtd:output.obj
 0001:000dc6f0       ?state_case_percent@?$output_processor@DV?$string_output_adapter@D@__crt_stdio_output@@V?$format_validation_base@DV?$string_output_adapter@D@__crt_stdio_output@@@2@@__crt_stdio_output@@AEAA_NXZ 00000001800dd6f0 f i libucrtd:output.obj
 0001:000dc750       ?state_case_percent@?$output_processor@DV?$string_output_adapter@D@__crt_stdio_output@@V?$positional_parameter_base@DV?$string_output_adapter@D@__crt_stdio_output@@@2@@__crt_stdio_output@@AEAA_NXZ 00000001800dd750 f i libucrtd:output.obj
 0001:000dc7b0       ?state_case_percent@?$output_processor@DV?$string_output_adapter@D@__crt_stdio_output@@V?$standard_base@DV?$string_output_adapter@D@__crt_stdio_output@@@2@@__crt_stdio_output@@AEAA_NXZ 00000001800dd7b0 f i libucrtd:output.obj
 0001:000dc810       ?state_case_percent@?$output_processor@_WV?$stream_output_adapter@_W@__crt_stdio_output@@V?$format_validation_base@_WV?$stream_output_adapter@_W@__crt_stdio_output@@@2@@__crt_stdio_output@@AEAA_NXZ 00000001800dd810 f i libucrtd:output.obj
 0001:000dc870       ?state_case_percent@?$output_processor@_WV?$stream_output_adapter@_W@__crt_stdio_output@@V?$positional_parameter_base@_WV?$stream_output_adapter@_W@__crt_stdio_output@@@2@@__crt_stdio_output@@AEAA_NXZ 00000001800dd870 f i libucrtd:output.obj
 0001:000dc8d0       ?state_case_percent@?$output_processor@_WV?$stream_output_adapter@_W@__crt_stdio_output@@V?$standard_base@_WV?$stream_output_adapter@_W@__crt_stdio_output@@@2@@__crt_stdio_output@@AEAA_NXZ 00000001800dd8d0 f i libucrtd:output.obj
 0001:000dc930       ?state_case_percent@?$output_processor@_WV?$string_output_adapter@_W@__crt_stdio_output@@V?$format_validation_base@_WV?$string_output_adapter@_W@__crt_stdio_output@@@2@@__crt_stdio_output@@AEAA_NXZ 00000001800dd930 f i libucrtd:output.obj
 0001:000dc990       ?state_case_percent@?$output_processor@_WV?$string_output_adapter@_W@__crt_stdio_output@@V?$positional_parameter_base@_WV?$string_output_adapter@_W@__crt_stdio_output@@@2@@__crt_stdio_output@@AEAA_NXZ 00000001800dd990 f i libucrtd:output.obj
 0001:000dc9f0       ?state_case_percent@?$output_processor@_WV?$string_output_adapter@_W@__crt_stdio_output@@V?$standard_base@_WV?$string_output_adapter@_W@__crt_stdio_output@@@2@@__crt_stdio_output@@AEAA_NXZ 00000001800dd9f0 f i libucrtd:output.obj
 0001:000dca50       ?state_case_precision@?$output_processor@DV?$stream_output_adapter@D@__crt_stdio_output@@V?$format_validation_base@DV?$stream_output_adapter@D@__crt_stdio_output@@@2@@__crt_stdio_output@@AEAA_NXZ 00000001800dda50 f i libucrtd:output.obj
 0001:000dcaf0       ?state_case_precision@?$output_processor@DV?$stream_output_adapter@D@__crt_stdio_output@@V?$positional_parameter_base@DV?$stream_output_adapter@D@__crt_stdio_output@@@2@@__crt_stdio_output@@AEAA_NXZ 00000001800ddaf0 f i libucrtd:output.obj
 0001:000dcb90       ?state_case_precision@?$output_processor@DV?$stream_output_adapter@D@__crt_stdio_output@@V?$standard_base@DV?$stream_output_adapter@D@__crt_stdio_output@@@2@@__crt_stdio_output@@AEAA_NXZ 00000001800ddb90 f i libucrtd:output.obj
 0001:000dcc30       ?state_case_precision@?$output_processor@DV?$string_output_adapter@D@__crt_stdio_output@@V?$format_validation_base@DV?$string_output_adapter@D@__crt_stdio_output@@@2@@__crt_stdio_output@@AEAA_NXZ 00000001800ddc30 f i libucrtd:output.obj
 0001:000dccd0       ?state_case_precision@?$output_processor@DV?$string_output_adapter@D@__crt_stdio_output@@V?$positional_parameter_base@DV?$string_output_adapter@D@__crt_stdio_output@@@2@@__crt_stdio_output@@AEAA_NXZ 00000001800ddcd0 f i libucrtd:output.obj
 0001:000dcd70       ?state_case_precision@?$output_processor@DV?$string_output_adapter@D@__crt_stdio_output@@V?$standard_base@DV?$string_output_adapter@D@__crt_stdio_output@@@2@@__crt_stdio_output@@AEAA_NXZ 00000001800ddd70 f i libucrtd:output.obj
 0001:000dce10       ?state_case_precision@?$output_processor@_WV?$stream_output_adapter@_W@__crt_stdio_output@@V?$format_validation_base@_WV?$stream_output_adapter@_W@__crt_stdio_output@@@2@@__crt_stdio_output@@AEAA_NXZ 00000001800dde10 f i libucrtd:output.obj
 0001:000dceb0       ?state_case_precision@?$output_processor@_WV?$stream_output_adapter@_W@__crt_stdio_output@@V?$positional_parameter_base@_WV?$stream_output_adapter@_W@__crt_stdio_output@@@2@@__crt_stdio_output@@AEAA_NXZ 00000001800ddeb0 f i libucrtd:output.obj
 0001:000dcf50       ?state_case_precision@?$output_processor@_WV?$stream_output_adapter@_W@__crt_stdio_output@@V?$standard_base@_WV?$stream_output_adapter@_W@__crt_stdio_output@@@2@@__crt_stdio_output@@AEAA_NXZ 00000001800ddf50 f i libucrtd:output.obj
 0001:000dcff0       ?state_case_precision@?$output_processor@_WV?$string_output_adapter@_W@__crt_stdio_output@@V?$format_validation_base@_WV?$string_output_adapter@_W@__crt_stdio_output@@@2@@__crt_stdio_output@@AEAA_NXZ 00000001800ddff0 f i libucrtd:output.obj
 0001:000dd090       ?state_case_precision@?$output_processor@_WV?$string_output_adapter@_W@__crt_stdio_output@@V?$positional_parameter_base@_WV?$string_output_adapter@_W@__crt_stdio_output@@@2@@__crt_stdio_output@@AEAA_NXZ 00000001800de090 f i libucrtd:output.obj
 0001:000dd130       ?state_case_precision@?$output_processor@_WV?$string_output_adapter@_W@__crt_stdio_output@@V?$standard_base@_WV?$string_output_adapter@_W@__crt_stdio_output@@@2@@__crt_stdio_output@@AEAA_NXZ 00000001800de130 f i libucrtd:output.obj
 0001:000dd1d0       ?state_case_size@?$output_processor@DV?$stream_output_adapter@D@__crt_stdio_output@@V?$format_validation_base@DV?$stream_output_adapter@D@__crt_stdio_output@@@2@@__crt_stdio_output@@AEAA_NXZ 00000001800de1d0 f i libucrtd:output.obj
 0001:000dd7c0       ?state_case_size@?$output_processor@DV?$stream_output_adapter@D@__crt_stdio_output@@V?$positional_parameter_base@DV?$stream_output_adapter@D@__crt_stdio_output@@@2@@__crt_stdio_output@@AEAA_NXZ 00000001800de7c0 f i libucrtd:output.obj
 0001:000dddb0       ?state_case_size@?$output_processor@DV?$stream_output_adapter@D@__crt_stdio_output@@V?$standard_base@DV?$stream_output_adapter@D@__crt_stdio_output@@@2@@__crt_stdio_output@@AEAA_NXZ 00000001800dedb0 f i libucrtd:output.obj
 0001:000de3a0       ?state_case_size@?$output_processor@DV?$string_output_adapter@D@__crt_stdio_output@@V?$format_validation_base@DV?$string_output_adapter@D@__crt_stdio_output@@@2@@__crt_stdio_output@@AEAA_NXZ 00000001800df3a0 f i libucrtd:output.obj
 0001:000de990       ?state_case_size@?$output_processor@DV?$string_output_adapter@D@__crt_stdio_output@@V?$positional_parameter_base@DV?$string_output_adapter@D@__crt_stdio_output@@@2@@__crt_stdio_output@@AEAA_NXZ 00000001800df990 f i libucrtd:output.obj
 0001:000def80       ?state_case_size@?$output_processor@DV?$string_output_adapter@D@__crt_stdio_output@@V?$standard_base@DV?$string_output_adapter@D@__crt_stdio_output@@@2@@__crt_stdio_output@@AEAA_NXZ 00000001800dff80 f i libucrtd:output.obj
 0001:000df570       ?state_case_size@?$output_processor@_WV?$stream_output_adapter@_W@__crt_stdio_output@@V?$format_validation_base@_WV?$stream_output_adapter@_W@__crt_stdio_output@@@2@@__crt_stdio_output@@AEAA_NXZ 00000001800e0570 f i libucrtd:output.obj
 0001:000dfb60       ?state_case_size@?$output_processor@_WV?$stream_output_adapter@_W@__crt_stdio_output@@V?$positional_parameter_base@_WV?$stream_output_adapter@_W@__crt_stdio_output@@@2@@__crt_stdio_output@@AEAA_NXZ 00000001800e0b60 f i libucrtd:output.obj
 0001:000e0150       ?state_case_size@?$output_processor@_WV?$stream_output_adapter@_W@__crt_stdio_output@@V?$standard_base@_WV?$stream_output_adapter@_W@__crt_stdio_output@@@2@@__crt_stdio_output@@AEAA_NXZ 00000001800e1150 f i libucrtd:output.obj
 0001:000e0740       ?state_case_size@?$output_processor@_WV?$string_output_adapter@_W@__crt_stdio_output@@V?$format_validation_base@_WV?$string_output_adapter@_W@__crt_stdio_output@@@2@@__crt_stdio_output@@AEAA_NXZ 00000001800e1740 f i libucrtd:output.obj
 0001:000e0d30       ?state_case_size@?$output_processor@_WV?$string_output_adapter@_W@__crt_stdio_output@@V?$positional_parameter_base@_WV?$string_output_adapter@_W@__crt_stdio_output@@@2@@__crt_stdio_output@@AEAA_NXZ 00000001800e1d30 f i libucrtd:output.obj
 0001:000e1320       ?state_case_size@?$output_processor@_WV?$string_output_adapter@_W@__crt_stdio_output@@V?$standard_base@_WV?$string_output_adapter@_W@__crt_stdio_output@@@2@@__crt_stdio_output@@AEAA_NXZ 00000001800e2320 f i libucrtd:output.obj
 0001:000e1910       ?state_case_type@?$output_processor@DV?$stream_output_adapter@D@__crt_stdio_output@@V?$format_validation_base@DV?$stream_output_adapter@D@__crt_stdio_output@@@2@@__crt_stdio_output@@AEAA_NXZ 00000001800e2910 f i libucrtd:output.obj
 0001:000e1f00       ?state_case_type@?$output_processor@DV?$stream_output_adapter@D@__crt_stdio_output@@V?$positional_parameter_base@DV?$stream_output_adapter@D@__crt_stdio_output@@@2@@__crt_stdio_output@@AEAA_NXZ 00000001800e2f00 f i libucrtd:output.obj
 0001:000e24f0       ?state_case_type@?$output_processor@DV?$stream_output_adapter@D@__crt_stdio_output@@V?$standard_base@DV?$stream_output_adapter@D@__crt_stdio_output@@@2@@__crt_stdio_output@@AEAA_NXZ 00000001800e34f0 f i libucrtd:output.obj
 0001:000e2ae0       ?state_case_type@?$output_processor@DV?$string_output_adapter@D@__crt_stdio_output@@V?$format_validation_base@DV?$string_output_adapter@D@__crt_stdio_output@@@2@@__crt_stdio_output@@AEAA_NXZ 00000001800e3ae0 f i libucrtd:output.obj
 0001:000e30d0       ?state_case_type@?$output_processor@DV?$string_output_adapter@D@__crt_stdio_output@@V?$positional_parameter_base@DV?$string_output_adapter@D@__crt_stdio_output@@@2@@__crt_stdio_output@@AEAA_NXZ 00000001800e40d0 f i libucrtd:output.obj
 0001:000e36c0       ?state_case_type@?$output_processor@DV?$string_output_adapter@D@__crt_stdio_output@@V?$standard_base@DV?$string_output_adapter@D@__crt_stdio_output@@@2@@__crt_stdio_output@@AEAA_NXZ 00000001800e46c0 f i libucrtd:output.obj
 0001:000e3cb0       ?state_case_type@?$output_processor@_WV?$stream_output_adapter@_W@__crt_stdio_output@@V?$format_validation_base@_WV?$stream_output_adapter@_W@__crt_stdio_output@@@2@@__crt_stdio_output@@AEAA_NXZ 00000001800e4cb0 f i libucrtd:output.obj
 0001:000e43a0       ?state_case_type@?$output_processor@_WV?$stream_output_adapter@_W@__crt_stdio_output@@V?$positional_parameter_base@_WV?$stream_output_adapter@_W@__crt_stdio_output@@@2@@__crt_stdio_output@@AEAA_NXZ 00000001800e53a0 f i libucrtd:output.obj
 0001:000e4a90       ?state_case_type@?$output_processor@_WV?$stream_output_adapter@_W@__crt_stdio_output@@V?$standard_base@_WV?$stream_output_adapter@_W@__crt_stdio_output@@@2@@__crt_stdio_output@@AEAA_NXZ 00000001800e5a90 f i libucrtd:output.obj
 0001:000e5180       ?state_case_type@?$output_processor@_WV?$string_output_adapter@_W@__crt_stdio_output@@V?$format_validation_base@_WV?$string_output_adapter@_W@__crt_stdio_output@@@2@@__crt_stdio_output@@AEAA_NXZ 00000001800e6180 f i libucrtd:output.obj
 0001:000e5870       ?state_case_type@?$output_processor@_WV?$string_output_adapter@_W@__crt_stdio_output@@V?$positional_parameter_base@_WV?$string_output_adapter@_W@__crt_stdio_output@@@2@@__crt_stdio_output@@AEAA_NXZ 00000001800e6870 f i libucrtd:output.obj
 0001:000e5f60       ?state_case_type@?$output_processor@_WV?$string_output_adapter@_W@__crt_stdio_output@@V?$standard_base@_WV?$string_output_adapter@_W@__crt_stdio_output@@@2@@__crt_stdio_output@@AEAA_NXZ 00000001800e6f60 f i libucrtd:output.obj
 0001:000e6650       ?state_case_width@?$output_processor@DV?$stream_output_adapter@D@__crt_stdio_output@@V?$format_validation_base@DV?$stream_output_adapter@D@__crt_stdio_output@@@2@@__crt_stdio_output@@AEAA_NXZ 00000001800e7650 f i libucrtd:output.obj
 0001:000e6700       ?state_case_width@?$output_processor@DV?$stream_output_adapter@D@__crt_stdio_output@@V?$positional_parameter_base@DV?$stream_output_adapter@D@__crt_stdio_output@@@2@@__crt_stdio_output@@AEAA_NXZ 00000001800e7700 f i libucrtd:output.obj
 0001:000e67b0       ?state_case_width@?$output_processor@DV?$stream_output_adapter@D@__crt_stdio_output@@V?$standard_base@DV?$stream_output_adapter@D@__crt_stdio_output@@@2@@__crt_stdio_output@@AEAA_NXZ 00000001800e77b0 f i libucrtd:output.obj
 0001:000e6860       ?state_case_width@?$output_processor@DV?$string_output_adapter@D@__crt_stdio_output@@V?$format_validation_base@DV?$string_output_adapter@D@__crt_stdio_output@@@2@@__crt_stdio_output@@AEAA_NXZ 00000001800e7860 f i libucrtd:output.obj
 0001:000e6910       ?state_case_width@?$output_processor@DV?$string_output_adapter@D@__crt_stdio_output@@V?$positional_parameter_base@DV?$string_output_adapter@D@__crt_stdio_output@@@2@@__crt_stdio_output@@AEAA_NXZ 00000001800e7910 f i libucrtd:output.obj
 0001:000e69c0       ?state_case_width@?$output_processor@DV?$string_output_adapter@D@__crt_stdio_output@@V?$standard_base@DV?$string_output_adapter@D@__crt_stdio_output@@@2@@__crt_stdio_output@@AEAA_NXZ 00000001800e79c0 f i libucrtd:output.obj
 0001:000e6a70       ?state_case_width@?$output_processor@_WV?$stream_output_adapter@_W@__crt_stdio_output@@V?$format_validation_base@_WV?$stream_output_adapter@_W@__crt_stdio_output@@@2@@__crt_stdio_output@@AEAA_NXZ 00000001800e7a70 f i libucrtd:output.obj
 0001:000e6b20       ?state_case_width@?$output_processor@_WV?$stream_output_adapter@_W@__crt_stdio_output@@V?$positional_parameter_base@_WV?$stream_output_adapter@_W@__crt_stdio_output@@@2@@__crt_stdio_output@@AEAA_NXZ 00000001800e7b20 f i libucrtd:output.obj
 0001:000e6bd0       ?state_case_width@?$output_processor@_WV?$stream_output_adapter@_W@__crt_stdio_output@@V?$standard_base@_WV?$stream_output_adapter@_W@__crt_stdio_output@@@2@@__crt_stdio_output@@AEAA_NXZ 00000001800e7bd0 f i libucrtd:output.obj
 0001:000e6c80       ?state_case_width@?$output_processor@_WV?$string_output_adapter@_W@__crt_stdio_output@@V?$format_validation_base@_WV?$string_output_adapter@_W@__crt_stdio_output@@@2@@__crt_stdio_output@@AEAA_NXZ 00000001800e7c80 f i libucrtd:output.obj
 0001:000e6d30       ?state_case_width@?$output_processor@_WV?$string_output_adapter@_W@__crt_stdio_output@@V?$positional_parameter_base@_WV?$string_output_adapter@_W@__crt_stdio_output@@@2@@__crt_stdio_output@@AEAA_NXZ 00000001800e7d30 f i libucrtd:output.obj
 0001:000e6de0       ?state_case_width@?$output_processor@_WV?$string_output_adapter@_W@__crt_stdio_output@@V?$standard_base@_WV?$string_output_adapter@_W@__crt_stdio_output@@@2@@__crt_stdio_output@@AEAA_NXZ 00000001800e7de0 f i libucrtd:output.obj
 0001:000e6e90       ?state_count@?$format_validation_base@DV?$stream_output_adapter@D@__crt_stdio_output@@@__crt_stdio_output@@KAIXZ 00000001800e7e90 f i libucrtd:output.obj
 0001:000e6ea0       ?state_count@?$format_validation_base@DV?$string_output_adapter@D@__crt_stdio_output@@@__crt_stdio_output@@KAIXZ 00000001800e7ea0 f i libucrtd:output.obj
 0001:000e6eb0       ?state_count@?$format_validation_base@_WV?$stream_output_adapter@_W@__crt_stdio_output@@@__crt_stdio_output@@KAIXZ 00000001800e7eb0 f i libucrtd:output.obj
 0001:000e6ec0       ?state_count@?$format_validation_base@_WV?$string_output_adapter@_W@__crt_stdio_output@@@__crt_stdio_output@@KAIXZ 00000001800e7ec0 f i libucrtd:output.obj
 0001:000e6ed0       ?state_count@?$standard_base@DV?$stream_output_adapter@D@__crt_stdio_output@@@__crt_stdio_output@@KAIXZ 00000001800e7ed0 f i libucrtd:output.obj
 0001:000e6ee0       ?state_count@?$standard_base@DV?$string_output_adapter@D@__crt_stdio_output@@@__crt_stdio_output@@KAIXZ 00000001800e7ee0 f i libucrtd:output.obj
 0001:000e6ef0       ?state_count@?$standard_base@_WV?$stream_output_adapter@_W@__crt_stdio_output@@@__crt_stdio_output@@KAIXZ 00000001800e7ef0 f i libucrtd:output.obj
 0001:000e6f00       ?state_count@?$standard_base@_WV?$string_output_adapter@_W@__crt_stdio_output@@@__crt_stdio_output@@KAIXZ 00000001800e7f00 f i libucrtd:output.obj
 0001:000e6f10       ?state_transition_table@?$format_validation_base@DV?$stream_output_adapter@D@__crt_stdio_output@@@__crt_stdio_output@@KAAEBV?$spectre_mitigated_lookup_table@Ustate_transition_pair@__crt_stdio_output@@$0IA@@2@XZ 00000001800e7f10 f i libucrtd:output.obj
 0001:000e6f20       ?state_transition_table@?$format_validation_base@DV?$string_output_adapter@D@__crt_stdio_output@@@__crt_stdio_output@@KAAEBV?$spectre_mitigated_lookup_table@Ustate_transition_pair@__crt_stdio_output@@$0IA@@2@XZ 00000001800e7f20 f i libucrtd:output.obj
 0001:000e6f30       ?state_transition_table@?$format_validation_base@_WV?$stream_output_adapter@_W@__crt_stdio_output@@@__crt_stdio_output@@KAAEBV?$spectre_mitigated_lookup_table@Ustate_transition_pair@__crt_stdio_output@@$0IA@@2@XZ 00000001800e7f30 f i libucrtd:output.obj
 0001:000e6f40       ?state_transition_table@?$format_validation_base@_WV?$string_output_adapter@_W@__crt_stdio_output@@@__crt_stdio_output@@KAAEBV?$spectre_mitigated_lookup_table@Ustate_transition_pair@__crt_stdio_output@@$0IA@@2@XZ 00000001800e7f40 f i libucrtd:output.obj
 0001:000e6f50       ?state_transition_table@?$standard_base@DV?$stream_output_adapter@D@__crt_stdio_output@@@__crt_stdio_output@@KAAEBV?$spectre_mitigated_lookup_table@Ustate_transition_pair@__crt_stdio_output@@$0IA@@2@XZ 00000001800e7f50 f i libucrtd:output.obj
 0001:000e6f60       ?state_transition_table@?$standard_base@DV?$string_output_adapter@D@__crt_stdio_output@@@__crt_stdio_output@@KAAEBV?$spectre_mitigated_lookup_table@Ustate_transition_pair@__crt_stdio_output@@$0IA@@2@XZ 00000001800e7f60 f i libucrtd:output.obj
 0001:000e6f70       ?state_transition_table@?$standard_base@_WV?$stream_output_adapter@_W@__crt_stdio_output@@@__crt_stdio_output@@KAAEBV?$spectre_mitigated_lookup_table@Ustate_transition_pair@__crt_stdio_output@@$0IA@@2@XZ 00000001800e7f70 f i libucrtd:output.obj
 0001:000e6f80       ?state_transition_table@?$standard_base@_WV?$string_output_adapter@_W@__crt_stdio_output@@@__crt_stdio_output@@KAAEBV?$spectre_mitigated_lookup_table@Ustate_transition_pair@__crt_stdio_output@@$0IA@@2@XZ 00000001800e7f80 f i libucrtd:output.obj
 0001:000e6f90       ?tchar_string@?$common_data@D@__crt_stdio_output@@IEAAAEAPEADD@Z 00000001800e7f90 f i libucrtd:output.obj
 0001:000e6fb0       ?tchar_string@?$common_data@D@__crt_stdio_output@@IEAAAEAPEADXZ 00000001800e7fb0 f i libucrtd:output.obj
 0001:000e6fd0       ?tchar_string@?$common_data@_W@__crt_stdio_output@@IEAAAEAPEA_WXZ 00000001800e7fd0 f i libucrtd:output.obj
 0001:000e6ff0       ?tchar_string@?$common_data@_W@__crt_stdio_output@@IEAAAEAPEA_W_W@Z 00000001800e7ff0 f i libucrtd:output.obj
 0001:000e7010       ?to_integer_size@__crt_stdio_output@@YA_KW4length_modifier@1@@Z 00000001800e8010 f i libucrtd:output.obj
 0001:000e70f0       ?type_case_X@?$output_processor@DV?$stream_output_adapter@D@__crt_stdio_output@@V?$format_validation_base@DV?$stream_output_adapter@D@__crt_stdio_output@@@2@@__crt_stdio_output@@AEAA_NXZ 00000001800e80f0 f i libucrtd:output.obj
 0001:000e7110       ?type_case_X@?$output_processor@DV?$stream_output_adapter@D@__crt_stdio_output@@V?$positional_parameter_base@DV?$stream_output_adapter@D@__crt_stdio_output@@@2@@__crt_stdio_output@@AEAA_NXZ 00000001800e8110 f i libucrtd:output.obj
 0001:000e7130       ?type_case_X@?$output_processor@DV?$stream_output_adapter@D@__crt_stdio_output@@V?$standard_base@DV?$stream_output_adapter@D@__crt_stdio_output@@@2@@__crt_stdio_output@@AEAA_NXZ 00000001800e8130 f i libucrtd:output.obj
 0001:000e7150       ?type_case_X@?$output_processor@DV?$string_output_adapter@D@__crt_stdio_output@@V?$format_validation_base@DV?$string_output_adapter@D@__crt_stdio_output@@@2@@__crt_stdio_output@@AEAA_NXZ 00000001800e8150 f i libucrtd:output.obj
 0001:000e7170       ?type_case_X@?$output_processor@DV?$string_output_adapter@D@__crt_stdio_output@@V?$positional_parameter_base@DV?$string_output_adapter@D@__crt_stdio_output@@@2@@__crt_stdio_output@@AEAA_NXZ 00000001800e8170 f i libucrtd:output.obj
 0001:000e7190       ?type_case_X@?$output_processor@DV?$string_output_adapter@D@__crt_stdio_output@@V?$standard_base@DV?$string_output_adapter@D@__crt_stdio_output@@@2@@__crt_stdio_output@@AEAA_NXZ 00000001800e8190 f i libucrtd:output.obj
 0001:000e71b0       ?type_case_X@?$output_processor@_WV?$stream_output_adapter@_W@__crt_stdio_output@@V?$format_validation_base@_WV?$stream_output_adapter@_W@__crt_stdio_output@@@2@@__crt_stdio_output@@AEAA_NXZ 00000001800e81b0 f i libucrtd:output.obj
 0001:000e71d0       ?type_case_X@?$output_processor@_WV?$stream_output_adapter@_W@__crt_stdio_output@@V?$positional_parameter_base@_WV?$stream_output_adapter@_W@__crt_stdio_output@@@2@@__crt_stdio_output@@AEAA_NXZ 00000001800e81d0 f i libucrtd:output.obj
 0001:000e71f0       ?type_case_X@?$output_processor@_WV?$stream_output_adapter@_W@__crt_stdio_output@@V?$standard_base@_WV?$stream_output_adapter@_W@__crt_stdio_output@@@2@@__crt_stdio_output@@AEAA_NXZ 00000001800e81f0 f i libucrtd:output.obj
 0001:000e7210       ?type_case_X@?$output_processor@_WV?$string_output_adapter@_W@__crt_stdio_output@@V?$format_validation_base@_WV?$string_output_adapter@_W@__crt_stdio_output@@@2@@__crt_stdio_output@@AEAA_NXZ 00000001800e8210 f i libucrtd:output.obj
 0001:000e7230       ?type_case_X@?$output_processor@_WV?$string_output_adapter@_W@__crt_stdio_output@@V?$positional_parameter_base@_WV?$string_output_adapter@_W@__crt_stdio_output@@@2@@__crt_stdio_output@@AEAA_NXZ 00000001800e8230 f i libucrtd:output.obj
 0001:000e7250       ?type_case_X@?$output_processor@_WV?$string_output_adapter@_W@__crt_stdio_output@@V?$standard_base@_WV?$string_output_adapter@_W@__crt_stdio_output@@@2@@__crt_stdio_output@@AEAA_NXZ 00000001800e8250 f i libucrtd:output.obj
 0001:000e7270       ?type_case_Z@?$output_processor@DV?$stream_output_adapter@D@__crt_stdio_output@@V?$format_validation_base@DV?$stream_output_adapter@D@__crt_stdio_output@@@2@@__crt_stdio_output@@AEAA_NXZ 00000001800e8270 f i libucrtd:output.obj
 0001:000e73d0       ?type_case_Z@?$output_processor@DV?$stream_output_adapter@D@__crt_stdio_output@@V?$positional_parameter_base@DV?$stream_output_adapter@D@__crt_stdio_output@@@2@@__crt_stdio_output@@AEAA_NXZ 00000001800e83d0 f i libucrtd:output.obj
 0001:000e7530       ?type_case_Z@?$output_processor@DV?$stream_output_adapter@D@__crt_stdio_output@@V?$standard_base@DV?$stream_output_adapter@D@__crt_stdio_output@@@2@@__crt_stdio_output@@AEAA_NXZ 00000001800e8530 f i libucrtd:output.obj
 0001:000e7690       ?type_case_Z@?$output_processor@DV?$string_output_adapter@D@__crt_stdio_output@@V?$format_validation_base@DV?$string_output_adapter@D@__crt_stdio_output@@@2@@__crt_stdio_output@@AEAA_NXZ 00000001800e8690 f i libucrtd:output.obj
 0001:000e77f0       ?type_case_Z@?$output_processor@DV?$string_output_adapter@D@__crt_stdio_output@@V?$positional_parameter_base@DV?$string_output_adapter@D@__crt_stdio_output@@@2@@__crt_stdio_output@@AEAA_NXZ 00000001800e87f0 f i libucrtd:output.obj
 0001:000e7950       ?type_case_Z@?$output_processor@DV?$string_output_adapter@D@__crt_stdio_output@@V?$standard_base@DV?$string_output_adapter@D@__crt_stdio_output@@@2@@__crt_stdio_output@@AEAA_NXZ 00000001800e8950 f i libucrtd:output.obj
 0001:000e7ab0       ?type_case_Z@?$output_processor@_WV?$stream_output_adapter@_W@__crt_stdio_output@@V?$format_validation_base@_WV?$stream_output_adapter@_W@__crt_stdio_output@@@2@@__crt_stdio_output@@AEAA_NXZ 00000001800e8ab0 f i libucrtd:output.obj
 0001:000e7c10       ?type_case_Z@?$output_processor@_WV?$stream_output_adapter@_W@__crt_stdio_output@@V?$positional_parameter_base@_WV?$stream_output_adapter@_W@__crt_stdio_output@@@2@@__crt_stdio_output@@AEAA_NXZ 00000001800e8c10 f i libucrtd:output.obj
 0001:000e7d70       ?type_case_Z@?$output_processor@_WV?$stream_output_adapter@_W@__crt_stdio_output@@V?$standard_base@_WV?$stream_output_adapter@_W@__crt_stdio_output@@@2@@__crt_stdio_output@@AEAA_NXZ 00000001800e8d70 f i libucrtd:output.obj
 0001:000e7ed0       ?type_case_Z@?$output_processor@_WV?$string_output_adapter@_W@__crt_stdio_output@@V?$format_validation_base@_WV?$string_output_adapter@_W@__crt_stdio_output@@@2@@__crt_stdio_output@@AEAA_NXZ 00000001800e8ed0 f i libucrtd:output.obj
 0001:000e8030       ?type_case_Z@?$output_processor@_WV?$string_output_adapter@_W@__crt_stdio_output@@V?$positional_parameter_base@_WV?$string_output_adapter@_W@__crt_stdio_output@@@2@@__crt_stdio_output@@AEAA_NXZ 00000001800e9030 f i libucrtd:output.obj
 0001:000e8190       ?type_case_Z@?$output_processor@_WV?$string_output_adapter@_W@__crt_stdio_output@@V?$standard_base@_WV?$string_output_adapter@_W@__crt_stdio_output@@@2@@__crt_stdio_output@@AEAA_NXZ 00000001800e9190 f i libucrtd:output.obj
 0001:000e82f0       ?type_case_a@?$output_processor@DV?$stream_output_adapter@D@__crt_stdio_output@@V?$format_validation_base@DV?$stream_output_adapter@D@__crt_stdio_output@@@2@@__crt_stdio_output@@AEAA_NXZ 00000001800e92f0 f i libucrtd:output.obj
 0001:000e8870       ?type_case_a@?$output_processor@DV?$stream_output_adapter@D@__crt_stdio_output@@V?$positional_parameter_base@DV?$stream_output_adapter@D@__crt_stdio_output@@@2@@__crt_stdio_output@@AEAA_NXZ 00000001800e9870 f i libucrtd:output.obj
 0001:000e8df0       ?type_case_a@?$output_processor@DV?$stream_output_adapter@D@__crt_stdio_output@@V?$standard_base@DV?$stream_output_adapter@D@__crt_stdio_output@@@2@@__crt_stdio_output@@AEAA_NXZ 00000001800e9df0 f i libucrtd:output.obj
 0001:000e9370       ?type_case_a@?$output_processor@DV?$string_output_adapter@D@__crt_stdio_output@@V?$format_validation_base@DV?$string_output_adapter@D@__crt_stdio_output@@@2@@__crt_stdio_output@@AEAA_NXZ 00000001800ea370 f i libucrtd:output.obj
 0001:000e98f0       ?type_case_a@?$output_processor@DV?$string_output_adapter@D@__crt_stdio_output@@V?$positional_parameter_base@DV?$string_output_adapter@D@__crt_stdio_output@@@2@@__crt_stdio_output@@AEAA_NXZ 00000001800ea8f0 f i libucrtd:output.obj
 0001:000e9e70       ?type_case_a@?$output_processor@DV?$string_output_adapter@D@__crt_stdio_output@@V?$standard_base@DV?$string_output_adapter@D@__crt_stdio_output@@@2@@__crt_stdio_output@@AEAA_NXZ 00000001800eae70 f i libucrtd:output.obj
 0001:000ea3f0       ?type_case_a@?$output_processor@_WV?$stream_output_adapter@_W@__crt_stdio_output@@V?$format_validation_base@_WV?$stream_output_adapter@_W@__crt_stdio_output@@@2@@__crt_stdio_output@@AEAA_NXZ 00000001800eb3f0 f i libucrtd:output.obj
 0001:000ea970       ?type_case_a@?$output_processor@_WV?$stream_output_adapter@_W@__crt_stdio_output@@V?$positional_parameter_base@_WV?$stream_output_adapter@_W@__crt_stdio_output@@@2@@__crt_stdio_output@@AEAA_NXZ 00000001800eb970 f i libucrtd:output.obj
 0001:000eaef0       ?type_case_a@?$output_processor@_WV?$stream_output_adapter@_W@__crt_stdio_output@@V?$standard_base@_WV?$stream_output_adapter@_W@__crt_stdio_output@@@2@@__crt_stdio_output@@AEAA_NXZ 00000001800ebef0 f i libucrtd:output.obj
 0001:000eb470       ?type_case_a@?$output_processor@_WV?$string_output_adapter@_W@__crt_stdio_output@@V?$format_validation_base@_WV?$string_output_adapter@_W@__crt_stdio_output@@@2@@__crt_stdio_output@@AEAA_NXZ 00000001800ec470 f i libucrtd:output.obj
 0001:000eb9f0       ?type_case_a@?$output_processor@_WV?$string_output_adapter@_W@__crt_stdio_output@@V?$positional_parameter_base@_WV?$string_output_adapter@_W@__crt_stdio_output@@@2@@__crt_stdio_output@@AEAA_NXZ 00000001800ec9f0 f i libucrtd:output.obj
 0001:000ebf70       ?type_case_a@?$output_processor@_WV?$string_output_adapter@_W@__crt_stdio_output@@V?$standard_base@_WV?$string_output_adapter@_W@__crt_stdio_output@@@2@@__crt_stdio_output@@AEAA_NXZ 00000001800ecf70 f i libucrtd:output.obj
 0001:000ec4f0       ?type_case_c@?$output_processor@DV?$stream_output_adapter@D@__crt_stdio_output@@V?$format_validation_base@DV?$stream_output_adapter@D@__crt_stdio_output@@@2@@__crt_stdio_output@@AEAA_NXZ 00000001800ed4f0 f i libucrtd:output.obj
 0001:000ec510       ?type_case_c@?$output_processor@DV?$stream_output_adapter@D@__crt_stdio_output@@V?$positional_parameter_base@DV?$stream_output_adapter@D@__crt_stdio_output@@@2@@__crt_stdio_output@@AEAA_NXZ 00000001800ed510 f i libucrtd:output.obj
 0001:000ec530       ?type_case_c@?$output_processor@DV?$stream_output_adapter@D@__crt_stdio_output@@V?$standard_base@DV?$stream_output_adapter@D@__crt_stdio_output@@@2@@__crt_stdio_output@@AEAA_NXZ 00000001800ed530 f i libucrtd:output.obj
 0001:000ec550       ?type_case_c@?$output_processor@DV?$string_output_adapter@D@__crt_stdio_output@@V?$format_validation_base@DV?$string_output_adapter@D@__crt_stdio_output@@@2@@__crt_stdio_output@@AEAA_NXZ 00000001800ed550 f i libucrtd:output.obj
 0001:000ec570       ?type_case_c@?$output_processor@DV?$string_output_adapter@D@__crt_stdio_output@@V?$positional_parameter_base@DV?$string_output_adapter@D@__crt_stdio_output@@@2@@__crt_stdio_output@@AEAA_NXZ 00000001800ed570 f i libucrtd:output.obj
 0001:000ec590       ?type_case_c@?$output_processor@DV?$string_output_adapter@D@__crt_stdio_output@@V?$standard_base@DV?$string_output_adapter@D@__crt_stdio_output@@@2@@__crt_stdio_output@@AEAA_NXZ 00000001800ed590 f i libucrtd:output.obj
 0001:000ec5b0       ?type_case_c@?$output_processor@_WV?$stream_output_adapter@_W@__crt_stdio_output@@V?$format_validation_base@_WV?$stream_output_adapter@_W@__crt_stdio_output@@@2@@__crt_stdio_output@@AEAA_NXZ 00000001800ed5b0 f i libucrtd:output.obj
 0001:000ec5d0       ?type_case_c@?$output_processor@_WV?$stream_output_adapter@_W@__crt_stdio_output@@V?$positional_parameter_base@_WV?$stream_output_adapter@_W@__crt_stdio_output@@@2@@__crt_stdio_output@@AEAA_NXZ 00000001800ed5d0 f i libucrtd:output.obj
 0001:000ec5f0       ?type_case_c@?$output_processor@_WV?$stream_output_adapter@_W@__crt_stdio_output@@V?$standard_base@_WV?$stream_output_adapter@_W@__crt_stdio_output@@@2@@__crt_stdio_output@@AEAA_NXZ 00000001800ed5f0 f i libucrtd:output.obj
 0001:000ec610       ?type_case_c@?$output_processor@_WV?$string_output_adapter@_W@__crt_stdio_output@@V?$format_validation_base@_WV?$string_output_adapter@_W@__crt_stdio_output@@@2@@__crt_stdio_output@@AEAA_NXZ 00000001800ed610 f i libucrtd:output.obj
 0001:000ec630       ?type_case_c@?$output_processor@_WV?$string_output_adapter@_W@__crt_stdio_output@@V?$positional_parameter_base@_WV?$string_output_adapter@_W@__crt_stdio_output@@@2@@__crt_stdio_output@@AEAA_NXZ 00000001800ed630 f i libucrtd:output.obj
 0001:000ec650       ?type_case_c@?$output_processor@_WV?$string_output_adapter@_W@__crt_stdio_output@@V?$standard_base@_WV?$string_output_adapter@_W@__crt_stdio_output@@@2@@__crt_stdio_output@@AEAA_NXZ 00000001800ed650 f i libucrtd:output.obj
 0001:000ec670       ?type_case_c_tchar@?$output_processor@DV?$stream_output_adapter@D@__crt_stdio_output@@V?$format_validation_base@DV?$stream_output_adapter@D@__crt_stdio_output@@@2@@__crt_stdio_output@@AEAA_ND@Z 00000001800ed670 f i libucrtd:output.obj
 0001:000ec840       ?type_case_c_tchar@?$output_processor@DV?$stream_output_adapter@D@__crt_stdio_output@@V?$positional_parameter_base@DV?$stream_output_adapter@D@__crt_stdio_output@@@2@@__crt_stdio_output@@AEAA_ND@Z 00000001800ed840 f i libucrtd:output.obj
 0001:000eca10       ?type_case_c_tchar@?$output_processor@DV?$stream_output_adapter@D@__crt_stdio_output@@V?$standard_base@DV?$stream_output_adapter@D@__crt_stdio_output@@@2@@__crt_stdio_output@@AEAA_ND@Z 00000001800eda10 f i libucrtd:output.obj
 0001:000ecbe0       ?type_case_c_tchar@?$output_processor@DV?$string_output_adapter@D@__crt_stdio_output@@V?$format_validation_base@DV?$string_output_adapter@D@__crt_stdio_output@@@2@@__crt_stdio_output@@AEAA_ND@Z 00000001800edbe0 f i libucrtd:output.obj
 0001:000ecdb0       ?type_case_c_tchar@?$output_processor@DV?$string_output_adapter@D@__crt_stdio_output@@V?$positional_parameter_base@DV?$string_output_adapter@D@__crt_stdio_output@@@2@@__crt_stdio_output@@AEAA_ND@Z 00000001800eddb0 f i libucrtd:output.obj
 0001:000ecf80       ?type_case_c_tchar@?$output_processor@DV?$string_output_adapter@D@__crt_stdio_output@@V?$standard_base@DV?$string_output_adapter@D@__crt_stdio_output@@@2@@__crt_stdio_output@@AEAA_ND@Z 00000001800edf80 f i libucrtd:output.obj
 0001:000ed150       ?type_case_c_tchar@?$output_processor@_WV?$stream_output_adapter@_W@__crt_stdio_output@@V?$format_validation_base@_WV?$stream_output_adapter@_W@__crt_stdio_output@@@2@@__crt_stdio_output@@AEAA_N_W@Z 00000001800ee150 f i libucrtd:output.obj
 0001:000ed300       ?type_case_c_tchar@?$output_processor@_WV?$stream_output_adapter@_W@__crt_stdio_output@@V?$positional_parameter_base@_WV?$stream_output_adapter@_W@__crt_stdio_output@@@2@@__crt_stdio_output@@AEAA_N_W@Z 00000001800ee300 f i libucrtd:output.obj
 0001:000ed4b0       ?type_case_c_tchar@?$output_processor@_WV?$stream_output_adapter@_W@__crt_stdio_output@@V?$standard_base@_WV?$stream_output_adapter@_W@__crt_stdio_output@@@2@@__crt_stdio_output@@AEAA_N_W@Z 00000001800ee4b0 f i libucrtd:output.obj
 0001:000ed660       ?type_case_c_tchar@?$output_processor@_WV?$string_output_adapter@_W@__crt_stdio_output@@V?$format_validation_base@_WV?$string_output_adapter@_W@__crt_stdio_output@@@2@@__crt_stdio_output@@AEAA_N_W@Z 00000001800ee660 f i libucrtd:output.obj
 0001:000ed810       ?type_case_c_tchar@?$output_processor@_WV?$string_output_adapter@_W@__crt_stdio_output@@V?$positional_parameter_base@_WV?$string_output_adapter@_W@__crt_stdio_output@@@2@@__crt_stdio_output@@AEAA_N_W@Z 00000001800ee810 f i libucrtd:output.obj
 0001:000ed9c0       ?type_case_c_tchar@?$output_processor@_WV?$string_output_adapter@_W@__crt_stdio_output@@V?$standard_base@_WV?$string_output_adapter@_W@__crt_stdio_output@@@2@@__crt_stdio_output@@AEAA_N_W@Z 00000001800ee9c0 f i libucrtd:output.obj
 0001:000edb70       ?type_case_d@?$output_processor@DV?$stream_output_adapter@D@__crt_stdio_output@@V?$format_validation_base@DV?$stream_output_adapter@D@__crt_stdio_output@@@2@@__crt_stdio_output@@AEAA_NXZ 00000001800eeb70 f i libucrtd:output.obj
 0001:000edbb0       ?type_case_d@?$output_processor@DV?$stream_output_adapter@D@__crt_stdio_output@@V?$positional_parameter_base@DV?$stream_output_adapter@D@__crt_stdio_output@@@2@@__crt_stdio_output@@AEAA_NXZ 00000001800eebb0 f i libucrtd:output.obj
 0001:000edbf0       ?type_case_d@?$output_processor@DV?$stream_output_adapter@D@__crt_stdio_output@@V?$standard_base@DV?$stream_output_adapter@D@__crt_stdio_output@@@2@@__crt_stdio_output@@AEAA_NXZ 00000001800eebf0 f i libucrtd:output.obj
 0001:000edc30       ?type_case_d@?$output_processor@DV?$string_output_adapter@D@__crt_stdio_output@@V?$format_validation_base@DV?$string_output_adapter@D@__crt_stdio_output@@@2@@__crt_stdio_output@@AEAA_NXZ 00000001800eec30 f i libucrtd:output.obj
 0001:000edc70       ?type_case_d@?$output_processor@DV?$string_output_adapter@D@__crt_stdio_output@@V?$positional_parameter_base@DV?$string_output_adapter@D@__crt_stdio_output@@@2@@__crt_stdio_output@@AEAA_NXZ 00000001800eec70 f i libucrtd:output.obj
 0001:000edcb0       ?type_case_d@?$output_processor@DV?$string_output_adapter@D@__crt_stdio_output@@V?$standard_base@DV?$string_output_adapter@D@__crt_stdio_output@@@2@@__crt_stdio_output@@AEAA_NXZ 00000001800eecb0 f i libucrtd:output.obj
 0001:000edcf0       ?type_case_d@?$output_processor@_WV?$stream_output_adapter@_W@__crt_stdio_output@@V?$format_validation_base@_WV?$stream_output_adapter@_W@__crt_stdio_output@@@2@@__crt_stdio_output@@AEAA_NXZ 00000001800eecf0 f i libucrtd:output.obj
 0001:000edd30       ?type_case_d@?$output_processor@_WV?$stream_output_adapter@_W@__crt_stdio_output@@V?$positional_parameter_base@_WV?$stream_output_adapter@_W@__crt_stdio_output@@@2@@__crt_stdio_output@@AEAA_NXZ 00000001800eed30 f i libucrtd:output.obj
 0001:000edd70       ?type_case_d@?$output_processor@_WV?$stream_output_adapter@_W@__crt_stdio_output@@V?$standard_base@_WV?$stream_output_adapter@_W@__crt_stdio_output@@@2@@__crt_stdio_output@@AEAA_NXZ 00000001800eed70 f i libucrtd:output.obj
 0001:000eddb0       ?type_case_d@?$output_processor@_WV?$string_output_adapter@_W@__crt_stdio_output@@V?$format_validation_base@_WV?$string_output_adapter@_W@__crt_stdio_output@@@2@@__crt_stdio_output@@AEAA_NXZ 00000001800eedb0 f i libucrtd:output.obj
 0001:000eddf0       ?type_case_d@?$output_processor@_WV?$string_output_adapter@_W@__crt_stdio_output@@V?$positional_parameter_base@_WV?$string_output_adapter@_W@__crt_stdio_output@@@2@@__crt_stdio_output@@AEAA_NXZ 00000001800eedf0 f i libucrtd:output.obj
 0001:000ede30       ?type_case_d@?$output_processor@_WV?$string_output_adapter@_W@__crt_stdio_output@@V?$standard_base@_WV?$string_output_adapter@_W@__crt_stdio_output@@@2@@__crt_stdio_output@@AEAA_NXZ 00000001800eee30 f i libucrtd:output.obj
 0001:000ede70       ?type_case_n@?$output_processor@DV?$stream_output_adapter@D@__crt_stdio_output@@V?$format_validation_base@DV?$stream_output_adapter@D@__crt_stdio_output@@@2@@__crt_stdio_output@@AEAA_NXZ 00000001800eee70 f i libucrtd:output.obj
 0001:000ee1a0       ?type_case_n@?$output_processor@DV?$stream_output_adapter@D@__crt_stdio_output@@V?$positional_parameter_base@DV?$stream_output_adapter@D@__crt_stdio_output@@@2@@__crt_stdio_output@@AEAA_NXZ 00000001800ef1a0 f i libucrtd:output.obj
 0001:000ee4d0       ?type_case_n@?$output_processor@DV?$stream_output_adapter@D@__crt_stdio_output@@V?$standard_base@DV?$stream_output_adapter@D@__crt_stdio_output@@@2@@__crt_stdio_output@@AEAA_NXZ 00000001800ef4d0 f i libucrtd:output.obj
 0001:000ee800       ?type_case_n@?$output_processor@DV?$string_output_adapter@D@__crt_stdio_output@@V?$format_validation_base@DV?$string_output_adapter@D@__crt_stdio_output@@@2@@__crt_stdio_output@@AEAA_NXZ 00000001800ef800 f i libucrtd:output.obj
 0001:000eeb30       ?type_case_n@?$output_processor@DV?$string_output_adapter@D@__crt_stdio_output@@V?$positional_parameter_base@DV?$string_output_adapter@D@__crt_stdio_output@@@2@@__crt_stdio_output@@AEAA_NXZ 00000001800efb30 f i libucrtd:output.obj
 0001:000eee60       ?type_case_n@?$output_processor@DV?$string_output_adapter@D@__crt_stdio_output@@V?$standard_base@DV?$string_output_adapter@D@__crt_stdio_output@@@2@@__crt_stdio_output@@AEAA_NXZ 00000001800efe60 f i libucrtd:output.obj
 0001:000ef190       ?type_case_n@?$output_processor@_WV?$stream_output_adapter@_W@__crt_stdio_output@@V?$format_validation_base@_WV?$stream_output_adapter@_W@__crt_stdio_output@@@2@@__crt_stdio_output@@AEAA_NXZ 00000001800f0190 f i libucrtd:output.obj
 0001:000ef4c0       ?type_case_n@?$output_processor@_WV?$stream_output_adapter@_W@__crt_stdio_output@@V?$positional_parameter_base@_WV?$stream_output_adapter@_W@__crt_stdio_output@@@2@@__crt_stdio_output@@AEAA_NXZ 00000001800f04c0 f i libucrtd:output.obj
 0001:000ef7f0       ?type_case_n@?$output_processor@_WV?$stream_output_adapter@_W@__crt_stdio_output@@V?$standard_base@_WV?$stream_output_adapter@_W@__crt_stdio_output@@@2@@__crt_stdio_output@@AEAA_NXZ 00000001800f07f0 f i libucrtd:output.obj
 0001:000efb20       ?type_case_n@?$output_processor@_WV?$string_output_adapter@_W@__crt_stdio_output@@V?$format_validation_base@_WV?$string_output_adapter@_W@__crt_stdio_output@@@2@@__crt_stdio_output@@AEAA_NXZ 00000001800f0b20 f i libucrtd:output.obj
 0001:000efe50       ?type_case_n@?$output_processor@_WV?$string_output_adapter@_W@__crt_stdio_output@@V?$positional_parameter_base@_WV?$string_output_adapter@_W@__crt_stdio_output@@@2@@__crt_stdio_output@@AEAA_NXZ 00000001800f0e50 f i libucrtd:output.obj
 0001:000f0180       ?type_case_n@?$output_processor@_WV?$string_output_adapter@_W@__crt_stdio_output@@V?$standard_base@_WV?$string_output_adapter@_W@__crt_stdio_output@@@2@@__crt_stdio_output@@AEAA_NXZ 00000001800f1180 f i libucrtd:output.obj
 0001:000f04b0       ?type_case_o@?$output_processor@DV?$stream_output_adapter@D@__crt_stdio_output@@V?$format_validation_base@DV?$stream_output_adapter@D@__crt_stdio_output@@@2@@__crt_stdio_output@@AEAA_NXZ 00000001800f14b0 f i libucrtd:output.obj
 0001:000f0500       ?type_case_o@?$output_processor@DV?$stream_output_adapter@D@__crt_stdio_output@@V?$positional_parameter_base@DV?$stream_output_adapter@D@__crt_stdio_output@@@2@@__crt_stdio_output@@AEAA_NXZ 00000001800f1500 f i libucrtd:output.obj
 0001:000f0550       ?type_case_o@?$output_processor@DV?$stream_output_adapter@D@__crt_stdio_output@@V?$standard_base@DV?$stream_output_adapter@D@__crt_stdio_output@@@2@@__crt_stdio_output@@AEAA_NXZ 00000001800f1550 f i libucrtd:output.obj
 0001:000f05a0       ?type_case_o@?$output_processor@DV?$string_output_adapter@D@__crt_stdio_output@@V?$format_validation_base@DV?$string_output_adapter@D@__crt_stdio_output@@@2@@__crt_stdio_output@@AEAA_NXZ 00000001800f15a0 f i libucrtd:output.obj
 0001:000f05f0       ?type_case_o@?$output_processor@DV?$string_output_adapter@D@__crt_stdio_output@@V?$positional_parameter_base@DV?$string_output_adapter@D@__crt_stdio_output@@@2@@__crt_stdio_output@@AEAA_NXZ 00000001800f15f0 f i libucrtd:output.obj
 0001:000f0640       ?type_case_o@?$output_processor@DV?$string_output_adapter@D@__crt_stdio_output@@V?$standard_base@DV?$string_output_adapter@D@__crt_stdio_output@@@2@@__crt_stdio_output@@AEAA_NXZ 00000001800f1640 f i libucrtd:output.obj
 0001:000f0690       ?type_case_o@?$output_processor@_WV?$stream_output_adapter@_W@__crt_stdio_output@@V?$format_validation_base@_WV?$stream_output_adapter@_W@__crt_stdio_output@@@2@@__crt_stdio_output@@AEAA_NXZ 00000001800f1690 f i libucrtd:output.obj
 0001:000f06e0       ?type_case_o@?$output_processor@_WV?$stream_output_adapter@_W@__crt_stdio_output@@V?$positional_parameter_base@_WV?$stream_output_adapter@_W@__crt_stdio_output@@@2@@__crt_stdio_output@@AEAA_NXZ 00000001800f16e0 f i libucrtd:output.obj
 0001:000f0730       ?type_case_o@?$output_processor@_WV?$stream_output_adapter@_W@__crt_stdio_output@@V?$standard_base@_WV?$stream_output_adapter@_W@__crt_stdio_output@@@2@@__crt_stdio_output@@AEAA_NXZ 00000001800f1730 f i libucrtd:output.obj
 0001:000f0780       ?type_case_o@?$output_processor@_WV?$string_output_adapter@_W@__crt_stdio_output@@V?$format_validation_base@_WV?$string_output_adapter@_W@__crt_stdio_output@@@2@@__crt_stdio_output@@AEAA_NXZ 00000001800f1780 f i libucrtd:output.obj
 0001:000f07d0       ?type_case_o@?$output_processor@_WV?$string_output_adapter@_W@__crt_stdio_output@@V?$positional_parameter_base@_WV?$string_output_adapter@_W@__crt_stdio_output@@@2@@__crt_stdio_output@@AEAA_NXZ 00000001800f17d0 f i libucrtd:output.obj
 0001:000f0820       ?type_case_o@?$output_processor@_WV?$string_output_adapter@_W@__crt_stdio_output@@V?$standard_base@_WV?$string_output_adapter@_W@__crt_stdio_output@@@2@@__crt_stdio_output@@AEAA_NXZ 00000001800f1820 f i libucrtd:output.obj
 0001:000f0870       ?type_case_p@?$output_processor@DV?$stream_output_adapter@D@__crt_stdio_output@@V?$format_validation_base@DV?$stream_output_adapter@D@__crt_stdio_output@@@2@@__crt_stdio_output@@AEAA_NXZ 00000001800f1870 f i libucrtd:output.obj
 0001:000f08b0       ?type_case_p@?$output_processor@DV?$stream_output_adapter@D@__crt_stdio_output@@V?$positional_parameter_base@DV?$stream_output_adapter@D@__crt_stdio_output@@@2@@__crt_stdio_output@@AEAA_NXZ 00000001800f18b0 f i libucrtd:output.obj
 0001:000f08f0       ?type_case_p@?$output_processor@DV?$stream_output_adapter@D@__crt_stdio_output@@V?$standard_base@DV?$stream_output_adapter@D@__crt_stdio_output@@@2@@__crt_stdio_output@@AEAA_NXZ 00000001800f18f0 f i libucrtd:output.obj
 0001:000f0930       ?type_case_p@?$output_processor@DV?$string_output_adapter@D@__crt_stdio_output@@V?$format_validation_base@DV?$string_output_adapter@D@__crt_stdio_output@@@2@@__crt_stdio_output@@AEAA_NXZ 00000001800f1930 f i libucrtd:output.obj
 0001:000f0970       ?type_case_p@?$output_processor@DV?$string_output_adapter@D@__crt_stdio_output@@V?$positional_parameter_base@DV?$string_output_adapter@D@__crt_stdio_output@@@2@@__crt_stdio_output@@AEAA_NXZ 00000001800f1970 f i libucrtd:output.obj
 0001:000f09b0       ?type_case_p@?$output_processor@DV?$string_output_adapter@D@__crt_stdio_output@@V?$standard_base@DV?$string_output_adapter@D@__crt_stdio_output@@@2@@__crt_stdio_output@@AEAA_NXZ 00000001800f19b0 f i libucrtd:output.obj
 0001:000f09f0       ?type_case_p@?$output_processor@_WV?$stream_output_adapter@_W@__crt_stdio_output@@V?$format_validation_base@_WV?$stream_output_adapter@_W@__crt_stdio_output@@@2@@__crt_stdio_output@@AEAA_NXZ 00000001800f19f0 f i libucrtd:output.obj
 0001:000f0a30       ?type_case_p@?$output_processor@_WV?$stream_output_adapter@_W@__crt_stdio_output@@V?$positional_parameter_base@_WV?$stream_output_adapter@_W@__crt_stdio_output@@@2@@__crt_stdio_output@@AEAA_NXZ 00000001800f1a30 f i libucrtd:output.obj
 0001:000f0a70       ?type_case_p@?$output_processor@_WV?$stream_output_adapter@_W@__crt_stdio_output@@V?$standard_base@_WV?$stream_output_adapter@_W@__crt_stdio_output@@@2@@__crt_stdio_output@@AEAA_NXZ 00000001800f1a70 f i libucrtd:output.obj
 0001:000f0ab0       ?type_case_p@?$output_processor@_WV?$string_output_adapter@_W@__crt_stdio_output@@V?$format_validation_base@_WV?$string_output_adapter@_W@__crt_stdio_output@@@2@@__crt_stdio_output@@AEAA_NXZ 00000001800f1ab0 f i libucrtd:output.obj
 0001:000f0af0       ?type_case_p@?$output_processor@_WV?$string_output_adapter@_W@__crt_stdio_output@@V?$positional_parameter_base@_WV?$string_output_adapter@_W@__crt_stdio_output@@@2@@__crt_stdio_output@@AEAA_NXZ 00000001800f1af0 f i libucrtd:output.obj
 0001:000f0b30       ?type_case_p@?$output_processor@_WV?$string_output_adapter@_W@__crt_stdio_output@@V?$standard_base@_WV?$string_output_adapter@_W@__crt_stdio_output@@@2@@__crt_stdio_output@@AEAA_NXZ 00000001800f1b30 f i libucrtd:output.obj
 0001:000f0b70       ?type_case_s@?$output_processor@DV?$stream_output_adapter@D@__crt_stdio_output@@V?$format_validation_base@DV?$stream_output_adapter@D@__crt_stdio_output@@@2@@__crt_stdio_output@@AEAA_NXZ 00000001800f1b70 f i libucrtd:output.obj
 0001:000f0cd0       ?type_case_s@?$output_processor@DV?$stream_output_adapter@D@__crt_stdio_output@@V?$positional_parameter_base@DV?$stream_output_adapter@D@__crt_stdio_output@@@2@@__crt_stdio_output@@AEAA_NXZ 00000001800f1cd0 f i libucrtd:output.obj
 0001:000f0e30       ?type_case_s@?$output_processor@DV?$stream_output_adapter@D@__crt_stdio_output@@V?$standard_base@DV?$stream_output_adapter@D@__crt_stdio_output@@@2@@__crt_stdio_output@@AEAA_NXZ 00000001800f1e30 f i libucrtd:output.obj
 0001:000f0f90       ?type_case_s@?$output_processor@DV?$string_output_adapter@D@__crt_stdio_output@@V?$format_validation_base@DV?$string_output_adapter@D@__crt_stdio_output@@@2@@__crt_stdio_output@@AEAA_NXZ 00000001800f1f90 f i libucrtd:output.obj
 0001:000f10f0       ?type_case_s@?$output_processor@DV?$string_output_adapter@D@__crt_stdio_output@@V?$positional_parameter_base@DV?$string_output_adapter@D@__crt_stdio_output@@@2@@__crt_stdio_output@@AEAA_NXZ 00000001800f20f0 f i libucrtd:output.obj
 0001:000f1250       ?type_case_s@?$output_processor@DV?$string_output_adapter@D@__crt_stdio_output@@V?$standard_base@DV?$string_output_adapter@D@__crt_stdio_output@@@2@@__crt_stdio_output@@AEAA_NXZ 00000001800f2250 f i libucrtd:output.obj
 0001:000f13b0       ?type_case_s@?$output_processor@_WV?$stream_output_adapter@_W@__crt_stdio_output@@V?$format_validation_base@_WV?$stream_output_adapter@_W@__crt_stdio_output@@@2@@__crt_stdio_output@@AEAA_NXZ 00000001800f23b0 f i libucrtd:output.obj
 0001:000f1510       ?type_case_s@?$output_processor@_WV?$stream_output_adapter@_W@__crt_stdio_output@@V?$positional_parameter_base@_WV?$stream_output_adapter@_W@__crt_stdio_output@@@2@@__crt_stdio_output@@AEAA_NXZ 00000001800f2510 f i libucrtd:output.obj
 0001:000f1670       ?type_case_s@?$output_processor@_WV?$stream_output_adapter@_W@__crt_stdio_output@@V?$standard_base@_WV?$stream_output_adapter@_W@__crt_stdio_output@@@2@@__crt_stdio_output@@AEAA_NXZ 00000001800f2670 f i libucrtd:output.obj
 0001:000f17d0       ?type_case_s@?$output_processor@_WV?$string_output_adapter@_W@__crt_stdio_output@@V?$format_validation_base@_WV?$string_output_adapter@_W@__crt_stdio_output@@@2@@__crt_stdio_output@@AEAA_NXZ 00000001800f27d0 f i libucrtd:output.obj
 0001:000f1930       ?type_case_s@?$output_processor@_WV?$string_output_adapter@_W@__crt_stdio_output@@V?$positional_parameter_base@_WV?$string_output_adapter@_W@__crt_stdio_output@@@2@@__crt_stdio_output@@AEAA_NXZ 00000001800f2930 f i libucrtd:output.obj
 0001:000f1a90       ?type_case_s@?$output_processor@_WV?$string_output_adapter@_W@__crt_stdio_output@@V?$standard_base@_WV?$string_output_adapter@_W@__crt_stdio_output@@@2@@__crt_stdio_output@@AEAA_NXZ 00000001800f2a90 f i libucrtd:output.obj
 0001:000f1bf0       ?type_case_s_compute_narrow_string_length@?$output_processor@DV?$stream_output_adapter@D@__crt_stdio_output@@V?$format_validation_base@DV?$stream_output_adapter@D@__crt_stdio_output@@@2@@__crt_stdio_output@@AEAAHHD@Z 00000001800f2bf0 f i libucrtd:output.obj
 0001:000f1c30       ?type_case_s_compute_narrow_string_length@?$output_processor@DV?$stream_output_adapter@D@__crt_stdio_output@@V?$positional_parameter_base@DV?$stream_output_adapter@D@__crt_stdio_output@@@2@@__crt_stdio_output@@AEAAHHD@Z 00000001800f2c30 f i libucrtd:output.obj
 0001:000f1c70       ?type_case_s_compute_narrow_string_length@?$output_processor@DV?$stream_output_adapter@D@__crt_stdio_output@@V?$standard_base@DV?$stream_output_adapter@D@__crt_stdio_output@@@2@@__crt_stdio_output@@AEAAHHD@Z 00000001800f2c70 f i libucrtd:output.obj
 0001:000f1cb0       ?type_case_s_compute_narrow_string_length@?$output_processor@DV?$string_output_adapter@D@__crt_stdio_output@@V?$format_validation_base@DV?$string_output_adapter@D@__crt_stdio_output@@@2@@__crt_stdio_output@@AEAAHHD@Z 00000001800f2cb0 f i libucrtd:output.obj
 0001:000f1cf0       ?type_case_s_compute_narrow_string_length@?$output_processor@DV?$string_output_adapter@D@__crt_stdio_output@@V?$positional_parameter_base@DV?$string_output_adapter@D@__crt_stdio_output@@@2@@__crt_stdio_output@@AEAAHHD@Z 00000001800f2cf0 f i libucrtd:output.obj
 0001:000f1d30       ?type_case_s_compute_narrow_string_length@?$output_processor@DV?$string_output_adapter@D@__crt_stdio_output@@V?$standard_base@DV?$string_output_adapter@D@__crt_stdio_output@@@2@@__crt_stdio_output@@AEAAHHD@Z 00000001800f2d30 f i libucrtd:output.obj
 0001:000f1d70       ?type_case_s_compute_narrow_string_length@?$output_processor@_WV?$stream_output_adapter@_W@__crt_stdio_output@@V?$format_validation_base@_WV?$stream_output_adapter@_W@__crt_stdio_output@@@2@@__crt_stdio_output@@AEAAHH_W@Z 00000001800f2d70 f i libucrtd:output.obj
 0001:000f1e40       ?type_case_s_compute_narrow_string_length@?$output_processor@_WV?$stream_output_adapter@_W@__crt_stdio_output@@V?$positional_parameter_base@_WV?$stream_output_adapter@_W@__crt_stdio_output@@@2@@__crt_stdio_output@@AEAAHH_W@Z 00000001800f2e40 f i libucrtd:output.obj
 0001:000f1f10       ?type_case_s_compute_narrow_string_length@?$output_processor@_WV?$stream_output_adapter@_W@__crt_stdio_output@@V?$standard_base@_WV?$stream_output_adapter@_W@__crt_stdio_output@@@2@@__crt_stdio_output@@AEAAHH_W@Z 00000001800f2f10 f i libucrtd:output.obj
 0001:000f1fe0       ?type_case_s_compute_narrow_string_length@?$output_processor@_WV?$string_output_adapter@_W@__crt_stdio_output@@V?$format_validation_base@_WV?$string_output_adapter@_W@__crt_stdio_output@@@2@@__crt_stdio_output@@AEAAHH_W@Z 00000001800f2fe0 f i libucrtd:output.obj
 0001:000f20b0       ?type_case_s_compute_narrow_string_length@?$output_processor@_WV?$string_output_adapter@_W@__crt_stdio_output@@V?$positional_parameter_base@_WV?$string_output_adapter@_W@__crt_stdio_output@@@2@@__crt_stdio_output@@AEAAHH_W@Z 00000001800f30b0 f i libucrtd:output.obj
 0001:000f2180       ?type_case_s_compute_narrow_string_length@?$output_processor@_WV?$string_output_adapter@_W@__crt_stdio_output@@V?$standard_base@_WV?$string_output_adapter@_W@__crt_stdio_output@@@2@@__crt_stdio_output@@AEAAHH_W@Z 00000001800f3180 f i libucrtd:output.obj
 0001:000f2250       ?type_case_u@?$output_processor@DV?$stream_output_adapter@D@__crt_stdio_output@@V?$format_validation_base@DV?$stream_output_adapter@D@__crt_stdio_output@@@2@@__crt_stdio_output@@AEAA_NXZ 00000001800f3250 f i libucrtd:output.obj
 0001:000f2270       ?type_case_u@?$output_processor@DV?$stream_output_adapter@D@__crt_stdio_output@@V?$positional_parameter_base@DV?$stream_output_adapter@D@__crt_stdio_output@@@2@@__crt_stdio_output@@AEAA_NXZ 00000001800f3270 f i libucrtd:output.obj
 0001:000f2290       ?type_case_u@?$output_processor@DV?$stream_output_adapter@D@__crt_stdio_output@@V?$standard_base@DV?$stream_output_adapter@D@__crt_stdio_output@@@2@@__crt_stdio_output@@AEAA_NXZ 00000001800f3290 f i libucrtd:output.obj
 0001:000f22b0       ?type_case_u@?$output_processor@DV?$string_output_adapter@D@__crt_stdio_output@@V?$format_validation_base@DV?$string_output_adapter@D@__crt_stdio_output@@@2@@__crt_stdio_output@@AEAA_NXZ 00000001800f32b0 f i libucrtd:output.obj
 0001:000f22d0       ?type_case_u@?$output_processor@DV?$string_output_adapter@D@__crt_stdio_output@@V?$positional_parameter_base@DV?$string_output_adapter@D@__crt_stdio_output@@@2@@__crt_stdio_output@@AEAA_NXZ 00000001800f32d0 f i libucrtd:output.obj
 0001:000f22f0       ?type_case_u@?$output_processor@DV?$string_output_adapter@D@__crt_stdio_output@@V?$standard_base@DV?$string_output_adapter@D@__crt_stdio_output@@@2@@__crt_stdio_output@@AEAA_NXZ 00000001800f32f0 f i libucrtd:output.obj
 0001:000f2310       ?type_case_u@?$output_processor@_WV?$stream_output_adapter@_W@__crt_stdio_output@@V?$format_validation_base@_WV?$stream_output_adapter@_W@__crt_stdio_output@@@2@@__crt_stdio_output@@AEAA_NXZ 00000001800f3310 f i libucrtd:output.obj
 0001:000f2330       ?type_case_u@?$output_processor@_WV?$stream_output_adapter@_W@__crt_stdio_output@@V?$positional_parameter_base@_WV?$stream_output_adapter@_W@__crt_stdio_output@@@2@@__crt_stdio_output@@AEAA_NXZ 00000001800f3330 f i libucrtd:output.obj
 0001:000f2350       ?type_case_u@?$output_processor@_WV?$stream_output_adapter@_W@__crt_stdio_output@@V?$standard_base@_WV?$stream_output_adapter@_W@__crt_stdio_output@@@2@@__crt_stdio_output@@AEAA_NXZ 00000001800f3350 f i libucrtd:output.obj
 0001:000f2370       ?type_case_u@?$output_processor@_WV?$string_output_adapter@_W@__crt_stdio_output@@V?$format_validation_base@_WV?$string_output_adapter@_W@__crt_stdio_output@@@2@@__crt_stdio_output@@AEAA_NXZ 00000001800f3370 f i libucrtd:output.obj
 0001:000f2390       ?type_case_u@?$output_processor@_WV?$string_output_adapter@_W@__crt_stdio_output@@V?$positional_parameter_base@_WV?$string_output_adapter@_W@__crt_stdio_output@@@2@@__crt_stdio_output@@AEAA_NXZ 00000001800f3390 f i libucrtd:output.obj
 0001:000f23b0       ?type_case_u@?$output_processor@_WV?$string_output_adapter@_W@__crt_stdio_output@@V?$standard_base@_WV?$string_output_adapter@_W@__crt_stdio_output@@@2@@__crt_stdio_output@@AEAA_NXZ 00000001800f33b0 f i libucrtd:output.obj
 0001:000f23d0       ?type_case_x@?$output_processor@DV?$stream_output_adapter@D@__crt_stdio_output@@V?$format_validation_base@DV?$stream_output_adapter@D@__crt_stdio_output@@@2@@__crt_stdio_output@@AEAA_NXZ 00000001800f33d0 f i libucrtd:output.obj
 0001:000f23f0       ?type_case_x@?$output_processor@DV?$stream_output_adapter@D@__crt_stdio_output@@V?$positional_parameter_base@DV?$stream_output_adapter@D@__crt_stdio_output@@@2@@__crt_stdio_output@@AEAA_NXZ 00000001800f33f0 f i libucrtd:output.obj
 0001:000f2410       ?type_case_x@?$output_processor@DV?$stream_output_adapter@D@__crt_stdio_output@@V?$standard_base@DV?$stream_output_adapter@D@__crt_stdio_output@@@2@@__crt_stdio_output@@AEAA_NXZ 00000001800f3410 f i libucrtd:output.obj
 0001:000f2430       ?type_case_x@?$output_processor@DV?$string_output_adapter@D@__crt_stdio_output@@V?$format_validation_base@DV?$string_output_adapter@D@__crt_stdio_output@@@2@@__crt_stdio_output@@AEAA_NXZ 00000001800f3430 f i libucrtd:output.obj
 0001:000f2450       ?type_case_x@?$output_processor@DV?$string_output_adapter@D@__crt_stdio_output@@V?$positional_parameter_base@DV?$string_output_adapter@D@__crt_stdio_output@@@2@@__crt_stdio_output@@AEAA_NXZ 00000001800f3450 f i libucrtd:output.obj
 0001:000f2470       ?type_case_x@?$output_processor@DV?$string_output_adapter@D@__crt_stdio_output@@V?$standard_base@DV?$string_output_adapter@D@__crt_stdio_output@@@2@@__crt_stdio_output@@AEAA_NXZ 00000001800f3470 f i libucrtd:output.obj
 0001:000f2490       ?type_case_x@?$output_processor@_WV?$stream_output_adapter@_W@__crt_stdio_output@@V?$format_validation_base@_WV?$stream_output_adapter@_W@__crt_stdio_output@@@2@@__crt_stdio_output@@AEAA_NXZ 00000001800f3490 f i libucrtd:output.obj
 0001:000f24b0       ?type_case_x@?$output_processor@_WV?$stream_output_adapter@_W@__crt_stdio_output@@V?$positional_parameter_base@_WV?$stream_output_adapter@_W@__crt_stdio_output@@@2@@__crt_stdio_output@@AEAA_NXZ 00000001800f34b0 f i libucrtd:output.obj
 0001:000f24d0       ?type_case_x@?$output_processor@_WV?$stream_output_adapter@_W@__crt_stdio_output@@V?$standard_base@_WV?$stream_output_adapter@_W@__crt_stdio_output@@@2@@__crt_stdio_output@@AEAA_NXZ 00000001800f34d0 f i libucrtd:output.obj
 0001:000f24f0       ?type_case_x@?$output_processor@_WV?$string_output_adapter@_W@__crt_stdio_output@@V?$format_validation_base@_WV?$string_output_adapter@_W@__crt_stdio_output@@@2@@__crt_stdio_output@@AEAA_NXZ 00000001800f34f0 f i libucrtd:output.obj
 0001:000f2510       ?type_case_x@?$output_processor@_WV?$string_output_adapter@_W@__crt_stdio_output@@V?$positional_parameter_base@_WV?$string_output_adapter@_W@__crt_stdio_output@@@2@@__crt_stdio_output@@AEAA_NXZ 00000001800f3510 f i libucrtd:output.obj
 0001:000f2530       ?type_case_x@?$output_processor@_WV?$string_output_adapter@_W@__crt_stdio_output@@V?$standard_base@_WV?$string_output_adapter@_W@__crt_stdio_output@@@2@@__crt_stdio_output@@AEAA_NXZ 00000001800f3530 f i libucrtd:output.obj
 0001:000f2550       ?unget@?$c_string_character_source@D@__crt_strtox@@QEAAXD@Z 00000001800f3550 f i libucrtd:output.obj
 0001:000f2660       ?unget@?$c_string_character_source@_W@__crt_strtox@@QEAAX_W@Z 00000001800f3660 f i libucrtd:output.obj
 0001:000f2770       ?unsafe_value@?$cached@H@__crt_cached_ptd_host@@QEAAHXZ 00000001800f3770 f i libucrtd:output.obj
 0001:000f2780       ?unsafe_value@?$cached@K@__crt_cached_ptd_host@@QEAAKXZ 00000001800f3780 f i libucrtd:output.obj
 0001:000f2790       ?unset_flag@?$output_processor@DV?$stream_output_adapter@D@__crt_stdio_output@@V?$format_validation_base@DV?$stream_output_adapter@D@__crt_stdio_output@@@2@@__crt_stdio_output@@AEAAXI@Z 00000001800f3790 f i libucrtd:output.obj
 0001:000f27c0       ?unset_flag@?$output_processor@DV?$stream_output_adapter@D@__crt_stdio_output@@V?$positional_parameter_base@DV?$stream_output_adapter@D@__crt_stdio_output@@@2@@__crt_stdio_output@@AEAAXI@Z 00000001800f37c0 f i libucrtd:output.obj
 0001:000f27f0       ?unset_flag@?$output_processor@DV?$stream_output_adapter@D@__crt_stdio_output@@V?$standard_base@DV?$stream_output_adapter@D@__crt_stdio_output@@@2@@__crt_stdio_output@@AEAAXI@Z 00000001800f37f0 f i libucrtd:output.obj
 0001:000f2820       ?unset_flag@?$output_processor@DV?$string_output_adapter@D@__crt_stdio_output@@V?$format_validation_base@DV?$string_output_adapter@D@__crt_stdio_output@@@2@@__crt_stdio_output@@AEAAXI@Z 00000001800f3820 f i libucrtd:output.obj
 0001:000f2850       ?unset_flag@?$output_processor@DV?$string_output_adapter@D@__crt_stdio_output@@V?$positional_parameter_base@DV?$string_output_adapter@D@__crt_stdio_output@@@2@@__crt_stdio_output@@AEAAXI@Z 00000001800f3850 f i libucrtd:output.obj
 0001:000f2880       ?unset_flag@?$output_processor@DV?$string_output_adapter@D@__crt_stdio_output@@V?$standard_base@DV?$string_output_adapter@D@__crt_stdio_output@@@2@@__crt_stdio_output@@AEAAXI@Z 00000001800f3880 f i libucrtd:output.obj
 0001:000f28b0       ?unset_flag@?$output_processor@_WV?$stream_output_adapter@_W@__crt_stdio_output@@V?$format_validation_base@_WV?$stream_output_adapter@_W@__crt_stdio_output@@@2@@__crt_stdio_output@@AEAAXI@Z 00000001800f38b0 f i libucrtd:output.obj
 0001:000f28e0       ?unset_flag@?$output_processor@_WV?$stream_output_adapter@_W@__crt_stdio_output@@V?$positional_parameter_base@_WV?$stream_output_adapter@_W@__crt_stdio_output@@@2@@__crt_stdio_output@@AEAAXI@Z 00000001800f38e0 f i libucrtd:output.obj
 0001:000f2910       ?unset_flag@?$output_processor@_WV?$stream_output_adapter@_W@__crt_stdio_output@@V?$standard_base@_WV?$stream_output_adapter@_W@__crt_stdio_output@@@2@@__crt_stdio_output@@AEAAXI@Z 00000001800f3910 f i libucrtd:output.obj
 0001:000f2940       ?unset_flag@?$output_processor@_WV?$string_output_adapter@_W@__crt_stdio_output@@V?$format_validation_base@_WV?$string_output_adapter@_W@__crt_stdio_output@@@2@@__crt_stdio_output@@AEAAXI@Z 00000001800f3940 f i libucrtd:output.obj
 0001:000f2970       ?unset_flag@?$output_processor@_WV?$string_output_adapter@_W@__crt_stdio_output@@V?$positional_parameter_base@_WV?$string_output_adapter@_W@__crt_stdio_output@@@2@@__crt_stdio_output@@AEAAXI@Z 00000001800f3970 f i libucrtd:output.obj
 0001:000f29a0       ?unset_flag@?$output_processor@_WV?$string_output_adapter@_W@__crt_stdio_output@@V?$standard_base@_WV?$string_output_adapter@_W@__crt_stdio_output@@@2@@__crt_stdio_output@@AEAAXI@Z 00000001800f39a0 f i libucrtd:output.obj
 0001:000f29d0       ?update_field_width@?$positional_parameter_base@DV?$stream_output_adapter@D@__crt_stdio_output@@@__crt_stdio_output@@IEAA_NXZ 00000001800f39d0 f i libucrtd:output.obj
 0001:000f2c50       ?update_field_width@?$positional_parameter_base@DV?$string_output_adapter@D@__crt_stdio_output@@@__crt_stdio_output@@IEAA_NXZ 00000001800f3c50 f i libucrtd:output.obj
 0001:000f2ed0       ?update_field_width@?$positional_parameter_base@_WV?$stream_output_adapter@_W@__crt_stdio_output@@@__crt_stdio_output@@IEAA_NXZ 00000001800f3ed0 f i libucrtd:output.obj
 0001:000f3150       ?update_field_width@?$positional_parameter_base@_WV?$string_output_adapter@_W@__crt_stdio_output@@@__crt_stdio_output@@IEAA_NXZ 00000001800f4150 f i libucrtd:output.obj
 0001:000f33d0       ?update_field_width@?$standard_base@DV?$stream_output_adapter@D@__crt_stdio_output@@@__crt_stdio_output@@IEAA_NXZ 00000001800f43d0 f i libucrtd:output.obj
 0001:000f3410       ?update_field_width@?$standard_base@DV?$string_output_adapter@D@__crt_stdio_output@@@__crt_stdio_output@@IEAA_NXZ 00000001800f4410 f i libucrtd:output.obj
 0001:000f3450       ?update_field_width@?$standard_base@_WV?$stream_output_adapter@_W@__crt_stdio_output@@@__crt_stdio_output@@IEAA_NXZ 00000001800f4450 f i libucrtd:output.obj
 0001:000f3490       ?update_field_width@?$standard_base@_WV?$string_output_adapter@_W@__crt_stdio_output@@@__crt_stdio_output@@IEAA_NXZ 00000001800f4490 f i libucrtd:output.obj
 0001:000f34d0       ?update_locale@__crt_cached_ptd_host@@AEAAXXZ 00000001800f44d0 f i libucrtd:output.obj
 0001:000f3500       ?update_locale_slow@__crt_cached_ptd_host@@AEAAXXZ 00000001800f4500 f i libucrtd:output.obj
 0001:000f35e0       ?update_precision@?$positional_parameter_base@DV?$stream_output_adapter@D@__crt_stdio_output@@@__crt_stdio_output@@IEAA_NXZ 00000001800f45e0 f i libucrtd:output.obj
 0001:000f3860       ?update_precision@?$positional_parameter_base@DV?$string_output_adapter@D@__crt_stdio_output@@@__crt_stdio_output@@IEAA_NXZ 00000001800f4860 f i libucrtd:output.obj
 0001:000f3ae0       ?update_precision@?$positional_parameter_base@_WV?$stream_output_adapter@_W@__crt_stdio_output@@@__crt_stdio_output@@IEAA_NXZ 00000001800f4ae0 f i libucrtd:output.obj
 0001:000f3d60       ?update_precision@?$positional_parameter_base@_WV?$string_output_adapter@_W@__crt_stdio_output@@@__crt_stdio_output@@IEAA_NXZ 00000001800f4d60 f i libucrtd:output.obj
 0001:000f3fe0       ?update_precision@?$standard_base@DV?$stream_output_adapter@D@__crt_stdio_output@@@__crt_stdio_output@@IEAA_NXZ 00000001800f4fe0 f i libucrtd:output.obj
 0001:000f4020       ?update_precision@?$standard_base@DV?$string_output_adapter@D@__crt_stdio_output@@@__crt_stdio_output@@IEAA_NXZ 00000001800f5020 f i libucrtd:output.obj
 0001:000f4060       ?update_precision@?$standard_base@_WV?$stream_output_adapter@_W@__crt_stdio_output@@@__crt_stdio_output@@IEAA_NXZ 00000001800f5060 f i libucrtd:output.obj
 0001:000f40a0       ?update_precision@?$standard_base@_WV?$string_output_adapter@_W@__crt_stdio_output@@@__crt_stdio_output@@IEAA_NXZ 00000001800f50a0 f i libucrtd:output.obj
 0001:000f40e0       ?valid@?$cached@H@__crt_cached_ptd_host@@QEBA_NXZ 00000001800f50e0 f i libucrtd:output.obj
 0001:000f4100       ?valid@?$cached@K@__crt_cached_ptd_host@@QEBA_NXZ 00000001800f5100 f i libucrtd:output.obj
 0001:000f4120       ?valid@__crt_stdio_stream@@QEBA_NXZ 00000001800f5120 f i libucrtd:output.obj
 0001:000f4160       ?validate@?$c_string_character_source@D@__crt_strtox@@QEBA_NXZ 00000001800f5160 f i libucrtd:output.obj
 0001:000f4250       ?validate@?$c_string_character_source@_W@__crt_strtox@@QEBA_NXZ 00000001800f5250 f i libucrtd:output.obj
 0001:000f4340       ?validate@?$stream_output_adapter@D@__crt_stdio_output@@QEBA_NAEAV__crt_cached_ptd_host@@@Z 00000001800f5340 f i libucrtd:output.obj
 0001:000f4470       ?validate@?$stream_output_adapter@_W@__crt_stdio_output@@QEBA_NAEAV__crt_cached_ptd_host@@@Z 00000001800f5470 f i libucrtd:output.obj
 0001:000f45a0       ?validate@?$string_output_adapter@D@__crt_stdio_output@@QEBA_NAEAV__crt_cached_ptd_host@@@Z 00000001800f55a0 f i libucrtd:output.obj
 0001:000f46b0       ?validate@?$string_output_adapter@_W@__crt_stdio_output@@QEBA_NAEAV__crt_cached_ptd_host@@@Z 00000001800f56b0 f i libucrtd:output.obj
 0001:000f47c0       ?validate_and_store_parameter_data@?$positional_parameter_base@DV?$stream_output_adapter@D@__crt_stdio_output@@@__crt_stdio_output@@AEAA_NAEAUparameter_data@12@W4parameter_type@12@DW4length_modifier@2@@Z 00000001800f57c0 f i libucrtd:output.obj
 0001:000f4950       ?validate_and_store_parameter_data@?$positional_parameter_base@DV?$string_output_adapter@D@__crt_stdio_output@@@__crt_stdio_output@@AEAA_NAEAUparameter_data@12@W4parameter_type@12@DW4length_modifier@2@@Z 00000001800f5950 f i libucrtd:output.obj
 0001:000f4ae0       ?validate_and_store_parameter_data@?$positional_parameter_base@_WV?$stream_output_adapter@_W@__crt_stdio_output@@@__crt_stdio_output@@AEAA_NAEAUparameter_data@12@W4parameter_type@12@_WW4length_modifier@2@@Z 00000001800f5ae0 f i libucrtd:output.obj
 0001:000f4c70       ?validate_and_store_parameter_data@?$positional_parameter_base@_WV?$string_output_adapter@_W@__crt_stdio_output@@@__crt_stdio_output@@AEAA_NAEAUparameter_data@12@W4parameter_type@12@_WW4length_modifier@2@@Z 00000001800f5c70 f i libucrtd:output.obj
 0001:000f4e00       ?validate_and_update_state_at_beginning_of_format_character@?$positional_parameter_base@DV?$stream_output_adapter@D@__crt_stdio_output@@@__crt_stdio_output@@IEAA_NXZ 00000001800f5e00 f i libucrtd:output.obj
 0001:000f5150       ?validate_and_update_state_at_beginning_of_format_character@?$positional_parameter_base@DV?$string_output_adapter@D@__crt_stdio_output@@@__crt_stdio_output@@IEAA_NXZ 00000001800f6150 f i libucrtd:output.obj
 0001:000f54a0       ?validate_and_update_state_at_beginning_of_format_character@?$positional_parameter_base@_WV?$stream_output_adapter@_W@__crt_stdio_output@@@__crt_stdio_output@@IEAA_NXZ 00000001800f64a0 f i libucrtd:output.obj
 0001:000f57f0       ?validate_and_update_state_at_beginning_of_format_character@?$positional_parameter_base@_WV?$string_output_adapter@_W@__crt_stdio_output@@@__crt_stdio_output@@IEAA_NXZ 00000001800f67f0 f i libucrtd:output.obj
 0001:000f5b40       ?validate_and_update_state_at_beginning_of_format_character@?$standard_base@DV?$stream_output_adapter@D@__crt_stdio_output@@@__crt_stdio_output@@IEAA_NXZ 00000001800f6b40 f i libucrtd:output.obj
 0001:000f5b50       ?validate_and_update_state_at_beginning_of_format_character@?$standard_base@DV?$string_output_adapter@D@__crt_stdio_output@@@__crt_stdio_output@@IEAA_NXZ 00000001800f6b50 f i libucrtd:output.obj
 0001:000f5b60       ?validate_and_update_state_at_beginning_of_format_character@?$standard_base@_WV?$stream_output_adapter@_W@__crt_stdio_output@@@__crt_stdio_output@@IEAA_NXZ 00000001800f6b60 f i libucrtd:output.obj
 0001:000f5b70       ?validate_and_update_state_at_beginning_of_format_character@?$standard_base@_WV?$string_output_adapter@_W@__crt_stdio_output@@@__crt_stdio_output@@IEAA_NXZ 00000001800f6b70 f i libucrtd:output.obj
 0001:000f5b80       ?validate_and_update_state_at_end_of_format_string@?$format_validation_base@DV?$stream_output_adapter@D@__crt_stdio_output@@@__crt_stdio_output@@IEAA_NXZ 00000001800f6b80 f i libucrtd:output.obj
 0001:000f5ca0       ?validate_and_update_state_at_end_of_format_string@?$format_validation_base@DV?$string_output_adapter@D@__crt_stdio_output@@@__crt_stdio_output@@IEAA_NXZ 00000001800f6ca0 f i libucrtd:output.obj
 0001:000f5dc0       ?validate_and_update_state_at_end_of_format_string@?$format_validation_base@_WV?$stream_output_adapter@_W@__crt_stdio_output@@@__crt_stdio_output@@IEAA_NXZ 00000001800f6dc0 f i libucrtd:output.obj
 0001:000f5ee0       ?validate_and_update_state_at_end_of_format_string@?$format_validation_base@_WV?$string_output_adapter@_W@__crt_stdio_output@@@__crt_stdio_output@@IEAA_NXZ 00000001800f6ee0 f i libucrtd:output.obj
 0001:000f6000       ?validate_and_update_state_at_end_of_format_string@?$positional_parameter_base@DV?$stream_output_adapter@D@__crt_stdio_output@@@__crt_stdio_output@@IEAA_NXZ 00000001800f7000 f i libucrtd:output.obj
 0001:000f62c0       ?validate_and_update_state_at_end_of_format_string@?$positional_parameter_base@DV?$string_output_adapter@D@__crt_stdio_output@@@__crt_stdio_output@@IEAA_NXZ 00000001800f72c0 f i libucrtd:output.obj
 0001:000f6580       ?validate_and_update_state_at_end_of_format_string@?$positional_parameter_base@_WV?$stream_output_adapter@_W@__crt_stdio_output@@@__crt_stdio_output@@IEAA_NXZ 00000001800f7580 f i libucrtd:output.obj
 0001:000f6840       ?validate_and_update_state_at_end_of_format_string@?$positional_parameter_base@_WV?$string_output_adapter@_W@__crt_stdio_output@@@__crt_stdio_output@@IEAA_NXZ 00000001800f7840 f i libucrtd:output.obj
 0001:000f6b00       ?validate_and_update_state_at_end_of_format_string@?$standard_base@DV?$stream_output_adapter@D@__crt_stdio_output@@@__crt_stdio_output@@IEBA_NXZ 00000001800f7b00 f i libucrtd:output.obj
 0001:000f6b10       ?validate_and_update_state_at_end_of_format_string@?$standard_base@DV?$string_output_adapter@D@__crt_stdio_output@@@__crt_stdio_output@@IEBA_NXZ 00000001800f7b10 f i libucrtd:output.obj
 0001:000f6b20       ?validate_and_update_state_at_end_of_format_string@?$standard_base@_WV?$stream_output_adapter@_W@__crt_stdio_output@@@__crt_stdio_output@@IEBA_NXZ 00000001800f7b20 f i libucrtd:output.obj
 0001:000f6b30       ?validate_and_update_state_at_end_of_format_string@?$standard_base@_WV?$string_output_adapter@_W@__crt_stdio_output@@@__crt_stdio_output@@IEBA_NXZ 00000001800f7b30 f i libucrtd:output.obj
 0001:000f6b40       ?validate_state_for_type_case_a@?$positional_parameter_base@DV?$stream_output_adapter@D@__crt_stdio_output@@@__crt_stdio_output@@IEAA_NXZ 00000001800f7b40 f i libucrtd:output.obj
 0001:000f6cf0       ?validate_state_for_type_case_a@?$positional_parameter_base@DV?$string_output_adapter@D@__crt_stdio_output@@@__crt_stdio_output@@IEAA_NXZ 00000001800f7cf0 f i libucrtd:output.obj
 0001:000f6ea0       ?validate_state_for_type_case_a@?$positional_parameter_base@_WV?$stream_output_adapter@_W@__crt_stdio_output@@@__crt_stdio_output@@IEAA_NXZ 00000001800f7ea0 f i libucrtd:output.obj
 0001:000f7050       ?validate_state_for_type_case_a@?$positional_parameter_base@_WV?$string_output_adapter@_W@__crt_stdio_output@@@__crt_stdio_output@@IEAA_NXZ 00000001800f8050 f i libucrtd:output.obj
 0001:000f7200       ?validate_state_for_type_case_a@?$standard_base@DV?$stream_output_adapter@D@__crt_stdio_output@@@__crt_stdio_output@@IEBA_NXZ 00000001800f8200 f i libucrtd:output.obj
 0001:000f7210       ?validate_state_for_type_case_a@?$standard_base@DV?$string_output_adapter@D@__crt_stdio_output@@@__crt_stdio_output@@IEBA_NXZ 00000001800f8210 f i libucrtd:output.obj
 0001:000f7220       ?validate_state_for_type_case_a@?$standard_base@_WV?$stream_output_adapter@_W@__crt_stdio_output@@@__crt_stdio_output@@IEBA_NXZ 00000001800f8220 f i libucrtd:output.obj
 0001:000f7230       ?validate_state_for_type_case_a@?$standard_base@_WV?$string_output_adapter@_W@__crt_stdio_output@@@__crt_stdio_output@@IEBA_NXZ 00000001800f8230 f i libucrtd:output.obj
 0001:000f7240       ?validate_stream_is_ansi_if_required@?$__acrt_stdio_char_traits@D@@SA_NQEAU_iobuf@@@Z 00000001800f8240 f i libucrtd:output.obj
 0001:000f7430       ?validate_stream_is_ansi_if_required@?$__acrt_stdio_char_traits@_W@@SA_NQEAU_iobuf@@@Z 00000001800f8430 f i libucrtd:output.obj
 0001:000f7440       ?wide_character_to_digit@__crt_strtox@@YAH_W@Z 00000001800f8440 f i libucrtd:output.obj
 0001:000f7880       ?wide_null_string@?$output_processor@DV?$stream_output_adapter@D@__crt_stdio_output@@V?$format_validation_base@DV?$stream_output_adapter@D@__crt_stdio_output@@@2@@__crt_stdio_output@@CAPEA_WXZ 00000001800f8880 f i libucrtd:output.obj
 0001:000f7890       ?wide_null_string@?$output_processor@DV?$stream_output_adapter@D@__crt_stdio_output@@V?$positional_parameter_base@DV?$stream_output_adapter@D@__crt_stdio_output@@@2@@__crt_stdio_output@@CAPEA_WXZ 00000001800f8890 f i libucrtd:output.obj
 0001:000f78a0       ?wide_null_string@?$output_processor@DV?$stream_output_adapter@D@__crt_stdio_output@@V?$standard_base@DV?$stream_output_adapter@D@__crt_stdio_output@@@2@@__crt_stdio_output@@CAPEA_WXZ 00000001800f88a0 f i libucrtd:output.obj
 0001:000f78b0       ?wide_null_string@?$output_processor@DV?$string_output_adapter@D@__crt_stdio_output@@V?$format_validation_base@DV?$string_output_adapter@D@__crt_stdio_output@@@2@@__crt_stdio_output@@CAPEA_WXZ 00000001800f88b0 f i libucrtd:output.obj
 0001:000f78c0       ?wide_null_string@?$output_processor@DV?$string_output_adapter@D@__crt_stdio_output@@V?$positional_parameter_base@DV?$string_output_adapter@D@__crt_stdio_output@@@2@@__crt_stdio_output@@CAPEA_WXZ 00000001800f88c0 f i libucrtd:output.obj
 0001:000f78d0       ?wide_null_string@?$output_processor@DV?$string_output_adapter@D@__crt_stdio_output@@V?$standard_base@DV?$string_output_adapter@D@__crt_stdio_output@@@2@@__crt_stdio_output@@CAPEA_WXZ 00000001800f88d0 f i libucrtd:output.obj
 0001:000f78e0       ?wide_null_string@?$output_processor@_WV?$stream_output_adapter@_W@__crt_stdio_output@@V?$format_validation_base@_WV?$stream_output_adapter@_W@__crt_stdio_output@@@2@@__crt_stdio_output@@CAPEA_WXZ 00000001800f88e0 f i libucrtd:output.obj
 0001:000f78f0       ?wide_null_string@?$output_processor@_WV?$stream_output_adapter@_W@__crt_stdio_output@@V?$positional_parameter_base@_WV?$stream_output_adapter@_W@__crt_stdio_output@@@2@@__crt_stdio_output@@CAPEA_WXZ 00000001800f88f0 f i libucrtd:output.obj
 0001:000f7900       ?wide_null_string@?$output_processor@_WV?$stream_output_adapter@_W@__crt_stdio_output@@V?$standard_base@_WV?$stream_output_adapter@_W@__crt_stdio_output@@@2@@__crt_stdio_output@@CAPEA_WXZ 00000001800f8900 f i libucrtd:output.obj
 0001:000f7910       ?wide_null_string@?$output_processor@_WV?$string_output_adapter@_W@__crt_stdio_output@@V?$format_validation_base@_WV?$string_output_adapter@_W@__crt_stdio_output@@@2@@__crt_stdio_output@@CAPEA_WXZ 00000001800f8910 f i libucrtd:output.obj
 0001:000f7920       ?wide_null_string@?$output_processor@_WV?$string_output_adapter@_W@__crt_stdio_output@@V?$positional_parameter_base@_WV?$string_output_adapter@_W@__crt_stdio_output@@@2@@__crt_stdio_output@@CAPEA_WXZ 00000001800f8920 f i libucrtd:output.obj
 0001:000f7930       ?wide_null_string@?$output_processor@_WV?$string_output_adapter@_W@__crt_stdio_output@@V?$standard_base@_WV?$string_output_adapter@_W@__crt_stdio_output@@@2@@__crt_stdio_output@@CAPEA_WXZ 00000001800f8930 f i libucrtd:output.obj
 0001:000f7940       ?write_character@?$output_adapter_common@DV?$stream_output_adapter@D@__crt_stdio_output@@@__crt_stdio_output@@QEBAXDQEAHAEAV__crt_cached_ptd_host@@@Z 00000001800f8940 f i libucrtd:output.obj
 0001:000f79b0       ?write_character@?$output_adapter_common@_WV?$stream_output_adapter@_W@__crt_stdio_output@@@__crt_stdio_output@@QEBAX_WQEAHAEAV__crt_cached_ptd_host@@@Z 00000001800f89b0 f i libucrtd:output.obj
 0001:000f7a20       ?write_character@?$string_output_adapter@D@__crt_stdio_output@@QEBA_NDQEAHAEAV__crt_cached_ptd_host@@@Z 00000001800f8a20 f i libucrtd:output.obj
 0001:000f7b20       ?write_character@?$string_output_adapter@_W@__crt_stdio_output@@QEBA_N_WQEAHAEAV__crt_cached_ptd_host@@@Z 00000001800f8b20 f i libucrtd:output.obj
 0001:000f7c20       ?write_character_without_count_update@?$stream_output_adapter@D@__crt_stdio_output@@QEBA_NDAEAV__crt_cached_ptd_host@@@Z 00000001800f8c20 f i libucrtd:output.obj
 0001:000f7cd0       ?write_character_without_count_update@?$stream_output_adapter@_W@__crt_stdio_output@@QEBA_N_WAEAV__crt_cached_ptd_host@@@Z 00000001800f8cd0 f i libucrtd:output.obj
 0001:000f7d80       ?write_stored_string_tchar@?$output_processor@DV?$stream_output_adapter@D@__crt_stdio_output@@V?$format_validation_base@DV?$stream_output_adapter@D@__crt_stdio_output@@@2@@__crt_stdio_output@@AEAA_ND@Z 00000001800f8d80 f i libucrtd:output.obj
 0001:000f7f90       ?write_stored_string_tchar@?$output_processor@DV?$stream_output_adapter@D@__crt_stdio_output@@V?$positional_parameter_base@DV?$stream_output_adapter@D@__crt_stdio_output@@@2@@__crt_stdio_output@@AEAA_ND@Z 00000001800f8f90 f i libucrtd:output.obj
 0001:000f81a0       ?write_stored_string_tchar@?$output_processor@DV?$stream_output_adapter@D@__crt_stdio_output@@V?$standard_base@DV?$stream_output_adapter@D@__crt_stdio_output@@@2@@__crt_stdio_output@@AEAA_ND@Z 00000001800f91a0 f i libucrtd:output.obj
 0001:000f83b0       ?write_stored_string_tchar@?$output_processor@DV?$string_output_adapter@D@__crt_stdio_output@@V?$format_validation_base@DV?$string_output_adapter@D@__crt_stdio_output@@@2@@__crt_stdio_output@@AEAA_ND@Z 00000001800f93b0 f i libucrtd:output.obj
 0001:000f85c0       ?write_stored_string_tchar@?$output_processor@DV?$string_output_adapter@D@__crt_stdio_output@@V?$positional_parameter_base@DV?$string_output_adapter@D@__crt_stdio_output@@@2@@__crt_stdio_output@@AEAA_ND@Z 00000001800f95c0 f i libucrtd:output.obj
 0001:000f87d0       ?write_stored_string_tchar@?$output_processor@DV?$string_output_adapter@D@__crt_stdio_output@@V?$standard_base@DV?$string_output_adapter@D@__crt_stdio_output@@@2@@__crt_stdio_output@@AEAA_ND@Z 00000001800f97d0 f i libucrtd:output.obj
 0001:000f89e0       ?write_stored_string_tchar@?$output_processor@_WV?$stream_output_adapter@_W@__crt_stdio_output@@V?$format_validation_base@_WV?$stream_output_adapter@_W@__crt_stdio_output@@@2@@__crt_stdio_output@@AEAA_N_W@Z 00000001800f99e0 f i libucrtd:output.obj
 0001:000f8b90       ?write_stored_string_tchar@?$output_processor@_WV?$stream_output_adapter@_W@__crt_stdio_output@@V?$positional_parameter_base@_WV?$stream_output_adapter@_W@__crt_stdio_output@@@2@@__crt_stdio_output@@AEAA_N_W@Z 00000001800f9b90 f i libucrtd:output.obj
