 PhysX3Common_x64

 Timestamp is 62e8136b (Mon Aug  1 13:54:51 2022)

 Preferred load address is 0000000180000000

 Start         Length     Name                   Class
 0001:00000000 00002a40H .text$di                CODE
 0001:00002a40 001afc00H .text$mn                CODE
 0001:001b2640 00000040H .text$mn$00             CODE
 0001:001b2680 00000a20H .text$x                 CODE
 0002:00000000 00000358H .idata$5                DATA
 0002:00000358 00000038H .00cfg                  DATA
 0002:00000390 00000008H .CRT$XCA                DATA
 0002:00000398 00001458H .CRT$XCU                DATA
 0002:000017f0 00000008H .CRT$XCZ                DATA
 0002:000017f8 00000008H .CRT$XIA                DATA
 0002:00001800 00000018H .CRT$XIC                DATA
 0002:00001818 00000008H .CRT$XIZ                DATA
 0002:00001820 00000008H .CRT$XPA                DATA
 0002:00001828 00000010H .CRT$XPX                DATA
 0002:00001838 00000008H .CRT$XPXA               DATA
 0002:00001840 00000008H .CRT$XPZ                DATA
 0002:00001848 00000008H .CRT$XTA                DATA
 0002:00001850 00000010H .CRT$XTZ                DATA
 0002:00001858 00000000H .gehcont$y              DATA
 0002:00001858 00000000H .gfids$y                DATA
 0002:00001860 0000f120H .rdata                  DATA
 0002:00010980 00000080H .rdata$CastGuardVftablesA DATA
 0002:00010a00 00000080H .rdata$CastGuardVftablesC DATA
 0002:00010a80 00000464H .rdata$r                DATA
 0002:00010ee4 0000023cH .rdata$voltmd           DATA
 0002:00011120 000003d8H .rdata$zzzdbg           DATA
 0002:000114f8 00000008H .rtc$IAA                DATA
 0002:00011500 00000008H .rtc$IZZ                DATA
 0002:00011508 00000008H .rtc$TAA                DATA
 0002:00011510 00000008H .rtc$TZZ                DATA
 0002:00011518 00013f18H .xdata                  DATA
 0002:00025430 00000090H .xdata$x                DATA
 0002:000254c0 0000a49cH .edata                  DATA
 0002:0002f95c 00000028H .idata$2                DATA
 0002:0002f984 00000014H .idata$3                DATA
 0002:0002f998 00000358H .idata$4                DATA
 0002:0002fcf0 000009a2H .idata$6                DATA
 0003:00000000 000014b0H .data                   DATA
 0003:000014b0 00000500H .data$r                 DATA
 0003:000019b0 000000f0H .data$rs                DATA
 0003:00001aa0 00004370H .bss                    DATA
 0004:00000000 0000abf0H .pdata                  DATA
 0005:00000000 0000236cH _RDATA                  DATA
 0006:00000000 000000a0H .rsrc$01                DATA
 0006:000000a0 000004b8H .rsrc$02                DATA

  Address         Publics by Value              Rva+Base               Lib:Object

 0000:00000000       __AbsoluteZero             0000000000000000     <absolute>
 0000:00000000       ___safe_se_handler_count   0000000000000000     <absolute>
 0000:00000000       ___safe_se_handler_table   0000000000000000     <absolute>
 0000:00000000       __arm64x_extra_rfe_table   0000000000000000     <absolute>
 0000:00000000       __arm64x_extra_rfe_table_size 0000000000000000     <absolute>
 0000:00000000       __arm64x_native_entrypoint 0000000000000000     <absolute>
 0000:00000000       __arm64x_redirection_metadata 0000000000000000     <absolute>
 0000:00000000       __arm64x_redirection_metadata_count 0000000000000000     <absolute>
 0000:00000000       __dynamic_value_reloc_table 0000000000000000     <absolute>
 0000:00000000       __enclave_config           0000000000000000     <absolute>
 0000:00000000       __guard_check_icall_a64n_fptr 0000000000000000     <absolute>
 0000:00000000       __guard_eh_cont_count      0000000000000000     <absolute>
 0000:00000000       __guard_eh_cont_table      0000000000000000     <absolute>
 0000:00000000       __guard_fids_count         0000000000000000     <absolute>
 0000:00000000       __guard_fids_table         0000000000000000     <absolute>
 0000:00000000       __guard_iat_count          0000000000000000     <absolute>
 0000:00000000       __guard_iat_table          0000000000000000     <absolute>
 0000:00000000       __guard_longjmp_count      0000000000000000     <absolute>
 0000:00000000       __guard_longjmp_table      0000000000000000     <absolute>
 0000:00000000       __hybrid_auxiliary_iat     0000000000000000     <absolute>
 0000:00000000       __hybrid_auxiliary_iat_copy 0000000000000000     <absolute>
 0000:00000000       __hybrid_code_map          0000000000000000     <absolute>
 0000:00000000       __hybrid_code_map_count    0000000000000000     <absolute>
 0000:00000000       __x64_code_ranges_to_entry_points 0000000000000000     <absolute>
 0000:00000000       __x64_code_ranges_to_entry_points_count 0000000000000000     <absolute>
 0000:00000100       __guard_flags              0000000000000100     <absolute>
 0000:00000000       __ImageBase                0000000180000000     <linker-defined>
 0001:00002a40       PxSetPhysXCommonDelayLoadHook 0000000180003a40 f   CmWindowsDelayLoadHook.obj
 0001:00002a50       ?delayHook@@YAP6A_JXZIPEAUDelayLoadInfo@@@Z 0000000180003a50 f   CmWindowsDelayLoadHook.obj
 0001:00002aa0       ?physXCommonDliNotePreLoadLibrary@Cm@physx@@YAP6A_JXZPEBDPEBVPxDelayLoadHook@2@@Z 0000000180003aa0 f i CmWindowsDelayLoadHook.obj
 0001:00002d20       ??0CmModuleUpdateLoader@Cm@physx@@QEAA@PEBD@Z 0000000180003d20 f   CmWindowsModuleUpdateLoader.obj
 0001:00002d70       ??1CmModuleUpdateLoader@Cm@physx@@QEAA@XZ 0000000180003d70 f   CmWindowsModuleUpdateLoader.obj
 0001:00002da0       ?LoadModule@CmModuleUpdateLoader@Cm@physx@@QEAAPEAUHINSTANCE__@@PEBD0@Z 0000000180003da0 f   CmWindowsModuleUpdateLoader.obj
 0001:00002dc0       ??0Allocator@shdfnd@physx@@QEAA@PEBD@Z 0000000180003dc0 f i CmWindowsModuleUpdateLoader.obj
 0001:00002dd0       ??0PxFoundation@physx@@QEAA@AEBV01@@Z 0000000180003dd0 f i CmWindowsModuleUpdateLoader.obj
 0001:00002de0       ??0PxFoundation@physx@@QEAA@XZ 0000000180003de0 f i CmWindowsModuleUpdateLoader.obj
 0001:00002df0       ??1PxFoundation@physx@@MEAA@XZ 0000000180003df0 f i CmWindowsModuleUpdateLoader.obj
 0001:00002e00       ??4Allocator@shdfnd@physx@@QEAAAEAV012@$$QEAV012@@Z 0000000180003e00 f i CmWindowsModuleUpdateLoader.obj
 0001:00002e10       ??4Allocator@shdfnd@physx@@QEAAAEAV012@AEBV012@@Z 0000000180003e10 f i CmWindowsModuleUpdateLoader.obj
 0001:00002e20       ??4CmModuleUpdateLoader@Cm@physx@@QEAAAEAV012@AEBV012@@Z 0000000180003e20 f i CmWindowsModuleUpdateLoader.obj
 0001:00002e30       ??4MutexImpl@shdfnd@physx@@QEAAAEAV012@AEBV012@@Z 0000000180003e30 f i CmWindowsModuleUpdateLoader.obj
 0001:00002e40       ??4PxFoundation@physx@@QEAAAEAV01@AEBV01@@Z 0000000180003e40 f i CmWindowsModuleUpdateLoader.obj
 0001:00002e50       ??_EPxFoundation@physx@@MEAAPEAXI@Z 0000000180003e50 f i CmWindowsModuleUpdateLoader.obj
 0001:00002ee0       ??_FAllocator@shdfnd@physx@@QEAAXXZ 0000000180003ee0 f i CmWindowsModuleUpdateLoader.obj
 0001:00002ef0       ??_GPxFoundation@physx@@MEAAPEAXI@Z 0000000180003ef0 f i CmWindowsModuleUpdateLoader.obj
 0001:00002f20       ??_I@YAXPEAX_K1P6AX0@Z@Z   0000000180003f20 f i CmWindowsModuleUpdateLoader.obj
 0001:00002f80       ?__empty_global_delete@@YAXPEAX@Z 0000000180003f80 f i CmWindowsModuleUpdateLoader.obj
 0001:00002f90       ?__empty_global_delete@@YAXPEAX_K@Z 0000000180003f90 f i CmWindowsModuleUpdateLoader.obj
 0001:00002fa0       ?getAllocator@Foundation@shdfnd@physx@@QEAAAEAVPxAllocatorCallback@3@XZ 0000000180003fa0 f i CmWindowsModuleUpdateLoader.obj
 0001:00002fb0       ?getAllocatorCallback@Foundation@shdfnd@physx@@UEAAAEAVPxAllocatorCallback@3@XZ 0000000180003fb0 f i CmWindowsModuleUpdateLoader.obj
 0001:00002fc0       ?getErrorCallback@Foundation@shdfnd@physx@@UEAAAEAVPxErrorCallback@3@XZ 0000000180003fc0 f i CmWindowsModuleUpdateLoader.obj
 0001:00002fd0       ?getErrorLevel@Foundation@shdfnd@physx@@UEBA?AW4Enum@PxErrorCode@3@XZ 0000000180003fd0 f i CmWindowsModuleUpdateLoader.obj
 0001:00002fe0       ?getInternalErrorCallback@Foundation@shdfnd@physx@@QEAAAEAVPxErrorCallback@3@XZ 0000000180003fe0 f i CmWindowsModuleUpdateLoader.obj
 0001:00002ff0       ?getNamedAllocMap@Foundation@shdfnd@physx@@QEAAAEAV?$HashMap@PEBVNamedAllocator@shdfnd@physx@@PEBDU?$Hash@PEBVNamedAllocator@shdfnd@physx@@@23@VNonTrackingAllocator@23@@23@XZ 0000000180003ff0 f i CmWindowsModuleUpdateLoader.obj
 0001:00003000       ?getNamedAllocMutex@Foundation@shdfnd@physx@@QEAAAEAV?$MutexT@VAllocator@shdfnd@physx@@@23@XZ 0000000180004000 f i CmWindowsModuleUpdateLoader.obj
 0001:00003010       ?getReportAllocationNames@Foundation@shdfnd@physx@@UEBA_NXZ 0000000180004010 f i CmWindowsModuleUpdateLoader.obj
 0001:00003020       ?getTempAllocFreeTable@Foundation@shdfnd@physx@@QEAAAEAV?$Array@PEATTempAllocatorChunk@shdfnd@physx@@VAllocator@23@@23@XZ 0000000180004020 f i CmWindowsModuleUpdateLoader.obj
 0001:00003030       ?getTempAllocMutex@Foundation@shdfnd@physx@@QEAAAEAV?$MutexT@VAllocator@shdfnd@physx@@@23@XZ 0000000180004030 f i CmWindowsModuleUpdateLoader.obj
 0001:00003040       ?setErrorLevel@Foundation@shdfnd@physx@@UEAAXW4Enum@PxErrorCode@3@@Z 0000000180004040 f i CmWindowsModuleUpdateLoader.obj
 0001:00003050       ?setReportAllocationNames@Foundation@shdfnd@physx@@UEAAX_N@Z 0000000180004050 f i CmWindowsModuleUpdateLoader.obj
 0001:00003060       ?CompleteBoxPruning@Cm@physx@@YA_NPEBVPxBounds3@2@IAEAV?$Array@IV?$ReflectionAllocator@I@shdfnd@physx@@@shdfnd@2@AEBVAxes@Gu@2@@Z 0000000180004060 f   CmBoxPruning.obj
 0001:00003370       ?BipartiteBoxPruning@Cm@physx@@YA_NPEBVPxBounds3@2@I0IAEAV?$Array@IV?$ReflectionAllocator@I@shdfnd@physx@@@shdfnd@2@AEBVAxes@Gu@2@@Z 0000000180004370 f   CmBoxPruning.obj
 0001:00003990       ?GetNbHits@RadixSort@Cm@physx@@QEBAIXZ 0000000180004990 f i CmBoxPruning.obj
 0001:000039a0       ?GetNbTotalCalls@RadixSort@Cm@physx@@QEBAIXZ 00000001800049a0 f i CmBoxPruning.obj
 0001:000039b0       ?GetRanks@RadixSort@Cm@physx@@QEBAPEBIXZ 00000001800049b0 f i CmBoxPruning.obj
 0001:000039c0       ?GetRecyclable@RadixSort@Cm@physx@@QEBAPEAIXZ 00000001800049c0 f i CmBoxPruning.obj
 0001:000039d0       ?growAndPushBack@?$Array@IV?$ReflectionAllocator@I@shdfnd@physx@@@shdfnd@physx@@IEAAAEAIAEBI@Z 00000001800049d0 f i CmBoxPruning.obj
 0001:00003af0       ?invalidateRanks@RadixSort@Cm@physx@@QEAAXXZ 0000000180004af0 f i CmBoxPruning.obj
 0001:00003b00       ?PxCreateCollection@@YAPEAVPxCollection@physx@@XZ 0000000180004b00 f   CmCollection.obj
 0001:00003c00       ?add@Collection@Cm@physx@@UEAAXAEAVPxBase@3@_K@Z 0000000180004c00 f   CmCollection.obj
 0001:00003cf0       ?remove@Collection@Cm@physx@@UEAAXAEAVPxBase@3@@Z 0000000180004cf0 f   CmCollection.obj
 0001:00003de0       ?contains@Collection@Cm@physx@@UEBA_NAEAVPxBase@3@@Z 0000000180004de0 f   CmCollection.obj
 0001:00003e90       ?addId@Collection@Cm@physx@@UEAAXAEAVPxBase@3@_K@Z 0000000180004e90 f   CmCollection.obj
 0001:00003fc0       ?removeId@Collection@Cm@physx@@UEAAX_K@Z 0000000180004fc0 f   CmCollection.obj
 0001:00004040       ?find@Collection@Cm@physx@@UEBAPEAVPxBase@3@_K@Z 0000000180005040 f   CmCollection.obj
 0001:00004070       ?add@Collection@Cm@physx@@UEAAXAEAVPxCollection@3@@Z 0000000180005070 f   CmCollection.obj
 0001:00004210       ?remove@Collection@Cm@physx@@UEAAXAEAVPxCollection@3@@Z 0000000180005210 f   CmCollection.obj
 0001:00004330       ?getNbObjects@Collection@Cm@physx@@UEBAIXZ 0000000180005330 f   CmCollection.obj
 0001:00004340       ?getObject@Collection@Cm@physx@@UEBAAEAVPxBase@3@I@Z 0000000180005340 f   CmCollection.obj
 0001:00004360       ?getObjects@Collection@Cm@physx@@UEBAIPEAPEAVPxBase@3@II@Z 0000000180005360 f   CmCollection.obj
 0001:000043a0       ?getNbIds@Collection@Cm@physx@@UEBAIXZ 00000001800053a0 f   CmCollection.obj
 0001:000043b0       ?getId@Collection@Cm@physx@@UEBA_KAEBVPxBase@3@@Z 00000001800053b0 f   CmCollection.obj
 0001:00004460       ?getIds@Collection@Cm@physx@@UEBAIPEA_KII@Z 0000000180005460 f   CmCollection.obj
 0001:00004530       ??1PxCollection@physx@@MEAA@XZ 0000000180005530 f i CmCollection.obj
 0001:00004540       ??_ECollection@Cm@physx@@UEAAPEAXI@Z 0000000180005540 f i CmCollection.obj
 0001:00004540       ??_GCollection@Cm@physx@@UEAAPEAXI@Z 0000000180005540 f i CmCollection.obj
 0001:000045f0       ??_EPxCollection@physx@@MEAAPEAXI@Z 00000001800055f0 f i CmCollection.obj
 0001:000045f0       ??_GPxCollection@physx@@MEAAPEAXI@Z 00000001800055f0 f i CmCollection.obj
 0001:00004620       ?create@?$HashBase@V?$Pair@$$CB_KPEAVPxBase@physx@@@shdfnd@physx@@_KU?$Hash@_K@23@UGetKey@?$HashMapBase@_KPEAVPxBase@physx@@U?$Hash@_K@shdfnd@2@VNonTrackingAllocator@42@@internal@23@VNonTrackingAllocator@23@$00@internal@shdfnd@physx@@QEAAPEAV?$Pair@$$CB_KPEAVPxBase@physx@@@34@AEB_KAEA_N@Z 0000000180005620 f i CmCollection.obj
 0001:000047b0       ?create@?$HashBase@V?$Pair@QEAVPxBase@physx@@_K@shdfnd@physx@@PEAVPxBase@3@U?$Hash@PEAVPxBase@physx@@@23@UGetKey@?$HashMapBase@PEAVPxBase@physx@@_KU?$Hash@PEAVPxBase@physx@@@shdfnd@2@VNonTrackingAllocator@42@@internal@23@VNonTrackingAllocator@23@$00@internal@shdfnd@physx@@QEAAPEAV?$Pair@QEAVPxBase@physx@@_K@34@AEBQEAVPxBase@4@AEA_N@Z 00000001800057b0 f i CmCollection.obj
 0001:00004940       ?erase@?$HashBase@V?$Pair@$$CB_KPEAVPxBase@physx@@@shdfnd@physx@@_KU?$Hash@_K@23@UGetKey@?$HashMapBase@_KPEAVPxBase@physx@@U?$Hash@_K@shdfnd@2@VNonTrackingAllocator@42@@internal@23@VNonTrackingAllocator@23@$00@internal@shdfnd@physx@@QEAA_NAEB_K@Z 0000000180005940 f i CmCollection.obj
 0001:00004af0       ?erase@?$HashBase@V?$Pair@QEAVPxBase@physx@@_K@shdfnd@physx@@PEAVPxBase@3@U?$Hash@PEAVPxBase@physx@@@23@UGetKey@?$HashMapBase@PEAVPxBase@physx@@_KU?$Hash@PEAVPxBase@physx@@@shdfnd@2@VNonTrackingAllocator@42@@internal@23@VNonTrackingAllocator@23@$00@internal@shdfnd@physx@@QEAA_NAEBQEAVPxBase@4@@Z 0000000180005af0 f i CmCollection.obj
 0001:00004ca0       ?find@?$HashMapBase@_KPEAVPxBase@physx@@U?$Hash@_K@shdfnd@2@VNonTrackingAllocator@42@@internal@shdfnd@physx@@QEBAPEBV?$Pair@$$CB_KPEAVPxBase@physx@@@34@AEB_K@Z 0000000180005ca0 f i CmCollection.obj
 0001:00004d40       ?release@Collection@Cm@physx@@UEAAXXZ 0000000180005d40 f i CmCollection.obj
 0001:00004d60       ?reserveInternal@?$HashBase@V?$Pair@$$CB_KPEAVPxBase@physx@@@shdfnd@physx@@_KU?$Hash@_K@23@UGetKey@?$HashMapBase@_KPEAVPxBase@physx@@U?$Hash@_K@shdfnd@2@VNonTrackingAllocator@42@@internal@23@VNonTrackingAllocator@23@$00@internal@shdfnd@physx@@AEAAXI@Z 0000000180005d60 f i CmCollection.obj
 0001:00004f40       ?reserveInternal@?$HashBase@V?$Pair@QEAVPxBase@physx@@_K@shdfnd@physx@@PEAVPxBase@3@U?$Hash@PEAVPxBase@physx@@@23@UGetKey@?$HashMapBase@PEAVPxBase@physx@@_KU?$Hash@PEAVPxBase@physx@@@shdfnd@2@VNonTrackingAllocator@42@@internal@23@VNonTrackingAllocator@23@$00@internal@shdfnd@physx@@AEAAXI@Z 0000000180005f40 f i CmCollection.obj
 0001:00005120       ?PxTransformFromPlaneEquation@physx@@YA?AVPxTransform@1@AEBVPxPlane@1@@Z 0000000180006120 f   CmMathUtils.obj
 0001:000052f0       ?PxTransformFromSegment@physx@@YA?AVPxTransform@1@AEBVPxVec3@1@0PEAM@Z 00000001800062f0 f   CmMathUtils.obj
 0001:00005460       ??0PtrTable@Cm@physx@@QEAA@XZ 0000000180006460 f   CmPtrTable.obj
 0001:00005480       ??1PtrTable@Cm@physx@@QEAA@XZ 0000000180006480 f   CmPtrTable.obj
 0001:00005490       ?add@PtrTable@Cm@physx@@QEAAXPEAXAEAVPtrTableStorageManager@23@@Z 0000000180006490 f   CmPtrTable.obj
 0001:00005560       ?replaceWithLast@PtrTable@Cm@physx@@QEAAXIAEAVPtrTableStorageManager@23@@Z 0000000180006560 f   CmPtrTable.obj
 0001:00005660       ?clear@PtrTable@Cm@physx@@QEAAXAEAVPtrTableStorageManager@23@@Z 0000000180006660 f   CmPtrTable.obj
 0001:000056e0       ?find@PtrTable@Cm@physx@@QEBAIPEBX@Z 00000001800066e0 f   CmPtrTable.obj
 0001:00005720       ?exportExtraData@PtrTable@Cm@physx@@QEAAXAEAVPxSerializationContext@3@@Z 0000000180006720 f   CmPtrTable.obj
 0001:00005770       ?importExtraData@PtrTable@Cm@physx@@QEAAXAEAVPxDeserializationContext@3@@Z 0000000180006770 f   CmPtrTable.obj
 0001:000057a0       ?getBinaryMetaData@PtrTable@Cm@physx@@SAXAEAVPxOutputStream@3@@Z 00000001800067a0 f   CmPtrTable.obj
 0001:00005960       ?realloc@PtrTable@Cm@physx@@AEAAXIIAEAVPtrTableStorageManager@23@@Z 0000000180006960 f   CmPtrTable.obj
 0001:000059f0       ??0PtrTable@Cm@physx@@QEAA@W4PxEMPTY@2@@Z 00000001800069f0 f i CmPtrTable.obj
 0001:00005a10       ??4PtrTable@Cm@physx@@QEAAAEAU012@AEBU012@@Z 0000000180006a10 f i CmPtrTable.obj
 0001:00005a20       ?getCount@PtrTable@Cm@physx@@QEBAIXZ 0000000180006a20 f i CmPtrTable.obj
 0001:00005a30       ?getPtrs@PtrTable@Cm@physx@@QEAAPEAPEAXXZ 0000000180006a30 f i CmPtrTable.obj
 0001:00005a40       ?getPtrs@PtrTable@Cm@physx@@QEBAPEBQEAXXZ 0000000180006a40 f i CmPtrTable.obj
 0001:00005a50       ??0RadixSort@Cm@physx@@QEAA@XZ 0000000180006a50 f   CmRadixSort.obj
 0001:00005a90       ??1RadixSort@Cm@physx@@UEAA@XZ 0000000180006a90 f   CmRadixSort.obj
 0001:00005ab0       ?Sort@RadixSort@Cm@physx@@QEAAAEAV123@PEBIIW4RadixHint@23@@Z 0000000180006ab0 f   CmRadixSort.obj
 0001:00006170       ?Sort@RadixSort@Cm@physx@@QEAAAEAV123@PEBMI@Z 0000000180007170 f   CmRadixSort.obj
 0001:00006910       ?SetBuffers@RadixSort@Cm@physx@@QEAA_NPEAI00PEAPEAI@Z 0000000180007910 f   CmRadixSort.obj
 0001:00006950       ??_ERadixSort@Cm@physx@@UEAAPEAXI@Z 0000000180007950 f i CmRadixSort.obj
 0001:000069e0       ??_GRadixSort@Cm@physx@@UEAAPEAXI@Z 00000001800079e0 f i CmRadixSort.obj
 0001:00006a10       ??0RadixSortBuffered@Cm@physx@@QEAA@XZ 0000000180007a10 f   CmRadixSortBuffered.obj
 0001:00006a40       ??1RadixSortBuffered@Cm@physx@@UEAA@XZ 0000000180007a40 f   CmRadixSortBuffered.obj
 0001:00006ac0       ?Sort@RadixSortBuffered@Cm@physx@@QEAAAEAV123@PEBIIW4RadixHint@23@@Z 0000000180007ac0 f   CmRadixSortBuffered.obj
 0001:00006b60       ?Sort@RadixSortBuffered@Cm@physx@@QEAAAEAV123@PEBMI@Z 0000000180007b60 f   CmRadixSortBuffered.obj
 0001:00006bf0       ?Resize@RadixSortBuffered@Cm@physx@@AEAA_NI@Z 0000000180007bf0 f   CmRadixSortBuffered.obj
 0001:00006ce0       ??_ERadixSortBuffered@Cm@physx@@UEAAPEAXI@Z 0000000180007ce0 f i CmRadixSortBuffered.obj
 0001:00006df0       ??_GRadixSortBuffered@Cm@physx@@UEAAPEAXI@Z 0000000180007df0 f i CmRadixSortBuffered.obj
 0001:00006e30       ?CheckResize@RadixSortBuffered@Cm@physx@@AEAAXI@Z 0000000180007e30 f i CmRadixSortBuffered.obj
 0001:00006e70       ??6RenderOutput@Cm@physx@@QEAAAEAV012@W4Primitive@012@@Z 0000000180007e70 f   CmRenderOutput.obj
 0001:00006e90       ??6RenderOutput@Cm@physx@@QEAAAEAV012@I@Z 0000000180007e90 f   CmRenderOutput.obj
 0001:00006ea0       ??6RenderOutput@Cm@physx@@QEAAAEAV012@AEBVPxMat44@2@@Z 0000000180007ea0 f   CmRenderOutput.obj
 0001:00006f10       ??6RenderOutput@Cm@physx@@QEAAAEAV012@AEBVPxTransform@2@@Z 0000000180007f10 f   CmRenderOutput.obj
 0001:000070a0       ??6RenderOutput@Cm@physx@@QEAAAEAV012@VPxVec3@2@@Z 00000001800080a0 f   CmRenderOutput.obj
 0001:000075f0       ??6RenderOutput@Cm@physx@@QEAAAEAV012@AEBUDebugText@12@@Z 00000001800085f0 f   CmRenderOutput.obj
 0001:00007800       ?outputCapsule@RenderOutput@Cm@physx@@QEAAAEAV123@MMAEBVPxMat44@3@@Z 0000000180008800 f   CmRenderOutput.obj
 0001:000082c0       ??0DebugText@Cm@physx@@QEAA@AEBVPxVec3@2@MPEBDZZ 00000001800092c0 f   CmRenderOutput.obj
 0001:00008320       ??6Cm@physx@@YAAEAVRenderOutput@01@AEAV201@AEBUDebugBox@01@@Z 0000000180009320 f   CmRenderOutput.obj
 0001:00008820       ??6Cm@physx@@YAAEAVRenderOutput@01@AEAV201@AEBUDebugArrow@01@@Z 0000000180009820 f   CmRenderOutput.obj
 0001:00008c20       ??6Cm@physx@@YAAEAVRenderOutput@01@AEAV201@AEBUDebugBasis@01@@Z 0000000180009c20 f   CmRenderOutput.obj
 0001:00008d20       ??6Cm@physx@@YAAEAVRenderOutput@01@AEAV201@AEBUDebugCircle@01@@Z 0000000180009d20 f   CmRenderOutput.obj
 0001:00008e10       ??6Cm@physx@@YAAEAVRenderOutput@01@AEAV201@AEBUDebugArc@01@@Z 0000000180009e10 f   CmRenderOutput.obj
 0001:00008f10       ??0DebugText@Cm@physx@@QEAA@$$QEAU012@@Z 0000000180009f10 f i CmRenderOutput.obj
 0001:00008ff0       ??0DebugText@Cm@physx@@QEAA@AEBU012@@Z 0000000180009ff0 f i CmRenderOutput.obj
 0001:000090d0       ??0RenderOutput@Cm@physx@@QEAA@AEAVRenderBuffer@12@@Z 000000018000a0d0 f i CmRenderOutput.obj
 0001:00009120       ??0RenderOutput@Cm@physx@@QEAA@AEBV012@@Z 000000018000a120 f i CmRenderOutput.obj
 0001:000091c0       ??4DebugText@Cm@physx@@QEAAAEAU012@$$QEAU012@@Z 000000018000a1c0 f i CmRenderOutput.obj
 0001:000092f0       ??4DebugText@Cm@physx@@QEAAAEAU012@AEBU012@@Z 000000018000a2f0 f i CmRenderOutput.obj
 0001:00009420       ?allocate@?$Array@DV?$ReflectionAllocator@D@shdfnd@physx@@@shdfnd@physx@@IEAAPEADI@Z 000000018000a420 f i CmRenderOutput.obj
 0001:000094a0       ?allocate@?$Array@UPxDebugLine@physx@@V?$ReflectionAllocator@UPxDebugLine@physx@@@shdfnd@2@@shdfnd@physx@@IEAAPEAUPxDebugLine@3@I@Z 000000018000a4a0 f i CmRenderOutput.obj
 0001:00009540       ?allocate@?$Array@UPxDebugPoint@physx@@V?$ReflectionAllocator@UPxDebugPoint@physx@@@shdfnd@2@@shdfnd@physx@@IEAAPEAUPxDebugPoint@3@I@Z 000000018000a540 f i CmRenderOutput.obj
 0001:000095e0       ?allocate@?$Array@UPxDebugText@physx@@V?$ReflectionAllocator@UPxDebugText@physx@@@shdfnd@2@@shdfnd@physx@@IEAAPEAUPxDebugText@3@I@Z 000000018000a5e0 f i CmRenderOutput.obj
 0001:00009680       ?allocate@?$Array@UPxDebugTriangle@physx@@V?$ReflectionAllocator@UPxDebugTriangle@physx@@@shdfnd@2@@shdfnd@physx@@IEAAPEAUPxDebugTriangle@3@I@Z 000000018000a680 f i CmRenderOutput.obj
 0001:00009720       ?copy@?$Array@UPxDebugLine@physx@@V?$ReflectionAllocator@UPxDebugLine@physx@@@shdfnd@2@@shdfnd@physx@@KAXPEAUPxDebugLine@3@0PEBU43@@Z 000000018000a720 f i CmRenderOutput.obj
 0001:000098d0       ?copy@?$Array@UPxDebugPoint@physx@@V?$ReflectionAllocator@UPxDebugPoint@physx@@@shdfnd@2@@shdfnd@physx@@KAXPEAUPxDebugPoint@3@0PEBU43@@Z 000000018000a8d0 f i CmRenderOutput.obj
 0001:000099d0       ?copy@?$Array@UPxDebugText@physx@@V?$ReflectionAllocator@UPxDebugText@physx@@@shdfnd@2@@shdfnd@physx@@KAXPEAUPxDebugText@3@0PEBU43@@Z 000000018000a9d0 f i CmRenderOutput.obj
 0001:00009b40       ?copy@?$Array@UPxDebugTriangle@physx@@V?$ReflectionAllocator@UPxDebugTriangle@physx@@@shdfnd@2@@shdfnd@physx@@KAXPEAUPxDebugTriangle@3@0PEBU43@@Z 000000018000ab40 f i CmRenderOutput.obj
 0001:00009d40       ?growAndPushBack@?$Array@DV?$ReflectionAllocator@D@shdfnd@physx@@@shdfnd@physx@@IEAAAEADAEBD@Z 000000018000ad40 f i CmRenderOutput.obj
 0001:00009e00       ?growAndPushBack@?$Array@UPxDebugLine@physx@@V?$ReflectionAllocator@UPxDebugLine@physx@@@shdfnd@2@@shdfnd@physx@@IEAAAEAUPxDebugLine@3@AEBU43@@Z 000000018000ae00 f i CmRenderOutput.obj
 0001:00009ed0       ?growAndPushBack@?$Array@UPxDebugPoint@physx@@V?$ReflectionAllocator@UPxDebugPoint@physx@@@shdfnd@2@@shdfnd@physx@@IEAAAEAUPxDebugPoint@3@AEBU43@@Z 000000018000aed0 f i CmRenderOutput.obj
 0001:00009f90       ?growAndPushBack@?$Array@UPxDebugText@physx@@V?$ReflectionAllocator@UPxDebugText@physx@@@shdfnd@2@@shdfnd@physx@@IEAAAEAUPxDebugText@3@AEBU43@@Z 000000018000af90 f i CmRenderOutput.obj
 0001:0000a060       ?growAndPushBack@?$Array@UPxDebugTriangle@physx@@V?$ReflectionAllocator@UPxDebugTriangle@physx@@@shdfnd@2@@shdfnd@physx@@IEAAAEAUPxDebugTriangle@3@AEBU43@@Z 000000018000b060 f i CmRenderOutput.obj
 0001:0000a160       ?outputSegment@RenderOutput@Cm@physx@@QEAAXAEBVPxVec3@3@0@Z 000000018000b160 f i CmRenderOutput.obj
 0001:0000a220       ?recreate@?$Array@DV?$ReflectionAllocator@D@shdfnd@physx@@@shdfnd@physx@@IEAAXI@Z 000000018000b220 f i CmRenderOutput.obj
 0001:0000a2c0       ?recreate@?$Array@UPxDebugLine@physx@@V?$ReflectionAllocator@UPxDebugLine@physx@@@shdfnd@2@@shdfnd@physx@@IEAAXI@Z 000000018000b2c0 f i CmRenderOutput.obj
 0001:0000a350       ?reserveSegments@RenderOutput@Cm@physx@@QEAAPEAUPxDebugLine@3@I@Z 000000018000b350 f i CmRenderOutput.obj
 0001:0000a3b0       ?visualizeJointFrames@Cm@physx@@YAXAEAVRenderOutput@12@MAEBVPxTransform@2@1@Z 000000018000b3b0 f   CmVisualization.obj
 0001:0000a480       ?visualizeLinearLimit@Cm@physx@@YAXAEAVRenderOutput@12@MAEBVPxTransform@2@1M_N@Z 000000018000b480 f   CmVisualization.obj
 0001:0000a710       ?visualizeAngularLimit@Cm@physx@@YAXAEAVRenderOutput@12@MAEBVPxTransform@2@MM_N@Z 000000018000b710 f   CmVisualization.obj
 0001:0000a8e0       ?visualizeLimitCone@Cm@physx@@YAXAEAVRenderOutput@12@MAEBVPxTransform@2@MM_N@Z 000000018000b8e0 f   CmVisualization.obj
 0001:0000ab80       ?visualizeDoubleCone@Cm@physx@@YAXAEAVRenderOutput@12@MAEBVPxTransform@2@M_N@Z 000000018000bb80 f   CmVisualization.obj
 0001:0000ade0       ??DPxQuat@physx@@QEBA?AV01@AEBV01@@Z 000000018000bde0 f i CmVisualization.obj
 0001:0000af20       ?contactBoxBox@Gu@physx@@YA_NAEBVGeometryUnion@12@0AEBVPxTransform@2@1AEBUNarrowPhaseParams@12@AEAUCache@12@AEAVContactBuffer@12@PEAVRenderOutput@Cm@2@@Z 000000018000bf20 f   GuContactBoxBox.obj
 0001:0000b210       ??0Box@Gu@physx@@QEAA@AEBV012@@Z 000000018000c210 f i GuContactBoxBox.obj
 0001:0000b270       ??0Box@Gu@physx@@QEAA@AEBVPxVec3@2@0AEBVPxMat33@2@@Z 000000018000c270 f i GuContactBoxBox.obj
 0001:0000b2e0       ??0Box@Gu@physx@@QEAA@XZ   000000018000c2e0 f i GuContactBoxBox.obj
 0001:0000b2f0       ??0GeometryUnion@Gu@physx@@QEAA@AEBVPxGeometry@2@@Z 000000018000c2f0 f i GuContactBoxBox.obj
 0001:0000b310       ??0GeometryUnion@Gu@physx@@QEAA@W4PxEMPTY@2@@Z 000000018000c310 f i GuContactBoxBox.obj
 0001:0000b320       ??0GeometryUnion@Gu@physx@@QEAA@XZ 000000018000c320 f i GuContactBoxBox.obj
 0001:0000b330       ??0MaterialIndicesStruct@physx@@QEAA@W4PxEMPTY@1@@Z 000000018000c330 f i GuContactBoxBox.obj
 0001:0000b340       ??0MaterialIndicesStruct@physx@@QEAA@XZ 000000018000c340 f i GuContactBoxBox.obj
 0001:0000b360       ??0PxQuat@physx@@QEAA@AEBVPxMat33@1@@Z 000000018000c360 f i GuContactBoxBox.obj
 0001:0000b560       ??0PxVec3@physx@@QEAA@XZ   000000018000c560 f i GuContactBoxBox.obj
 0001:0000b570       ??0VertexInfo@@QEAA@XZ     000000018000c570 f i GuContactBoxBox.obj
 0001:0000b580       ??1Box@Gu@physx@@QEAA@XZ   000000018000c580 f i GuContactBoxBox.obj
 0001:0000b590       ??1MaterialIndicesStruct@physx@@QEAA@XZ 000000018000c590 f i GuContactBoxBox.obj
 0001:0000b5a0       ??1PxBase@physx@@MEAA@XZ   000000018000c5a0 f i GuContactBoxBox.obj
 0001:0000b5b0       ??1PxConvexMesh@physx@@MEAA@XZ 000000018000c5b0 f i GuContactBoxBox.obj
 0001:0000b5c0       ??4Box@Gu@physx@@QEAAAEBV012@AEBV012@@Z 000000018000c5c0 f i GuContactBoxBox.obj
 0001:0000b620       ??4GeometryUnion@Gu@physx@@QEAAAEAV012@$$QEAV012@@Z 000000018000c620 f i GuContactBoxBox.obj
 0001:0000b650       ??4GeometryUnion@Gu@physx@@QEAAAEAV012@AEBV012@@Z 000000018000c650 f i GuContactBoxBox.obj
 0001:0000b680       ??4MaterialIndicesStruct@physx@@QEAAAEAU01@AEBU01@@Z 000000018000c680 f i GuContactBoxBox.obj
 0001:0000b690       ??_EPxBase@physx@@MEAAPEAXI@Z 000000018000c690 f i GuContactBoxBox.obj
 0001:0000b690       ??_GPxBase@physx@@MEAAPEAXI@Z 000000018000c690 f i GuContactBoxBox.obj
 0001:0000b6c0       ??_H@YAXPEAX_K1P6APEAX0@Z@Z 000000018000c6c0 f i GuContactBoxBox.obj
 0001:0000b710       ?allocate@MaterialIndicesStruct@physx@@QEAAXG@Z 000000018000c710 f i GuContactBoxBox.obj
 0001:0000b790       ?computeAABBExtent@Box@Gu@physx@@QEBA?AVPxVec3@3@XZ 000000018000c790 f i GuContactBoxBox.obj
 0001:0000b850       ?computeBoxPoints@Box@Gu@physx@@QEBAXPEIAVPxVec3@3@@Z 000000018000c850 f i GuContactBoxBox.obj
 0001:0000b890       ?deallocate@MaterialIndicesStruct@physx@@QEAAXXZ 000000018000c890 f i GuContactBoxBox.obj
 0001:0000e230       ?getConcreteTypeName@PxConvexMesh@physx@@UEBAPEBDXZ 000000018000f230 f i GuContactBoxBox.obj
 0001:0000e240       ?getGeometry@GeometryUnion@Gu@physx@@QEBAAEBVPxGeometry@3@XZ 000000018000f240 f i GuContactBoxBox.obj
 0001:0000e250       ?getTransform@Box@Gu@physx@@QEBA?AVPxTransform@3@XZ 000000018000f250 f i GuContactBoxBox.obj
 0001:0000e2b0       ?getType@GeometryUnion@Gu@physx@@QEBA?AW4Enum@PxGeometryType@3@XZ 000000018000f2b0 f i GuContactBoxBox.obj
 0001:0000e2c0       ?isKindOf@PxBase@physx@@MEBA_NPEBD@Z 000000018000f2c0 f i GuContactBoxBox.obj
 0001:0000e2f0       ?isKindOf@PxConvexMesh@physx@@MEBA_NPEBD@Z 000000018000f2f0 f i GuContactBoxBox.obj
 0001:0000e340       ?isReleasable@PxBase@physx@@UEBA_NXZ 000000018000f340 f i GuContactBoxBox.obj
 0001:0000e350       ?isValid@Box@Gu@physx@@QEBA_NXZ 000000018000f350 f i GuContactBoxBox.obj
 0001:0000e370       ?rotate@Box@Gu@physx@@QEBA?AVPxVec3@3@AEBV43@@Z 000000018000f370 f i GuContactBoxBox.obj
 0001:0000e400       ?rotateInv@Box@Gu@physx@@QEBA?AVPxVec3@3@AEBV43@@Z 000000018000f400 f i GuContactBoxBox.obj
 0001:0000e490       ?setAxes@Box@Gu@physx@@QEAAXAEBVPxVec3@3@00@Z 000000018000f490 f i GuContactBoxBox.obj
 0001:0000e4d0       ?setEmpty@Box@Gu@physx@@QEAAXXZ 000000018000f4d0 f i GuContactBoxBox.obj
 0001:0000e510       ?transform@Box@Gu@physx@@QEBA?AVPxVec3@3@AEBV43@@Z 000000018000f510 f i GuContactBoxBox.obj
 0001:0000e5b0       ?contactCapsuleBox@Gu@physx@@YA_NAEBVGeometryUnion@12@0AEBVPxTransform@2@1AEBUNarrowPhaseParams@12@AEAUCache@12@AEAVContactBuffer@12@PEAVRenderOutput@Cm@2@@Z 000000018000f5b0 f   GuContactCapsuleBox.obj
 0001:00010220       ?contactCapsuleCapsule@Gu@physx@@YA_NAEBVGeometryUnion@12@0AEBVPxTransform@2@1AEBUNarrowPhaseParams@12@AEAUCache@12@AEAVContactBuffer@12@PEAVRenderOutput@Cm@2@@Z 0000000180011220 f   GuContactCapsuleCapsule.obj
 0001:00010c20       ??0Segment@Gu@physx@@QEAA@XZ 0000000180011c20 f i GuContactCapsuleCapsule.obj
 0001:00010c30       ??1Segment@Gu@physx@@QEAA@XZ 0000000180011c30 f i GuContactCapsuleCapsule.obj
 0001:00010c40       ?contactCapsuleConvex@Gu@physx@@YA_NAEBVGeometryUnion@12@0AEBVPxTransform@2@1AEBUNarrowPhaseParams@12@AEAUCache@12@AEAVContactBuffer@12@PEAVRenderOutput@Cm@2@@Z 0000000180011c40 f   GuContactCapsuleConvex.obj
 0001:00011af0       ??$gjk@U?$LocalConvex@VCapsuleV@Gu@physx@@@Gu@physx@@U?$LocalConvex@VConvexHullV@Gu@physx@@@23@@Gu@physx@@YA?AW4GjkStatus@01@AEBU?$LocalConvex@VCapsuleV@Gu@physx@@@01@AEBU?$LocalConvex@VConvexHullV@Gu@physx@@@01@AEBT__m128@@2AEAT5@333@Z 0000000180012af0 f i GuContactCapsuleConvex.obj
 0001:00012860       ??0ConvexEdge@Gu@physx@@QEAA@XZ 0000000180013860 f i GuContactCapsuleConvex.obj
 0001:00012870       ??0ConvexMesh@Gu@physx@@QEAA@V?$PxFlags@W4Enum@PxBaseFlag@physx@@G@2@@Z 0000000180013870 f i GuContactCapsuleConvex.obj
 0001:000128a0       ??0HullPolygonData@Gu@physx@@QEAA@AEBU012@@Z 00000001800138a0 f i GuContactCapsuleConvex.obj
 0001:000128d0       ??0PolygonalBox@Gu@physx@@QEAA@AEBV012@@Z 00000001800138d0 f i GuContactCapsuleConvex.obj
 0001:00012b50       ??0PxVec3@physx@@QEAA@AEBV01@@Z 0000000180013b50 f i GuContactCapsuleConvex.obj
 0001:00012b70       ??1GjkConvexBase@Gu@physx@@UEAA@XZ 0000000180013b70 f i GuContactCapsuleConvex.obj
 0001:00012b80       ??1RefCountable@Cm@physx@@UEAA@XZ 0000000180013b80 f i GuContactCapsuleConvex.obj
 0001:00012b90       ??4FPUGuard@shdfnd@physx@@QEAAAEAV012@AEBV012@@Z 0000000180013b90 f i GuContactCapsuleConvex.obj
 0001:00012bb0       ??Dphysx@@YA?AVMatrix34@Cm@0@AEBVPxMeshScale@0@AEBVPxTransform@0@@Z 0000000180013bb0 f i GuContactCapsuleConvex.obj
 0001:00013300       ??_EConvexMesh@Gu@physx@@UEAAPEAXI@Z 0000000180014300 f i GuContactCapsuleConvex.obj
 0001:0001340c       ??_EConvexMesh@Gu@physx@@WBA@EAAPEAXI@Z 000000018001440c f i GuContactCapsuleConvex.obj
 0001:00013420       ??_EPxConvexMesh@physx@@MEAAPEAXI@Z 0000000180014420 f i GuContactCapsuleConvex.obj
 0001:000134b0       ??_E?$LocalConvex@VCapsuleV@Gu@physx@@@Gu@physx@@UEAAPEAXI@Z 00000001800144b0 f i GuContactCapsuleConvex.obj
 0001:000134b0       ??_G?$LocalConvex@VCapsuleV@Gu@physx@@@Gu@physx@@UEAAPEAXI@Z 00000001800144b0 f i GuContactCapsuleConvex.obj
 0001:000134e0       ??_E?$LocalConvex@VConvexHullV@Gu@physx@@@Gu@physx@@UEAAPEAXI@Z 00000001800144e0 f i GuContactCapsuleConvex.obj
 0001:000134e0       ??_G?$LocalConvex@VConvexHullV@Gu@physx@@@Gu@physx@@UEAAPEAXI@Z 00000001800144e0 f i GuContactCapsuleConvex.obj
 0001:00013510       ??_EGjkConvex@Gu@physx@@UEAAPEAXI@Z 0000000180014510 f i GuContactCapsuleConvex.obj
 0001:00013510       ??_GGjkConvex@Gu@physx@@UEAAPEAXI@Z 0000000180014510 f i GuContactCapsuleConvex.obj
 0001:00013540       ??_EGjkConvexBase@Gu@physx@@UEAAPEAXI@Z 0000000180014540 f i GuContactCapsuleConvex.obj
 0001:00013540       ??_GGjkConvexBase@Gu@physx@@UEAAPEAXI@Z 0000000180014540 f i GuContactCapsuleConvex.obj
 0001:00013570       ??_ERefCountable@Cm@physx@@UEAAPEAXI@Z 0000000180014570 f i GuContactCapsuleConvex.obj
 0001:00013570       ??_GRefCountable@Cm@physx@@UEAAPEAXI@Z 0000000180014570 f i GuContactCapsuleConvex.obj
 0001:000135a0       ??__G@YAXPEAX0_K1P6APEAX00@Z@Z 00000001800145a0 f i GuContactCapsuleConvex.obj
 0001:00015620       ?getCenter@?$LocalConvex@VCapsuleV@Gu@physx@@@Gu@physx@@UEBA?AT__m128@@XZ 0000000180016620 f i GuContactCapsuleConvex.obj
 0001:00015630       ?getCenter@?$LocalConvex@VConvexHullV@Gu@physx@@@Gu@physx@@UEBA?AT__m128@@XZ 0000000180016630 f i GuContactCapsuleConvex.obj
 0001:00015640       ?getIndexBuffer@ConvexMesh@Gu@physx@@UEBAPEBEXZ 0000000180016640 f i GuContactCapsuleConvex.obj
 0001:00015680       ?getInverse@PxMat33@physx@@QEBA?BV12@XZ 0000000180016680 f i GuContactCapsuleConvex.obj
 0001:000158d0       ?getNbPolygons@ConvexMesh@Gu@physx@@UEBAIXZ 00000001800168d0 f i GuContactCapsuleConvex.obj
 0001:000158e0       ?getNbVertices@ConvexMesh@Gu@physx@@UEBAIXZ 00000001800168e0 f i GuContactCapsuleConvex.obj
 0001:000158f0       ?getSweepMargin@?$LocalConvex@VCapsuleV@Gu@physx@@@Gu@physx@@UEBA?AT__m128@@XZ 00000001800168f0 f i GuContactCapsuleConvex.obj
 0001:00015900       ?getSweepMargin@?$LocalConvex@VConvexHullV@Gu@physx@@@Gu@physx@@UEBA?AT__m128@@XZ 0000000180016900 f i GuContactCapsuleConvex.obj
 0001:00015920       ?getSweepMargin@GjkConvex@Gu@physx@@UEBA?AT__m128@@XZ 0000000180016920 f i GuContactCapsuleConvex.obj
 0001:00015940       ?getVertices@ConvexMesh@Gu@physx@@UEBAPEBVPxVec3@3@XZ 0000000180016940 f i GuContactCapsuleConvex.obj
 0001:00015960       ?hillClimbing@ConvexHullV@Gu@physx@@QEBAIAEBT__m128@@@Z 0000000180016960 f i GuContactCapsuleConvex.obj
 0001:00015b90       ?init@FastVertex2ShapeScaling@Cm@physx@@QEAAXAEBVPxVec3@3@AEBVPxQuat@3@@Z 0000000180016b90 f i GuContactCapsuleConvex.obj
 0001:00015f80       ?onRefCountZero@RefCountable@Cm@physx@@UEAAXXZ 0000000180016f80 f i GuContactCapsuleConvex.obj
 0001:00015fa0       ?preExportDataReset@ConvexMesh@Gu@physx@@QEAAXXZ 0000000180016fa0 f i GuContactCapsuleConvex.obj
 0001:00015fb0       ?requiresObjects@ConvexMesh@Gu@physx@@UEAAXAEAVPxProcessPxBaseCallback@3@@Z 0000000180016fb0 f i GuContactCapsuleConvex.obj
 0001:00015fc0       ?support@?$LocalConvex@VCapsuleV@Gu@physx@@@Gu@physx@@UEBA?AT__m128@@AEBT4@@Z 0000000180016fc0 f i GuContactCapsuleConvex.obj
 0001:00016020       ?support@?$LocalConvex@VCapsuleV@Gu@physx@@@Gu@physx@@UEBA?AT__m128@@AEBT4@AEAHPEAT4@@Z 0000000180017020 f i GuContactCapsuleConvex.obj
 0001:00016090       ?support@?$LocalConvex@VConvexHullV@Gu@physx@@@Gu@physx@@UEBA?AT__m128@@AEBT4@@Z 0000000180017090 f i GuContactCapsuleConvex.obj
 0001:00016170       ?support@?$LocalConvex@VConvexHullV@Gu@physx@@@Gu@physx@@UEBA?AT__m128@@AEBT4@AEAHPEAT4@@Z 0000000180017170 f i GuContactCapsuleConvex.obj
 0001:00016240       ?support@GjkConvex@Gu@physx@@UEBA?AT__m128@@AEBT4@@Z 0000000180017240 f i GuContactCapsuleConvex.obj
 0001:00016260       ?support@GjkConvex@Gu@physx@@UEBA?AT__m128@@AEBT4@AEAHPEAT4@@Z 0000000180017260 f i GuContactCapsuleConvex.obj
 0001:00016290       ?supportPoint@?$LocalConvex@VCapsuleV@Gu@physx@@@Gu@physx@@UEBA?AT__m128@@HPEAT4@@Z 0000000180017290 f i GuContactCapsuleConvex.obj
 0001:000162c0       ?supportPoint@?$LocalConvex@VConvexHullV@Gu@physx@@@Gu@physx@@UEBA?AT__m128@@HPEAT4@@Z 00000001800172c0 f i GuContactCapsuleConvex.obj
 0001:00016310       ?supportPoint@GjkConvex@Gu@physx@@UEBA?AT__m128@@HPEAT4@@Z 0000000180017310 f i GuContactCapsuleConvex.obj
 0001:00016330       ?supportVertexIndex@ConvexHullV@Gu@physx@@QEBAIAEBT__m128@@@Z 0000000180017330 f i GuContactCapsuleConvex.obj
 0001:000163d0       ?contactCapsuleMesh@Gu@physx@@YA_NAEBVGeometryUnion@12@0AEBVPxTransform@2@1AEBUNarrowPhaseParams@12@AEAUCache@12@AEAVContactBuffer@12@PEAVRenderOutput@Cm@2@@Z 00000001800173d0 f   GuContactCapsuleMesh.obj
 0001:00016910       ?contactCapsuleHeightfield@Gu@physx@@YA_NAEBVGeometryUnion@12@0AEBVPxTransform@2@1AEBUNarrowPhaseParams@12@AEAUCache@12@AEAVContactBuffer@12@PEAVRenderOutput@Cm@2@@Z 0000000180017910 f   GuContactCapsuleMesh.obj
 0001:00017960       ??0HeightFieldData@Gu@physx@@QEAA@$$QEAU012@@Z 0000000180018960 f i GuContactCapsuleMesh.obj
 0001:000179d0       ??0HeightFieldData@Gu@physx@@QEAA@AEBU012@@Z 00000001800189d0 f i GuContactCapsuleMesh.obj
 0001:00017a40       ??0HeightFieldData@Gu@physx@@QEAA@W4PxEMPTY@2@@Z 0000000180018a40 f i GuContactCapsuleMesh.obj
 0001:00017a50       ??0HeightFieldData@Gu@physx@@QEAA@XZ 0000000180018a50 f i GuContactCapsuleMesh.obj
 0001:00017a60       ??0HeightFieldTraceUtil@Gu@physx@@QEAA@AEBVPxHeightFieldGeometry@2@@Z 0000000180018a60 f i GuContactCapsuleMesh.obj
 0001:00017aa0       ??0HeightFieldUtil@Gu@physx@@QEAA@AEBVPxHeightFieldGeometry@2@@Z 0000000180018aa0 f i GuContactCapsuleMesh.obj
 0001:00017ae0       ??0HeightFieldUtil@Gu@physx@@QEAA@XZ 0000000180018ae0 f i GuContactCapsuleMesh.obj
 0001:00017af0       ??1?$EntityReport@I@Gu@physx@@UEAA@XZ 0000000180018af0 f i GuContactCapsuleMesh.obj
 0001:00017b00       ??1?$MeshHitCallback@UPxRaycastHit@physx@@@Gu@physx@@UEAA@XZ 0000000180018b00 f i GuContactCapsuleMesh.obj
 0001:00017b10       ??1HeightFieldData@Gu@physx@@QEAA@XZ 0000000180018b10 f i GuContactCapsuleMesh.obj
 0001:00017b20       ??1PxHeightField@physx@@MEAA@XZ 0000000180018b20 f i GuContactCapsuleMesh.obj
 0001:00017b30       ??4HeightFieldData@Gu@physx@@QEAAAEAU012@$$QEAU012@@Z 0000000180018b30 f i GuContactCapsuleMesh.obj
 0001:00017ba0       ??4HeightFieldData@Gu@physx@@QEAAAEAU012@AEBU012@@Z 0000000180018ba0 f i GuContactCapsuleMesh.obj
 0001:00017c10       ??4HeightFieldTraceUtil@Gu@physx@@QEAAAEAV012@$$QEAV012@@Z 0000000180018c10 f i GuContactCapsuleMesh.obj
 0001:00017c30       ??4HeightFieldTraceUtil@Gu@physx@@QEAAAEAV012@AEBV012@@Z 0000000180018c30 f i GuContactCapsuleMesh.obj
 0001:00017c50       ??4HeightFieldUtil@Gu@physx@@QEAAAEAV012@$$QEAV012@@Z 0000000180018c50 f i GuContactCapsuleMesh.obj
 0001:00017c80       ??4HeightFieldUtil@Gu@physx@@QEAAAEAV012@AEBV012@@Z 0000000180018c80 f i GuContactCapsuleMesh.obj
 0001:00017ca0       ??_E?$EntityReport@I@Gu@physx@@UEAAPEAXI@Z 0000000180018ca0 f i GuContactCapsuleMesh.obj
 0001:00017ca0       ??_G?$EntityReport@I@Gu@physx@@UEAAPEAXI@Z 0000000180018ca0 f i GuContactCapsuleMesh.obj
 0001:00017cd0       ??_E?$MeshHitCallback@UPxRaycastHit@physx@@@Gu@physx@@UEAAPEAXI@Z 0000000180018cd0 f i GuContactCapsuleMesh.obj
 0001:00017cd0       ??_G?$MeshHitCallback@UPxRaycastHit@physx@@@Gu@physx@@UEAAPEAXI@Z 0000000180018cd0 f i GuContactCapsuleMesh.obj
 0001:00019080       ?ceilUp@HeightFieldTraceUtil@Gu@physx@@SAMM@Z 000000018001a080 f i GuContactCapsuleMesh.obj
 0001:000190c0       ?clipShapeNormalToVertexVoronoi@HeightFieldUtil@Gu@physx@@QEBA_NAEAVPxVec3@3@III@Z 000000018001a0c0 f i GuContactCapsuleMesh.obj
 0001:000193b0       ?computePointNormal@HeightFieldUtil@Gu@physx@@QEBA?AVPxVec3@3@IAEBV43@AEBVPxTransform@3@MMMMAEAM@Z 000000018001a3b0 f i GuContactCapsuleMesh.obj
 0001:000197d0       ?floorDown@HeightFieldTraceUtil@Gu@physx@@SAMM@Z 000000018001a7d0 f i GuContactCapsuleMesh.obj
 0001:00019810       ?getConcreteTypeName@PxHeightField@physx@@UEBAPEBDXZ 000000018001a810 f i GuContactCapsuleMesh.obj
 0001:00019820       ?getConvexEdgeThreshold@HeightField@Gu@physx@@UEBAMXZ 000000018001a820 f i GuContactCapsuleMesh.obj
 0001:00019830       ?getFeatureIndex@HeightFieldUtil@Gu@physx@@SAII@Z 000000018001a830 f i GuContactCapsuleMesh.obj
 0001:00019840       ?getFeatureType@HeightFieldUtil@Gu@physx@@SA?AW4Feature@123@I@Z 000000018001a840 f i GuContactCapsuleMesh.obj
 0001:00019850       ?getFlags@HeightField@Gu@physx@@UEBA?AV?$PxFlags@W4Enum@PxHeightFieldFlag@physx@@G@3@XZ 000000018001a850 f i GuContactCapsuleMesh.obj
 0001:00019860       ?getFormat@HeightField@Gu@physx@@UEBA?AW4Enum@PxHeightFieldFormat@3@XZ 000000018001a860 f i GuContactCapsuleMesh.obj
 0001:00019870       ?getHeight@HeightField@Gu@physx@@UEBAMMM@Z 000000018001a870 f i GuContactCapsuleMesh.obj
 0001:000198b0       ?getHeightAtShapePoint2@HeightFieldUtil@Gu@physx@@QEBAMIMM@Z 000000018001a8b0 f i GuContactCapsuleMesh.obj
 0001:000198e0       ?getHeightAtShapePoint@HeightFieldUtil@Gu@physx@@QEBAMMM@Z 000000018001a8e0 f i GuContactCapsuleMesh.obj
 0001:00019940       ?getHeightField@HeightFieldUtil@Gu@physx@@QEBAAEBVHeightField@23@XZ 000000018001a940 f i GuContactCapsuleMesh.obj
 0001:00019950       ?getHeightFieldGeometry@HeightFieldUtil@Gu@physx@@QEBAAEBVPxHeightFieldGeometry@3@XZ 000000018001a950 f i GuContactCapsuleMesh.obj
 0001:00019960       ?getHeightInternal2@HeightField@Gu@physx@@QEBAMIMM@Z 000000018001a960 f i GuContactCapsuleMesh.obj
 0001:00019ad0       ?getNbColumns@HeightField@Gu@physx@@UEBAIXZ 000000018001aad0 f i GuContactCapsuleMesh.obj
 0001:00019ae0       ?getNbRows@HeightField@Gu@physx@@UEBAIXZ 000000018001aae0 f i GuContactCapsuleMesh.obj
 0001:00019af0       ?getNormalAtShapePoint2@HeightFieldUtil@Gu@physx@@QEBA?AVPxVec3@3@IMM@Z 000000018001aaf0 f i GuContactCapsuleMesh.obj
 0001:00019b40       ?getNormalAtShapePoint@HeightFieldUtil@Gu@physx@@QEBA?AVPxVec3@3@MM@Z 000000018001ab40 f i GuContactCapsuleMesh.obj
 0001:00019c00       ?getNormal_2@HeightField@Gu@physx@@QEBA?AVPxVec3@3@IMMMMM@Z 000000018001ac00 f i GuContactCapsuleMesh.obj
 0001:00019d10       ?getOneOverColumnScale@HeightFieldUtil@Gu@physx@@QEBAMXZ 000000018001ad10 f i GuContactCapsuleMesh.obj
 0001:00019d20       ?getOneOverHeightScale@HeightFieldUtil@Gu@physx@@QEBAMXZ 000000018001ad20 f i GuContactCapsuleMesh.obj
 0001:00019d30       ?getOneOverRowScale@HeightFieldUtil@Gu@physx@@QEBAMXZ 000000018001ad30 f i GuContactCapsuleMesh.obj
 0001:00019d40       ?getPaddedBounds@HeightFieldData@Gu@physx@@QEBAAEBVCenterExtentsPadded@23@XZ 000000018001ad40 f i GuContactCapsuleMesh.obj
 0001:00019d50       ?getSample@HeightField@Gu@physx@@UEBAAEBUPxHeightFieldSample@3@II@Z 000000018001ad50 f i GuContactCapsuleMesh.obj
 0001:00019d60       ?getSampleStride@HeightField@Gu@physx@@UEBAIXZ 000000018001ad60 f i GuContactCapsuleMesh.obj
 0001:00019d70       ?getThickness@HeightField@Gu@physx@@UEBAMXZ 000000018001ad70 f i GuContactCapsuleMesh.obj
 0001:00019d80       ?getTimestamp@HeightField@Gu@physx@@UEBAIXZ 000000018001ad80 f i GuContactCapsuleMesh.obj
 0001:00019d90       ?getTriangleMaterialIndex@HeightField@Gu@physx@@UEBAGI@Z 000000018001ad90 f i GuContactCapsuleMesh.obj
 0001:00019dc0       ?getTriangleNormal@HeightField@Gu@physx@@UEBA?AVPxVec3@3@I@Z 000000018001adc0 f i GuContactCapsuleMesh.obj
 0001:00019de0       ?getTriangleNormalInternal@HeightField@Gu@physx@@QEBA?AVPxVec3@3@I@Z 000000018001ade0 f i GuContactCapsuleMesh.obj
 0001:00019f40       ?getVertexNormal@HeightFieldUtil@Gu@physx@@QEBA?AVPxVec3@3@I@Z 000000018001af40 f i GuContactCapsuleMesh.obj
 0001:00019f80       ?hf2shapen@HeightFieldUtil@Gu@physx@@QEBA?AVPxVec3@3@AEBV43@@Z 000000018001af80 f i GuContactCapsuleMesh.obj
 0001:00019fc0       ?hf2shapep@HeightFieldUtil@Gu@physx@@QEBA?AVPxVec3@3@AEBV43@@Z 000000018001afc0 f i GuContactCapsuleMesh.obj
 0001:0001a000       ?hf2worldn@HeightFieldUtil@Gu@physx@@QEBA?AVPxVec3@3@AEBVPxTransform@3@AEBV43@@Z 000000018001b000 f i GuContactCapsuleMesh.obj
 0001:0001a170       ?hf2worldp@HeightFieldUtil@Gu@physx@@QEBA?AVPxVec3@3@AEBVPxTransform@3@AEBV43@@Z 000000018001b170 f i GuContactCapsuleMesh.obj
 0001:0001a2f0       ?initialize@HeightFieldUtil@Gu@physx@@QEAAXAEBVPxHeightFieldGeometry@3@AEBVHeightField@23@@Z 000000018001b2f0 f i GuContactCapsuleMesh.obj
 0001:0001a330       ?initialize@HeightFieldUtil@Gu@physx@@QEAAXXZ 000000018001b330 f i GuContactCapsuleMesh.obj
 0001:0001a360       ?isCollisionVertex@HeightFieldUtil@Gu@physx@@QEBA_NIII@Z 000000018001b360 f i GuContactCapsuleMesh.obj
 0001:0001a380       ?isKindOf@PxHeightField@physx@@MEBA_NPEBD@Z 000000018001b380 f i GuContactCapsuleMesh.obj
 0001:0001a3d0       ?isQueryVertex@HeightFieldUtil@Gu@physx@@QEBA_NIII@Z 000000018001b3d0 f i GuContactCapsuleMesh.obj
 0001:0001a490       ?isShapePointOnHeightField@HeightFieldUtil@Gu@physx@@QEBA_NMM@Z 000000018001b490 f i GuContactCapsuleMesh.obj
 0001:0001a4e0       ?makeFeatureCode@HeightFieldUtil@Gu@physx@@SAIIW4Feature@123@@Z 000000018001b4e0 f i GuContactCapsuleMesh.obj
 0001:0001a4f0       ?preExportDataReset@HeightField@Gu@physx@@QEAAXXZ 000000018001b4f0 f i GuContactCapsuleMesh.obj
 0001:0001a9e0       ?shape2hfp@HeightFieldUtil@Gu@physx@@QEBA?AVPxVec3@3@AEBV43@@Z 000000018001b9e0 f i GuContactCapsuleMesh.obj
 0001:0001aa20       ?transformFast@PxBounds3@physx@@SA?AV12@AEBVPxTransform@2@AEBV12@@Z 000000018001ba20 f i GuContactCapsuleMesh.obj
 0001:0001ae00       ?transformQueryBounds@FastVertex2ShapeScaling@Cm@physx@@QEBAXAEAVPxVec3@3@0AEAVPxMat33@3@@Z 000000018001be00 f i GuContactCapsuleMesh.obj
 0001:0001b040       ?contactBoxConvex@Gu@physx@@YA_NAEBVGeometryUnion@12@0AEBVPxTransform@2@1AEBUNarrowPhaseParams@12@AEAUCache@12@AEAVContactBuffer@12@PEAVRenderOutput@Cm@2@@Z 000000018001c040 f   GuContactConvexConvex.obj
 0001:0001b1e0       ?contactConvexConvex@Gu@physx@@YA_NAEBVGeometryUnion@12@0AEBVPxTransform@2@1AEBUNarrowPhaseParams@12@AEAUCache@12@AEAVContactBuffer@12@PEAVRenderOutput@Cm@2@@Z 000000018001c1e0 f   GuContactConvexConvex.obj
 0001:0001b330       ??0SeparatingAxes@Gu@physx@@QEAA@$$QEAV012@@Z 000000018001c330 f i GuContactConvexConvex.obj
 0001:0001b440       ??0SeparatingAxes@Gu@physx@@QEAA@AEBV012@@Z 000000018001c440 f i GuContactConvexConvex.obj
 0001:0001b550       ??0SeparatingAxes@Gu@physx@@QEAA@XZ 000000018001c550 f i GuContactConvexConvex.obj
 0001:0001b560       ??4SeparatingAxes@Gu@physx@@QEAAAEAV012@$$QEAV012@@Z 000000018001c560 f i GuContactConvexConvex.obj
 0001:0001b670       ??4SeparatingAxes@Gu@physx@@QEAAAEAV012@AEBV012@@Z 000000018001c670 f i GuContactConvexConvex.obj
 0001:0001fb00       ?getAxes@SeparatingAxes@Gu@physx@@QEBAPEBVPxVec3@3@XZ 0000000180020b00 f i GuContactConvexConvex.obj
 0001:0001fb10       ?getNumAxes@SeparatingAxes@Gu@physx@@QEBAIXZ 0000000180020b10 f i GuContactConvexConvex.obj
 0001:0001fe20       ?reset@SeparatingAxes@Gu@physx@@QEAAXXZ 0000000180020e20 f i GuContactConvexConvex.obj
 0001:0001fe30       ?transformPlaneToShapeSpace@FastVertex2ShapeScaling@Cm@physx@@QEBAXAEBVPxVec3@3@MAEAV43@AEAM@Z 0000000180020e30 f i GuContactConvexConvex.obj
 0001:0001ff20       ?contactBoxMesh@Gu@physx@@YA_NAEBVGeometryUnion@12@0AEBVPxTransform@2@1AEBUNarrowPhaseParams@12@AEAUCache@12@AEAVContactBuffer@12@PEAVRenderOutput@Cm@2@@Z 0000000180020f20 f   GuContactConvexMesh.obj
 0001:000200e0       ?contactConvexMesh@Gu@physx@@YA_NAEBVGeometryUnion@12@0AEBVPxTransform@2@1AEBUNarrowPhaseParams@12@AEAUCache@12@AEAVContactBuffer@12@PEAVRenderOutput@Cm@2@@Z 00000001800210e0 f   GuContactConvexMesh.obj
 0001:00020290       ?contactBoxHeightfield@Gu@physx@@YA_NAEBVGeometryUnion@12@0AEBVPxTransform@2@1AEBUNarrowPhaseParams@12@AEAUCache@12@AEAVContactBuffer@12@PEAVRenderOutput@Cm@2@@Z 0000000180021290 f   GuContactConvexMesh.obj
 0001:000203f0       ?contactConvexHeightfield@Gu@physx@@YA_NAEBVGeometryUnion@12@0AEBVPxTransform@2@1AEBUNarrowPhaseParams@12@AEAUCache@12@AEAVContactBuffer@12@PEAVRenderOutput@Cm@2@@Z 00000001800213f0 f   GuContactConvexMesh.obj
 0001:00020990       ??0?$CacheMap@UCachedEdge@Gu@physx@@$0IA@@Gu@physx@@QEAA@XZ 0000000180021990 f i GuContactConvexMesh.obj
 0001:00020a50       ??0?$CacheMap@UCachedVertex@Gu@physx@@$0IA@@Gu@physx@@QEAA@XZ 0000000180021a50 f i GuContactConvexMesh.obj
 0001:00020b10       ??0CachedEdge@Gu@physx@@QEAA@XZ 0000000180021b10 f i GuContactConvexMesh.obj
 0001:00020b20       ??0CachedVertex@Gu@physx@@QEAA@XZ 0000000180021b20 f i GuContactConvexMesh.obj
 0001:00021040       ??_EConvexMeshContactGenerationCallback@@UEAAPEAXI@Z 0000000180022040 f i GuContactConvexMesh.obj
 0001:00021040       ??_GConvexMeshContactGenerationCallback@@UEAAPEAXI@Z 0000000180022040 f i GuContactConvexMesh.obj
 0001:00021070       ?addData@?$CacheMap@UCachedEdge@Gu@physx@@$0IA@@Gu@physx@@QEAA_NAEBUCachedEdge@23@@Z 0000000180022070 f i GuContactConvexMesh.obj
 0001:00021150       ?addData@?$CacheMap@UCachedVertex@Gu@physx@@$0IA@@Gu@physx@@QEAA_NAEBUCachedVertex@23@@Z 0000000180022150 f i GuContactConvexMesh.obj
 0001:000211e0       ?allocate@?$ReflectionAllocator@I@shdfnd@physx@@QEAAPEAX_KPEBDH@Z 00000001800221e0 f i GuContactConvexMesh.obj
 0001:000246d0       ?processHit@ConvexMeshContactGenerationCallback@@UEAA_NAEBUPxRaycastHit@physx@@AEBVPxVec3@3@11AEAMPEBI@Z 00000001800256d0 f i GuContactConvexMesh.obj
 0001:00025000       ?recreate@?$Array@IV?$InlineAllocator@$0BBAA@V?$ReflectionAllocator@I@shdfnd@physx@@@shdfnd@physx@@@shdfnd@physx@@IEAAXI@Z 0000000180026000 f i GuContactConvexMesh.obj
 0001:00026090       ?contactPlaneBox@Gu@physx@@YA_NAEBVGeometryUnion@12@0AEBVPxTransform@2@1AEBUNarrowPhaseParams@12@AEAUCache@12@AEAVContactBuffer@12@PEAVRenderOutput@Cm@2@@Z 0000000180027090 f   GuContactPlaneBox.obj
 0001:00026cc0       ?contactPlaneCapsule@Gu@physx@@YA_NAEBVGeometryUnion@12@0AEBVPxTransform@2@1AEBUNarrowPhaseParams@12@AEAUCache@12@AEAVContactBuffer@12@PEAVRenderOutput@Cm@2@@Z 0000000180027cc0 f   GuContactPlaneCapsule.obj
 0001:000272e0       ?contactPlaneConvex@Gu@physx@@YA_NAEBVGeometryUnion@12@0AEBVPxTransform@2@1AEBUNarrowPhaseParams@12@AEAUCache@12@AEAVContactBuffer@12@PEAVRenderOutput@Cm@2@@Z 00000001800282e0 f   GuContactPlaneConvex.obj
 0001:00027bc0       ?findRotationMatrixFromZ@Gu@physx@@YA?AVPxMat33@2@AEBVPxVec3@2@@Z 0000000180028bc0 f   GuContactPolygonPolygon.obj
 0001:00027e00       ?contactPolygonPolygonExt@Gu@physx@@YA_NIPEBVPxVec3@2@PEBEAEBVMatrix34@Cm@2@AEBVPxPlane@2@AEBVPxMat33@2@I01234AEBV32@22IIAEAVContactBuffer@12@_N5M@Z 0000000180028e00 f   GuContactPolygonPolygon.obj
 0001:0002b1b0       ?contactSphereBox@Gu@physx@@YA_NAEBVGeometryUnion@12@0AEBVPxTransform@2@1AEBUNarrowPhaseParams@12@AEAUCache@12@AEAVContactBuffer@12@PEAVRenderOutput@Cm@2@@Z 000000018002c1b0 f   GuContactSphereBox.obj
 0001:0002b770       ?contactSphereCapsule@Gu@physx@@YA_NAEBVGeometryUnion@12@0AEBVPxTransform@2@1AEBUNarrowPhaseParams@12@AEAUCache@12@AEAVContactBuffer@12@PEAVRenderOutput@Cm@2@@Z 000000018002c770 f   GuContactSphereCapsule.obj
 0001:0002bb10       ?contactSphereMesh@Gu@physx@@YA_NAEBVGeometryUnion@12@0AEBVPxTransform@2@1AEBUNarrowPhaseParams@12@AEAUCache@12@AEAVContactBuffer@12@PEAVRenderOutput@Cm@2@@Z 000000018002cb10 f   GuContactSphereMesh.obj
 0001:0002ccd0       ?contactSphereHeightfield@Gu@physx@@YA_NAEBVGeometryUnion@12@0AEBVPxTransform@2@1AEBUNarrowPhaseParams@12@AEAUCache@12@AEAVContactBuffer@12@PEAVRenderOutput@Cm@2@@Z 000000018002dcd0 f   GuContactSphereMesh.obj
 0001:0002dfb0       ??0TriangleData@@QEAA@XZ   000000018002efb0 f i GuContactSphereMesh.obj
 0001:0002f310       ?contactSpherePlane@Gu@physx@@YA_NAEBVGeometryUnion@12@0AEBVPxTransform@2@1AEBUNarrowPhaseParams@12@AEAUCache@12@AEAVContactBuffer@12@PEAVRenderOutput@Cm@2@@Z 0000000180030310 f   GuContactSpherePlane.obj
 0001:0002f510       ?contactSphereSphere@Gu@physx@@YA_NAEBVGeometryUnion@12@0AEBVPxTransform@2@1AEBUNarrowPhaseParams@12@AEAUCache@12@AEAVContactBuffer@12@PEAVRenderOutput@Cm@2@@Z 0000000180030510 f   GuContactSphereSphere.obj
 0001:0002f680       ?selectNormal@Gu@physx@@YA_NEMM@Z 0000000180030680 f   GuFeatureCode.obj
 0001:0002f700       ?legacyContactBoxHeightfield@Gu@physx@@YA_NAEBVGeometryUnion@12@0AEBVPxTransform@2@1AEBUNarrowPhaseParams@12@AEAUCache@12@AEAVContactBuffer@12@PEAVRenderOutput@Cm@2@@Z 0000000180030700 f   GuLegacyContactBoxHeightField.obj
 0001:000315a0       ??$traceSegment@UGuContactTraceSegmentCallback@Gu@physx@@$00$0A@@HeightFieldTraceUtil@Gu@physx@@QEBAXAEBVPxVec3@2@0MPEAUGuContactTraceSegmentCallback@12@AEBVPxBounds3@2@_NPEBV32@@Z 00000001800325a0 f i GuLegacyContactBoxHeightField.obj
 0001:000322c0       ?underFaceHit@GuContactTraceSegmentCallback@Gu@physx@@QEAA_NAEBVHeightFieldUtil@23@AEBVPxVec3@3@1MMMI@Z 00000001800332c0 f i GuLegacyContactBoxHeightField.obj
 0001:00032690       ?legacyContactCapsuleHeightfield@Gu@physx@@YA_NAEBVGeometryUnion@12@0AEBVPxTransform@2@1AEBUNarrowPhaseParams@12@AEAUCache@12@AEAVContactBuffer@12@PEAVRenderOutput@Cm@2@@Z 0000000180033690 f   GuLegacyContactCapsuleHeightField.obj
 0001:00034520       ?legacyContactConvexHeightfield@Gu@physx@@YA_NAEBVGeometryUnion@12@0AEBVPxTransform@2@1AEBUNarrowPhaseParams@12@AEAUCache@12@AEAVContactBuffer@12@PEAVRenderOutput@Cm@2@@Z 0000000180035520 f   GuLegacyContactConvexHeightField.obj
 0001:000367f0       ?legacyContactSphereHeightfield@Gu@physx@@YA_NAEBVGeometryUnion@12@0AEBVPxTransform@2@1AEBUNarrowPhaseParams@12@AEAUCache@12@AEAVContactBuffer@12@PEAVRenderOutput@Cm@2@@Z 00000001800377f0 f   GuLegacyContactSphereHeightField.obj
 0001:00036840       ?GuContactSphereHeightFieldShared@@YA_NAEBVGeometryUnion@Gu@physx@@0AEBVPxTransform@3@1AEBUNarrowPhaseParams@23@AEAUCache@23@AEAVContactBuffer@23@PEAVRenderOutput@Cm@3@_N@Z 0000000180037840 f   GuLegacyContactSphereHeightField.obj
 0001:000380e0       ?barycentricCoordinates@Gu@physx@@YAXAEBT__m128@@00AEAT3@@Z 00000001800390e0 f   GuBarycentricCoordinates.obj
 0001:00038150       ?barycentricCoordinates@Gu@physx@@YAXAEBT__m128@@000AEAT3@1@Z 0000000180039150 f   GuBarycentricCoordinates.obj
 0001:000382a0       ?barycentricCoordinates@Gu@physx@@YAXAEBT__m128@@00AEAT3@1@Z 00000001800392a0 f   GuBarycentricCoordinates.obj
 0001:00038390       ?addAxis@SeparatingAxes@Gu@physx@@QEAA_NAEBVPxVec3@3@@Z 0000000180039390 f   GuSeparatingAxes.obj
 0001:00038450       ??0BigConvexData@physx@@QEAA@XZ 0000000180039450 f   GuBigConvexData.obj
 0001:00038480       ??1BigConvexData@physx@@QEAA@XZ 0000000180039480 f   GuBigConvexData.obj
 0001:00038510       ?Load@BigConvexData@physx@@QEAA_NAEAVPxInputStream@2@@Z 0000000180039510 f   GuBigConvexData.obj
 0001:00038620       ?ComputeOffset@BigConvexData@physx@@QEBAIAEBVPxVec3@2@@Z 0000000180039620 f   GuBigConvexData.obj
 0001:00038720       ?ComputeNearestOffset@BigConvexData@physx@@QEBAIAEBVPxVec3@2@@Z 0000000180039720 f   GuBigConvexData.obj
 0001:00038830       ?exportExtraData@BigConvexData@physx@@QEAAXAEAVPxSerializationContext@2@@Z 0000000180039830 f   GuBigConvexData.obj
 0001:000388b0       ?importExtraData@BigConvexData@physx@@QEAAXAEAVPxDeserializationContext@2@@Z 00000001800398b0 f   GuBigConvexData.obj
 0001:00038920       ?CreateOffsets@BigConvexData@physx@@IEAAXXZ 0000000180039920 f   GuBigConvexData.obj
 0001:00038970       ?VLoad@BigConvexData@physx@@IEAA_NAEAVPxInputStream@2@@Z 0000000180039970 f   GuBigConvexData.obj
 0001:00038b10       ??0BigConvexData@physx@@QEAA@W4PxEMPTY@1@@Z 0000000180039b10 f i GuBigConvexData.obj
 0001:00038b20       ??4BigConvexData@physx@@QEAAAEAV01@AEBV01@@Z 0000000180039b20 f i GuBigConvexData.obj
 0001:00038b40       ?GetAdjacentVerts@BigConvexData@physx@@QEBAPEBEXZ 0000000180039b40 f i GuBigConvexData.obj
 0001:00038b50       ?GetNbNeighbors@BigConvexData@physx@@QEBAGI@Z 0000000180039b50 f i GuBigConvexData.obj
 0001:00038b60       ?GetNbSamples@BigConvexData@physx@@QEBAIXZ 0000000180039b60 f i GuBigConvexData.obj
 0001:00038b70       ?GetNbVerts@BigConvexData@physx@@QEBAIXZ 0000000180039b70 f i GuBigConvexData.obj
 0001:00038b80       ?GetNeighbors@BigConvexData@physx@@QEBAPEBEI@Z 0000000180039b80 f i GuBigConvexData.obj
 0001:00038b90       ?GetOffset@BigConvexData@physx@@QEBAGI@Z 0000000180039b90 f i GuBigConvexData.obj
 0001:00038ba0       ?GetSubdiv@BigConvexData@physx@@QEBAIXZ 0000000180039ba0 f i GuBigConvexData.obj
 0001:00038bb0       ?GetValencies@BigConvexData@physx@@QEBAPEBUValency@Gu@2@XZ 0000000180039bb0 f i GuBigConvexData.obj
 0001:00038bc0       ?GetValency@BigConvexData@physx@@QEBAGI@Z 0000000180039bc0 f i GuBigConvexData.obj
 0001:00038bd0       ?__global_array_delete@@YAXPEAX@Z 0000000180039bd0 f i GuBigConvexData.obj
 0001:00038be0       ?__global_array_delete@@YAXPEAX_K@Z 0000000180039be0 f i GuBigConvexData.obj
 0001:00038bf0       ?__global_delete@@YAXPEAX@Z 0000000180039bf0 f i GuBigConvexData.obj
 0001:00038c00       ?__global_delete@@YAXPEAX_K@Z 0000000180039c00 f i GuBigConvexData.obj
 0001:00038c10       ?getScaledConvex@Gu@physx@@YAXAEAPEAVPxVec3@2@AEAPEAEPEAV32@PEAE_NPEBV32@PEBEIAEBVFastVertex2ShapeScaling@Cm@2@@Z 0000000180039c10 f   GuConvexHelper.obj
 0001:00038d50       ?getConvexData@Gu@physx@@YA_NAEBVGeometryUnion@12@AEAVFastVertex2ShapeScaling@Cm@2@AEAVPxBounds3@2@AEAUPolygonalData@12@@Z 0000000180039d50 f   GuConvexHelper.obj
 0001:00038fe0       ?findUniqueConvexEdges@Gu@physx@@YAIIPEIAUConvexEdge@12@IPEIBUHullPolygonData@12@PEIBE@Z 0000000180039fe0 f   GuConvexHelper.obj
 0001:00039120       ?exportExtraData@ConvexMesh@Gu@physx@@UEAAXAEAVPxSerializationContext@3@@Z 000000018003a120 f   GuConvexMesh.obj
 0001:000391f0       ?importExtraData@ConvexMesh@Gu@physx@@QEAAXAEAVPxDeserializationContext@3@@Z 000000018003a1f0 f   GuConvexMesh.obj
 0001:000392b0       ?onRefCountZero@ConvexMesh@Gu@physx@@UEAAXXZ 000000018003a2b0 f   GuConvexMesh.obj
 0001:000393b0       ?createObject@ConvexMesh@Gu@physx@@SAPEAV123@AEAPEAEAEAVPxDeserializationContext@3@@Z 000000018003a3b0 f   GuConvexMesh.obj
 0001:00039410       ??0ConvexMesh@Gu@physx@@QEAA@XZ 000000018003a410 f   GuConvexMesh.obj
 0001:000394c0       ??0ConvexMesh@Gu@physx@@QEAA@AEAVGuMeshFactory@2@AEAUConvexHullData@12@@Z 000000018003a4c0 f   GuConvexMesh.obj
 0001:000395c0       ?load@ConvexMesh@Gu@physx@@QEAA_NAEAVPxInputStream@3@@Z 000000018003a5c0 f   GuConvexMesh.obj
 0001:00039870       ?release@ConvexMesh@Gu@physx@@UEAAXXZ 000000018003a870 f   GuConvexMesh.obj
 0001:000398b0       ?getPolygonData@ConvexMesh@Gu@physx@@UEBA_NIAEAUPxHullPolygon@3@@Z 000000018003a8b0 f   GuConvexMesh.obj
 0001:00039900       ?isGpuCompatible@ConvexMesh@Gu@physx@@UEBA_NXZ 000000018003a900 f   GuConvexMesh.obj
 0001:00039930       ?getReferenceCount@ConvexMesh@Gu@physx@@UEBAIXZ 000000018003a930 f   GuConvexMesh.obj
 0001:00039940       ?acquireReference@ConvexMesh@Gu@physx@@UEAAXXZ 000000018003a940 f   GuConvexMesh.obj
 0001:00039950       ?getMassInformation@ConvexMesh@Gu@physx@@UEBAXAEAMAEAVPxMat33@3@AEAVPxVec3@3@@Z 000000018003a950 f   GuConvexMesh.obj
 0001:000399d0       ?getLocalBounds@ConvexMesh@Gu@physx@@UEBA?AVPxBounds3@3@XZ 000000018003a9d0 f   GuConvexMesh.obj
 0001:00039a60       ??1ConvexMesh@Gu@physx@@UEAA@XZ 000000018003aa60 f   GuConvexMesh.obj
 0001:00039fb0       ?notifyReleaseConvexMesh@GuMeshFactory@physx@@MEAAXAEBVPxConvexMesh@2@@Z 000000018003afb0 f i GuConvexMesh.obj
 0001:00039fc0       ?notifyReleaseHeightField@GuMeshFactory@physx@@MEAAXAEBVPxHeightField@2@@Z 000000018003afc0 f i GuConvexMesh.obj
 0001:00039fd0       ?notifyReleaseTriangleMesh@GuMeshFactory@physx@@MEAAXAEBVPxTriangleMesh@2@@Z 000000018003afd0 f i GuConvexMesh.obj
 0001:00039fe0       ?computeHullOBB@Gu@physx@@YAXAEAVBox@12@AEBVPxBounds3@2@MAEBVMatrix34@Cm@2@2AEBVFastVertex2ShapeScaling@62@_N@Z 000000018003afe0 f   GuConvexUtilsInternal.obj
 0001:0003a4a0       ?computeVertexSpaceOBB@Gu@physx@@YAXAEAVBox@12@AEBV312@AEBVPxTransform@2@AEBVPxMeshScale@2@@Z 000000018003b4a0 f   GuConvexUtilsInternal.obj
 0001:0003a860       ?computeOBBAroundConvex@Gu@physx@@YAXAEAVBox@12@AEBVPxConvexMeshGeometry@2@PEBVPxConvexMesh@2@AEBVPxTransform@2@@Z 000000018003b860 f   GuConvexUtilsInternal.obj
 0001:0003b170       ??Dphysx@@YA?AVMatrix34@Cm@0@AEBVPxMeshScale@0@AEBV120@@Z 000000018003c170 f i GuConvexUtilsInternal.obj
 0001:0003b740       ?transform@physx@@YA?AVBox@Gu@1@AEBVMatrix34@Cm@1@AEBV231@@Z 000000018003c740 f i GuConvexUtilsInternal.obj
 0001:0003b990       ?localSearch@physx@@YAXAEAIAEBVPxVec3@1@PEBV21@PEBUBigConvexRawData@Gu@1@@Z 000000018003c990 f   GuHillClimbing.obj
 0001:0003bac0       ??0PolygonalBox@Gu@physx@@QEAA@AEBVPxVec3@2@@Z 000000018003cac0 f   GuShapeConvex.obj
 0001:0003bc90       ?getPolygonalData@PolygonalBox@Gu@physx@@QEBAXPEIAUPolygonalData@23@@Z 000000018003cc90 f   GuShapeConvex.obj
 0001:0003bd00       ?getPolygonalData_Convex@Gu@physx@@YAXPEIAUPolygonalData@12@PEIBUConvexHullData@12@AEBVFastVertex2ShapeScaling@Cm@2@@Z 000000018003cd00 f   GuShapeConvex.obj
 0001:0003d180       ??0HullPolygonData@Gu@physx@@QEAA@XZ 000000018003e180 f i GuShapeConvex.obj
 0001:0003d190       ?distancePointBoxSquared@Gu@physx@@YAMAEBVPxVec3@2@00AEBVPxMat33@2@PEAV32@@Z 000000018003e190 f   GuDistancePointBox.obj
 0001:0003d2e0       ?closestPtPointTriangle@Gu@physx@@YA?AVPxVec3@2@AEBV32@000AEAM1@Z 000000018003e2e0 f   GuDistancePointTriangle.obj
 0001:0003d800       ?distancePointTriangleSquared@Gu@physx@@YA?AT__m128@@AEBT3@000AEAT3@11@Z 000000018003e800 f   GuDistancePointTriangle.obj
 0001:0003dc00       ?distanceSegmentBoxSquared@Gu@physx@@YAMAEBVPxVec3@2@000AEBVPxMat33@2@PEAMPEAV32@@Z 000000018003ec00 f   GuDistanceSegmentBox.obj
 0001:0003edd0       ?distanceSegmentSegmentSquared@Gu@physx@@YAMAEBVPxVec3@2@0M00MPEAM1@Z 000000018003fdd0 f   GuDistanceSegmentSegment.obj
 0001:0003f520       ?distanceSegmentSegmentSquared@Gu@physx@@YAMAEBVPxVec3@2@000PEAM1@Z 0000000180040520 f   GuDistanceSegmentSegment.obj
 0001:0003f7c0       ?distanceSegmentSegmentSquared@Gu@physx@@YA?AT__m128@@AEBT3@000AEAT3@1@Z 00000001800407c0 f   GuDistanceSegmentSegment.obj
 0001:0003f990       ?distanceSegmentSegmentSquared4@Gu@physx@@YA?AT__m128@@AEBT3@000000000AEAT3@1@Z 0000000180040990 f   GuDistanceSegmentSegment.obj
 0001:0003fca0       ?distanceSegmentTriangleSquared@Gu@physx@@YAMAEBVPxVec3@2@0000PEAM11@Z 0000000180040ca0 f   GuDistanceSegmentTriangle.obj
 0001:00041320       ?distanceSegmentTriangleSquared@Gu@physx@@YA?AT__m128@@AEBT3@0000AEAT3@1@Z 0000000180042320 f   GuDistanceSegmentTriangle.obj
 0001:00041a60       ?sweepBoxBox@Gu@physx@@YA_NAEBVBox@12@0AEBVPxVec3@2@MV?$PxFlags@W4Enum@PxHitFlag@physx@@G@2@AEAUPxSweepHit@2@@Z 0000000180042a60 f   GuSweepBoxBox.obj
 0001:00043060       ?sweepBoxSphere@Gu@physx@@YA_NAEBVBox@12@MAEBVPxVec3@2@1MAEAMAEAV42@V?$PxFlags@W4Enum@PxHitFlag@physx@@G@2@@Z 0000000180044060 f   GuSweepBoxSphere.obj
 0001:00043b70       ?sweepBoxTriangle@Gu@physx@@YA_NAEBVPxTriangle@2@AEBVPxBounds3@2@AEBVPxVec3@2@2AEAV52@3AEAM_N@Z 0000000180044b70 f   GuSweepBoxTriangle_FeatureBased.obj
 0001:00045440       ?triBoxSweepTestBoxSpace@Gu@physx@@YAHAEBVPxTriangle@2@AEBVPxVec3@2@11MAEAM_N@Z 0000000180046440 f   GuSweepBoxTriangle_SAT.obj
 0001:00045d80       ?sweepCapsuleBox@Gu@physx@@YA_NAEBVCapsule@12@AEBVPxTransform@2@AEBVPxVec3@2@2MAEAV52@AEAM3V?$PxFlags@W4Enum@PxHitFlag@physx@@G@2@@Z 0000000180046d80 f   GuSweepCapsuleBox.obj
 0001:00046100       ??0PxTriangle@physx@@QEAA@XZ 0000000180047100 f i GuSweepCapsuleBox.obj
 0001:00046110       ??1PxTriangle@physx@@QEAA@XZ 0000000180047110 f i GuSweepCapsuleBox.obj
 0001:000470e0       ?sweepCapsuleCapsule@Gu@physx@@YA_NAEBVCapsule@12@0AEBVPxVec3@2@MAEAMAEAV42@3IAEAG@Z 00000001800480e0 f   GuSweepCapsuleCapsule.obj
 0001:00047ef0       ??0Capsule@Gu@physx@@QEAA@XZ 0000000180048ef0 f i GuSweepCapsuleCapsule.obj
 0001:00047f00       ??1Capsule@Gu@physx@@QEAA@XZ 0000000180048f00 f i GuSweepCapsuleCapsule.obj
 0001:00047f10       ?distancePointSegmentSquared@Gu@physx@@YAMAEBVSegment@12@AEBVPxVec3@2@PEAM@Z 0000000180048f10 f i GuSweepCapsuleCapsule.obj
 0001:00048290       ?sweepCapsuleTriangles_Precise@Gu@physx@@YA_NIPEIBVPxTriangle@2@AEBVCapsule@12@AEBVPxVec3@2@MPEIBIAEAUPxSweepHit@2@AEAV52@V?$PxFlags@W4Enum@PxHitFlag@physx@@G@2@_NPEBVBoxPadded@12@@Z 0000000180049290 f   GuSweepCapsuleTriangle.obj
 0001:0004a420       ?sweepSphereCapsule@Gu@physx@@YA_NAEBVSphere@12@AEBVCapsule@12@AEBVPxVec3@2@MAEAMAEAV52@4V?$PxFlags@W4Enum@PxHitFlag@physx@@G@2@@Z 000000018004b420 f   GuSweepSphereCapsule.obj
 0001:0004aac0       ?sweepSphereSphere@Gu@physx@@YA_NAEBVPxVec3@2@M0M0AEAMAEAV32@@Z 000000018004bac0 f   GuSweepSphereSphere.obj
 0001:0004ad30       ?sweepSphereVSTri@Gu@physx@@YA_NPEIBVPxVec3@2@AEBV32@1M1AEAMAEA_N_N@Z 000000018004bd30 f   GuSweepSphereTriangle.obj
 0001:0004bc10       ?sweepSphereVSQuad@Gu@physx@@YA_NPEIBVPxVec3@2@AEBV32@1M1AEAM@Z 000000018004cc10 f   GuSweepSphereTriangle.obj
 0001:0004d170       ?sweepSphereTriangles@Gu@physx@@YA_NIPEIBVPxTriangle@2@AEBVPxVec3@2@M1MPEIBIAEAUPxSweepHit@2@AEAV42@_N555@Z 000000018004e170 f   GuSweepSphereTriangle.obj
 0001:0004da40       ?computeSphereTriImpactData@Gu@physx@@YAXAEAVPxVec3@2@0AEBV32@1MAEBVPxTriangle@2@@Z 000000018004ea40 f   GuSweepTriangleUtils.obj
 0001:0004dce0       ?computeBoxTriImpactData@Gu@physx@@YAXAEAVPxVec3@2@0AEBV32@1AEBVPxTriangle@2@M@Z 000000018004ece0 f   GuSweepTriangleUtils.obj
 0001:0004df70       ?computeEdgeEdgeNormal@Gu@physx@@YAXAEAVPxVec3@2@AEBV32@1111M@Z 000000018004ef70 f   GuSweepTriangleUtils.obj
 0001:0004e230       ??$gjk@U?$LocalConvex@VTriangleV@Gu@physx@@@Gu@physx@@U?$LocalConvex@VBoxV@Gu@physx@@@23@@Gu@physx@@YA?AW4GjkStatus@01@AEBU?$LocalConvex@VTriangleV@Gu@physx@@@01@AEBU?$LocalConvex@VBoxV@Gu@physx@@@01@AEBT__m128@@2AEAT5@333@Z 000000018004f230 f i GuSweepTriangleUtils.obj
 0001:0004ef20       ??_E?$LocalConvex@VBoxV@Gu@physx@@@Gu@physx@@UEAAPEAXI@Z 000000018004ff20 f i GuSweepTriangleUtils.obj
 0001:0004ef20       ??_G?$LocalConvex@VBoxV@Gu@physx@@@Gu@physx@@UEAAPEAXI@Z 000000018004ff20 f i GuSweepTriangleUtils.obj
 0001:0004ef50       ??_E?$LocalConvex@VTriangleV@Gu@physx@@@Gu@physx@@UEAAPEAXI@Z 000000018004ff50 f i GuSweepTriangleUtils.obj
 0001:0004ef50       ??_G?$LocalConvex@VTriangleV@Gu@physx@@@Gu@physx@@UEAAPEAXI@Z 000000018004ff50 f i GuSweepTriangleUtils.obj
 0001:0004ef80       ?getCenter@?$LocalConvex@VBoxV@Gu@physx@@@Gu@physx@@UEBA?AT__m128@@XZ 000000018004ff80 f i GuSweepTriangleUtils.obj
 0001:0004ef90       ?getCenter@?$LocalConvex@VTriangleV@Gu@physx@@@Gu@physx@@UEBA?AT__m128@@XZ 000000018004ff90 f i GuSweepTriangleUtils.obj
 0001:0004efa0       ?getSweepMargin@?$LocalConvex@VBoxV@Gu@physx@@@Gu@physx@@UEBA?AT__m128@@XZ 000000018004ffa0 f i GuSweepTriangleUtils.obj
 0001:0004efc0       ?getSweepMargin@?$LocalConvex@VTriangleV@Gu@physx@@@Gu@physx@@UEBA?AT__m128@@XZ 000000018004ffc0 f i GuSweepTriangleUtils.obj
 0001:0004f230       ?support@?$LocalConvex@VBoxV@Gu@physx@@@Gu@physx@@UEBA?AT__m128@@AEBT4@@Z 0000000180050230 f i GuSweepTriangleUtils.obj
 0001:0004f260       ?support@?$LocalConvex@VBoxV@Gu@physx@@@Gu@physx@@UEBA?AT__m128@@AEBT4@AEAHPEAT4@@Z 0000000180050260 f i GuSweepTriangleUtils.obj
 0001:0004f2a0       ?support@?$LocalConvex@VTriangleV@Gu@physx@@@Gu@physx@@UEBA?AT__m128@@AEBT4@@Z 00000001800502a0 f i GuSweepTriangleUtils.obj
 0001:0004f330       ?support@?$LocalConvex@VTriangleV@Gu@physx@@@Gu@physx@@UEBA?AT__m128@@AEBT4@AEAHPEAT4@@Z 0000000180050330 f i GuSweepTriangleUtils.obj
 0001:0004f410       ?supportPoint@?$LocalConvex@VBoxV@Gu@physx@@@Gu@physx@@UEBA?AT__m128@@HPEAT4@@Z 0000000180050410 f i GuSweepTriangleUtils.obj
 0001:0004f450       ?supportPoint@?$LocalConvex@VTriangleV@Gu@physx@@@Gu@physx@@UEBA?AT__m128@@HPEAT4@@Z 0000000180050450 f i GuSweepTriangleUtils.obj
 0001:0004f470       ?epaPenetration@Gu@physx@@YA?AW4GjkStatus@12@AEBUGjkConvex@12@0PEIAE1EAEAT__m128@@222_N@Z 0000000180050470 f   GuEPA.obj
 0001:00050360       ?isValid2@Facet@Gu@physx@@QEAA?AT__m128@@IIIPEIBT4@0AEBT4@@Z 0000000180051360 f   GuEPA.obj
 0001:00050450       ?silhouette@Facet@Gu@physx@@QEAAXAEBT__m128@@PEIBT4@1AEAVEdgeBuffer@23@AEAV?$InlineDeferredIDPool@$0EA@@Cm@3@@Z 0000000180051450 f   GuEPA.obj
 0001:00050620       ?PenetrationDepth@EPA@Gu@physx@@QEAA?AW4GjkStatus@23@AEBUGjkConvex@23@0PEIBT__m128@@11HAEAT6@222_N@Z 0000000180051620 f   GuEPA.obj
 0001:00051140       ?expandPoint@EPA@Gu@physx@@QEAA_NAEBUGjkConvex@23@0AEAHAEBT__m128@@@Z 0000000180052140 f   GuEPA.obj
 0001:00051230       ?expandSegment@EPA@Gu@physx@@QEAA_NAEBUGjkConvex@23@0AEAHAEBT__m128@@@Z 0000000180052230 f   GuEPA.obj
 0001:000513c0       ?expandTriangle@EPA@Gu@physx@@QEAA_NAEAHAEBT__m128@@@Z 00000001800523c0 f   GuEPA.obj
 0001:00051470       ?addFacet@EPA@Gu@physx@@QEAAPEAVFacet@23@IIIAEBT__m128@@@Z 0000000180052470 f   GuEPA.obj
 0001:00051640       ??0Edge@Gu@physx@@QEAA@XZ  0000000180052640 f i GuEPA.obj
 0001:00051650       ??0Facet@Gu@physx@@QEAA@XZ 0000000180052650 f i GuEPA.obj
 0001:00051920       ?closestPtPointTetrahedron@Gu@physx@@YA?AT__m128@@PEIAT3@00AEAI@Z 0000000180052920 f   GuGJKSimplex.obj
 0001:000520a0       ?closestPtPointTetrahedron@Gu@physx@@YA?AT__m128@@PEIAT3@00PEIAH1AEAI@Z 00000001800530a0 f   GuGJKSimplex.obj
 0001:00053b50       ?testGjk@Gu@physx@@YA?AW4GjkStatus@12@AEAUGjkConvex@12@0AEBT__m128@@1AEAT5@222@Z 0000000180054b50 f   GuGJKTest.obj
 0001:00053b60       ?testGjkPenetration@Gu@physx@@YA?AW4GjkStatus@12@AEAUGjkConvex@12@0AEBT__m128@@1AEAT5@222@Z 0000000180054b60 f   GuGJKTest.obj
 0001:00053bf0       ?testGjkPenetration@Gu@physx@@YA?AW4GjkStatus@12@AEAUGjkConvex@12@0AEBT__m128@@1AEAT5@222PEAE3E@Z 0000000180054bf0 f   GuGJKTest.obj
 0001:00053c80       ?testEpaPenetration@Gu@physx@@YA?AW4GjkStatus@12@AEAUGjkConvex@12@0AEAT__m128@@111@Z 0000000180054c80 f   GuGJKTest.obj
 0001:00053cf0       ?testEpaPenetration@Gu@physx@@YA?AW4GjkStatus@12@AEAUGjkConvex@12@0AEAT__m128@@111PEAE2E@Z 0000000180054cf0 f   GuGJKTest.obj
 0001:00053d70       ?testGjkRaycast@Gu@physx@@YA_NAEAUGjkConvex@12@0AEBT__m128@@111AEAT4@22M@Z 0000000180054d70 f   GuGJKTest.obj
 0001:00053d80       ??$gjk@UGjkConvex@Gu@physx@@U123@@Gu@physx@@YA?AW4GjkStatus@01@AEBUGjkConvex@01@0AEBT__m128@@1AEAT4@222@Z 0000000180054d80 f i GuGJKTest.obj
 0001:000549a0       ??$gjkPenetration@UGjkConvex@Gu@physx@@U123@@Gu@physx@@YA?AW4GjkStatus@01@AEBUGjkConvex@01@0AEBT__m128@@1AEAT4@222PEIAE3AEAE_N@Z 00000001800559a0 f i GuGJKTest.obj
 0001:00055f70       ??$gjkRaycast@UGjkConvex@Gu@physx@@U123@@Gu@physx@@YA_NAEBUGjkConvex@01@0AEBT__m128@@111AEAT3@22M@Z 0000000180056f70 f i GuGJKTest.obj
 0001:00056b00       ?intersectOBBOBB@Gu@physx@@YA_NAEBVPxVec3@2@0AEBVPxMat33@2@001_N@Z 0000000180057b00 f   GuIntersectionBoxBox.obj
 0001:00057150       ?intersectCapsuleTriangle@Gu@physx@@YA_NAEBVPxVec3@2@000AEBVCapsule@12@AEBUCapsuleTriangleOverlapData@12@@Z 0000000180058150 f   GuIntersectionCapsuleTriangle.obj
 0001:00057d40       ?intersectEdgeEdge@Gu@physx@@YA_NAEBVPxVec3@2@0000AEAMAEAV32@@Z 0000000180058d40 f   GuIntersectionEdgeEdge.obj
 0001:00058060       ?rayAABBIntersect@Gu@physx@@YA_NAEBVPxVec3@2@000AEAV32@@Z 0000000180059060 f   GuIntersectionRayBox.obj
 0001:00058260       ?rayAABBIntersect2@Gu@physx@@YAIAEBVPxVec3@2@000AEAV32@AEAM@Z 0000000180059260 f   GuIntersectionRayBox.obj
 0001:00058470       ?intersectRayAABB@Gu@physx@@YAHAEBVPxVec3@2@000AEAM1@Z 0000000180059470 f   GuIntersectionRayBox.obj
 0001:00058590       ?intersectRayAABB@Gu@physx@@YAHAEBVPxVec3@2@0000AEAM1@Z 0000000180059590 f   GuIntersectionRayBox.obj
 0001:00058780       ?intersectRayAABB2@Gu@physx@@YA_NAEBVPxVec3@2@000MAEAM1@Z 0000000180059780 f   GuIntersectionRayBox.obj
 0001:00058930       ?intersectRayAABB2@Gu@physx@@YA_NAEBT__m128@@0000AEAT3@1@Z 0000000180059930 f   GuIntersectionRayBox.obj
 0001:000589f0       ?intersectRayCapsuleInternal@Gu@physx@@YAIAEBVPxVec3@2@000MQEAM@Z 00000001800599f0 f   GuIntersectionRayCapsule.obj
 0001:00059270       ?intersectRaySphereBasic@Gu@physx@@YA_NAEBVPxVec3@2@0M0MAEAMPEAV32@@Z 000000018005a270 f   GuIntersectionRaySphere.obj
 0001:000593d0       ?intersectRaySphere@Gu@physx@@YA_NAEBVPxVec3@2@0M0MAEAMPEAV32@@Z 000000018005a3d0 f   GuIntersectionRaySphere.obj
 0001:00059610       ?intersectSphereBox@Gu@physx@@YA_NAEBVSphere@12@AEBVBox@12@@Z 000000018005a610 f   GuIntersectionSphereBox.obj
 0001:00059840       ?intersectTriangleBox_ReferenceCode@Gu@physx@@YAHAEBVPxVec3@2@0000@Z 000000018005a840 f   GuIntersectionTriangleBox.obj
 0001:0005a020       ?intersectTriangleBox_Unsafe@Gu@physx@@YAHAEBVPxVec3@2@0000@Z 000000018005b020 f   GuIntersectionTriangleBox.obj
 0001:0005a400       ?intersectTriangleBox@Gu@physx@@YAHAEBVBoxPadded@12@AEBVPxVec3@2@11@Z 000000018005b400 f   GuIntersectionTriangleBox.obj
 0001:0005a9e0       ?intersectTriangleBoxBV4@@YAHAEBVPxVec3@physx@@00AEBVPxMat33@2@00@Z 000000018005b9e0 f   GuIntersectionTriangleBox.obj
 0001:0005ae20       ??0BV32Tree@Gu@physx@@QEAA@W4PxEMPTY@2@@Z 000000018005be20 f   GuBV32.obj
 0001:0005ae40       ?exportExtraData@BV32Tree@Gu@physx@@QEAAXAEAVPxSerializationContext@3@@Z 000000018005be40 f   GuBV32.obj
 0001:0005ae90       ?importExtraData@BV32Tree@Gu@physx@@QEAAXAEAVPxDeserializationContext@3@@Z 000000018005be90 f   GuBV32.obj
 0001:0005aec0       ??0BV32Tree@Gu@physx@@QEAA@XZ 000000018005bec0 f   GuBV32.obj
 0001:0005aef0       ??0BV32Tree@Gu@physx@@QEAA@PEAVSourceMesh@12@AEBVPxBounds3@2@@Z 000000018005bef0 f   GuBV32.obj
 0001:0005afb0       ??1BV32Tree@Gu@physx@@QEAA@XZ 000000018005bfb0 f   GuBV32.obj
 0001:0005afc0       ?load@BV32Tree@Gu@physx@@QEAA_NAEAVPxInputStream@3@_N@Z 000000018005bfc0 f   GuBV32.obj
 0001:0005b1e0       ?calculateLeafNode@BV32Tree@Gu@physx@@QEAAXAEAUBV32Data@23@@Z 000000018005c1e0 f   GuBV32.obj
 0001:0005b430       ?createSOAformatNode@BV32Tree@Gu@physx@@QEAAXAEAUBV32DataPacked@23@AEBUBV32Data@23@IAEAI2@Z 000000018005c430 f   GuBV32.obj
 0001:0005b880       ?reset@BV32Tree@Gu@physx@@QEAAXXZ 000000018005c880 f   GuBV32.obj
 0001:0005b8a0       ??4BV32Tree@Gu@physx@@QEAAXAEAV012@@Z 000000018005c8a0 f   GuBV32.obj
 0001:0005b900       ?init@BV32Tree@Gu@physx@@QEAA_NPEAVSourceMesh@23@AEBVPxBounds3@3@@Z 000000018005c900 f   GuBV32.obj
 0001:0005b9a0       ?release@BV32Tree@Gu@physx@@QEAAXXZ 000000018005c9a0 f   GuBV32.obj
 0001:0005ba30       ?BuildBV32Ex@Gu@physx@@YA_NAEAVBV32Tree@12@AEAVSourceMesh@12@MI@Z 000000018005ca30 f   GuBV32Build.obj
 0001:0005bbf0       ??0BV32Data@Gu@physx@@QEAA@XZ 000000018005cbf0 f i GuBV32Build.obj
 0001:0005bc20       ??0BV32Node@@QEAA@XZ       000000018005cc20 f i GuBV32Build.obj
 0001:0005cca0       ??0SourceMesh@Gu@physx@@QEAA@XZ 000000018005dca0 f   GuBV4.obj
 0001:0005ccd0       ??1SourceMesh@Gu@physx@@QEAA@XZ 000000018005dcd0 f   GuBV4.obj
 0001:0005cd30       ?reset@SourceMesh@Gu@physx@@QEAAXXZ 000000018005dd30 f   GuBV4.obj
 0001:0005cd50       ??4SourceMesh@Gu@physx@@QEAAXAEAV012@@Z 000000018005dd50 f   GuBV4.obj
 0001:0005cda0       ?remapTopology@SourceMesh@Gu@physx@@QEAAXPEBI@Z 000000018005dda0 f   GuBV4.obj
 0001:0005d070       ?isValid@SourceMesh@Gu@physx@@QEBA_NXZ 000000018005e070 f   GuBV4.obj
 0001:0005d0a0       ??0BV4Tree@Gu@physx@@QEAA@W4PxEMPTY@2@@Z 000000018005e0a0 f   GuBV4.obj
 0001:0005d0b0       ?exportExtraData@BV4Tree@Gu@physx@@QEAAXAEAVPxSerializationContext@3@@Z 000000018005e0b0 f   GuBV4.obj
 0001:0005d100       ?importExtraData@BV4Tree@Gu@physx@@QEAAXAEAVPxDeserializationContext@3@@Z 000000018005e100 f   GuBV4.obj
 0001:0005d130       ??0BV4Tree@Gu@physx@@QEAA@XZ 000000018005e130 f   GuBV4.obj
 0001:0005d160       ??0BV4Tree@Gu@physx@@QEAA@PEAVSourceMesh@12@AEBVPxBounds3@2@@Z 000000018005e160 f   GuBV4.obj
 0001:0005d230       ??1BV4Tree@Gu@physx@@QEAA@XZ 000000018005e230 f   GuBV4.obj
 0001:0005d290       ?load@BV4Tree@Gu@physx@@QEAA_NAEAVPxInputStream@3@_N@Z 000000018005e290 f   GuBV4.obj
 0001:0005d510       ?reset@BV4Tree@Gu@physx@@QEAAXXZ 000000018005e510 f   GuBV4.obj
 0001:0005d540       ??4BV4Tree@Gu@physx@@QEAAXAEAV012@@Z 000000018005e540 f   GuBV4.obj
 0001:0005d5d0       ?init@BV4Tree@Gu@physx@@QEAA_NPEAVSourceMesh@23@AEBVPxBounds3@3@@Z 000000018005e5d0 f   GuBV4.obj
 0001:0005d670       ?release@BV4Tree@Gu@physx@@QEAAXXZ 000000018005e670 f   GuBV4.obj
 0001:0005d6d0       ??0IndTri16@Gu@physx@@QEAA@XZ 000000018005e6d0 f i GuBV4.obj
 0001:0005d6e0       ??0IndTri32@Gu@physx@@QEAA@XZ 000000018005e6e0 f i GuBV4.obj
 0001:0005d6f0       ??1IndTri16@Gu@physx@@QEAA@XZ 000000018005e6f0 f i GuBV4.obj
 0001:0005d700       ??1IndTri32@Gu@physx@@QEAA@XZ 000000018005e700 f i GuBV4.obj
 0001:0005d710       ??_EIndTri16@Gu@physx@@QEAAPEAXI@Z 000000018005e710 f i GuBV4.obj
 0001:0005d790       ??_EIndTri32@Gu@physx@@QEAAPEAXI@Z 000000018005e790 f i GuBV4.obj
 0001:0005d810       ??0AABBTree@Gu@physx@@QEAA@XZ 000000018005e810 f   GuBV4Build.obj
 0001:0005d830       ??1AABBTree@Gu@physx@@QEAA@XZ 000000018005e830 f   GuBV4Build.obj
 0001:0005d840       ?buildFromMesh@AABBTree@Gu@physx@@QEAA_NAEAVSourceMesh@23@I@Z 000000018005e840 f   GuBV4Build.obj
 0001:0005dc70       ?release@AABBTree@Gu@physx@@QEAAXXZ 000000018005ec70 f   GuBV4Build.obj
 0001:0005dd20       ?walk@AABBTree@Gu@physx@@QEBAIP6A_NPEBVAABBTreeNode@23@IPEAX@Z1@Z 000000018005ed20 f   GuBV4Build.obj
 0001:0005dde0       ?BuildBV4Ex@Gu@physx@@YA_NAEAVBV4Tree@12@AEAVSourceMesh@12@MI@Z 000000018005ede0 f   GuBV4Build.obj
 0001:0005e080       ??0BVData@@QEAA@XZ         000000018005f080 f   GuBV4Build.obj
 0001:0005e0c0       ??1BV4BuildParams@@QEAA@XZ 000000018005f0c0 f   GuBV4Build.obj
 0001:0005e0d0       ?allocateNode@BV4BuildParams@@QEAAPEAUBV4Node@@XZ 000000018005f0d0 f   GuBV4Build.obj
 0001:0005e1f0       ?releaseNodes@BV4BuildParams@@QEAAXXZ 000000018005f1f0 f   GuBV4Build.obj
 0001:0005e2b0       ??0AABBTreeNode@Gu@physx@@QEAA@XZ 000000018005f2b0 f i GuBV4Build.obj
 0001:0005e2d0       ??0BV4Node@@QEAA@XZ        000000018005f2d0 f i GuBV4Build.obj
 0001:0005e380       ??1AABBTreeNode@Gu@physx@@QEAA@XZ 000000018005f380 f i GuBV4Build.obj
 0001:0005e390       ??1BV4Node@@QEAA@XZ        000000018005f390 f i GuBV4Build.obj
 0001:0005e3a0       ??1BVData@@QEAA@XZ         000000018005f3a0 f i GuBV4Build.obj
 0001:0005e3b0       ??_EAABBTreeNode@Gu@physx@@QEAAPEAXI@Z 000000018005f3b0 f i GuBV4Build.obj
 0001:00060030       ?Sweep_AABB_BV4@@YAHAEBVBox@Gu@physx@@AEBVPxVec3@3@MAEBVBV4Tree@23@PEIAVSweepHit@23@I@Z 0000000180061030 f   GuBV4_AABBSweep.obj
 0001:00060570       ?Sweep_AABB_BV4_CB@@YAXAEBVBox@Gu@physx@@AEBVPxVec3@3@MAEBVBV4Tree@23@PEIBVPxMat44@3@P6A_NPEAXAEBVSweepHit@23@@Z4I_N@Z 0000000180061570 f   GuBV4_AABBSweep.obj
 0001:00060710       ?GenericSweep_AABB_CB@@YAXAEBVBox@Gu@physx@@AEBVPxVec3@3@MAEBVBV4Tree@23@P6A_NPEAX111IAEAM@Z3I@Z 0000000180061710 f   GuBV4_AABBSweep.obj
 0001:00067580       ?transform@PxMat44@physx@@QEBA?BVPxVec4@2@AEBV32@@Z 0000000180068580 f i GuBV4_AABBSweep.obj
 0001:000682c0       ?BV4_OverlapBoxAny@@YAHAEBVBox@Gu@physx@@AEBVBV4Tree@23@PEIBVPxMat44@3@@Z 00000001800692c0 f   GuBV4_BoxOverlap.obj
 0001:00068ab0       ?BV4_OverlapBoxAll@@YAIAEBVBox@Gu@physx@@AEBVBV4Tree@23@PEIBVPxMat44@3@PEAIIAEA_N@Z 0000000180069ab0 f   GuBV4_BoxOverlap.obj
 0001:000692f0       ?BV4_OverlapBoxCB@@YAXAEBVBox@Gu@physx@@AEBVBV4Tree@23@P6A_NPEAXAEBVPxVec3@3@33IPEBI@Z2@Z 000000018006a2f0 f   GuBV4_BoxOverlap.obj
 0001:000697b0       ?BV4_OverlapCapsuleAny@@YAHAEBVCapsule@Gu@physx@@AEBVBV4Tree@23@PEIBVPxMat44@3@@Z 000000018006a7b0 f   GuBV4_BoxOverlap.obj
 0001:00069e60       ?BV4_OverlapCapsuleAll@@YAIAEBVCapsule@Gu@physx@@AEBVBV4Tree@23@PEIBVPxMat44@3@PEAIIAEA_N@Z 000000018006ae60 f   GuBV4_BoxOverlap.obj
 0001:0006a570       ?BV4_OverlapCapsuleCB@@YAXAEBVCapsule@Gu@physx@@AEBVBV4Tree@23@PEIBVPxMat44@3@P6A_NPEAXAEBVPxVec3@3@44IPEBI@Z3@Z 000000018006b570 f   GuBV4_BoxOverlap.obj
 0001:0006ece0       ?BV4_CapsuleSweepSingle@@YAHAEBVCapsule@Gu@physx@@AEBVPxVec3@3@MAEBVBV4Tree@23@PEIAVSweepHit@23@I@Z 000000018006fce0 f   GuBV4_CapsuleSweep.obj
 0001:0006f320       ?BV4_CapsuleSweepCB@@YAXAEBVCapsule@Gu@physx@@AEBVPxVec3@3@MAEBVBV4Tree@23@PEIBVPxMat44@3@P6A_NPEAXAEBVSweepHit@23@@Z4I_N@Z 0000000180070320 f   GuBV4_CapsuleSweep.obj
 0001:00074f20       ?computeBasis@shdfnd@physx@@YAXAEBVPxVec3@2@0AEAV32@11@Z 0000000180075f20 f i GuBV4_CapsuleSweep.obj
 0001:000765c0       ?transform@PxMat44@physx@@QEBA?BVPxVec3@2@AEBV32@@Z 00000001800775c0 f i GuBV4_CapsuleSweep.obj
 0001:000773d0       ?BV4_CapsuleSweepSingleAA@@YAHAEBVCapsule@Gu@physx@@AEBVPxVec3@3@MAEBVBV4Tree@23@PEIAVSweepHit@23@I@Z 00000001800783d0 f   GuBV4_CapsuleSweepAA.obj
 0001:0007a440       ?Sweep_OBB_BV4@@YAHAEBVBox@Gu@physx@@AEBVPxVec3@3@MAEBVBV4Tree@23@PEIAVSweepHit@23@I@Z 000000018007b440 f   GuBV4_OBBSweep.obj
 0001:0007a970       ?Sweep_OBB_BV4_CB@@YAXAEBVBox@Gu@physx@@AEBVPxVec3@3@MAEBVBV4Tree@23@PEIBVPxMat44@3@P6A_NPEAXAEBVSweepHit@23@@Z4I_N@Z 000000018007b970 f   GuBV4_OBBSweep.obj
 0001:0007ab00       ?GenericSweep_OBB_CB@@YAXAEBVBox@Gu@physx@@AEBVPxVec3@3@MAEBVBV4Tree@23@P6A_NPEAX111IAEAM@Z3I@Z 000000018007bb00 f   GuBV4_OBBSweep.obj
 0001:0007ac10       ?BV4_BoxSweepSingle@@YAHAEBVBox@Gu@physx@@AEBVPxVec3@3@MAEBVBV4Tree@23@PEIBVPxMat44@3@PEIAVSweepHit@23@I@Z 000000018007bc10 f   GuBV4_OBBSweep.obj
 0001:0007b340       ?BV4_BoxSweepCB@@YAXAEBVBox@Gu@physx@@AEBVPxVec3@3@MAEBVBV4Tree@23@PEIBVPxMat44@3@P6A_NPEAXAEBVSweepHit@23@@Z4I_N@Z 000000018007c340 f   GuBV4_OBBSweep.obj
 0001:0007bbe0       ?BV4_GenericSweepCB@@YAXAEBVBox@Gu@physx@@AEBVPxVec3@3@MAEBVBV4Tree@23@P6A_NPEAX111IAEAM@Z3_N@Z 000000018007cbe0 f   GuBV4_OBBSweep.obj
 0001:00083060       ??DPxMat33@physx@@QEBA?BVPxVec3@1@AEBV21@@Z 0000000180084060 f i GuBV4_OBBSweep.obj
 0001:00084920       ?BV4_RaycastSingle@@YAHAEBVPxVec3@physx@@0AEBVBV4Tree@Gu@2@PEIBVPxMat44@2@PEIAUPxRaycastHit@2@MMIV?$PxFlags@W4Enum@PxHitFlag@physx@@G@2@@Z 0000000180085920 f   GuBV4_Raycast.obj
 0001:00084ea0       ?BV4_RaycastCB@@YAXAEBVPxVec3@physx@@0AEBVBV4Tree@Gu@2@PEIBVPxMat44@2@MMIP6A?AW4HitCode@42@PEAX000IMMM@Z3@Z 0000000180085ea0 f   GuBV4_Raycast.obj
 0001:000852d0       ?BV4_RaycastAll@@YAIAEBVPxVec3@physx@@0AEBVBV4Tree@Gu@2@PEIBVPxMat44@2@PEIAUPxRaycastHit@2@IMMIV?$PxFlags@W4Enum@PxHitFlag@physx@@G@2@@Z 00000001800862d0 f   GuBV4_Raycast.obj
 0001:00087c40       ?BV4_OverlapSphereAny@@YAHAEBVSphere@Gu@physx@@AEBVBV4Tree@23@PEIBVPxMat44@3@@Z 0000000180088c40 f   GuBV4_SphereOverlap.obj
 0001:00087f00       ?BV4_OverlapSphereAll@@YAIAEBVSphere@Gu@physx@@AEBVBV4Tree@23@PEIBVPxMat44@3@PEAIIAEA_N@Z 0000000180088f00 f   GuBV4_SphereOverlap.obj
 0001:00088220       ?BV4_OverlapSphereCB@@YAXAEBVSphere@Gu@physx@@AEBVBV4Tree@23@PEIBVPxMat44@3@P6A_NPEAXAEBVPxVec3@3@44IPEBI@Z3@Z 0000000180089220 f   GuBV4_SphereOverlap.obj
 0001:0008b300       ?BV4_SphereSweepSingle@@YAHAEBVSphere@Gu@physx@@AEBVPxVec3@3@MAEBVBV4Tree@23@PEIBVPxMat44@3@PEIAVSweepHit@23@I@Z 000000018008c300 f   GuBV4_SphereSweep.obj
 0001:0008b9e0       ?BV4_SphereSweepCB@@YAXAEBVSphere@Gu@physx@@AEBVPxVec3@3@MAEBVBV4Tree@23@PEIBVPxMat44@3@P6A_NPEAXAEBVSweepHit@23@@Z4I_N@Z 000000018008c9e0 f   GuBV4_SphereSweep.obj
 0001:0008bdc0       ?BV4_GenericSweepCB_Old@@YAXAEBVPxVec3@physx@@00MAEBVBV4Tree@Gu@2@PEIBVPxMat44@2@P6A_NPEAX000IAEAM@Z3@Z 000000018008cdc0 f   GuBV4_SphereSweep.obj
 0001:00090aa0       ?getTriangle@PxMeshQuery@physx@@SAXAEBVPxTriangleMeshGeometry@2@AEBVPxTransform@2@IAEAVPxTriangle@2@PEAI3@Z 0000000180091aa0 f   GuMeshQuery.obj
 0001:00090e60       ?getTriangle@PxMeshQuery@physx@@SAXAEBVPxHeightFieldGeometry@2@AEBVPxTransform@2@IAEAVPxTriangle@2@PEAI3@Z 0000000180091e60 f   GuMeshQuery.obj
 0001:00090ee0       ?findOverlapTriangleMesh@PxMeshQuery@physx@@SAIAEBVPxGeometry@2@AEBVPxTransform@2@AEBVPxTriangleMeshGeometry@2@1PEAIIIAEA_N@Z 0000000180091ee0 f   GuMeshQuery.obj
 0001:000911d0       ?findOverlapHeightField@PxMeshQuery@physx@@SAIAEBVPxGeometry@2@AEBVPxTransform@2@AEBVPxHeightFieldGeometry@2@1PEAIIIAEA_N@Z 00000001800921d0 f   GuMeshQuery.obj
 0001:000918f0       ?sweep@PxMeshQuery@physx@@SA_NAEBVPxVec3@2@MAEBVPxGeometry@2@AEBVPxTransform@2@IPEBVPxTriangle@2@AEAUPxSweepHit@2@V?$PxFlags@W4Enum@PxHitFlag@physx@@G@2@PEBIM_N@Z 00000001800928f0 f   GuMeshQuery.obj
 0001:00091b70       ?intersectOBB_Particles@Gu@physx@@YAXPEBVTriangleMesh@12@AEBVBox@12@AEAU?$MeshHitCallback@UPxRaycastHit@physx@@@12@_N3@Z 0000000180092b70 f   GuMeshQuery.obj
 0001:00091d10       ??Dphysx@@YA?AVMatrix34@Cm@0@AEBVPxTransform@0@AEBVPxMeshScale@0@@Z 0000000180092d10 f i GuMeshQuery.obj
 0001:00092360       ?raycast_triangleMesh_BV4@Gu@physx@@YAIPEBVTriangleMesh@12@AEBVPxTriangleMeshGeometry@2@AEBVPxTransform@2@AEBVPxVec3@2@3MV?$PxFlags@W4Enum@PxHitFlag@physx@@G@2@IPEIAUPxRaycastHit@2@@Z 0000000180093360 f   GuMidphaseBV4.obj
 0001:00093150       ?intersectSphereVsMesh_BV4@Gu@physx@@YA_NAEBVSphere@12@AEBVTriangleMesh@12@AEBVPxTransform@2@AEBVPxMeshScale@2@PEAULimitedResults@12@@Z 0000000180094150 f   GuMidphaseBV4.obj
 0001:00093890       ?intersectBoxVsMesh_BV4@Gu@physx@@YA_NAEBVBox@12@AEBVTriangleMesh@12@AEBVPxTransform@2@AEBVPxMeshScale@2@PEAULimitedResults@12@@Z 0000000180094890 f   GuMidphaseBV4.obj
 0001:00094380       ?intersectCapsuleVsMesh_BV4@Gu@physx@@YA_NAEBVCapsule@12@AEBVTriangleMesh@12@AEBVPxTransform@2@AEBVPxMeshScale@2@PEAULimitedResults@12@@Z 0000000180095380 f   GuMidphaseBV4.obj
 0001:00094bc0       ?intersectOBB_BV4@Gu@physx@@YAXPEBVTriangleMesh@12@AEBVBox@12@AEAU?$MeshHitCallback@UPxRaycastHit@physx@@@12@_N3@Z 0000000180095bc0 f   GuMidphaseBV4.obj
 0001:00094bf0       ?sweepCapsule_MeshGeom_BV4@Gu@physx@@YA_NPEBVTriangleMesh@12@AEBVPxTriangleMeshGeometry@2@AEBVPxTransform@2@AEBVCapsule@12@AEBVPxVec3@2@MAEAUPxSweepHit@2@V?$PxFlags@W4Enum@PxHitFlag@physx@@G@2@M@Z 0000000180095bf0 f   GuMidphaseBV4.obj
 0001:00095710       ?sweepBox_MeshGeom_BV4@Gu@physx@@YA_NPEBVTriangleMesh@12@AEBVPxTriangleMeshGeometry@2@AEBVPxTransform@2@AEBVBox@12@AEBVPxVec3@2@MAEAUPxSweepHit@2@V?$PxFlags@W4Enum@PxHitFlag@physx@@G@2@M@Z 0000000180096710 f   GuMidphaseBV4.obj
 0001:00096e30       ?sweepConvex_MeshGeom_BV4@Gu@physx@@YAXPEBVTriangleMesh@12@AEBVBox@12@AEBVPxVec3@2@MAEAUSweepConvexMeshHitCallback@12@_N@Z 0000000180097e30 f   GuMidphaseBV4.obj
 0001:00097fa0       ??0PxVec4@physx@@QEAA@XZ   0000000180098fa0 f i GuMidphaseBV4.obj
 0001:00097fb0       ??1SweepBoxMeshHitCallback@Gu@physx@@UEAA@XZ 0000000180098fb0 f i GuMidphaseBV4.obj
 0001:000987c0       ?computeSweepData@physx@@YAMAEBVPxTriangleMeshGeometry@1@AEAVPxVec3@1@11M@Z 00000001800997c0 f i GuMidphaseBV4.obj
 0001:00098b50       ?transform@PxMeshScale@physx@@QEBA?AVPxVec3@2@AEBV32@@Z 0000000180099b50 f i GuMidphaseBV4.obj
 0001:00098d90       ?raycast_triangleMesh_RTREE@Gu@physx@@YAIPEBVTriangleMesh@12@AEBVPxTriangleMeshGeometry@2@AEBVPxTransform@2@AEBVPxVec3@2@3MV?$PxFlags@W4Enum@PxHitFlag@physx@@G@2@IPEIAUPxRaycastHit@2@@Z 0000000180099d90 f   GuMidphaseRTree.obj
 0001:00099530       ?intersectSphereVsMesh_RTREE@Gu@physx@@YA_NAEBVSphere@12@AEBVTriangleMesh@12@AEBVPxTransform@2@AEBVPxMeshScale@2@PEAULimitedResults@12@@Z 000000018009a530 f   GuMidphaseRTree.obj
 0001:00099560       ?intersectBoxVsMesh_RTREE@Gu@physx@@YA_NAEBVBox@12@AEBVTriangleMesh@12@AEBVPxTransform@2@AEBVPxMeshScale@2@PEAULimitedResults@12@@Z 000000018009a560 f   GuMidphaseRTree.obj
 0001:000995e0       ?intersectCapsuleVsMesh_RTREE@Gu@physx@@YA_NAEBVCapsule@12@AEBVTriangleMesh@12@AEBVPxTransform@2@AEBVPxMeshScale@2@PEAULimitedResults@12@@Z 000000018009a5e0 f   GuMidphaseRTree.obj
 0001:00099660       ?intersectOBB_RTREE@Gu@physx@@YAXPEBVTriangleMesh@12@AEBVBox@12@AEAU?$MeshHitCallback@UPxRaycastHit@physx@@@12@_N3@Z 000000018009a660 f   GuMidphaseRTree.obj
 0001:00099690       ?sweepCapsule_MeshGeom_RTREE@Gu@physx@@YA_NPEBVTriangleMesh@12@AEBVPxTriangleMeshGeometry@2@AEBVPxTransform@2@AEBVCapsule@12@AEBVPxVec3@2@MAEAUPxSweepHit@2@V?$PxFlags@W4Enum@PxHitFlag@physx@@G@2@M@Z 000000018009a690 f   GuMidphaseRTree.obj
 0001:00099e90       ?sweepBox_MeshGeom_RTREE@Gu@physx@@YA_NPEBVTriangleMesh@12@AEBVPxTriangleMeshGeometry@2@AEBVPxTransform@2@AEBVBox@12@AEBVPxVec3@2@MAEAUPxSweepHit@2@V?$PxFlags@W4Enum@PxHitFlag@physx@@G@2@M@Z 000000018009ae90 f   GuMidphaseRTree.obj
 0001:0009b360       ?sweepConvex_MeshGeom_RTREE@Gu@physx@@YAXPEBVTriangleMesh@12@AEBVBox@12@AEBVPxVec3@2@MAEAUSweepConvexMeshHitCallback@12@_N@Z 000000018009c360 f   GuMidphaseRTree.obj
 0001:0009b3c0       ?collideOBB@MeshRayCollider@@SAXAEBVBox@Gu@physx@@_NPEBVRTreeTriangleMesh@34@AEAU?$MeshHitCallback@UPxRaycastHit@physx@@@34@1@Z 000000018009c3c0 f   GuMidphaseRTree.obj
 0001:0009c760       ??$collide@$00$00@MeshRayCollider@@SAXAEBVPxVec3@physx@@0M_NPEBVRTreeTriangleMesh@Gu@2@AEAU?$MeshHitCallback@UPxRaycastHit@physx@@@42@PEBV12@@Z 000000018009d760 f i GuMidphaseRTree.obj
 0001:0009cae0       ??$collide@$00$0A@@MeshRayCollider@@SAXAEBVPxVec3@physx@@0M_NPEBVRTreeTriangleMesh@Gu@2@AEAU?$MeshHitCallback@UPxRaycastHit@physx@@@42@PEBV12@@Z 000000018009dae0 f i GuMidphaseRTree.obj
 0001:0009cd20       ??$collide@$0A@$00@MeshRayCollider@@SAXAEBVPxVec3@physx@@0M_NPEBVRTreeTriangleMesh@Gu@2@AEAU?$MeshHitCallback@UPxRaycastHit@physx@@@42@PEBV12@@Z 000000018009dd20 f i GuMidphaseRTree.obj
 0001:0009d0b0       ??$collide@$0A@$0A@@MeshRayCollider@@SAXAEBVPxVec3@physx@@0M_NPEBVRTreeTriangleMesh@Gu@2@AEAU?$MeshHitCallback@UPxRaycastHit@physx@@@42@PEBV12@@Z 000000018009e0b0 f i GuMidphaseRTree.obj
 0001:0009f480       ??0?$RayRTreeCallback@$00$0A@@@QEAA@MAEAU?$MeshHitCallback@UPxRaycastHit@physx@@@Gu@physx@@HPEBXPEBVPxVec3@3@AEBV43@3M_N2@Z 00000001800a0480 f i GuMidphaseRTree.obj
 0001:0009f5b0       ??1?$RayRTreeCallback@$00$00@@UEAA@XZ 00000001800a05b0 f i GuMidphaseRTree.obj
 0001:0009f640       ??1?$RayRTreeCallback@$00$0A@@@UEAA@XZ 00000001800a0640 f i GuMidphaseRTree.obj
 0001:0009f6d0       ??1?$RayRTreeCallback@$0A@$00@@UEAA@XZ 00000001800a06d0 f i GuMidphaseRTree.obj
 0001:0009f760       ??1?$RayRTreeCallback@$0A@$0A@@@UEAA@XZ 00000001800a0760 f i GuMidphaseRTree.obj
 0001:0009f7f0       ??1Callback@RTree@Gu@physx@@UEAA@XZ 00000001800a07f0 f i GuMidphaseRTree.obj
 0001:0009f800       ??1CallbackRaycast@RTree@Gu@physx@@UEAA@XZ 00000001800a0800 f i GuMidphaseRTree.obj
 0001:0009f80c       ??_E?$RayRTreeCallback@$00$00@@W7EAAPEAXI@Z 00000001800a080c f i GuMidphaseRTree.obj
 0001:0009f818       ??_E?$RayRTreeCallback@$00$0A@@@W7EAAPEAXI@Z 00000001800a0818 f i GuMidphaseRTree.obj
 0001:0009f824       ??_E?$RayRTreeCallback@$0A@$00@@W7EAAPEAXI@Z 00000001800a0824 f i GuMidphaseRTree.obj
 0001:0009f830       ??_E?$RayRTreeCallback@$0A@$0A@@@W7EAAPEAXI@Z 00000001800a0830 f i GuMidphaseRTree.obj
 0001:0009f840       ??_E?$RayRTreeCallback@$00$00@@UEAAPEAXI@Z 00000001800a0840 f i GuMidphaseRTree.obj
 0001:0009f840       ??_G?$RayRTreeCallback@$00$00@@UEAAPEAXI@Z 00000001800a0840 f i GuMidphaseRTree.obj
 0001:0009f880       ??_E?$RayRTreeCallback@$00$0A@@@UEAAPEAXI@Z 00000001800a0880 f i GuMidphaseRTree.obj
 0001:0009f880       ??_G?$RayRTreeCallback@$00$0A@@@UEAAPEAXI@Z 00000001800a0880 f i GuMidphaseRTree.obj
 0001:0009f8c0       ??_E?$RayRTreeCallback@$0A@$00@@UEAAPEAXI@Z 00000001800a08c0 f i GuMidphaseRTree.obj
 0001:0009f8c0       ??_G?$RayRTreeCallback@$0A@$00@@UEAAPEAXI@Z 00000001800a08c0 f i GuMidphaseRTree.obj
 0001:0009f900       ??_E?$RayRTreeCallback@$0A@$0A@@@UEAAPEAXI@Z 00000001800a0900 f i GuMidphaseRTree.obj
 0001:0009f900       ??_G?$RayRTreeCallback@$0A@$0A@@@UEAAPEAXI@Z 00000001800a0900 f i GuMidphaseRTree.obj
 0001:0009f940       ??_ECallback@RTree@Gu@physx@@UEAAPEAXI@Z 00000001800a0940 f i GuMidphaseRTree.obj
 0001:0009f940       ??_GCallback@RTree@Gu@physx@@UEAAPEAXI@Z 00000001800a0940 f i GuMidphaseRTree.obj
 0001:0009f970       ??_ECallbackRaycast@RTree@Gu@physx@@UEAAPEAXI@Z 00000001800a0970 f i GuMidphaseRTree.obj
 0001:0009f970       ??_GCallbackRaycast@RTree@Gu@physx@@UEAAPEAXI@Z 00000001800a0970 f i GuMidphaseRTree.obj
 0001:0009f9a0       ??_ERayMeshColliderCallback@@UEAAPEAXI@Z 00000001800a09a0 f i GuMidphaseRTree.obj
 0001:0009f9a0       ??_GRayMeshColliderCallback@@UEAAPEAXI@Z 00000001800a09a0 f i GuMidphaseRTree.obj
 0001:0009fbd0       ?processHit@RayMeshColliderCallback@@UEAA_NAEBUPxRaycastHit@physx@@AEBVPxVec3@3@11AEAMPEBI@Z 00000001800a0bd0 f i GuMidphaseRTree.obj
 0001:000a0350       ?processResults@?$RayRTreeCallback@$00$00@@UEAA_NIPEAI@Z 00000001800a1350 f i GuMidphaseRTree.obj
 0001:000a0700       ?processResults@?$RayRTreeCallback@$00$00@@UEAA_NIPEAIAEAM@Z 00000001800a1700 f i GuMidphaseRTree.obj
 0001:000a0aa0       ?processResults@?$RayRTreeCallback@$00$0A@@@UEAA_NIPEAI@Z 00000001800a1aa0 f i GuMidphaseRTree.obj
 0001:000a0d30       ?processResults@?$RayRTreeCallback@$00$0A@@@UEAA_NIPEAIAEAM@Z 00000001800a1d30 f i GuMidphaseRTree.obj
 0001:000a0ff0       ?processResults@?$RayRTreeCallback@$0A@$00@@UEAA_NIPEAI@Z 00000001800a1ff0 f i GuMidphaseRTree.obj
 0001:000a1660       ?processResults@?$RayRTreeCallback@$0A@$00@@UEAA_NIPEAIAEAM@Z 00000001800a2660 f i GuMidphaseRTree.obj
 0001:000a1ce0       ?processResults@?$RayRTreeCallback@$0A@$0A@@@UEAA_NIPEAI@Z 00000001800a2ce0 f i GuMidphaseRTree.obj
 0001:000a1f70       ?processResults@?$RayRTreeCallback@$0A@$0A@@@UEAA_NIPEAIAEAM@Z 00000001800a2f70 f i GuMidphaseRTree.obj
 0001:000a2230       ?profile@Callback@RTree@Gu@physx@@UEAAXXZ 00000001800a3230 f i GuMidphaseRTree.obj
 0001:000a2240       ?transformBoxOrthonormal@physx@@YA?AVBox@Gu@1@AEBV231@AEBVPxTransform@1@@Z 00000001800a3240 f i GuMidphaseRTree.obj
 0001:000a26d0       ?checkOverlapAABB_triangleGeom@Gu@physx@@YA_NAEBVPxGeometry@2@AEBVPxTransform@2@AEBVPxBounds3@2@@Z 00000001800a36d0 f   GuOverlapTestsMesh.obj
 0001:000a27e0       ?GeomOverlapCallback_SphereMesh@@YA_NAEBVPxGeometry@physx@@AEBVPxTransform@2@01PEAUTriggerCache@Gu@2@@Z 00000001800a37e0 f   GuOverlapTestsMesh.obj
 0001:000a2850       ?GeomOverlapCallback_CapsuleMesh@@YA_NAEBVPxGeometry@physx@@AEBVPxTransform@2@01PEAUTriggerCache@Gu@2@@Z 00000001800a3850 f   GuOverlapTestsMesh.obj
 0001:000a2970       ?GeomOverlapCallback_BoxMesh@@YA_NAEBVPxGeometry@physx@@AEBVPxTransform@2@01PEAUTriggerCache@Gu@2@@Z 00000001800a3970 f   GuOverlapTestsMesh.obj
 0001:000a2a80       ?GeomOverlapCallback_ConvexMesh@@YA_NAEBVPxGeometry@physx@@AEBVPxTransform@2@01PEAUTriggerCache@Gu@2@@Z 00000001800a3a80 f   GuOverlapTestsMesh.obj
 0001:000a3070       ??$gjk@U?$RelativeConvex@VTriangleV@Gu@physx@@@Gu@physx@@U?$LocalConvex@VConvexHullV@Gu@physx@@@23@@Gu@physx@@YA?AW4GjkStatus@01@AEBU?$RelativeConvex@VTriangleV@Gu@physx@@@01@AEBU?$LocalConvex@VConvexHullV@Gu@physx@@@01@AEBT__m128@@2AEAT5@333@Z 00000001800a4070 f i GuOverlapTestsMesh.obj
 0001:000a3f00       ??0ConvexVsMeshOverlapCallback@@QEAA@AEBVConvexMesh@Gu@physx@@AEBVPxMeshScale@3@AEBVFastVertex2ShapeScaling@Cm@3@AEBVPxTransform@3@3_NAEBVBox@23@@Z 00000001800a4f00 f i GuOverlapTestsMesh.obj
 0001:000a47b0       ??1ConvexVsMeshOverlapCallback@@UEAA@XZ 00000001800a57b0 f i GuOverlapTestsMesh.obj
 0001:000a47c0       ??_E?$RelativeConvex@VTriangleV@Gu@physx@@@Gu@physx@@UEAAPEAXI@Z 00000001800a57c0 f i GuOverlapTestsMesh.obj
 0001:000a47c0       ??_G?$RelativeConvex@VTriangleV@Gu@physx@@@Gu@physx@@UEAAPEAXI@Z 00000001800a57c0 f i GuOverlapTestsMesh.obj
 0001:000a47f0       ??_EConvexVsMeshOverlapCallback@@UEAAPEAXI@Z 00000001800a57f0 f i GuOverlapTestsMesh.obj
 0001:000a47f0       ??_GConvexVsMeshOverlapCallback@@UEAAPEAXI@Z 00000001800a57f0 f i GuOverlapTestsMesh.obj
 0001:000a4820       ?getCenter@?$RelativeConvex@VTriangleV@Gu@physx@@@Gu@physx@@UEBA?AT__m128@@XZ 00000001800a5820 f i GuOverlapTestsMesh.obj
 0001:000a4860       ?getSweepMargin@?$RelativeConvex@VTriangleV@Gu@physx@@@Gu@physx@@UEBA?AT__m128@@XZ 00000001800a5860 f i GuOverlapTestsMesh.obj
 0001:000a4870       ?processHit@ConvexVsMeshOverlapCallback@@UEAA_NAEBUPxRaycastHit@physx@@AEBVPxVec3@3@11AEAMPEBI@Z 00000001800a5870 f i GuOverlapTestsMesh.obj
 0001:000a4bf0       ?support@?$RelativeConvex@VTriangleV@Gu@physx@@@Gu@physx@@UEBA?AT__m128@@AEBT4@@Z 00000001800a5bf0 f i GuOverlapTestsMesh.obj
 0001:000a4cf0       ?support@?$RelativeConvex@VTriangleV@Gu@physx@@@Gu@physx@@UEBA?AT__m128@@AEBT4@AEAHPEAT4@@Z 00000001800a5cf0 f i GuOverlapTestsMesh.obj
 0001:000a4e30       ?supportPoint@?$RelativeConvex@VTriangleV@Gu@physx@@@Gu@physx@@UEBA?AT__m128@@HPEAT4@@Z 00000001800a5e30 f i GuOverlapTestsMesh.obj
 0001:000a4e80       ??0RTree@Gu@physx@@QEAA@W4PxEMPTY@2@@Z 00000001800a5e80 f   GuRTree.obj
 0001:000a4e90       ?exportExtraData@RTree@Gu@physx@@QEAAXAEAVPxSerializationContext@3@@Z 00000001800a5e90 f   GuRTree.obj
 0001:000a4ee0       ?importExtraData@RTree@Gu@physx@@QEAAXAEAVPxDeserializationContext@3@@Z 00000001800a5ee0 f   GuRTree.obj
 0001:000a4f10       ?load@RTree@Gu@physx@@QEAA_NAEAVPxInputStream@3@I_N@Z 00000001800a5f10 f   GuRTree.obj
 0001:000a5210       ?refitAllStaticTree@RTree@Gu@physx@@QEAAXAEAUCallbackRefit@123@PEAVPxBounds3@3@@Z 00000001800a6210 f   GuRTree.obj
 0001:000a5770       ?validate@RTree@Gu@physx@@QEAAXPEAUCallbackRefit@123@@Z 00000001800a6770 f   GuRTree.obj
 0001:000a59b0       ?computeBottomLevelCount@RTree@Gu@physx@@QEBAII@Z 00000001800a69b0 f   GuRTree.obj
 0001:000a5aa0       ?validateRecursive@RTree@Gu@physx@@IEAAXIURTreeNodeQ@23@PEAURTreePage@23@PEAUCallbackRefit@123@@Z 00000001800a6aa0 f   GuRTree.obj
 0001:000a5c60       ?traverseAABB@RTree@Gu@physx@@QEBAXAEBVPxVec3@3@0IPEAIPEAUCallback@123@@Z 00000001800a6c60 f   GuRTreeQueries.obj
 0001:000a5e20       ?traverseOBB@RTree@Gu@physx@@QEBAXAEBVBox@23@IPEAIPEAUCallback@123@@Z 00000001800a6e20 f   GuRTreeQueries.obj
 0001:000a6700       ??$traverseRay@$00@RTree@Gu@physx@@QEBAXAEBVPxVec3@2@0IPEAIPEAUCallbackRaycast@012@PEBV32@M@Z 00000001800a7700 f i GuRTreeQueries.obj
 0001:000a6aa0       ??$traverseRay@$0A@@RTree@Gu@physx@@QEBAXAEBVPxVec3@2@0IPEAIPEAUCallbackRaycast@012@PEBV32@M@Z 00000001800a7aa0 f i GuRTreeQueries.obj
 0001:000a6df0       ??0SweepShapeMeshHitCallback@Gu@physx@@QEAA@W4Enum@CallbackMode@12@AEBV?$PxFlags@W4Enum@PxHitFlag@physx@@G@2@_NM@Z 00000001800a7df0 f   GuSweepsMesh.obj
 0001:000a6e30       ??0SweepCapsuleMeshHitCallback@Gu@physx@@QEAA@AEAUPxSweepHit@2@AEBVMatrix34@Cm@2@M_NAEBVCapsule@12@AEBVPxVec3@2@AEBV?$PxFlags@W4Enum@PxHitFlag@physx@@G@2@2M@Z 00000001800a7e30 f   GuSweepsMesh.obj
 0001:000a6f00       ?processHit@SweepCapsuleMeshHitCallback@Gu@physx@@UEAA_NAEBUPxRaycastHit@3@AEBVPxVec3@3@11AEAMPEBI@Z 00000001800a7f00 f   GuSweepsMesh.obj
 0001:000a7440       ?finalizeHit@SweepCapsuleMeshHitCallback@Gu@physx@@QEBA_NAEAUPxSweepHit@3@AEBVCapsule@23@AEBVPxTriangleMeshGeometry@3@AEBVPxTransform@3@_N@Z 00000001800a8440 f   GuSweepsMesh.obj
 0001:000a75f0       ??0SweepBoxMeshHitCallback@Gu@physx@@QEAA@W4Enum@CallbackMode@12@AEBVMatrix34Padded@12@M_NAEBVBox@12@AEBVPxVec3@2@44AEBV?$PxFlags@W4Enum@PxHitFlag@physx@@G@2@M2M@Z 00000001800a85f0 f   GuSweepsMesh.obj
 0001:000a7700       ?processHit@SweepBoxMeshHitCallback@Gu@physx@@UEAA_NAEBUPxRaycastHit@3@AEBVPxVec3@3@11AEAMPEBI@Z 00000001800a8700 f   GuSweepsMesh.obj
 0001:000a7f20       ?finalizeHit@SweepBoxMeshHitCallback@Gu@physx@@QEBA_NAEAUPxSweepHit@3@AEBVPxTriangleMeshGeometry@3@AEBVPxTransform@3@2AEBVPxVec3@3@_N4@Z 00000001800a8f20 f   GuSweepsMesh.obj
 0001:000a85f0       ??0SweepConvexMeshHitCallback@Gu@physx@@QEAA@AEBUConvexHullData@12@AEBVPxMeshScale@2@AEBVFastVertex2ShapeScaling@Cm@2@AEBVPxTransform@2@3AEBVPxVec3@2@MV?$PxFlags@W4Enum@PxHitFlag@physx@@G@2@_NM6M@Z 00000001800a95f0 f   GuSweepsMesh.obj
 0001:000a8f80       ?processHit@SweepConvexMeshHitCallback@Gu@physx@@UEAA_NAEBUPxRaycastHit@3@AEBVPxVec3@3@11AEAMPEBI@Z 00000001800a9f80 f   GuSweepsMesh.obj
 0001:000a96d0       ?finalizeHit@SweepConvexMeshHitCallback@Gu@physx@@QEAA_NAEAUPxSweepHit@3@AEBVPxTriangleMeshGeometry@3@AEBVPxTransform@3@AEBVPxConvexMeshGeometry@3@2AEBVPxVec3@3@M_N555@Z 00000001800aa6d0 f   GuSweepsMesh.obj
 0001:000a9bb0       ?sweepCapsule_MeshGeom@@YA_NAEBVPxGeometry@physx@@AEBVPxTransform@2@AEBVPxCapsuleGeometry@2@1AEBVCapsule@Gu@2@AEBVPxVec3@2@MAEAUPxSweepHit@2@V?$PxFlags@W4Enum@PxHitFlag@physx@@G@2@M@Z 00000001800aabb0 f   GuSweepsMesh.obj
 0001:000a9c50       ?sweepBox_MeshGeom@@YA_NAEBVPxGeometry@physx@@AEBVPxTransform@2@AEBVPxBoxGeometry@2@1AEBVBox@Gu@2@AEBVPxVec3@2@MAEAUPxSweepHit@2@V?$PxFlags@W4Enum@PxHitFlag@physx@@G@2@M@Z 00000001800aac50 f   GuSweepsMesh.obj
 0001:000a9cf0       ?sweepConvex_MeshGeom@@YA_NAEBVPxGeometry@physx@@AEBVPxTransform@2@AEBVPxConvexMeshGeometry@2@1AEBVPxVec3@2@MAEAUPxSweepHit@2@V?$PxFlags@W4Enum@PxHitFlag@physx@@G@2@M@Z 00000001800aacf0 f   GuSweepsMesh.obj
 0001:000aa650       ??$gjkPenetration@U?$LocalConvex@VTriangleV@Gu@physx@@@Gu@physx@@U?$LocalConvex@VShrunkBoxV@Gu@physx@@@23@@Gu@physx@@YA?AW4GjkStatus@01@AEBU?$LocalConvex@VTriangleV@Gu@physx@@@01@AEBU?$LocalConvex@VShrunkBoxV@Gu@physx@@@01@AEBT__m128@@2AEAT5@333PEIAE4AEAE_N@Z 00000001800ab650 f i GuSweepsMesh.obj
 0001:000abcd0       ??$gjkPenetration@U?$LocalConvex@VTriangleV@Gu@physx@@@Gu@physx@@U?$LocalConvex@VShrunkConvexHullV@Gu@physx@@@23@@Gu@physx@@YA?AW4GjkStatus@01@AEBU?$LocalConvex@VTriangleV@Gu@physx@@@01@AEBU?$LocalConvex@VShrunkConvexHullV@Gu@physx@@@01@AEBT__m128@@2AEAT5@333PEIAE4AEAE_N@Z 00000001800accd0 f i GuSweepsMesh.obj
 0001:000ad690       ??$gjkRaycast@U?$LocalConvex@VTriangleV@Gu@physx@@@Gu@physx@@U?$LocalConvex@VBoxV@Gu@physx@@@23@@Gu@physx@@YA_NAEBU?$LocalConvex@VTriangleV@Gu@physx@@@01@AEBU?$LocalConvex@VBoxV@Gu@physx@@@01@AEBT__m128@@222AEAT4@33M@Z 00000001800ae690 f i GuSweepsMesh.obj
 0001:000ae2f0       ??$gjkRaycast@U?$LocalConvex@VTriangleV@Gu@physx@@@Gu@physx@@U?$LocalConvex@VConvexHullV@Gu@physx@@@23@@Gu@physx@@YA_NAEBU?$LocalConvex@VTriangleV@Gu@physx@@@01@AEBU?$LocalConvex@VConvexHullV@Gu@physx@@@01@AEBT__m128@@222AEAT4@33M@Z 00000001800af2f0 f i GuSweepsMesh.obj
 0001:000af0f0       ??$gjkRaycastPenetration@U?$LocalConvex@VTriangleV@Gu@physx@@@Gu@physx@@U?$LocalConvex@VBoxV@Gu@physx@@@23@@Gu@physx@@YA_NAEBU?$LocalConvex@VTriangleV@Gu@physx@@@01@AEBU?$LocalConvex@VBoxV@Gu@physx@@@01@AEBT__m128@@222AEAT4@33M_N@Z 00000001800b00f0 f i GuSweepsMesh.obj
 0001:000af320       ??$gjkRaycastPenetration@U?$LocalConvex@VTriangleV@Gu@physx@@@Gu@physx@@U?$LocalConvex@VConvexHullV@Gu@physx@@@23@@Gu@physx@@YA_NAEBU?$LocalConvex@VTriangleV@Gu@physx@@@01@AEBU?$LocalConvex@VConvexHullV@Gu@physx@@@01@AEBT__m128@@222AEAT4@33M_N@Z 00000001800b0320 f i GuSweepsMesh.obj
 0001:000af550       ??1SweepConvexMeshHitCallback@Gu@physx@@UEAA@XZ 00000001800b0550 f i GuSweepsMesh.obj
 0001:000af560       ??_E?$LocalConvex@VShrunkBoxV@Gu@physx@@@Gu@physx@@UEAAPEAXI@Z 00000001800b0560 f i GuSweepsMesh.obj
 0001:000af560       ??_G?$LocalConvex@VShrunkBoxV@Gu@physx@@@Gu@physx@@UEAAPEAXI@Z 00000001800b0560 f i GuSweepsMesh.obj
 0001:000af590       ??_E?$LocalConvex@VShrunkConvexHullV@Gu@physx@@@Gu@physx@@UEAAPEAXI@Z 00000001800b0590 f i GuSweepsMesh.obj
 0001:000af590       ??_G?$LocalConvex@VShrunkConvexHullV@Gu@physx@@@Gu@physx@@UEAAPEAXI@Z 00000001800b0590 f i GuSweepsMesh.obj
 0001:000af5c0       ??_ESweepBoxMeshHitCallback@Gu@physx@@UEAAPEAXI@Z 00000001800b05c0 f i GuSweepsMesh.obj
 0001:000af5c0       ??_GSweepBoxMeshHitCallback@Gu@physx@@UEAAPEAXI@Z 00000001800b05c0 f i GuSweepsMesh.obj
 0001:000af5f0       ??_ESweepCapsuleMeshHitCallback@Gu@physx@@UEAAPEAXI@Z 00000001800b05f0 f i GuSweepsMesh.obj
 0001:000af5f0       ??_GSweepCapsuleMeshHitCallback@Gu@physx@@UEAAPEAXI@Z 00000001800b05f0 f i GuSweepsMesh.obj
 0001:000af620       ??_ESweepConvexMeshHitCallback@Gu@physx@@UEAAPEAXI@Z 00000001800b0620 f i GuSweepsMesh.obj
 0001:000af620       ??_GSweepConvexMeshHitCallback@Gu@physx@@UEAAPEAXI@Z 00000001800b0620 f i GuSweepsMesh.obj
 0001:000af650       ??_ESweepShapeMeshHitCallback@Gu@physx@@UEAAPEAXI@Z 00000001800b0650 f i GuSweepsMesh.obj
 0001:000af650       ??_GSweepShapeMeshHitCallback@Gu@physx@@UEAAPEAXI@Z 00000001800b0650 f i GuSweepsMesh.obj
 0001:000af680       ?getCenter@?$LocalConvex@VShrunkBoxV@Gu@physx@@@Gu@physx@@UEBA?AT__m128@@XZ 00000001800b0680 f i GuSweepsMesh.obj
 0001:000af690       ?getCenter@?$LocalConvex@VShrunkConvexHullV@Gu@physx@@@Gu@physx@@UEBA?AT__m128@@XZ 00000001800b0690 f i GuSweepsMesh.obj
 0001:000af6a0       ?getSweepMargin@?$LocalConvex@VShrunkBoxV@Gu@physx@@@Gu@physx@@UEBA?AT__m128@@XZ 00000001800b06a0 f i GuSweepsMesh.obj
 0001:000af6c0       ?getSweepMargin@?$LocalConvex@VShrunkConvexHullV@Gu@physx@@@Gu@physx@@UEBA?AT__m128@@XZ 00000001800b06c0 f i GuSweepsMesh.obj
 0001:000af6e0       ?support@?$LocalConvex@VShrunkBoxV@Gu@physx@@@Gu@physx@@UEBA?AT__m128@@AEBT4@@Z 00000001800b06e0 f i GuSweepsMesh.obj
 0001:000af720       ?support@?$LocalConvex@VShrunkBoxV@Gu@physx@@@Gu@physx@@UEBA?AT__m128@@AEBT4@AEAHPEAT4@@Z 00000001800b0720 f i GuSweepsMesh.obj
 0001:000af780       ?support@?$LocalConvex@VShrunkConvexHullV@Gu@physx@@@Gu@physx@@UEBA?AT__m128@@AEBT4@@Z 00000001800b0780 f i GuSweepsMesh.obj
 0001:000afb80       ?support@?$LocalConvex@VShrunkConvexHullV@Gu@physx@@@Gu@physx@@UEBA?AT__m128@@AEBT4@AEAHPEAT4@@Z 00000001800b0b80 f i GuSweepsMesh.obj
 0001:000affd0       ?supportPoint@?$LocalConvex@VShrunkBoxV@Gu@physx@@@Gu@physx@@UEBA?AT__m128@@HPEAT4@@Z 00000001800b0fd0 f i GuSweepsMesh.obj
 0001:000b0030       ?supportPoint@?$LocalConvex@VShrunkConvexHullV@Gu@physx@@@Gu@physx@@UEBA?AT__m128@@HPEAT4@@Z 00000001800b1030 f i GuSweepsMesh.obj
 0001:000b06f0       ?exportExtraData@TriangleMesh@Gu@physx@@UEAAXAEAVPxSerializationContext@3@@Z 00000001800b16f0 f   GuTriangleMesh.obj
 0001:000b0830       ?importExtraData@TriangleMesh@Gu@physx@@QEAAXAEAVPxDeserializationContext@3@@Z 00000001800b1830 f   GuTriangleMesh.obj
 0001:000b0940       ?release@TriangleMesh@Gu@physx@@UEAAXXZ 00000001800b1940 f   GuTriangleMesh.obj
 0001:000b0980       ?onRefCountZero@TriangleMesh@Gu@physx@@UEAAXXZ 00000001800b1980 f   GuTriangleMesh.obj
 0001:000b0a20       ??0TriangleMesh@Gu@physx@@QEAA@AEAVGuMeshFactory@2@AEAVTriangleMeshData@12@@Z 00000001800b1a20 f   GuTriangleMesh.obj
 0001:000b0bb0       ??1TriangleMesh@Gu@physx@@UEAA@XZ 00000001800b1bb0 f   GuTriangleMesh.obj
 0001:000b0d60       ?getVerticesForModification@TriangleMesh@Gu@physx@@UEAAPEAVPxVec3@3@XZ 00000001800b1d60 f   GuTriangleMesh.obj
 0001:000b0da0       ?refitBVH@TriangleMesh@Gu@physx@@UEAA?AVPxBounds3@3@XZ 00000001800b1da0 f   GuTriangleMesh.obj
 0001:000b0e60       ??1PxTriangleMesh@physx@@MEAA@XZ 00000001800b1e60 f i GuTriangleMesh.obj
 0001:000b0e6c       ??_ETriangleMesh@Gu@physx@@WBA@EAAPEAXI@Z 00000001800b1e6c f i GuTriangleMesh.obj
 0001:000b0e80       ??_EPxTriangleMesh@physx@@MEAAPEAXI@Z 00000001800b1e80 f i GuTriangleMesh.obj
 0001:000b0e80       ??_GPxTriangleMesh@physx@@MEAAPEAXI@Z 00000001800b1e80 f i GuTriangleMesh.obj
 0001:000b0eb0       ??_ETriangleMesh@Gu@physx@@UEAAPEAXI@Z 00000001800b1eb0 f i GuTriangleMesh.obj
 0001:000b0eb0       ??_GTriangleMesh@Gu@physx@@UEAAPEAXI@Z 00000001800b1eb0 f i GuTriangleMesh.obj
 0001:000b0f10       ?acquireReference@TriangleMesh@Gu@physx@@UEAAXXZ 00000001800b1f10 f i GuTriangleMesh.obj
 0001:000b0f20       ?getLocalBounds@TriangleMesh@Gu@physx@@UEBA?AVPxBounds3@3@XZ 00000001800b1f20 f i GuTriangleMesh.obj
 0001:000b0fb0       ?getNbTriangles@TriangleMesh@Gu@physx@@UEBAIXZ 00000001800b1fb0 f i GuTriangleMesh.obj
 0001:000b0fc0       ?getNbVertices@TriangleMesh@Gu@physx@@UEBAIXZ 00000001800b1fc0 f i GuTriangleMesh.obj
 0001:000b0fd0       ?getReferenceCount@TriangleMesh@Gu@physx@@UEBAIXZ 00000001800b1fd0 f i GuTriangleMesh.obj
 0001:000b0fe0       ?getTriangleMaterialIndex@TriangleMesh@Gu@physx@@UEBAGI@Z 00000001800b1fe0 f i GuTriangleMesh.obj
 0001:000b1000       ?getTriangleMeshFlags@TriangleMesh@Gu@physx@@UEBA?AV?$PxFlags@W4Enum@PxTriangleMeshFlag@physx@@E@3@XZ 00000001800b2000 f i GuTriangleMesh.obj
 0001:000b1010       ?getTriangles@TriangleMesh@Gu@physx@@UEBAPEBXXZ 00000001800b2010 f i GuTriangleMesh.obj
 0001:000b1020       ?getTrianglesRemap@TriangleMesh@Gu@physx@@UEBAPEBIXZ 00000001800b2020 f i GuTriangleMesh.obj
 0001:000b1030       ?getVertices@TriangleMesh@Gu@physx@@UEBAPEBVPxVec3@3@XZ 00000001800b2030 f i GuTriangleMesh.obj
 0001:000b1040       ?isKindOf@PxTriangleMesh@physx@@MEBA_NPEBD@Z 00000001800b2040 f i GuTriangleMesh.obj
 0001:000b1090       ?requiresObjects@TriangleMesh@Gu@physx@@UEAAXAEAVPxProcessPxBaseCallback@3@@Z 00000001800b2090 f i GuTriangleMesh.obj
 0001:000b10a0       ?exportExtraData@BV4TriangleMesh@Gu@physx@@UEAAXAEAVPxSerializationContext@3@@Z 00000001800b20a0 f   GuTriangleMeshBV4.obj
 0001:000b10e0       ?importExtraData@BV4TriangleMesh@Gu@physx@@QEAAXAEAVPxDeserializationContext@3@@Z 00000001800b20e0 f   GuTriangleMeshBV4.obj
 0001:000b1160       ?createObject@BV4TriangleMesh@Gu@physx@@SAPEAVTriangleMesh@23@AEAPEAEAEAVPxDeserializationContext@3@@Z 00000001800b2160 f   GuTriangleMeshBV4.obj
 0001:000b1230       ??0BV4TriangleMesh@Gu@physx@@QEAA@AEAVGuMeshFactory@2@AEAVTriangleMeshData@12@@Z 00000001800b2230 f   GuTriangleMeshBV4.obj
 0001:000b12d0       ??1BV4TriangleMesh@Gu@physx@@UEAA@XZ 00000001800b22d0 f i GuTriangleMeshBV4.obj
 0001:000b1314       ??_EBV4TriangleMesh@Gu@physx@@WBA@EAAPEAXI@Z 00000001800b2314 f i GuTriangleMeshBV4.obj
 0001:000b1320       ??_EBV4TriangleMesh@Gu@physx@@UEAAPEAXI@Z 00000001800b2320 f i GuTriangleMeshBV4.obj
 0001:000b1320       ??_GBV4TriangleMesh@Gu@physx@@UEAAPEAXI@Z 00000001800b2320 f i GuTriangleMeshBV4.obj
 0001:000b13b0       ?getConcreteTypeName@BV4TriangleMesh@Gu@physx@@UEBAPEBDXZ 00000001800b23b0 f i GuTriangleMeshBV4.obj
 0001:000b13c0       ?getMidphaseID@BV4TriangleMesh@Gu@physx@@UEBA?AW4Enum@PxMeshMidPhase@3@XZ 00000001800b23c0 f i GuTriangleMeshBV4.obj
 0001:000b13d0       ?exportExtraData@RTreeTriangleMesh@Gu@physx@@UEAAXAEAVPxSerializationContext@3@@Z 00000001800b23d0 f   GuTriangleMeshRTree.obj
 0001:000b1410       ?importExtraData@RTreeTriangleMesh@Gu@physx@@QEAAXAEAVPxDeserializationContext@3@@Z 00000001800b2410 f   GuTriangleMeshRTree.obj
 0001:000b1450       ?createObject@RTreeTriangleMesh@Gu@physx@@SAPEAVTriangleMesh@23@AEAPEAEAEAVPxDeserializationContext@3@@Z 00000001800b2450 f   GuTriangleMeshRTree.obj
 0001:000b14e0       ??0RTreeTriangleMesh@Gu@physx@@QEAA@AEAVGuMeshFactory@2@AEAVTriangleMeshData@12@@Z 00000001800b24e0 f   GuTriangleMeshRTree.obj
 0001:000b1660       ?getVerticesForModification@RTreeTriangleMesh@Gu@physx@@UEAAPEAVPxVec3@3@XZ 00000001800b2660 f   GuTriangleMeshRTree.obj
 0001:000b1670       ?refitBVH@RTreeTriangleMesh@Gu@physx@@UEAA?AVPxBounds3@3@XZ 00000001800b2670 f   GuTriangleMeshRTree.obj
 0001:000b1890       ??1CallbackRefit@RTree@Gu@physx@@UEAA@XZ 00000001800b2890 f i GuTriangleMeshRTree.obj
 0001:000b18a0       ??1RTreeTriangleMesh@Gu@physx@@UEAA@XZ 00000001800b28a0 f i GuTriangleMeshRTree.obj
 0001:000b1910       ??_ERTreeTriangleMesh@Gu@physx@@WBA@EAAPEAXI@Z 00000001800b2910 f i GuTriangleMeshRTree.obj
 0001:000b1920       ??_E?$RefitCallback@G@physx@@UEAAPEAXI@Z 00000001800b2920 f i GuTriangleMeshRTree.obj
 0001:000b1920       ??_G?$RefitCallback@G@physx@@UEAAPEAXI@Z 00000001800b2920 f i GuTriangleMeshRTree.obj
 0001:000b1950       ??_E?$RefitCallback@I@physx@@UEAAPEAXI@Z 00000001800b2950 f i GuTriangleMeshRTree.obj
 0001:000b1950       ??_G?$RefitCallback@I@physx@@UEAAPEAXI@Z 00000001800b2950 f i GuTriangleMeshRTree.obj
 0001:000b1980       ??_ECallbackRefit@RTree@Gu@physx@@UEAAPEAXI@Z 00000001800b2980 f i GuTriangleMeshRTree.obj
 0001:000b1980       ??_GCallbackRefit@RTree@Gu@physx@@UEAAPEAXI@Z 00000001800b2980 f i GuTriangleMeshRTree.obj
 0001:000b19b0       ??_ERTreeTriangleMesh@Gu@physx@@UEAAPEAXI@Z 00000001800b29b0 f i GuTriangleMeshRTree.obj
 0001:000b19b0       ??_GRTreeTriangleMesh@Gu@physx@@UEAAPEAXI@Z 00000001800b29b0 f i GuTriangleMeshRTree.obj
 0001:000b1a70       ?getConcreteTypeName@RTreeTriangleMesh@Gu@physx@@UEBAPEBDXZ 00000001800b2a70 f i GuTriangleMeshRTree.obj
 0001:000b1a80       ?getMidphaseID@RTreeTriangleMesh@Gu@physx@@UEBA?AW4Enum@PxMeshMidPhase@3@XZ 00000001800b2a80 f i GuTriangleMeshRTree.obj
 0001:000b1a90       ?recomputeBounds@?$RefitCallback@G@physx@@UEAAXIAEAT__m128@@0@Z 00000001800b2a90 f i GuTriangleMeshRTree.obj
 0001:000b1dc0       ?recomputeBounds@?$RefitCallback@I@physx@@UEAAXIAEAT__m128@@0@Z 00000001800b2dc0 f i GuTriangleMeshRTree.obj
 0001:000b20e0       ?exportExtraData@HeightField@Gu@physx@@UEAAXAEAVPxSerializationContext@3@@Z 00000001800b30e0 f   GuHeightField.obj
 0001:000b2140       ?importExtraData@HeightField@Gu@physx@@QEAAXAEAVPxDeserializationContext@3@@Z 00000001800b3140 f   GuHeightField.obj
 0001:000b2170       ?createObject@HeightField@Gu@physx@@SAPEAV123@AEAPEAEAEAVPxDeserializationContext@3@@Z 00000001800b3170 f   GuHeightField.obj
 0001:000b21d0       ??0HeightField@Gu@physx@@QEAA@PEAVGuMeshFactory@2@@Z 00000001800b31d0 f   GuHeightField.obj
 0001:000b2240       ??0HeightField@Gu@physx@@QEAA@AEAVGuMeshFactory@2@AEAUHeightFieldData@12@@Z 00000001800b3240 f   GuHeightField.obj
 0001:000b2320       ?release@HeightField@Gu@physx@@UEAAXXZ 00000001800b3320 f   GuHeightField.obj
 0001:000b2360       ?saveCells@HeightField@Gu@physx@@UEBAIPEAXI@Z 00000001800b3360 f   GuHeightField.obj
 0001:000b23a0       ?modifySamples@HeightField@Gu@physx@@UEAA_NHHAEBVPxHeightFieldDesc@3@_N@Z 00000001800b33a0 f   GuHeightField.obj
 0001:000b2720       ?acquireReference@HeightField@Gu@physx@@UEAAXXZ 00000001800b3720 f   GuHeightField.obj
 0001:000b2730       ?getReferenceCount@HeightField@Gu@physx@@UEBAIXZ 00000001800b3730 f   GuHeightField.obj
 0001:000b2740       ?onRefCountZero@HeightField@Gu@physx@@UEAAXXZ 00000001800b3740 f   GuHeightField.obj
 0001:000b27e0       ?loadFromDesc@HeightField@Gu@physx@@QEAA_NAEBVPxHeightFieldDesc@3@@Z 00000001800b37e0 f   GuHeightField.obj
 0001:000b2a20       ?load@HeightField@Gu@physx@@QEAA_NAEAVPxInputStream@3@@Z 00000001800b3a20 f   GuHeightField.obj
 0001:000b2db0       ?computeCellCoordinates@HeightField@Gu@physx@@QEBAIMMAEAM0@Z 00000001800b3db0 f   GuHeightField.obj
 0001:000b2ec0       ?isSolidVertex@HeightField@Gu@physx@@QEBA_NIIIGAEA_N@Z 00000001800b3ec0 f   GuHeightField.obj
 0001:000b3050       ?isCollisionVertexPreca@HeightField@Gu@physx@@QEBA_NIIIG@Z 00000001800b4050 f   GuHeightField.obj
 0001:000b30f0       ?parseTrianglesForCollisionVertices@HeightField@Gu@physx@@QEAAXG@Z 00000001800b40f0 f   GuHeightField.obj
 0001:000b3640       ?computeExtreme@HeightField@Gu@physx@@QEBAMIIII@Z 00000001800b4640 f   GuHeightField.obj
 0001:000b3730       ?releaseMemory@HeightField@Gu@physx@@QEAAXXZ 00000001800b4730 f   GuHeightField.obj
 0001:000b3780       ??1HeightField@Gu@physx@@UEAA@XZ 00000001800b4780 f   GuHeightField.obj
 0001:000b3800       ?getVertexEdgeIndices@physx@@YAIAEBVHeightField@Gu@1@IIIQEAUEdgeData@1@@Z 00000001800b4800 f   GuHeightField.obj
 0001:000b39f0       ?getEdgeTriangleIndices@physx@@YAIAEBVHeightField@Gu@1@AEBUEdgeData@1@PEIAI@Z 00000001800b49f0 f   GuHeightField.obj
 0001:000b3b20       ??0?$BitMapBase@VNonTrackingAllocator@shdfnd@physx@@@Cm@physx@@QEAA@XZ 00000001800b4b20 f i GuHeightField.obj
 0001:000b3b30       ??1?$BitMapBase@VNonTrackingAllocator@shdfnd@physx@@@Cm@physx@@QEAA@XZ 00000001800b4b30 f i GuHeightField.obj
 0001:000b3b90       ??_EHeightField@Gu@physx@@UEAAPEAXI@Z 00000001800b4b90 f i GuHeightField.obj
 0001:000b3d44       ??_EHeightField@Gu@physx@@WBA@EAAPEAXI@Z 00000001800b4d44 f i GuHeightField.obj
 0001:000b3d50       ??_EPxHeightField@physx@@MEAAPEAXI@Z 00000001800b4d50 f i GuHeightField.obj
 0001:000b3de0       ?isConvexVertex@HeightField@Gu@physx@@QEBA_NIII@Z 00000001800b4de0 f i GuHeightField.obj
 0001:000b3ed0       ?requiresObjects@HeightField@Gu@physx@@UEAAXAEAVPxProcessPxBaseCallback@3@@Z 00000001800b4ed0 f i GuHeightField.obj
 0001:000b3ee0       ?resizeAndClear@?$BitMapBase@VNonTrackingAllocator@shdfnd@physx@@@Cm@physx@@QEAAXI@Z 00000001800b4ee0 f i GuHeightField.obj
 0001:000b3f90       ?computeLocalBounds@HeightFieldUtil@Gu@physx@@QEBAXAEAVPxBounds3@3@@Z 00000001800b4f90 f   GuHeightFieldUtil.obj
 0001:000b4060       ?getFaceIndexAtShapePoint@HeightFieldUtil@Gu@physx@@QEBAIMM@Z 00000001800b5060 f   GuHeightFieldUtil.obj
 0001:000b4120       ?getFaceIndexAtShapePointNoTest@HeightFieldUtil@Gu@physx@@QEBAIMM@Z 00000001800b5120 f   GuHeightFieldUtil.obj
 0001:000b41d0       ?getFaceIndexAtShapePointNoTest2@HeightFieldUtil@Gu@physx@@QEBAIIMM@Z 00000001800b51d0 f   GuHeightFieldUtil.obj
 0001:000b4240       ?getVertexNormal@HeightFieldUtil@Gu@physx@@QEBA?AVPxVec3@3@III@Z 00000001800b5240 f   GuHeightFieldUtil.obj
 0001:000b45c0       ?getVertexFaceIndex@HeightFieldUtil@Gu@physx@@QEBAIIII@Z 00000001800b55c0 f   GuHeightFieldUtil.obj
 0001:000b4800       ?getEdge@HeightFieldUtil@Gu@physx@@QEBAXIIIIAEAVPxVec3@3@0@Z 00000001800b5800 f   GuHeightFieldUtil.obj
 0001:000b4a50       ?getEdgeFaceIndex@HeightFieldUtil@Gu@physx@@QEBAII@Z 00000001800b5a50 f   GuHeightFieldUtil.obj
 0001:000b4c40       ?getEdgeFaceIndex@HeightFieldUtil@Gu@physx@@QEBAIIIII@Z 00000001800b5c40 f   GuHeightFieldUtil.obj
 0001:000b4de0       ?getEdgeFaceIndex@HeightFieldUtil@Gu@physx@@QEBAIIIPEIBI@Z 00000001800b5de0 f   GuHeightFieldUtil.obj
 0001:000b4e90       ?findClosestPointsOnCell@HeightFieldUtil@Gu@physx@@QEBAIIIVPxVec3@3@PEIAV43@PEIAI_N33@Z 00000001800b5e90 f   GuHeightFieldUtil.obj
 0001:000b5620       ?findProjectionOnTriangle@HeightFieldUtil@Gu@physx@@QEBA_NIIIAEBVPxVec3@3@AEAV43@@Z 00000001800b6620 f   GuHeightFieldUtil.obj
 0001:000b58d0       ?findClosestPointOnEdge@HeightFieldUtil@Gu@physx@@QEBAMIIIIAEBVPxVec3@3@AEAV43@@Z 00000001800b68d0 f   GuHeightFieldUtil.obj
 0001:000b5bd0       ?getTriangle@HeightFieldUtil@Gu@physx@@QEBAIAEBVPxTransform@3@AEAVPxTriangle@3@PEAI2I_N3@Z 00000001800b6bd0 f   GuHeightFieldUtil.obj
 0001:000b66e0       ?overlapAABBTriangles@HeightFieldUtil@Gu@physx@@QEBA_NAEBVPxTransform@3@AEBVPxBounds3@3@IPEAV?$EntityReport@I@23@@Z 00000001800b76e0 f   GuHeightFieldUtil.obj
 0001:000b6d20       ?getTriangleAdjacencyIndices@HeightField@Gu@physx@@QEBAXIIIIAEAI00@Z 00000001800b7d20 f i GuHeightFieldUtil.obj
 0001:000b6ed0       ?getTriangleIndex@HeightField@Gu@physx@@QEBAIMM@Z 00000001800b7ed0 f i GuHeightFieldUtil.obj
 0001:000b6f40       ?getTriangleVertexIndices@HeightField@Gu@physx@@QEBAXIAEAI00@Z 00000001800b7f40 f i GuHeightFieldUtil.obj
 0001:000b7000       ?checkOverlapAABB_heightFieldGeom@Gu@physx@@YA_NAEBVPxGeometry@2@AEBVPxTransform@2@AEBVPxBounds3@2@@Z 00000001800b8000 f   GuOverlapTestsHF.obj
 0001:000b7480       ?GeomOverlapCallback_SphereHeightfield@@YA_NAEBVPxGeometry@physx@@AEBVPxTransform@2@01PEAUTriggerCache@Gu@2@@Z 00000001800b8480 f   GuOverlapTestsHF.obj
 0001:000b7660       ?GeomOverlapCallback_CapsuleHeightfield@@YA_NAEBVPxGeometry@physx@@AEBVPxTransform@2@01PEAUTriggerCache@Gu@2@@Z 00000001800b8660 f   GuOverlapTestsHF.obj
 0001:000b78a0       ?GeomOverlapCallback_BoxHeightfield@@YA_NAEBVPxGeometry@physx@@AEBVPxTransform@2@01PEAUTriggerCache@Gu@2@@Z 00000001800b88a0 f   GuOverlapTestsHF.obj
 0001:000b7bd0       ?GeomOverlapCallback_ConvexHeightfield@@YA_NAEBVPxGeometry@physx@@AEBVPxTransform@2@01PEAUTriggerCache@Gu@2@@Z 00000001800b8bd0 f   GuOverlapTestsHF.obj
 0001:000b7c40       ??$traceSegment@UTriggerTraceSegmentCallback@Gu@physx@@$0A@$0A@@HeightFieldTraceUtil@Gu@physx@@QEBAXAEBVPxVec3@2@0MPEAUTriggerTraceSegmentCallback@12@AEBVPxBounds3@2@_NPEBV32@@Z 00000001800b8c40 f i GuOverlapTestsHF.obj
 0001:000bbb90       ?sweepCapsule_HeightFieldGeom@@YA_NAEBVPxGeometry@physx@@AEBVPxTransform@2@AEBVPxCapsuleGeometry@2@1AEBVCapsule@Gu@2@AEBVPxVec3@2@MAEAUPxSweepHit@2@V?$PxFlags@W4Enum@PxHitFlag@physx@@G@2@M@Z 00000001800bcb90 f   GuSweepsHF.obj
 0001:000bc500       ?sweepConvex_HeightFieldGeom@@YA_NAEBVPxGeometry@physx@@AEBVPxTransform@2@AEBVPxConvexMeshGeometry@2@1AEBVPxVec3@2@MAEAUPxSweepHit@2@V?$PxFlags@W4Enum@PxHitFlag@physx@@G@2@M@Z 00000001800bd500 f   GuSweepsHF.obj
 0001:000bcef0       ?sweepBox_HeightFieldGeom@@YA_NAEBVPxGeometry@physx@@AEBVPxTransform@2@AEBVPxBoxGeometry@2@1AEBVBox@Gu@2@AEBVPxVec3@2@MAEAUPxSweepHit@2@V?$PxFlags@W4Enum@PxHitFlag@physx@@G@2@M@Z 00000001800bdef0 f   GuSweepsHF.obj
 0001:000bdd60       ??$traceSegment@VBoxTraceSegmentReport@@$0A@$00@HeightFieldTraceUtil@Gu@physx@@QEBAXAEBVPxVec3@2@0MPEAVBoxTraceSegmentReport@@AEBVPxBounds3@2@_NPEBV32@@Z 00000001800bed60 f i GuSweepsHF.obj
 0001:000be580       ??$traceSegment@VCapsuleTraceSegmentReport@@$0A@$00@HeightFieldTraceUtil@Gu@physx@@QEBAXAEBVPxVec3@2@0MPEAVCapsuleTraceSegmentReport@@AEBVPxBounds3@2@_NPEBV32@@Z 00000001800bf580 f i GuSweepsHF.obj
 0001:000beda0       ??$traceSegment@VConvexTraceSegmentReport@@$0A@$00@HeightFieldTraceUtil@Gu@physx@@QEBAXAEBVPxVec3@2@0MPEAVConvexTraceSegmentReport@@AEBVPxBounds3@2@_NPEBV32@@Z 00000001800bfda0 f i GuSweepsHF.obj
 0001:000bf5c0       ??0ConvexTraceSegmentReport@@QEAA@AEBVHeightFieldUtil@Gu@physx@@AEBUConvexHullData@23@AEBVPxMeshScale@3@AEBVPxTransform@3@3AEBVPxVec3@3@MV?$PxFlags@W4Enum@PxHitFlag@physx@@G@3@M@Z 00000001800c05c0 f i GuSweepsHF.obj
 0001:000bff70       ??_EBoxTraceSegmentReport@@UEAAPEAXI@Z 00000001800c0f70 f i GuSweepsHF.obj
 0001:000bff70       ??_GBoxTraceSegmentReport@@UEAAPEAXI@Z 00000001800c0f70 f i GuSweepsHF.obj
 0001:000bffa0       ??_ECapsuleTraceSegmentReport@@UEAAPEAXI@Z 00000001800c0fa0 f i GuSweepsHF.obj
 0001:000bffa0       ??_GCapsuleTraceSegmentReport@@UEAAPEAXI@Z 00000001800c0fa0 f i GuSweepsHF.obj
 0001:000bffd0       ??_EConvexTraceSegmentReport@@UEAAPEAXI@Z 00000001800c0fd0 f i GuSweepsHF.obj
 0001:000bffd0       ??_GConvexTraceSegmentReport@@UEAAPEAXI@Z 00000001800c0fd0 f i GuSweepsHF.obj
 0001:000c0000       ??_EHeightFieldTraceSegmentReport@@UEAAPEAXI@Z 00000001800c1000 f i GuSweepsHF.obj
 0001:000c0000       ??_GHeightFieldTraceSegmentReport@@UEAAPEAXI@Z 00000001800c1000 f i GuSweepsHF.obj
 0001:000c0030       ?finalizeHit@ConvexTraceSegmentReport@@QEAA_NAEAUPxSweepHit@physx@@AEBVPxHeightFieldGeometry@3@AEBVPxTransform@3@AEBVPxConvexMeshGeometry@3@2AEBVPxVec3@3@M@Z 00000001800c1030 f i GuSweepsHF.obj
 0001:000c0280       ?onEvent@BoxTraceSegmentReport@@UEAA_NIPEAI@Z 00000001800c1280 f i GuSweepsHF.obj
 0001:000c06f0       ?onEvent@CapsuleTraceSegmentReport@@UEAA_NIPEAI@Z 00000001800c16f0 f i GuSweepsHF.obj
 0001:000c0940       ?onEvent@ConvexTraceSegmentReport@@UEAA_NIPEAI@Z 00000001800c1940 f i GuSweepsHF.obj
 0001:000c0f10       ?prepare@?$OverlapTraceSegment@VBoxTraceSegmentReport@@@HeightFieldTraceUtil@Gu@physx@@QEAAXAEBVPxVec3@4@00AEAM1@Z 00000001800c1f10 f i GuSweepsHF.obj
 0001:000c11d0       ?prepare@?$OverlapTraceSegment@VCapsuleTraceSegmentReport@@@HeightFieldTraceUtil@Gu@physx@@QEAAXAEBVPxVec3@4@00AEAM1@Z 00000001800c21d0 f i GuSweepsHF.obj
 0001:000c1490       ?prepare@?$OverlapTraceSegment@VConvexTraceSegmentReport@@@HeightFieldTraceUtil@Gu@physx@@QEAAXAEBVPxVec3@4@00AEAM1@Z 00000001800c2490 f i GuSweepsHF.obj
 0001:000c1750       ?testVertexIndex@?$OverlapTraceSegment@VBoxTraceSegmentReport@@@HeightFieldTraceUtil@Gu@physx@@QEAA_NI@Z 00000001800c2750 f i GuSweepsHF.obj
 0001:000c18b0       ?testVertexIndex@?$OverlapTraceSegment@VCapsuleTraceSegmentReport@@@HeightFieldTraceUtil@Gu@physx@@QEAA_NI@Z 00000001800c28b0 f i GuSweepsHF.obj
 0001:000c1a10       ?testVertexIndex@?$OverlapTraceSegment@VConvexTraceSegmentReport@@@HeightFieldTraceUtil@Gu@physx@@QEAA_NI@Z 00000001800c2a10 f i GuSweepsHF.obj
 0001:000c1b70       ?visitCells@?$OverlapTraceSegment@VBoxTraceSegmentReport@@@HeightFieldTraceUtil@Gu@physx@@QEAA_NAEBUOverlapRectangle@1234@@Z 00000001800c2b70 f i GuSweepsHF.obj
 0001:000c1d60       ?visitCells@?$OverlapTraceSegment@VCapsuleTraceSegmentReport@@@HeightFieldTraceUtil@Gu@physx@@QEAA_NAEBUOverlapRectangle@1234@@Z 00000001800c2d60 f i GuSweepsHF.obj
 0001:000c1f50       ?visitCells@?$OverlapTraceSegment@VConvexTraceSegmentReport@@@HeightFieldTraceUtil@Gu@physx@@QEAA_NAEBUOverlapRectangle@1234@@Z 00000001800c2f50 f i GuSweepsHF.obj
 0001:000c2140       ?pcmContactBoxBox@Gu@physx@@YA_NAEBVGeometryUnion@12@0AEBVPxTransform@2@1AEBUNarrowPhaseParams@12@AEAUCache@12@AEAVContactBuffer@12@PEAVRenderOutput@Cm@2@@Z 00000001800c3140 f   GuPCMContactBoxBox.obj
 0001:000c2f10       ??$gjkPenetration@U?$RelativeConvex@VBoxV@Gu@physx@@@Gu@physx@@U?$LocalConvex@VBoxV@Gu@physx@@@23@@Gu@physx@@YA?AW4GjkStatus@01@AEBU?$RelativeConvex@VBoxV@Gu@physx@@@01@AEBU?$LocalConvex@VBoxV@Gu@physx@@@01@AEBT__m128@@2AEAT5@333PEIAE4AEAE_N@Z 00000001800c3f10 f i GuPCMContactBoxBox.obj
 0001:000c4570       ??0MeshPersistentContact@Gu@physx@@QEAA@XZ 00000001800c5570 f i GuPCMContactBoxBox.obj
 0001:000c4580       ??0MultiplePersistentContactManifold@Gu@physx@@QEAA@XZ 00000001800c5580 f i GuPCMContactBoxBox.obj
 0001:000c45d0       ??0PersistentContact@Gu@physx@@QEAA@XZ 00000001800c55d0 f i GuPCMContactBoxBox.obj
 0001:000c45e0       ??0SinglePersistentContactManifold@Gu@physx@@QEAA@XZ 00000001800c55e0 f i GuPCMContactBoxBox.obj
 0001:000c45f0       ??4MultiplePersistentContactManifold@Gu@physx@@QEAAAEAV012@$$QEAV012@@Z 00000001800c55f0 f i GuPCMContactBoxBox.obj
 0001:000c4900       ??4MultiplePersistentContactManifold@Gu@physx@@QEAAAEAV012@AEBV012@@Z 00000001800c5900 f i GuPCMContactBoxBox.obj
 0001:000c4920       ??_E?$RelativeConvex@VBoxV@Gu@physx@@@Gu@physx@@UEAAPEAXI@Z 00000001800c5920 f i GuPCMContactBoxBox.obj
 0001:000c4920       ??_G?$RelativeConvex@VBoxV@Gu@physx@@@Gu@physx@@UEAAPEAXI@Z 00000001800c5920 f i GuPCMContactBoxBox.obj
 0001:000c5670       ?clearManifold@MultiplePersistentContactManifold@Gu@physx@@QEAAXXZ 00000001800c6670 f i GuPCMContactBoxBox.obj
 0001:000c71c0       ?getCenter@?$RelativeConvex@VBoxV@Gu@physx@@@Gu@physx@@UEBA?AT__m128@@XZ 00000001800c81c0 f i GuPCMContactBoxBox.obj
 0001:000c7200       ?getEmptyManifold@MultiplePersistentContactManifold@Gu@physx@@QEAAPEAVSinglePersistentContactManifold@23@XZ 00000001800c8200 f i GuPCMContactBoxBox.obj
 0001:000c7430       ?getManifold@MultiplePersistentContactManifold@Gu@physx@@QEAAPEAVSinglePersistentContactManifold@23@I@Z 00000001800c8430 f i GuPCMContactBoxBox.obj
 0001:000c7450       ?getSweepMargin@?$RelativeConvex@VBoxV@Gu@physx@@@Gu@physx@@UEBA?AT__m128@@XZ 00000001800c8450 f i GuPCMContactBoxBox.obj
 0001:000c7470       ?initialize@MultiplePersistentContactManifold@Gu@physx@@QEAAXXZ 00000001800c8470 f i GuPCMContactBoxBox.obj
 0001:000c74d0       ?invalidate@MultiplePersistentContactManifold@Gu@physx@@QEAAIAEBVPsTransformV@aos@shdfnd@3@AEBT__m128@@1@Z 00000001800c84d0 f i GuPCMContactBoxBox.obj
 0001:000c7550       ?invalidate@MultiplePersistentContactManifold@Gu@physx@@QEAAIAEBVPsTransformV@aos@shdfnd@3@AEBT__m128@@@Z 00000001800c8550 f i GuPCMContactBoxBox.obj
 0001:000c75d0       ?maxTransformPositionDelta@MultiplePersistentContactManifold@Gu@physx@@QEAA?AT__m128@@AEBT4@@Z 00000001800c85d0 f i GuPCMContactBoxBox.obj
 0001:000c7610       ?maxTransformQuatDelta@MultiplePersistentContactManifold@Gu@physx@@QEAA?AT__m128@@AEBT4@@Z 00000001800c8610 f i GuPCMContactBoxBox.obj
 0001:000c7650       ?reduceManifoldContactsInDifferentPatches@MultiplePersistentContactManifold@Gu@physx@@QEAAIPEAPEAUPCMContactPatch@23@IPEAVMeshPersistentContact@23@IAEBT__m128@@@Z 00000001800c8650 f i GuPCMContactBoxBox.obj
 0001:000c77c0       ?refineContactPatchConnective@MultiplePersistentContactManifold@Gu@physx@@QEAAXPEAPEAUPCMContactPatch@23@IPEAVMeshPersistentContact@23@AEBT__m128@@@Z 00000001800c87c0 f i GuPCMContactBoxBox.obj
 0001:000c78b0       ?refreshManifold@MultiplePersistentContactManifold@Gu@physx@@QEAAXAEBVPsMatTransformV@aos@shdfnd@3@AEBT__m128@@1@Z 00000001800c88b0 f i GuPCMContactBoxBox.obj
 0001:000c79b0       ?setRelativeTransform@MultiplePersistentContactManifold@Gu@physx@@QEAAXAEBVPsTransformV@aos@shdfnd@3@@Z 00000001800c89b0 f i GuPCMContactBoxBox.obj
 0001:000c79c0       ?support@?$RelativeConvex@VBoxV@Gu@physx@@@Gu@physx@@UEBA?AT__m128@@AEBT4@@Z 00000001800c89c0 f i GuPCMContactBoxBox.obj
 0001:000c7a40       ?support@?$RelativeConvex@VBoxV@Gu@physx@@@Gu@physx@@UEBA?AT__m128@@AEBT4@AEAHPEAT4@@Z 00000001800c8a40 f i GuPCMContactBoxBox.obj
 0001:000c7ad0       ?supportPoint@?$RelativeConvex@VBoxV@Gu@physx@@@Gu@physx@@UEBA?AT__m128@@HPEAT4@@Z 00000001800c8ad0 f i GuPCMContactBoxBox.obj
 0001:000c7b40       ?toBuffer@MultiplePersistentContactManifold@Gu@physx@@QEAAXPEIAE@Z 00000001800c8b40 f i GuPCMContactBoxBox.obj
 0001:000c7c20       ?pcmContactBoxConvex@Gu@physx@@YA_NAEBVGeometryUnion@12@0AEBVPxTransform@2@1AEBUNarrowPhaseParams@12@AEAUCache@12@AEAVContactBuffer@12@PEAVRenderOutput@Cm@2@@Z 00000001800c8c20 f   GuPCMContactBoxConvex.obj
 0001:000c8cb0       ??$gjkPenetration@U?$RelativeConvex@VBoxV@Gu@physx@@@Gu@physx@@U?$LocalConvex@VShrunkConvexHullNoScaleV@Gu@physx@@@23@@Gu@physx@@YA?AW4GjkStatus@01@AEBU?$RelativeConvex@VBoxV@Gu@physx@@@01@AEBU?$LocalConvex@VShrunkConvexHullNoScaleV@Gu@physx@@@01@AEBT__m128@@2AEAT5@333PEIAE4AEAE_N@Z 00000001800c9cb0 f i GuPCMContactBoxConvex.obj
 0001:000ca720       ??$gjkPenetration@U?$RelativeConvex@VBoxV@Gu@physx@@@Gu@physx@@U?$LocalConvex@VShrunkConvexHullV@Gu@physx@@@23@@Gu@physx@@YA?AW4GjkStatus@01@AEBU?$RelativeConvex@VBoxV@Gu@physx@@@01@AEBU?$LocalConvex@VShrunkConvexHullV@Gu@physx@@@01@AEBT__m128@@2AEAT5@333PEIAE4AEAE_N@Z 00000001800cb720 f i GuPCMContactBoxConvex.obj
 0001:000cc100       ??1SupportLocal@Gu@physx@@UEAA@XZ 00000001800cd100 f i GuPCMContactBoxConvex.obj
 0001:000cc110       ??_E?$LocalConvex@VShrunkConvexHullNoScaleV@Gu@physx@@@Gu@physx@@UEAAPEAXI@Z 00000001800cd110 f i GuPCMContactBoxConvex.obj
 0001:000cc110       ??_G?$LocalConvex@VShrunkConvexHullNoScaleV@Gu@physx@@@Gu@physx@@UEAAPEAXI@Z 00000001800cd110 f i GuPCMContactBoxConvex.obj
 0001:000cc140       ??_E?$SupportLocalImpl@VBoxV@Gu@physx@@@Gu@physx@@UEAAPEAXI@Z 00000001800cd140 f i GuPCMContactBoxConvex.obj
 0001:000cc140       ??_G?$SupportLocalImpl@VBoxV@Gu@physx@@@Gu@physx@@UEAAPEAXI@Z 00000001800cd140 f i GuPCMContactBoxConvex.obj
 0001:000cc170       ??_E?$SupportLocalImpl@VConvexHullNoScaleV@Gu@physx@@@Gu@physx@@UEAAPEAXI@Z 00000001800cd170 f i GuPCMContactBoxConvex.obj
 0001:000cc170       ??_G?$SupportLocalImpl@VConvexHullNoScaleV@Gu@physx@@@Gu@physx@@UEAAPEAXI@Z 00000001800cd170 f i GuPCMContactBoxConvex.obj
 0001:000cc1a0       ??_E?$SupportLocalImpl@VConvexHullV@Gu@physx@@@Gu@physx@@UEAAPEAXI@Z 00000001800cd1a0 f i GuPCMContactBoxConvex.obj
 0001:000cc1a0       ??_G?$SupportLocalImpl@VConvexHullV@Gu@physx@@@Gu@physx@@UEAAPEAXI@Z 00000001800cd1a0 f i GuPCMContactBoxConvex.obj
 0001:000cc1d0       ??_ESupportLocal@Gu@physx@@UEAAPEAXI@Z 00000001800cd1d0 f i GuPCMContactBoxConvex.obj
 0001:000cc1d0       ??_GSupportLocal@Gu@physx@@UEAAPEAXI@Z 00000001800cd1d0 f i GuPCMContactBoxConvex.obj
 0001:000cc520       ?doSupport@?$SupportLocalImpl@VBoxV@Gu@physx@@@Gu@physx@@UEBA?AT__m128@@AEBT4@@Z 00000001800cd520 f i GuPCMContactBoxConvex.obj
 0001:000cc550       ?doSupport@?$SupportLocalImpl@VBoxV@Gu@physx@@@Gu@physx@@UEBAXAEBT__m128@@AEAT4@1@Z 00000001800cd550 f i GuPCMContactBoxConvex.obj
 0001:000cc5a0       ?doSupport@?$SupportLocalImpl@VConvexHullNoScaleV@Gu@physx@@@Gu@physx@@UEBA?AT__m128@@AEBT4@@Z 00000001800cd5a0 f i GuPCMContactBoxConvex.obj
 0001:000cc5f0       ?doSupport@?$SupportLocalImpl@VConvexHullNoScaleV@Gu@physx@@@Gu@physx@@UEBAXAEBT__m128@@AEAT4@1@Z 00000001800cd5f0 f i GuPCMContactBoxConvex.obj
 0001:000cc770       ?doSupport@?$SupportLocalImpl@VConvexHullV@Gu@physx@@@Gu@physx@@UEBA?AT__m128@@AEBT4@@Z 00000001800cd770 f i GuPCMContactBoxConvex.obj
 0001:000cc850       ?doSupport@?$SupportLocalImpl@VConvexHullV@Gu@physx@@@Gu@physx@@UEBAXAEBT__m128@@AEAT4@1@Z 00000001800cd850 f i GuPCMContactBoxConvex.obj
 0001:000ccde0       ?getCenter@?$LocalConvex@VShrunkConvexHullNoScaleV@Gu@physx@@@Gu@physx@@UEBA?AT__m128@@XZ 00000001800cdde0 f i GuPCMContactBoxConvex.obj
 0001:000ccdf0       ?getSweepMargin@?$LocalConvex@VShrunkConvexHullNoScaleV@Gu@physx@@@Gu@physx@@UEBA?AT__m128@@XZ 00000001800cddf0 f i GuPCMContactBoxConvex.obj
 0001:000cce10       ?populateVerts@?$SupportLocalImpl@VBoxV@Gu@physx@@@Gu@physx@@UEBAXPEBEIPEBVPxVec3@3@PEAT__m128@@@Z 00000001800cde10 f i GuPCMContactBoxConvex.obj
 0001:000cce50       ?populateVerts@?$SupportLocalImpl@VConvexHullNoScaleV@Gu@physx@@@Gu@physx@@UEBAXPEBEIPEBVPxVec3@3@PEAT__m128@@@Z 00000001800cde50 f i GuPCMContactBoxConvex.obj
 0001:000cce90       ?populateVerts@?$SupportLocalImpl@VConvexHullV@Gu@physx@@@Gu@physx@@UEBAXPEBEIPEBVPxVec3@3@PEAT__m128@@@Z 00000001800cde90 f i GuPCMContactBoxConvex.obj
 0001:000ccef0       ?support@?$LocalConvex@VShrunkConvexHullNoScaleV@Gu@physx@@@Gu@physx@@UEBA?AT__m128@@AEBT4@@Z 00000001800cdef0 f i GuPCMContactBoxConvex.obj
 0001:000cd110       ?support@?$LocalConvex@VShrunkConvexHullNoScaleV@Gu@physx@@@Gu@physx@@UEBA?AT__m128@@AEBT4@AEAHPEAT4@@Z 00000001800ce110 f i GuPCMContactBoxConvex.obj
 0001:000cd380       ?supportPoint@?$LocalConvex@VShrunkConvexHullNoScaleV@Gu@physx@@@Gu@physx@@UEBA?AT__m128@@HPEAT4@@Z 00000001800ce380 f i GuPCMContactBoxConvex.obj
 0001:000cd5d0       ?pcmContactCapsuleBox@Gu@physx@@YA_NAEBVGeometryUnion@12@0AEBVPxTransform@2@1AEBUNarrowPhaseParams@12@AEAUCache@12@AEAVContactBuffer@12@PEAVRenderOutput@Cm@2@@Z 00000001800ce5d0 f   GuPCMContactCapsuleBox.obj
 0001:000ce480       ??$gjkPenetration@U?$LocalConvex@VCapsuleV@Gu@physx@@@Gu@physx@@U?$LocalConvex@VBoxV@Gu@physx@@@23@@Gu@physx@@YA?AW4GjkStatus@01@AEBU?$LocalConvex@VCapsuleV@Gu@physx@@@01@AEBU?$LocalConvex@VBoxV@Gu@physx@@@01@AEBT__m128@@2AEAT5@333PEIAE4AEAE_N@Z 00000001800cf480 f i GuPCMContactCapsuleBox.obj
 0001:000cfab0       ?pcmContactCapsuleCapsule@Gu@physx@@YA_NAEBVGeometryUnion@12@0AEBVPxTransform@2@1AEBUNarrowPhaseParams@12@AEAUCache@12@AEAVContactBuffer@12@PEAVRenderOutput@Cm@2@@Z 00000001800d0ab0 f   GuPCMContactCapsuleCapsule.obj
 0001:000d0330       ?pcmContactCapsuleConvex@Gu@physx@@YA_NAEBVGeometryUnion@12@0AEBVPxTransform@2@1AEBUNarrowPhaseParams@12@AEAUCache@12@AEAVContactBuffer@12@PEAVRenderOutput@Cm@2@@Z 00000001800d1330 f   GuPCMContactCapsuleConvex.obj
 0001:000d1540       ??$gjkPenetration@U?$LocalConvex@VCapsuleV@Gu@physx@@@Gu@physx@@U?$LocalConvex@VConvexHullNoScaleV@Gu@physx@@@23@@Gu@physx@@YA?AW4GjkStatus@01@AEBU?$LocalConvex@VCapsuleV@Gu@physx@@@01@AEBU?$LocalConvex@VConvexHullNoScaleV@Gu@physx@@@01@AEBT__m128@@2AEAT5@333PEIAE4AEAE_N@Z 00000001800d2540 f i GuPCMContactCapsuleConvex.obj
 0001:000d2b60       ??$gjkPenetration@U?$LocalConvex@VCapsuleV@Gu@physx@@@Gu@physx@@U?$LocalConvex@VConvexHullV@Gu@physx@@@23@@Gu@physx@@YA?AW4GjkStatus@01@AEBU?$LocalConvex@VCapsuleV@Gu@physx@@@01@AEBU?$LocalConvex@VConvexHullV@Gu@physx@@@01@AEBT__m128@@2AEAT5@333PEIAE4AEAE_N@Z 00000001800d3b60 f i GuPCMContactCapsuleConvex.obj
 0001:000d4200       ??_E?$LocalConvex@VConvexHullNoScaleV@Gu@physx@@@Gu@physx@@UEAAPEAXI@Z 00000001800d5200 f i GuPCMContactCapsuleConvex.obj
 0001:000d4200       ??_G?$LocalConvex@VConvexHullNoScaleV@Gu@physx@@@Gu@physx@@UEAAPEAXI@Z 00000001800d5200 f i GuPCMContactCapsuleConvex.obj
 0001:000d4470       ?getCenter@?$LocalConvex@VConvexHullNoScaleV@Gu@physx@@@Gu@physx@@UEBA?AT__m128@@XZ 00000001800d5470 f i GuPCMContactCapsuleConvex.obj
 0001:000d4480       ?getSweepMargin@?$LocalConvex@VConvexHullNoScaleV@Gu@physx@@@Gu@physx@@UEBA?AT__m128@@XZ 00000001800d5480 f i GuPCMContactCapsuleConvex.obj
 0001:000d44a0       ?support@?$LocalConvex@VConvexHullNoScaleV@Gu@physx@@@Gu@physx@@UEBA?AT__m128@@AEBT4@@Z 00000001800d54a0 f i GuPCMContactCapsuleConvex.obj
 0001:000d44f0       ?support@?$LocalConvex@VConvexHullNoScaleV@Gu@physx@@@Gu@physx@@UEBA?AT__m128@@AEBT4@AEAHPEAT4@@Z 00000001800d54f0 f i GuPCMContactCapsuleConvex.obj
 0001:000d4550       ?supportPoint@?$LocalConvex@VConvexHullNoScaleV@Gu@physx@@@Gu@physx@@UEBA?AT__m128@@HPEAT4@@Z 00000001800d5550 f i GuPCMContactCapsuleConvex.obj
 0001:000d4580       ?pcmContactCapsuleHeightField@Gu@physx@@YA_NAEBVGeometryUnion@12@0AEBVPxTransform@2@1AEBUNarrowPhaseParams@12@AEAUCache@12@AEAVContactBuffer@12@PEAVRenderOutput@Cm@2@@Z 00000001800d5580 f   GuPCMContactCapsuleHeightField.obj
 0001:000d52d0       ??0PCMContactPatch@Gu@physx@@QEAA@XZ 00000001800d62d0 f i GuPCMContactCapsuleHeightField.obj
 0001:000d52f0       ??0PCMMeshContactGeneration@Gu@physx@@QEAA@AEBT__m128@@0AEBVPsTransformV@aos@shdfnd@2@1AEAVMultiplePersistentContactManifold@12@AEAVContactBuffer@12@PEAV?$InlineArray@I$0EEA@V?$ReflectionAllocator@I@shdfnd@physx@@@62@PEAVRenderOutput@Cm@2@@Z 00000001800d62f0 f i GuPCMContactCapsuleHeightField.obj
 0001:000d5c00       ??_E?$PCMHeightfieldContactGenerationCallback@UPCMCapsuleVsHeightfieldContactGenerationCallback@physx@@@Gu@physx@@UEAAPEAXI@Z 00000001800d6c00 f i GuPCMContactCapsuleHeightField.obj
 0001:000d5c00       ??_G?$PCMHeightfieldContactGenerationCallback@UPCMCapsuleVsHeightfieldContactGenerationCallback@physx@@@Gu@physx@@UEAAPEAXI@Z 00000001800d6c00 f i GuPCMContactCapsuleHeightField.obj
 0001:000d5c30       ??_EPCMCapsuleVsHeightfieldContactGenerationCallback@physx@@UEAAPEAXI@Z 00000001800d6c30 f i GuPCMContactCapsuleHeightField.obj
 0001:000d5c30       ??_GPCMCapsuleVsHeightfieldContactGenerationCallback@physx@@UEAAPEAXI@Z 00000001800d6c30 f i GuPCMContactCapsuleHeightField.obj
 0001:000d5c60       ?onEvent@?$PCMHeightfieldContactGenerationCallback@UPCMCapsuleVsHeightfieldContactGenerationCallback@physx@@@Gu@physx@@UEAA_NIPEAI@Z 00000001800d6c60 f i GuPCMContactCapsuleHeightField.obj
 0001:000d6210       ?pcmContactCapsuleMesh@Gu@physx@@YA_NAEBVGeometryUnion@12@0AEBVPxTransform@2@1AEBUNarrowPhaseParams@12@AEAUCache@12@AEAVContactBuffer@12@PEAVRenderOutput@Cm@2@@Z 00000001800d7210 f   GuPCMContactCapsuleMesh.obj
 0001:000d7150       ??$processTriangleCache@$0BA@@PCMCapsuleVsMeshContactGenerationCallback@physx@@QEAAXAEAU?$TriangleCache@$0BA@@Gu@1@@Z 00000001800d8150 f i GuPCMContactCapsuleMesh.obj
 0001:000d71e0       ??_E?$PCMMeshContactGenerationCallback@UPCMCapsuleVsMeshContactGenerationCallback@physx@@@Gu@physx@@UEAAPEAXI@Z 00000001800d81e0 f i GuPCMContactCapsuleMesh.obj
 0001:000d71e0       ??_G?$PCMMeshContactGenerationCallback@UPCMCapsuleVsMeshContactGenerationCallback@physx@@@Gu@physx@@UEAAPEAXI@Z 00000001800d81e0 f i GuPCMContactCapsuleMesh.obj
 0001:000d7210       ??_EPCMCapsuleVsMeshContactGenerationCallback@physx@@UEAAPEAXI@Z 00000001800d8210 f i GuPCMContactCapsuleMesh.obj
 0001:000d7210       ??_GPCMCapsuleVsMeshContactGenerationCallback@physx@@UEAAPEAXI@Z 00000001800d8210 f i GuPCMContactCapsuleMesh.obj
 0001:000d7240       ?processHit@?$PCMMeshContactGenerationCallback@UPCMCapsuleVsMeshContactGenerationCallback@physx@@@Gu@physx@@UEAA_NAEBUPxRaycastHit@3@AEBVPxVec3@3@11AEAMPEBI@Z 00000001800d8240 f i GuPCMContactCapsuleMesh.obj
 0001:000d7610       ?generateLastContacts@PCMConvexVsMeshContactGeneration@Gu@physx@@QEAAXXZ 00000001800d8610 f   GuPCMContactConvexCommon.obj
 0001:000d7b80       ?addContactsToPatch@PCMConvexVsMeshContactGeneration@Gu@physx@@QEAAXAEBT__m128@@I@Z 00000001800d8b80 f   GuPCMContactConvexCommon.obj
 0001:000d84c0       ?processTriangle@PCMConvexVsMeshContactGeneration@Gu@physx@@QEAA_NPEBVPxVec3@3@IEPEBI@Z 00000001800d94c0 f   GuPCMContactConvexCommon.obj
 0001:000d8a10       ?processTriangle@PCMConvexVsMeshContactGeneration@Gu@physx@@SA_NAEBUPolygonalData@23@PEAVSupportLocal@23@PEBVPxVec3@3@IEAEBT__m128@@_NAEBVPsTransformV@aos@shdfnd@3@AEBVPsMatTransformV@9shdfnd@3@PEAVMeshPersistentContact@23@AEAI@Z 00000001800d9a10 f   GuPCMContactConvexCommon.obj
 0001:000d8ca0       ?processTriangle@PCMSphereVsMeshContactGeneration@Gu@physx@@QEAA_NPEBVPxVec3@3@IEPEBI@Z 00000001800d9ca0 f   GuPCMContactConvexCommon.obj
 0001:000d90c0       ?generateLastContacts@PCMSphereVsMeshContactGeneration@Gu@physx@@QEAAXXZ 00000001800da0c0 f   GuPCMContactConvexCommon.obj
 0001:000d94c0       ?addToPatch@PCMSphereVsMeshContactGeneration@Gu@physx@@QEAAXAEBT__m128@@0T4@I@Z 00000001800da4c0 f   GuPCMContactConvexCommon.obj
 0001:000d9b90       ?generateEEContacts@PCMCapsuleVsMeshContactGeneration@Gu@physx@@QEAAXAEBT__m128@@000I000PEAVMeshPersistentContact@23@AEAI@Z 00000001800dab90 f   GuPCMContactConvexCommon.obj
 0001:000d9cc0       ?generateEE@PCMCapsuleVsMeshContactGeneration@Gu@physx@@QEAAXAEBT__m128@@000I00PEAVMeshPersistentContact@23@AEAI@Z 00000001800dacc0 f   GuPCMContactConvexCommon.obj
 0001:000d9f50       ?generateContacts@PCMCapsuleVsMeshContactGeneration@Gu@physx@@SA_NAEBT__m128@@0000I000PEAVMeshPersistentContact@23@AEAI@Z 00000001800daf50 f   GuPCMContactConvexCommon.obj
 0001:000da390       ?generateEEContactsMTD@PCMCapsuleVsMeshContactGeneration@Gu@physx@@SAXAEBT__m128@@000I000PEAVMeshPersistentContact@23@AEAI@Z 00000001800db390 f   GuPCMContactConvexCommon.obj
 0001:000da4b0       ?generateEEMTD@PCMCapsuleVsMeshContactGeneration@Gu@physx@@SAXAEBT__m128@@000I00PEAVMeshPersistentContact@23@AEAI@Z 00000001800db4b0 f   GuPCMContactConvexCommon.obj
 0001:000da700       ?processTriangle@PCMCapsuleVsMeshContactGeneration@Gu@physx@@QEAA_NPEBVPxVec3@3@IEPEBI@Z 00000001800db700 f   GuPCMContactConvexCommon.obj
 0001:000db2f0       ?processTriangle@PCMCapsuleVsMeshContactGeneration@Gu@physx@@SA_NAEBVTriangleV@23@IAEBVCapsuleV@23@AEBT__m128@@EPEAVMeshPersistentContact@23@AEAI@Z 00000001800dc2f0 f   GuPCMContactConvexCommon.obj
 0001:000db630       ?pcmDistanceSegmentTriangleSquared@Gu@physx@@YA?AT__m128@@AEBT3@0000AEAT3@11@Z 00000001800dc630 f   GuPCMContactConvexCommon.obj
 0001:000dbf70       ??$sort@USortedTriangle@Gu@physx@@U?$Less@USortedTriangle@Gu@physx@@@shdfnd@3@@shdfnd@physx@@YAXPEAUSortedTriangle@Gu@1@IAEBU?$Less@USortedTriangle@Gu@physx@@@01@@Z 00000001800dcf70 f i GuPCMContactConvexCommon.obj
 0001:000dbf90       ??$sort@USortedTriangle@Gu@physx@@U?$Less@USortedTriangle@Gu@physx@@@shdfnd@3@V?$ReflectionAllocator@USortedTriangle@Gu@physx@@@53@@shdfnd@physx@@YAXPEAUSortedTriangle@Gu@1@IAEBU?$Less@USortedTriangle@Gu@physx@@@01@AEBV?$ReflectionAllocator@USortedTriangle@Gu@physx@@@01@I@Z 00000001800dcf90 f i GuPCMContactConvexCommon.obj
 0001:000dc4c0       ??_E?$SupportLocalImpl@VTriangleV@Gu@physx@@@Gu@physx@@UEAAPEAXI@Z 00000001800dd4c0 f i GuPCMContactConvexCommon.obj
 0001:000dc4c0       ??_G?$SupportLocalImpl@VTriangleV@Gu@physx@@@Gu@physx@@UEAAPEAXI@Z 00000001800dd4c0 f i GuPCMContactConvexCommon.obj
 0001:000dc4f0       ?allocate@?$ReflectionAllocator@USortedTriangle@Gu@physx@@@shdfnd@physx@@QEAAPEAX_KPEBDH@Z 00000001800dd4f0 f i GuPCMContactConvexCommon.obj
 0001:000dc590       ?doSupport@?$SupportLocalImpl@VTriangleV@Gu@physx@@@Gu@physx@@UEBA?AT__m128@@AEBT4@@Z 00000001800dd590 f i GuPCMContactConvexCommon.obj
 0001:000dc620       ?doSupport@?$SupportLocalImpl@VTriangleV@Gu@physx@@@Gu@physx@@UEBAXAEBT__m128@@AEAT4@1@Z 00000001800dd620 f i GuPCMContactConvexCommon.obj
 0001:000dc690       ?growAndPushBack@?$Array@USortedTriangle@Gu@physx@@V?$InlineAllocator@$0IAA@V?$ReflectionAllocator@USortedTriangle@Gu@physx@@@shdfnd@physx@@@shdfnd@3@@shdfnd@physx@@IEAAAEAUSortedTriangle@Gu@3@AEBU453@@Z 00000001800dd690 f i GuPCMContactConvexCommon.obj
 0001:000dcd10       ?populateVerts@?$SupportLocalImpl@VTriangleV@Gu@physx@@@Gu@physx@@UEBAXPEBEIPEBVPxVec3@3@PEAT__m128@@@Z 00000001800ddd10 f i GuPCMContactConvexCommon.obj
 0001:000dce50       ?pcmContactConvexConvex@Gu@physx@@YA_NAEBVGeometryUnion@12@0AEBVPxTransform@2@1AEBUNarrowPhaseParams@12@AEAUCache@12@AEAVContactBuffer@12@PEAVRenderOutput@Cm@2@@Z 00000001800dde50 f   GuPCMContactConvexConvex.obj
 0001:000de480       ??$gjkPenetration@U?$RelativeConvex@VShrunkConvexHullNoScaleV@Gu@physx@@@Gu@physx@@U?$LocalConvex@VShrunkConvexHullNoScaleV@Gu@physx@@@23@@Gu@physx@@YA?AW4GjkStatus@01@AEBU?$RelativeConvex@VShrunkConvexHullNoScaleV@Gu@physx@@@01@AEBU?$LocalConvex@VShrunkConvexHullNoScaleV@Gu@physx@@@01@AEBT__m128@@2AEAT5@333PEIAE4AEAE_N@Z 00000001800df480 f i GuPCMContactConvexConvex.obj
 0001:000e0210       ??$gjkPenetration@U?$RelativeConvex@VShrunkConvexHullNoScaleV@Gu@physx@@@Gu@physx@@U?$LocalConvex@VShrunkConvexHullV@Gu@physx@@@23@@Gu@physx@@YA?AW4GjkStatus@01@AEBU?$RelativeConvex@VShrunkConvexHullNoScaleV@Gu@physx@@@01@AEBU?$LocalConvex@VShrunkConvexHullV@Gu@physx@@@01@AEBT__m128@@2AEAT5@333PEIAE4AEAE_N@Z 00000001800e1210 f i GuPCMContactConvexConvex.obj
 0001:000e1f60       ??$gjkPenetration@U?$RelativeConvex@VShrunkConvexHullV@Gu@physx@@@Gu@physx@@U?$LocalConvex@VShrunkConvexHullNoScaleV@Gu@physx@@@23@@Gu@physx@@YA?AW4GjkStatus@01@AEBU?$RelativeConvex@VShrunkConvexHullV@Gu@physx@@@01@AEBU?$LocalConvex@VShrunkConvexHullNoScaleV@Gu@physx@@@01@AEBT__m128@@2AEAT5@333PEIAE4AEAE_N@Z 00000001800e2f60 f i GuPCMContactConvexConvex.obj
 0001:000e3c50       ??$gjkPenetration@U?$RelativeConvex@VShrunkConvexHullV@Gu@physx@@@Gu@physx@@U?$LocalConvex@VShrunkConvexHullV@Gu@physx@@@23@@Gu@physx@@YA?AW4GjkStatus@01@AEBU?$RelativeConvex@VShrunkConvexHullV@Gu@physx@@@01@AEBU?$LocalConvex@VShrunkConvexHullV@Gu@physx@@@01@AEBT__m128@@2AEAT5@333PEIAE4AEAE_N@Z 00000001800e4c50 f i GuPCMContactConvexConvex.obj
 0001:000e58f0       ??_E?$RelativeConvex@VConvexHullV@Gu@physx@@@Gu@physx@@UEAAPEAXI@Z 00000001800e68f0 f i GuPCMContactConvexConvex.obj
 0001:000e58f0       ??_G?$RelativeConvex@VConvexHullV@Gu@physx@@@Gu@physx@@UEAAPEAXI@Z 00000001800e68f0 f i GuPCMContactConvexConvex.obj
 0001:000e5920       ??_E?$RelativeConvex@VShrunkConvexHullNoScaleV@Gu@physx@@@Gu@physx@@UEAAPEAXI@Z 00000001800e6920 f i GuPCMContactConvexConvex.obj
 0001:000e5920       ??_G?$RelativeConvex@VShrunkConvexHullNoScaleV@Gu@physx@@@Gu@physx@@UEAAPEAXI@Z 00000001800e6920 f i GuPCMContactConvexConvex.obj
 0001:000e5950       ??_E?$RelativeConvex@VShrunkConvexHullV@Gu@physx@@@Gu@physx@@UEAAPEAXI@Z 00000001800e6950 f i GuPCMContactConvexConvex.obj
 0001:000e5950       ??_G?$RelativeConvex@VShrunkConvexHullV@Gu@physx@@@Gu@physx@@UEAAPEAXI@Z 00000001800e6950 f i GuPCMContactConvexConvex.obj
 0001:000e6060       ?getCenter@?$RelativeConvex@VConvexHullV@Gu@physx@@@Gu@physx@@UEBA?AT__m128@@XZ 00000001800e7060 f i GuPCMContactConvexConvex.obj
 0001:000e60a0       ?getCenter@?$RelativeConvex@VShrunkConvexHullNoScaleV@Gu@physx@@@Gu@physx@@UEBA?AT__m128@@XZ 00000001800e70a0 f i GuPCMContactConvexConvex.obj
 0001:000e60e0       ?getCenter@?$RelativeConvex@VShrunkConvexHullV@Gu@physx@@@Gu@physx@@UEBA?AT__m128@@XZ 00000001800e70e0 f i GuPCMContactConvexConvex.obj
 0001:000e6120       ?getSweepMargin@?$RelativeConvex@VConvexHullV@Gu@physx@@@Gu@physx@@UEBA?AT__m128@@XZ 00000001800e7120 f i GuPCMContactConvexConvex.obj
 0001:000e6140       ?getSweepMargin@?$RelativeConvex@VShrunkConvexHullNoScaleV@Gu@physx@@@Gu@physx@@UEBA?AT__m128@@XZ 00000001800e7140 f i GuPCMContactConvexConvex.obj
 0001:000e6160       ?getSweepMargin@?$RelativeConvex@VShrunkConvexHullV@Gu@physx@@@Gu@physx@@UEBA?AT__m128@@XZ 00000001800e7160 f i GuPCMContactConvexConvex.obj
 0001:000e6180       ?support@?$RelativeConvex@VConvexHullV@Gu@physx@@@Gu@physx@@UEBA?AT__m128@@AEBT4@@Z 00000001800e7180 f i GuPCMContactConvexConvex.obj
 0001:000e62b0       ?support@?$RelativeConvex@VConvexHullV@Gu@physx@@@Gu@physx@@UEBA?AT__m128@@AEBT4@AEAHPEAT4@@Z 00000001800e72b0 f i GuPCMContactConvexConvex.obj
 0001:000e63d0       ?support@?$RelativeConvex@VShrunkConvexHullNoScaleV@Gu@physx@@@Gu@physx@@UEBA?AT__m128@@AEBT4@@Z 00000001800e73d0 f i GuPCMContactConvexConvex.obj
 0001:000e6650       ?support@?$RelativeConvex@VShrunkConvexHullNoScaleV@Gu@physx@@@Gu@physx@@UEBA?AT__m128@@AEBT4@AEAHPEAT4@@Z 00000001800e7650 f i GuPCMContactConvexConvex.obj
 0001:000e6920       ?support@?$RelativeConvex@VShrunkConvexHullV@Gu@physx@@@Gu@physx@@UEBA?AT__m128@@AEBT4@@Z 00000001800e7920 f i GuPCMContactConvexConvex.obj
 0001:000e6d80       ?support@?$RelativeConvex@VShrunkConvexHullV@Gu@physx@@@Gu@physx@@UEBA?AT__m128@@AEBT4@AEAHPEAT4@@Z 00000001800e7d80 f i GuPCMContactConvexConvex.obj
 0001:000e7220       ?supportPoint@?$RelativeConvex@VConvexHullV@Gu@physx@@@Gu@physx@@UEBA?AT__m128@@HPEAT4@@Z 00000001800e8220 f i GuPCMContactConvexConvex.obj
 0001:000e72a0       ?supportPoint@?$RelativeConvex@VShrunkConvexHullNoScaleV@Gu@physx@@@Gu@physx@@UEBA?AT__m128@@HPEAT4@@Z 00000001800e82a0 f i GuPCMContactConvexConvex.obj
 0001:000e7520       ?supportPoint@?$RelativeConvex@VShrunkConvexHullV@Gu@physx@@@Gu@physx@@UEBA?AT__m128@@HPEAT4@@Z 00000001800e8520 f i GuPCMContactConvexConvex.obj
 0001:000e7930       ?pcmContactBoxHeightField@Gu@physx@@YA_NAEBVGeometryUnion@12@0AEBVPxTransform@2@1AEBUNarrowPhaseParams@12@AEAUCache@12@AEAVContactBuffer@12@PEAVRenderOutput@Cm@2@@Z 00000001800e8930 f   GuPCMContactConvexHeightField.obj
 0001:000e7bd0       ?pcmContactConvexHeightField@Gu@physx@@YA_NAEBVGeometryUnion@12@0AEBVPxTransform@2@1AEBUNarrowPhaseParams@12@AEAUCache@12@AEAVContactBuffer@12@PEAVRenderOutput@Cm@2@@Z 00000001800e8bd0 f   GuPCMContactConvexHeightField.obj
 0001:000e8280       ?PCMContactConvexHeightfield@Gu@physx@@YA_NAEBUPolygonalData@12@PEAVSupportLocal@12@AEBT__m128@@AEBVPxBounds3@2@AEBVPxHeightFieldGeometry@2@AEBVPxTransform@2@5MAEAVContactBuffer@12@AEBVFastVertex2ShapeScaling@Cm@2@_NAEAVMultiplePersistentContactManifold@12@PEAVRenderOutput@Cm@2@@Z 00000001800e9280 f   GuPCMContactConvexHeightField.obj
 0001:000e8d60       ??_E?$PCMHeightfieldContactGenerationCallback@UPCMConvexVsHeightfieldContactGenerationCallback@physx@@@Gu@physx@@UEAAPEAXI@Z 00000001800e9d60 f i GuPCMContactConvexHeightField.obj
 0001:000e8d60       ??_G?$PCMHeightfieldContactGenerationCallback@UPCMConvexVsHeightfieldContactGenerationCallback@physx@@@Gu@physx@@UEAAPEAXI@Z 00000001800e9d60 f i GuPCMContactConvexHeightField.obj
 0001:000e8d90       ??_EPCMConvexVsHeightfieldContactGenerationCallback@physx@@UEAAPEAXI@Z 00000001800e9d90 f i GuPCMContactConvexHeightField.obj
 0001:000e8d90       ??_GPCMConvexVsHeightfieldContactGenerationCallback@physx@@UEAAPEAXI@Z 00000001800e9d90 f i GuPCMContactConvexHeightField.obj
 0001:000e8dc0       ?onEvent@?$PCMHeightfieldContactGenerationCallback@UPCMConvexVsHeightfieldContactGenerationCallback@physx@@@Gu@physx@@UEAA_NIPEAI@Z 00000001800e9dc0 f i GuPCMContactConvexHeightField.obj
 0001:000e9370       ?pcmContactBoxMesh@Gu@physx@@YA_NAEBVGeometryUnion@12@0AEBVPxTransform@2@1AEBUNarrowPhaseParams@12@AEAUCache@12@AEAVContactBuffer@12@PEAVRenderOutput@Cm@2@@Z 00000001800ea370 f   GuPCMContactConvexMesh.obj
 0001:000e96b0       ?pcmContactConvexMesh@Gu@physx@@YA_NAEBVGeometryUnion@12@0AEBVPxTransform@2@1AEBUNarrowPhaseParams@12@AEAUCache@12@AEAVContactBuffer@12@PEAVRenderOutput@Cm@2@@Z 00000001800ea6b0 f   GuPCMContactConvexMesh.obj
 0001:000e9e70       ?PCMContactConvexMesh@Gu@physx@@YA_NAEBUPolygonalData@12@PEAVSupportLocal@12@AEBT__m128@@AEBVPxBounds3@2@AEBUPxTriangleMeshGeometryLL@2@AEBVPxTransform@2@5MAEAVContactBuffer@12@AEBVFastVertex2ShapeScaling@Cm@2@7_N8AEAVMultiplePersistentContactManifold@12@PEAVRenderOutput@Cm@2@@Z 00000001800eae70 f   GuPCMContactConvexMesh.obj
 0001:000eaa40       ??$processTriangleCache@$0BA@@PCMConvexVsMeshContactGenerationCallback@physx@@QEAAXAEAU?$TriangleCache@$0BA@@Gu@1@@Z 00000001800eba40 f i GuPCMContactConvexMesh.obj
 0001:000eaad0       ??_E?$PCMMeshContactGenerationCallback@UPCMConvexVsMeshContactGenerationCallback@physx@@@Gu@physx@@UEAAPEAXI@Z 00000001800ebad0 f i GuPCMContactConvexMesh.obj
 0001:000eaad0       ??_G?$PCMMeshContactGenerationCallback@UPCMConvexVsMeshContactGenerationCallback@physx@@@Gu@physx@@UEAAPEAXI@Z 00000001800ebad0 f i GuPCMContactConvexMesh.obj
 0001:000eab00       ??_EPCMConvexVsMeshContactGenerationCallback@physx@@UEAAPEAXI@Z 00000001800ebb00 f i GuPCMContactConvexMesh.obj
 0001:000eab00       ??_GPCMConvexVsMeshContactGenerationCallback@physx@@UEAAPEAXI@Z 00000001800ebb00 f i GuPCMContactConvexMesh.obj
 0001:000eab30       ?processHit@?$PCMMeshContactGenerationCallback@UPCMConvexVsMeshContactGenerationCallback@physx@@@Gu@physx@@UEAA_NAEBUPxRaycastHit@3@AEBVPxVec3@3@11AEAMPEBI@Z 00000001800ebb30 f i GuPCMContactConvexMesh.obj
 0001:000eaf60       ?generateFullContactManifold@Gu@physx@@YA_NAEAUPolygonalData@12@0PEAVSupportLocal@12@1PEAVPersistentContact@12@AEAIAEBT__m128@@444MM_NPEAVRenderOutput@Cm@2@M@Z 00000001800ebf60 f   GuPCMContactGenBoxConvex.obj
 0001:000ec800       ?computeMTD@Gu@physx@@YA_NAEAUPolygonalData@12@0PEAVSupportLocal@12@1AEAT__m128@@2@Z 00000001800ed800 f   GuPCMContactGenBoxConvex.obj
 0001:000ece60       ?buildPartialHull@Gu@physx@@YAXAEBUPolygonalData@12@PEAVSupportLocal@12@AEAVSeparatingAxes@12@AEBT__m128@@3@Z 00000001800ede60 f   GuPCMContactGenBoxConvex.obj
 0001:000ed140       ?generatedContacts@Gu@physx@@YAXAEAUPolygonalData@12@0AEBUHullPolygonData@12@1PEAVSupportLocal@12@2AEBVPsMatTransformV@aos@shdfnd@2@PEAVPersistentContact@12@AEAIAEBT__m128@@PEAVRenderOutput@Cm@2@@Z 00000001800ee140 f   GuPCMContactGenBoxConvex.obj
 0001:000ee820       ?generateFullContactManifold@Gu@physx@@YA_NAEBVCapsuleV@12@AEAUPolygonalData@12@PEAVSupportLocal@12@AEBVPsMatTransformV@aos@shdfnd@2@PEAVPersistentContact@12@AEAIAEBT__m128@@AEAT__m128@@6M_NM@Z 00000001800ef820 f   GuPCMContactGenSphereCapsule.obj
 0001:000ef130       ?generateCapsuleBoxFullContactManifold@Gu@physx@@YA_NAEBVCapsuleV@12@AEAUPolygonalData@12@PEAVSupportLocal@12@AEBVPsMatTransformV@aos@shdfnd@2@PEAVPersistentContact@12@AEAIAEBT__m128@@AEAT__m128@@6M_NMPEAVRenderOutput@Cm@2@@Z 00000001800f0130 f   GuPCMContactGenSphereCapsule.obj
 0001:000ef9b0       ?computeMTD@Gu@physx@@YA_NAEBVCapsuleV@12@AEAUPolygonalData@12@PEAVSupportLocal@12@AEAT__m128@@3@Z 00000001800f09b0 f   GuPCMContactGenSphereCapsule.obj
 0001:000efaa0       ?generateSphereFullContactManifold@Gu@physx@@YA_NAEBVCapsuleV@12@AEAUPolygonalData@12@PEAVSupportLocal@12@PEAVPersistentContact@12@AEAIAEBT__m128@@AEAT7@_N@Z 00000001800f0aa0 f   GuPCMContactGenSphereCapsule.obj
 0001:000efed0       ?generatedCapsuleBoxFaceContacts@Gu@physx@@YAXAEBVCapsuleV@12@AEAUPolygonalData@12@AEBUHullPolygonData@12@PEAVSupportLocal@12@AEBVPsMatTransformV@aos@shdfnd@2@PEAVPersistentContact@12@AEAIAEBT__m128@@7@Z 00000001800f0ed0 f   GuPCMContactGenSphereCapsule.obj
 0001:000f0680       ?generatedContactsEEContacts@Gu@physx@@YAXAEBVCapsuleV@12@AEAUPolygonalData@12@AEBUHullPolygonData@12@PEAVSupportLocal@12@AEBVPsMatTransformV@aos@shdfnd@2@PEAVPersistentContact@12@AEAIAEBT__m128@@7@Z 00000001800f1680 f   GuPCMContactGenSphereCapsule.obj
 0001:000f1310       ?pcmContactPlaneBox@Gu@physx@@YA_NAEBVGeometryUnion@12@0AEBVPxTransform@2@1AEBUNarrowPhaseParams@12@AEAUCache@12@AEAVContactBuffer@12@PEAVRenderOutput@Cm@2@@Z 00000001800f2310 f   GuPCMContactPlaneBox.obj
 0001:000f1f00       ?pcmContactPlaneCapsule@Gu@physx@@YA_NAEBVGeometryUnion@12@0AEBVPxTransform@2@1AEBUNarrowPhaseParams@12@AEAUCache@12@AEAVContactBuffer@12@PEAVRenderOutput@Cm@2@@Z 00000001800f2f00 f   GuPCMContactPlaneCapsule.obj
 0001:000f26a0       ?pcmContactPlaneConvex@Gu@physx@@YA_NAEBVGeometryUnion@12@0AEBVPxTransform@2@1AEBUNarrowPhaseParams@12@AEAUCache@12@AEAVContactBuffer@12@PEAVRenderOutput@Cm@2@@Z 00000001800f36a0 f   GuPCMContactPlaneConvex.obj
 0001:000f3010       ?pcmContactSphereBox@Gu@physx@@YA_NAEBVGeometryUnion@12@0AEBVPxTransform@2@1AEBUNarrowPhaseParams@12@AEAUCache@12@AEAVContactBuffer@12@PEAVRenderOutput@Cm@2@@Z 00000001800f4010 f   GuPCMContactSphereBox.obj
 0001:000f3480       ?pcmContactSphereCapsule@Gu@physx@@YA_NAEBVGeometryUnion@12@0AEBVPxTransform@2@1AEBUNarrowPhaseParams@12@AEAUCache@12@AEAVContactBuffer@12@PEAVRenderOutput@Cm@2@@Z 00000001800f4480 f   GuPCMContactSphereCapsule.obj
 0001:000f36e0       ?pcmContactSphereConvex@Gu@physx@@YA_NAEBVGeometryUnion@12@0AEBVPxTransform@2@1AEBUNarrowPhaseParams@12@AEAUCache@12@AEAVContactBuffer@12@PEAVRenderOutput@Cm@2@@Z 00000001800f46e0 f   GuPCMContactSphereConvex.obj
 0001:000f4600       ?pcmContactSphereHeightField@Gu@physx@@YA_NAEBVGeometryUnion@12@0AEBVPxTransform@2@1AEBUNarrowPhaseParams@12@AEAUCache@12@AEAVContactBuffer@12@PEAVRenderOutput@Cm@2@@Z 00000001800f5600 f   GuPCMContactSphereHeightField.obj
 0001:000f50c0       ??1?$Array@USortedTriangle@Gu@physx@@V?$InlineAllocator@$0IAA@V?$ReflectionAllocator@USortedTriangle@Gu@physx@@@shdfnd@physx@@@shdfnd@3@@shdfnd@physx@@QEAA@XZ 00000001800f60c0 f i GuPCMContactSphereHeightField.obj
 0001:000f5130       ??_E?$PCMHeightfieldContactGenerationCallback@UPCMSphereVsHeightfieldContactGenerationCallback@physx@@@Gu@physx@@UEAAPEAXI@Z 00000001800f6130 f i GuPCMContactSphereHeightField.obj
 0001:000f5130       ??_G?$PCMHeightfieldContactGenerationCallback@UPCMSphereVsHeightfieldContactGenerationCallback@physx@@@Gu@physx@@UEAAPEAXI@Z 00000001800f6130 f i GuPCMContactSphereHeightField.obj
 0001:000f5160       ??_EPCMSphereVsHeightfieldContactGenerationCallback@physx@@UEAAPEAXI@Z 00000001800f6160 f i GuPCMContactSphereHeightField.obj
 0001:000f5160       ??_GPCMSphereVsHeightfieldContactGenerationCallback@physx@@UEAAPEAXI@Z 00000001800f6160 f i GuPCMContactSphereHeightField.obj
 0001:000f51b0       ?onEvent@?$PCMHeightfieldContactGenerationCallback@UPCMSphereVsHeightfieldContactGenerationCallback@physx@@@Gu@physx@@UEAA_NIPEAI@Z 00000001800f61b0 f i GuPCMContactSphereHeightField.obj
 0001:000f5760       ?pcmContactSphereMesh@Gu@physx@@YA_NAEBVGeometryUnion@12@0AEBVPxTransform@2@1AEBUNarrowPhaseParams@12@AEAUCache@12@AEAVContactBuffer@12@PEAVRenderOutput@Cm@2@@Z 00000001800f6760 f   GuPCMContactSphereMesh.obj
 0001:000f6380       ??$processTriangleCache@$0BA@@PCMSphereVsMeshContactGenerationCallback@physx@@QEAAXAEAU?$TriangleCache@$0BA@@Gu@1@@Z 00000001800f7380 f i GuPCMContactSphereMesh.obj
 0001:000f6410       ??_E?$PCMMeshContactGenerationCallback@UPCMSphereVsMeshContactGenerationCallback@physx@@@Gu@physx@@UEAAPEAXI@Z 00000001800f7410 f i GuPCMContactSphereMesh.obj
 0001:000f6410       ??_G?$PCMMeshContactGenerationCallback@UPCMSphereVsMeshContactGenerationCallback@physx@@@Gu@physx@@UEAAPEAXI@Z 00000001800f7410 f i GuPCMContactSphereMesh.obj
 0001:000f6440       ??_EPCMSphereVsMeshContactGenerationCallback@physx@@UEAAPEAXI@Z 00000001800f7440 f i GuPCMContactSphereMesh.obj
 0001:000f6440       ??_GPCMSphereVsMeshContactGenerationCallback@physx@@UEAAPEAXI@Z 00000001800f7440 f i GuPCMContactSphereMesh.obj
 0001:000f6490       ?processHit@?$PCMMeshContactGenerationCallback@UPCMSphereVsMeshContactGenerationCallback@physx@@@Gu@physx@@UEAA_NAEBUPxRaycastHit@3@AEBVPxVec3@3@11AEAMPEBI@Z 00000001800f7490 f i GuPCMContactSphereMesh.obj
 0001:000f6860       ?pcmContactSpherePlane@Gu@physx@@YA_NAEBVGeometryUnion@12@0AEBVPxTransform@2@1AEBUNarrowPhaseParams@12@AEAUCache@12@AEAVContactBuffer@12@PEAVRenderOutput@Cm@2@@Z 00000001800f7860 f   GuPCMContactSpherePlane.obj
 0001:000f69f0       ?pcmContactSphereSphere@Gu@physx@@YA_NAEBVGeometryUnion@12@0AEBVPxTransform@2@1AEBUNarrowPhaseParams@12@AEAUCache@12@AEAVContactBuffer@12@PEAVRenderOutput@Cm@2@@Z 00000001800f79f0 f   GuPCMContactSphereSphere.obj
 0001:000f6ad0       ??0PCMPolygonalBox@Gu@physx@@QEAA@AEBVPxVec3@2@@Z 00000001800f7ad0 f   GuPCMShapeConvex.obj
 0001:000f6ca0       ?getPolygonalData@PCMPolygonalBox@Gu@physx@@QEBAXPEIAUPolygonalData@23@@Z 00000001800f7ca0 f   GuPCMShapeConvex.obj
 0001:000f6cf0       ?getPCMConvexData@Gu@physx@@YAXAEBVConvexHullV@12@_NAEAUPolygonalData@12@@Z 00000001800f7cf0 f   GuPCMShapeConvex.obj
 0001:000f6e50       ?getPCMConvexData@Gu@physx@@YA_NAEBVGeometryUnion@12@AEAVFastVertex2ShapeScaling@Cm@2@AEAVPxBounds3@2@AEAUPolygonalData@12@@Z 00000001800f7e50 f   GuPCMShapeConvex.obj
 0001:000f7210       ?generateTriangleFullContactManifold@PCMConvexVsMeshContactGeneration@Gu@physx@@QEAA_NAEAVTriangleV@23@IPEBIEAEBUPolygonalData@23@PEAV?$SupportLocalImpl@VTriangleV@Gu@physx@@@23@PEAVSupportLocal@23@PEAVMeshPersistentContact@23@AEAIAEBT__m128@@AEAT9@@Z 00000001800f8210 f   GuPCMTriangleContactGen.obj
 0001:000f7b10       ?generatePolyDataContactManifold@PCMConvexVsMeshContactGeneration@Gu@physx@@QEAA_NAEAVTriangleV@23@IIEPEAVMeshPersistentContact@23@AEAIAEBT__m128@@AEAT6@@Z 00000001800f8b10 f   GuPCMTriangleContactGen.obj
 0001:000f7c40       ?generateTriangleFullContactManifold@PCMConvexVsMeshContactGeneration@Gu@physx@@SA_NAEAVTriangleV@23@IEAEBUPolygonalData@23@PEAV?$SupportLocalImpl@VTriangleV@Gu@physx@@@23@PEAVSupportLocal@23@PEAVMeshPersistentContact@23@AEAIAEBT__m128@@AEAT9@PEAVRenderOutput@Cm@3@@Z 00000001800f8c40 f   GuPCMTriangleContactGen.obj
 0001:000fa390       ?findRotationMatrixFromZAxis@Gu@physx@@YA?AUMat33V@aos@shdfnd@2@AEBT__m128@@@Z 00000001800fb390 f   GuPersistentContactManifold.obj
 0001:000fa620       ?replaceManifoldPoint@PersistentContactManifold@Gu@physx@@QEAA_NAEBT__m128@@000@Z 00000001800fb620 f   GuPersistentContactManifold.obj
 0001:000fa6f0       ?addManifoldPoint@PersistentContactManifold@Gu@physx@@QEAAIAEBT__m128@@000@Z 00000001800fb6f0 f   GuPersistentContactManifold.obj
 0001:000fa7c0       ?addManifoldPoint2@PersistentContactManifold@Gu@physx@@QEAAIAEBT__m128@@000@Z 00000001800fb7c0 f   GuPersistentContactManifold.obj
 0001:000fa900       ?addBatchManifoldContactsCluster@PersistentContactManifold@Gu@physx@@QEAAXPEBVPersistentContact@23@I@Z 00000001800fb900 f   GuPersistentContactManifold.obj
 0001:000fa980       ?addBatchManifoldContacts2@PersistentContactManifold@Gu@physx@@QEAAXPEBVPersistentContact@23@I@Z 00000001800fb980 f   GuPersistentContactManifold.obj
 0001:000faa00       ?addBatchManifoldContacts@PersistentContactManifold@Gu@physx@@QEAAXPEBVPersistentContact@23@IM@Z 00000001800fba00 f   GuPersistentContactManifold.obj
 0001:000faa80       ?reduceBatchContactsCluster@PersistentContactManifold@Gu@physx@@QEAAXPEBVPersistentContact@23@I@Z 00000001800fba80 f   GuPersistentContactManifold.obj
 0001:000faf20       ?reduceBatchContacts2@PersistentContactManifold@Gu@physx@@QEAAXPEBVPersistentContact@23@I@Z 00000001800fbf20 f   GuPersistentContactManifold.obj
 0001:000fb120       ?reduceBatchContacts@PersistentContactManifold@Gu@physx@@QEAAXPEBVPersistentContact@23@IM@Z 00000001800fc120 f   GuPersistentContactManifold.obj
 0001:000fb5f0       ?reduceContactsForPCM@PersistentContactManifold@Gu@physx@@QEAAIAEBT__m128@@00@Z 00000001800fc5f0 f   GuPersistentContactManifold.obj
 0001:000fbba0       ?reduceContactSegment@PersistentContactManifold@Gu@physx@@QEAAIAEBT__m128@@00@Z 00000001800fcba0 f   GuPersistentContactManifold.obj
 0001:000fbc40       ?addManifoldContactsToContactBuffer@PersistentContactManifold@Gu@physx@@QEAAXAEAVContactBuffer@23@AEBT__m128@@AEBVPsMatTransformV@aos@shdfnd@3@@Z 00000001800fcc40 f   GuPersistentContactManifold.obj
 0001:000fbcf0       ?addManifoldContactsToContactBuffer@PersistentContactManifold@Gu@physx@@QEAAXAEAVContactBuffer@23@AEBT__m128@@AEBVPsTransformV@aos@shdfnd@3@1@Z 00000001800fccf0 f   GuPersistentContactManifold.obj
 0001:000fbe50       ?addManifoldContactsToContactBuffer@PersistentContactManifold@Gu@physx@@QEAAXAEAVContactBuffer@23@AEBT__m128@@1AEBVPsTransformV@aos@shdfnd@3@11@Z 00000001800fce50 f   GuPersistentContactManifold.obj
 0001:000fbff0       ?drawManifold@PersistentContactManifold@Gu@physx@@QEAAXAEAVRenderOutput@Cm@3@AEBVPsTransformV@aos@shdfnd@3@1@Z 00000001800fcff0 f   GuPersistentContactManifold.obj
 0001:000fc070       ?drawManifold@PersistentContactManifold@Gu@physx@@QEAAXAEAVRenderOutput@Cm@3@AEBVPsTransformV@aos@shdfnd@3@1AEBT__m128@@@Z 00000001800fd070 f   GuPersistentContactManifold.obj
 0001:000fc110       ?drawManifold@PersistentContactManifold@Gu@physx@@QEAAXAEBVPersistentContact@23@AEAVRenderOutput@Cm@3@AEBVPsTransformV@aos@shdfnd@3@2@Z 00000001800fd110 f   GuPersistentContactManifold.obj
 0001:000fc140       ?drawPoint@PersistentContactManifold@Gu@physx@@SAXAEAVRenderOutput@Cm@3@AEBT__m128@@MI@Z 00000001800fd140 f   GuPersistentContactManifold.obj
 0001:000fc320       ?drawLine@PersistentContactManifold@Gu@physx@@SAXAEAVRenderOutput@Cm@3@AEBT__m128@@1I@Z 00000001800fd320 f   GuPersistentContactManifold.obj
 0001:000fc3e0       ?drawTriangle@PersistentContactManifold@Gu@physx@@SAXAEAVRenderOutput@Cm@3@AEBT__m128@@11I@Z 00000001800fd3e0 f   GuPersistentContactManifold.obj
 0001:000fc4d0       ?drawPolygon@PersistentContactManifold@Gu@physx@@SAXAEAVRenderOutput@Cm@3@AEBVPsTransformV@aos@shdfnd@3@PEAT__m128@@II@Z 00000001800fd4d0 f   GuPersistentContactManifold.obj
 0001:000fc750       ?drawPolygon@PersistentContactManifold@Gu@physx@@SAXAEAVRenderOutput@Cm@3@AEBVPsMatTransformV@aos@shdfnd@3@PEAT__m128@@II@Z 00000001800fd750 f   GuPersistentContactManifold.obj
 0001:000fc910       ?reduceBatchContactsConvex@SinglePersistentContactManifold@Gu@physx@@QEAA?AT__m128@@PEBVMeshPersistentContact@23@IAEAUPCMContactPatch@23@@Z 00000001800fd910 f   GuPersistentContactManifold.obj
 0001:000fcf10       ?reduceBatchContactsSphere@SinglePersistentContactManifold@Gu@physx@@QEAA?AT__m128@@PEBVMeshPersistentContact@23@IAEAUPCMContactPatch@23@@Z 00000001800fdf10 f   GuPersistentContactManifold.obj
 0001:000fcfd0       ?reduceBatchContactsCapsule@SinglePersistentContactManifold@Gu@physx@@QEAA?AT__m128@@PEBVMeshPersistentContact@23@IAEAUPCMContactPatch@23@@Z 00000001800fdfd0 f   GuPersistentContactManifold.obj
 0001:000fd260       ?addBatchManifoldContactsConvex@SinglePersistentContactManifold@Gu@physx@@QEAA?AT__m128@@PEBVMeshPersistentContact@23@IAEAUPCMContactPatch@23@AEBT4@@Z 00000001800fe260 f   GuPersistentContactManifold.obj
 0001:000fd330       ?addBatchManifoldContactsSphere@SinglePersistentContactManifold@Gu@physx@@QEAA?AT__m128@@PEBVMeshPersistentContact@23@IAEAUPCMContactPatch@23@AEBT4@@Z 00000001800fe330 f   GuPersistentContactManifold.obj
 0001:000fd400       ?addBatchManifoldContactsCapsule@SinglePersistentContactManifold@Gu@physx@@QEAA?AT__m128@@PEBVMeshPersistentContact@23@IAEAUPCMContactPatch@23@AEBT4@@Z 00000001800fe400 f   GuPersistentContactManifold.obj
 0001:000fd4d0       ?reduceContacts@SinglePersistentContactManifold@Gu@physx@@SAIPEAVMeshPersistentContact@23@I@Z 00000001800fe4d0 f   GuPersistentContactManifold.obj
 0001:000fd9e0       ?refreshContactPoints@SinglePersistentContactManifold@Gu@physx@@QEAA?AT__m128@@AEBVPsMatTransformV@aos@shdfnd@3@AEBT4@1@Z 00000001800fe9e0 f   GuPersistentContactManifold.obj
 0001:000fdb40       ?drawManifold@SinglePersistentContactManifold@Gu@physx@@QEAAXAEAVRenderOutput@Cm@3@AEBVPsTransformV@aos@shdfnd@3@1@Z 00000001800feb40 f   GuPersistentContactManifold.obj
 0001:000fdbd0       ?addManifoldContactPoints@MultiplePersistentContactManifold@Gu@physx@@QEAAXPEAVMeshPersistentContact@23@IPEAPEAUPCMContactPatch@23@IAEBT__m128@@2E@Z 00000001800febd0 f   GuPersistentContactManifold.obj
 0001:000fdfc0       ?addManifoldContactsToContactBuffer@MultiplePersistentContactManifold@Gu@physx@@QEAA_NAEAVContactBuffer@23@AEBVPsTransformV@aos@shdfnd@3@@Z 00000001800fefc0 f   GuPersistentContactManifold.obj
 0001:000fe250       ?addManifoldContactsToContactBuffer@MultiplePersistentContactManifold@Gu@physx@@QEAA_NAEAVContactBuffer@23@AEBVPsTransformV@aos@shdfnd@3@1AEBT__m128@@@Z 00000001800ff250 f   GuPersistentContactManifold.obj
 0001:000fe510       ?drawManifold@MultiplePersistentContactManifold@Gu@physx@@QEAAXAEAVRenderOutput@Cm@3@AEBVPsTransformV@aos@shdfnd@3@1@Z 00000001800ff510 f   GuPersistentContactManifold.obj
 0001:000fe5d0       ?fromBuffer@MultiplePersistentContactManifold@Gu@physx@@QEAAXPEIAE@Z 00000001800ff5d0 f   GuPersistentContactManifold.obj
 0001:000fe720       ?drawLine@MultiplePersistentContactManifold@Gu@physx@@SAXAEAVRenderOutput@Cm@3@AEBT__m128@@1I@Z 00000001800ff720 f   GuPersistentContactManifold.obj
 0001:000fe7e0       ?drawLine@MultiplePersistentContactManifold@Gu@physx@@SAXAEAVRenderOutput@Cm@3@VPxVec3@3@1I@Z 00000001800ff7e0 f   GuPersistentContactManifold.obj
 0001:000fe8a0       ?drawPoint@MultiplePersistentContactManifold@Gu@physx@@SAXAEAVRenderOutput@Cm@3@AEBT__m128@@MI@Z 00000001800ff8a0 f   GuPersistentContactManifold.obj
 0001:000fea80       ?drawPolygon@MultiplePersistentContactManifold@Gu@physx@@SAXAEAVRenderOutput@Cm@3@AEBVPsTransformV@aos@shdfnd@3@PEAT__m128@@II@Z 00000001800ffa80 f   GuPersistentContactManifold.obj
 0001:000fff40       ?SweepEstimateAnyShapeHeightfield@Gu@physx@@YAMAEBUCCDShape@12@0AEBVPxTransform@2@111MM@Z 0000000180100f40 f   GuCCDSweepConvexMesh.obj
 0001:001007b0       ?SweepEstimateAnyShapeMesh@Gu@physx@@YAMAEBUCCDShape@12@0AEBVPxTransform@2@111MM@Z 00000001801017b0 f   GuCCDSweepConvexMesh.obj
 0001:00100bf0       ?SweepAnyShapeHeightfield@Gu@physx@@YAMAEBUCCDShape@12@0AEBVPxTransform@2@111MAEAVPxVec3@2@2MAEAIM@Z 0000000180101bf0 f   GuCCDSweepConvexMesh.obj
 0001:00101d40       ?SweepAnyShapeMesh@Gu@physx@@YAMAEBUCCDShape@12@0AEBVPxTransform@2@111MAEAVPxVec3@2@2MAEAIM@Z 0000000180102d40 f   GuCCDSweepConvexMesh.obj
 0001:00104520       ?growAndPushBack@?$Array@IV?$InlineAllocator@$0BAA@V?$ReflectionAllocator@I@shdfnd@physx@@@shdfnd@physx@@@shdfnd@physx@@IEAAAEAIAEBI@Z 0000000180105520 f i GuCCDSweepConvexMesh.obj
 0001:00104640       ?recreate@?$Array@IV?$InlineAllocator@$0BAA@V?$ReflectionAllocator@I@shdfnd@physx@@@shdfnd@physx@@@shdfnd@physx@@IEAAXI@Z 0000000180105640 f i GuCCDSweepConvexMesh.obj
 0001:00104720       ?recreate@?$Array@IV?$ReflectionAllocator@I@shdfnd@physx@@@shdfnd@physx@@IEAAXI@Z 0000000180105720 f i GuCCDSweepConvexMesh.obj
 0001:001047e0       ?resize@?$Array@IV?$InlineAllocator@$0BAA@V?$ReflectionAllocator@I@shdfnd@physx@@@shdfnd@physx@@@shdfnd@physx@@QEAAXIAEBI@Z 00000001801057e0 f i GuCCDSweepConvexMesh.obj
 0001:001048b0       ?resize@?$Array@IV?$ReflectionAllocator@I@shdfnd@physx@@@shdfnd@physx@@QEAAXIAEBI@Z 00000001801058b0 f i GuCCDSweepConvexMesh.obj
 0001:00104970       ?SweepShapeShape@Gu@physx@@YAMAEBUCCDShape@12@0AEBVPxTransform@2@111MAEAVPxVec3@2@2MAEAIM@Z 0000000180105970 f   GuCCDSweepPrimitives.obj
 0001:001049a0       ?UnimplementedSweep@Gu@physx@@YAMAEBUCCDShape@12@0AEBVPxTransform@2@111MAEAVPxVec3@2@2MAEAIM@Z 00000001801059a0 f   GuCCDSweepPrimitives.obj
 0001:001049b0       ?UnimplementedTriangleSweep@Gu@physx@@YAMAEBVGeometryUnion@12@0AEBVPxTransform@2@111MAEAVPxVec3@2@2AEBVFastVertex2ShapeScaling@Cm@2@AEAVTriangleV@12@M@Z 00000001801059b0 f   GuCCDSweepPrimitives.obj
 0001:001049c0       ?SweepShapeTriangle@Gu@physx@@YAMAEBVGeometryUnion@12@0AEBVPxTransform@2@111MAEAVPxVec3@2@2AEBVFastVertex2ShapeScaling@Cm@2@AEAVTriangleV@12@M@Z 00000001801059c0 f   GuCCDSweepPrimitives.obj
 0001:001049e0       ??$SweepGeomGeom@VCapsuleV@Gu@physx@@V123@@Gu@physx@@YAMAEBUCCDShape@01@0AEBVPxTransform@1@111MAEAVPxVec3@1@2MAEAIM@Z 00000001801059e0 f i GuCCDSweepPrimitives.obj
 0001:00104b20       ??$SweepGeomGeom@VCapsuleV@Gu@physx@@VBoxV@23@@Gu@physx@@YAMAEBUCCDShape@01@0AEBVPxTransform@1@111MAEAVPxVec3@1@2MAEAIM@Z 0000000180105b20 f i GuCCDSweepPrimitives.obj
 0001:00104cc0       ??$SweepGeomGeom@VCapsuleV@Gu@physx@@VConvexHullV@23@@Gu@physx@@YAMAEBUCCDShape@01@0AEBVPxTransform@1@111MAEAVPxVec3@1@2MAEAIM@Z 0000000180105cc0 f i GuCCDSweepPrimitives.obj
 0001:00105230       ??$SweepGeomGeom@VBoxV@Gu@physx@@V123@@Gu@physx@@YAMAEBUCCDShape@01@0AEBVPxTransform@1@111MAEAVPxVec3@1@2MAEAIM@Z 0000000180106230 f i GuCCDSweepPrimitives.obj
 0001:00105440       ??$SweepGeomGeom@VBoxV@Gu@physx@@VConvexHullV@23@@Gu@physx@@YAMAEBUCCDShape@01@0AEBVPxTransform@1@111MAEAVPxVec3@1@2MAEAIM@Z 0000000180106440 f i GuCCDSweepPrimitives.obj
 0001:001059f0       ??$SweepGeomGeom@VConvexHullV@Gu@physx@@V123@@Gu@physx@@YAMAEBUCCDShape@01@0AEBVPxTransform@1@111MAEAVPxVec3@1@2MAEAIM@Z 00000001801069f0 f i GuCCDSweepPrimitives.obj
 0001:00106310       ??$SweepGeomTriangles@VCapsuleV@Gu@physx@@@Gu@physx@@YAMAEBVGeometryUnion@01@0AEBVPxTransform@1@111MAEAVPxVec3@1@2AEBVFastVertex2ShapeScaling@Cm@1@AEAVTriangleV@01@M@Z 0000000180107310 f i GuCCDSweepPrimitives.obj
 0001:001063f0       ??$SweepGeomTriangles@VBoxV@Gu@physx@@@Gu@physx@@YAMAEBVGeometryUnion@01@0AEBVPxTransform@1@111MAEAVPxVec3@1@2AEBVFastVertex2ShapeScaling@Cm@1@AEAVTriangleV@01@M@Z 00000001801073f0 f i GuCCDSweepPrimitives.obj
 0001:00106520       ??$SweepGeomTriangles@VConvexHullV@Gu@physx@@@Gu@physx@@YAMAEBVGeometryUnion@01@0AEBVPxTransform@1@111MAEAVPxVec3@1@2AEBVFastVertex2ShapeScaling@Cm@1@AEAVTriangleV@01@M@Z 0000000180107520 f i GuCCDSweepPrimitives.obj
 0001:00106a30       ?supportPoint@?$RelativeConvex@VCapsuleV@Gu@physx@@@Gu@physx@@UEBA?AT__m128@@HPEAT4@@Z 0000000180107a30 f i GuCCDSweepPrimitives.obj
 0001:00106a90       ?support@?$RelativeConvex@VCapsuleV@Gu@physx@@@Gu@physx@@UEBA?AT__m128@@AEBT4@@Z 0000000180107a90 f i GuCCDSweepPrimitives.obj
 0001:00106b40       ?support@?$RelativeConvex@VCapsuleV@Gu@physx@@@Gu@physx@@UEBA?AT__m128@@AEBT4@AEAHPEAT4@@Z 0000000180107b40 f i GuCCDSweepPrimitives.obj
 0001:00106c00       ?getCenter@?$RelativeConvex@VCapsuleV@Gu@physx@@@Gu@physx@@UEBA?AT__m128@@XZ 0000000180107c00 f i GuCCDSweepPrimitives.obj
 0001:00106c40       ?getSweepMargin@?$RelativeConvex@VCapsuleV@Gu@physx@@@Gu@physx@@UEBA?AT__m128@@XZ 0000000180107c40 f i GuCCDSweepPrimitives.obj
 0001:00106c50       ??_E?$RelativeConvex@VCapsuleV@Gu@physx@@@Gu@physx@@UEAAPEAXI@Z 0000000180107c50 f i GuCCDSweepPrimitives.obj
 0001:00106c50       ??_G?$RelativeConvex@VCapsuleV@Gu@physx@@@Gu@physx@@UEAAPEAXI@Z 0000000180107c50 f i GuCCDSweepPrimitives.obj
 0001:00106c80       ?supportPoint@?$RelativeConvex@VShrunkBoxV@Gu@physx@@@Gu@physx@@UEBA?AT__m128@@HPEAT4@@Z 0000000180107c80 f i GuCCDSweepPrimitives.obj
 0001:00106d00       ?support@?$RelativeConvex@VShrunkBoxV@Gu@physx@@@Gu@physx@@UEBA?AT__m128@@AEBT4@@Z 0000000180107d00 f i GuCCDSweepPrimitives.obj
 0001:00106da0       ?support@?$RelativeConvex@VShrunkBoxV@Gu@physx@@@Gu@physx@@UEBA?AT__m128@@AEBT4@AEAHPEAT4@@Z 0000000180107da0 f i GuCCDSweepPrimitives.obj
 0001:00106e50       ?getCenter@?$RelativeConvex@VShrunkBoxV@Gu@physx@@@Gu@physx@@UEBA?AT__m128@@XZ 0000000180107e50 f i GuCCDSweepPrimitives.obj
 0001:00106e90       ?getSweepMargin@?$RelativeConvex@VShrunkBoxV@Gu@physx@@@Gu@physx@@UEBA?AT__m128@@XZ 0000000180107e90 f i GuCCDSweepPrimitives.obj
 0001:00106eb0       ??_E?$RelativeConvex@VShrunkBoxV@Gu@physx@@@Gu@physx@@UEAAPEAXI@Z 0000000180107eb0 f i GuCCDSweepPrimitives.obj
 0001:00106eb0       ??_G?$RelativeConvex@VShrunkBoxV@Gu@physx@@@Gu@physx@@UEAAPEAXI@Z 0000000180107eb0 f i GuCCDSweepPrimitives.obj
 0001:0010ac30       ??$gjkPenetration@U?$RelativeConvex@VCapsuleV@Gu@physx@@@Gu@physx@@U?$LocalConvex@VCapsuleV@Gu@physx@@@23@@Gu@physx@@YA?AW4GjkStatus@01@AEBU?$RelativeConvex@VCapsuleV@Gu@physx@@@01@AEBU?$LocalConvex@VCapsuleV@Gu@physx@@@01@AEBT__m128@@2AEAT5@333PEIAE4AEAE_N@Z 000000018010bc30 f i GuCCDSweepPrimitives.obj
 0001:0010c2f0       ??$gjkPenetration@U?$RelativeConvex@VCapsuleV@Gu@physx@@@Gu@physx@@U?$LocalConvex@VShrunkBoxV@Gu@physx@@@23@@Gu@physx@@YA?AW4GjkStatus@01@AEBU?$RelativeConvex@VCapsuleV@Gu@physx@@@01@AEBU?$LocalConvex@VShrunkBoxV@Gu@physx@@@01@AEBT__m128@@2AEAT5@333PEIAE4AEAE_N@Z 000000018010d2f0 f i GuCCDSweepPrimitives.obj
 0001:0010d9d0       ??$gjkPenetration@U?$RelativeConvex@VCapsuleV@Gu@physx@@@Gu@physx@@U?$LocalConvex@VShrunkConvexHullV@Gu@physx@@@23@@Gu@physx@@YA?AW4GjkStatus@01@AEBU?$RelativeConvex@VCapsuleV@Gu@physx@@@01@AEBU?$LocalConvex@VShrunkConvexHullV@Gu@physx@@@01@AEBT__m128@@2AEAT5@333PEIAE4AEAE_N@Z 000000018010e9d0 f i GuCCDSweepPrimitives.obj
 0001:0010f3e0       ??$gjkPenetration@U?$RelativeConvex@VShrunkBoxV@Gu@physx@@@Gu@physx@@U?$LocalConvex@VShrunkBoxV@Gu@physx@@@23@@Gu@physx@@YA?AW4GjkStatus@01@AEBU?$RelativeConvex@VShrunkBoxV@Gu@physx@@@01@AEBU?$LocalConvex@VShrunkBoxV@Gu@physx@@@01@AEBT__m128@@2AEAT5@333PEIAE4AEAE_N@Z 00000001801103e0 f i GuCCDSweepPrimitives.obj
 0001:00110ac0       ??$gjkPenetration@U?$RelativeConvex@VShrunkBoxV@Gu@physx@@@Gu@physx@@U?$LocalConvex@VShrunkConvexHullV@Gu@physx@@@23@@Gu@physx@@YA?AW4GjkStatus@01@AEBU?$RelativeConvex@VShrunkBoxV@Gu@physx@@@01@AEBU?$LocalConvex@VShrunkConvexHullV@Gu@physx@@@01@AEBT__m128@@2AEAT5@333PEIAE4AEAE_N@Z 0000000180111ac0 f i GuCCDSweepPrimitives.obj
 0001:001124e0       ??$gjkPenetration@U?$RelativeConvex@VTriangleV@Gu@physx@@@Gu@physx@@U?$LocalConvex@VCapsuleV@Gu@physx@@@23@@Gu@physx@@YA?AW4GjkStatus@01@AEBU?$RelativeConvex@VTriangleV@Gu@physx@@@01@AEBU?$LocalConvex@VCapsuleV@Gu@physx@@@01@AEBT__m128@@2AEAT5@333PEIAE4AEAE_N@Z 00000001801134e0 f i GuCCDSweepPrimitives.obj
 0001:00113bc0       ??$gjkPenetration@U?$RelativeConvex@VTriangleV@Gu@physx@@@Gu@physx@@U?$LocalConvex@VShrunkBoxV@Gu@physx@@@23@@Gu@physx@@YA?AW4GjkStatus@01@AEBU?$RelativeConvex@VTriangleV@Gu@physx@@@01@AEBU?$LocalConvex@VShrunkBoxV@Gu@physx@@@01@AEBT__m128@@2AEAT5@333PEIAE4AEAE_N@Z 0000000180114bc0 f i GuCCDSweepPrimitives.obj
 0001:001152c0       ??$gjkPenetration@U?$RelativeConvex@VTriangleV@Gu@physx@@@Gu@physx@@U?$LocalConvex@VShrunkConvexHullV@Gu@physx@@@23@@Gu@physx@@YA?AW4GjkStatus@01@AEBU?$RelativeConvex@VTriangleV@Gu@physx@@@01@AEBU?$LocalConvex@VShrunkConvexHullV@Gu@physx@@@01@AEBT__m128@@2AEAT5@333PEIAE4AEAE_N@Z 00000001801162c0 f i GuCCDSweepPrimitives.obj
 0001:00116d00       ??$gjkRaycast@U?$RelativeConvex@VCapsuleV@Gu@physx@@@Gu@physx@@U?$LocalConvex@VCapsuleV@Gu@physx@@@23@@Gu@physx@@YA_NAEBU?$RelativeConvex@VCapsuleV@Gu@physx@@@01@AEBU?$LocalConvex@VCapsuleV@Gu@physx@@@01@AEBT__m128@@222AEAT4@33M@Z 0000000180117d00 f i GuCCDSweepPrimitives.obj
 0001:00117a10       ??$gjkRaycast@U?$RelativeConvex@VCapsuleV@Gu@physx@@@Gu@physx@@U?$LocalConvex@VShrunkBoxV@Gu@physx@@@23@@Gu@physx@@YA_NAEBU?$RelativeConvex@VCapsuleV@Gu@physx@@@01@AEBU?$LocalConvex@VShrunkBoxV@Gu@physx@@@01@AEBT__m128@@222AEAT4@33M@Z 0000000180118a10 f i GuCCDSweepPrimitives.obj
 0001:001186f0       ??$gjkRaycast@U?$RelativeConvex@VCapsuleV@Gu@physx@@@Gu@physx@@U?$LocalConvex@VShrunkConvexHullV@Gu@physx@@@23@@Gu@physx@@YA_NAEBU?$RelativeConvex@VCapsuleV@Gu@physx@@@01@AEBU?$LocalConvex@VShrunkConvexHullV@Gu@physx@@@01@AEBT__m128@@222AEAT4@33M@Z 00000001801196f0 f i GuCCDSweepPrimitives.obj
 0001:00119370       ??$gjkRaycast@U?$RelativeConvex@VShrunkBoxV@Gu@physx@@@Gu@physx@@U?$LocalConvex@VShrunkBoxV@Gu@physx@@@23@@Gu@physx@@YA_NAEBU?$RelativeConvex@VShrunkBoxV@Gu@physx@@@01@AEBU?$LocalConvex@VShrunkBoxV@Gu@physx@@@01@AEBT__m128@@222AEAT4@33M@Z 000000018011a370 f i GuCCDSweepPrimitives.obj
 0001:0011a000       ??$gjkRaycast@U?$RelativeConvex@VShrunkBoxV@Gu@physx@@@Gu@physx@@U?$LocalConvex@VShrunkConvexHullV@Gu@physx@@@23@@Gu@physx@@YA_NAEBU?$RelativeConvex@VShrunkBoxV@Gu@physx@@@01@AEBU?$LocalConvex@VShrunkConvexHullV@Gu@physx@@@01@AEBT__m128@@222AEAT4@33M@Z 000000018011b000 f i GuCCDSweepPrimitives.obj
 0001:0011ac50       ??$gjkRaycast@U?$RelativeConvex@VShrunkConvexHullV@Gu@physx@@@Gu@physx@@U?$LocalConvex@VShrunkConvexHullV@Gu@physx@@@23@@Gu@physx@@YA_NAEBU?$RelativeConvex@VShrunkConvexHullV@Gu@physx@@@01@AEBU?$LocalConvex@VShrunkConvexHullV@Gu@physx@@@01@AEBT__m128@@222AEAT4@33M@Z 000000018011bc50 f i GuCCDSweepPrimitives.obj
 0001:0011b7c0       ??$gjkRaycast@U?$RelativeConvex@VTriangleV@Gu@physx@@@Gu@physx@@U?$LocalConvex@VBoxV@Gu@physx@@@23@@Gu@physx@@YA_NAEBU?$RelativeConvex@VTriangleV@Gu@physx@@@01@AEBU?$LocalConvex@VBoxV@Gu@physx@@@01@AEBT__m128@@222AEAT4@33M@Z 000000018011c7c0 f i GuCCDSweepPrimitives.obj
 0001:0011c510       ??$gjkRaycast@U?$RelativeConvex@VTriangleV@Gu@physx@@@Gu@physx@@U?$LocalConvex@VCapsuleV@Gu@physx@@@23@@Gu@physx@@YA_NAEBU?$RelativeConvex@VTriangleV@Gu@physx@@@01@AEBU?$LocalConvex@VCapsuleV@Gu@physx@@@01@AEBT__m128@@222AEAT4@33M@Z 000000018011d510 f i GuCCDSweepPrimitives.obj
 0001:0011d2a0       ??$gjkRaycast@U?$RelativeConvex@VTriangleV@Gu@physx@@@Gu@physx@@U?$LocalConvex@VConvexHullV@Gu@physx@@@23@@Gu@physx@@YA_NAEBU?$RelativeConvex@VTriangleV@Gu@physx@@@01@AEBU?$LocalConvex@VConvexHullV@Gu@physx@@@01@AEBT__m128@@222AEAT4@33M@Z 000000018011e2a0 f i GuCCDSweepPrimitives.obj
 0001:0011e170       ??$gjkRaycastPenetration@U?$RelativeConvex@VCapsuleV@Gu@physx@@@Gu@physx@@U?$LocalConvex@VCapsuleV@Gu@physx@@@23@@Gu@physx@@YA_NAEBU?$RelativeConvex@VCapsuleV@Gu@physx@@@01@AEBU?$LocalConvex@VCapsuleV@Gu@physx@@@01@AEBT__m128@@222AEAT4@33M_N@Z 000000018011f170 f i GuCCDSweepPrimitives.obj
 0001:0011e400       ??$gjkRaycastPenetration@U?$RelativeConvex@VCapsuleV@Gu@physx@@@Gu@physx@@U?$LocalConvex@VShrunkBoxV@Gu@physx@@@23@@Gu@physx@@YA_NAEBU?$RelativeConvex@VCapsuleV@Gu@physx@@@01@AEBU?$LocalConvex@VShrunkBoxV@Gu@physx@@@01@AEBT__m128@@222AEAT4@33M_N@Z 000000018011f400 f i GuCCDSweepPrimitives.obj
 0001:0011e690       ??$gjkRaycastPenetration@U?$RelativeConvex@VCapsuleV@Gu@physx@@@Gu@physx@@U?$LocalConvex@VShrunkConvexHullV@Gu@physx@@@23@@Gu@physx@@YA_NAEBU?$RelativeConvex@VCapsuleV@Gu@physx@@@01@AEBU?$LocalConvex@VShrunkConvexHullV@Gu@physx@@@01@AEBT__m128@@222AEAT4@33M_N@Z 000000018011f690 f i GuCCDSweepPrimitives.obj
 0001:0011e920       ??$gjkRaycastPenetration@U?$RelativeConvex@VShrunkBoxV@Gu@physx@@@Gu@physx@@U?$LocalConvex@VShrunkBoxV@Gu@physx@@@23@@Gu@physx@@YA_NAEBU?$RelativeConvex@VShrunkBoxV@Gu@physx@@@01@AEBU?$LocalConvex@VShrunkBoxV@Gu@physx@@@01@AEBT__m128@@222AEAT4@33M_N@Z 000000018011f920 f i GuCCDSweepPrimitives.obj
 0001:0011ebb0       ??$gjkRaycastPenetration@U?$RelativeConvex@VShrunkBoxV@Gu@physx@@@Gu@physx@@U?$LocalConvex@VShrunkConvexHullV@Gu@physx@@@23@@Gu@physx@@YA_NAEBU?$RelativeConvex@VShrunkBoxV@Gu@physx@@@01@AEBU?$LocalConvex@VShrunkConvexHullV@Gu@physx@@@01@AEBT__m128@@222AEAT4@33M_N@Z 000000018011fbb0 f i GuCCDSweepPrimitives.obj
 0001:0011ee40       ??$gjkRaycastPenetration@U?$RelativeConvex@VShrunkConvexHullV@Gu@physx@@@Gu@physx@@U?$LocalConvex@VShrunkConvexHullV@Gu@physx@@@23@@Gu@physx@@YA_NAEBU?$RelativeConvex@VShrunkConvexHullV@Gu@physx@@@01@AEBU?$LocalConvex@VShrunkConvexHullV@Gu@physx@@@01@AEBT__m128@@222AEAT4@33M_N@Z 000000018011fe40 f i GuCCDSweepPrimitives.obj
 0001:0011f0d0       ??$gjkRaycastPenetration@U?$RelativeConvex@VTriangleV@Gu@physx@@@Gu@physx@@U?$LocalConvex@VBoxV@Gu@physx@@@23@@Gu@physx@@YA_NAEBU?$RelativeConvex@VTriangleV@Gu@physx@@@01@AEBU?$LocalConvex@VBoxV@Gu@physx@@@01@AEBT__m128@@222AEAT4@33M_N@Z 00000001801200d0 f i GuCCDSweepPrimitives.obj
 0001:0011f360       ??$gjkRaycastPenetration@U?$RelativeConvex@VTriangleV@Gu@physx@@@Gu@physx@@U?$LocalConvex@VCapsuleV@Gu@physx@@@23@@Gu@physx@@YA_NAEBU?$RelativeConvex@VTriangleV@Gu@physx@@@01@AEBU?$LocalConvex@VCapsuleV@Gu@physx@@@01@AEBT__m128@@222AEAT4@33M_N@Z 0000000180120360 f i GuCCDSweepPrimitives.obj
 0001:0011f5f0       ??$gjkRaycastPenetration@U?$RelativeConvex@VTriangleV@Gu@physx@@@Gu@physx@@U?$LocalConvex@VConvexHullV@Gu@physx@@@23@@Gu@physx@@YA_NAEBU?$RelativeConvex@VTriangleV@Gu@physx@@@01@AEBU?$LocalConvex@VConvexHullV@Gu@physx@@@01@AEBT__m128@@222AEAT4@33M_N@Z 00000001801205f0 f i GuCCDSweepPrimitives.obj
 0001:0011f880       ?computeBounds@Gu@physx@@YAXAEAVPxBounds3@2@AEBVPxGeometry@2@AEBVPxTransform@2@MPEIBVCenterExtentsPadded@12@M_N@Z 0000000180120880 f   GuBounds.obj
 0001:001202c0       ?computeBoundsWithCCDThreshold@Gu@physx@@YAMAEAVVec3p@12@0AEBVPxGeometry@2@AEBVPxTransform@2@PEIBVCenterExtentsPadded@12@@Z 00000001801212c0 f   GuBounds.obj
 0001:00120880       ??0ShapeData@Gu@physx@@QEAA@AEBVPxGeometry@2@AEBVPxTransform@2@M@Z 0000000180121880 f   GuBounds.obj
 0001:00121ee0       ?computeOBBPoints@Gu@physx@@YAXPEIAVPxVec3@2@AEBV32@1111@Z 0000000180122ee0 f   GuBox.obj
 0001:00122160       ?create@Box@Gu@physx@@QEAAXAEBVCapsule@23@@Z 0000000180123160 f   GuBox.obj
 0001:001223a0       ?getBoxEdges@Gu@physx@@YAPEBEXZ 00000001801233a0 f   GuBox.obj
 0001:001223b0       ?computeBoxAroundCapsule@Gu@physx@@YAXAEBVCapsule@12@AEAVBox@12@@Z 00000001801233b0 f   GuCapsule.obj
 0001:00122500       ?sweepBoxTriangles_Precise@Gu@physx@@YA_NIPEBVPxTriangle@2@_NAEBVPxBoxGeometry@2@AEBVPxTransform@2@AEBVPxVec3@2@MAEAUPxSweepHit@2@PEBIMV?$PxFlags@W4Enum@PxHitFlag@physx@@G@2@@Z 0000000180123500 f   GuCCTSweepTests.obj
 0001:00122650       ?sweepCapsule_BoxGeom_Precise@@YA_NAEBVPxGeometry@physx@@AEBVPxTransform@2@AEBVPxCapsuleGeometry@2@1AEBVCapsule@Gu@2@AEBVPxVec3@2@MAEAUPxSweepHit@2@V?$PxFlags@W4Enum@PxHitFlag@physx@@G@2@M@Z 0000000180123650 f   GuCCTSweepTests.obj
 0001:00122cc0       ?sweepBox_SphereGeom_Precise@@YA_NAEBVPxGeometry@physx@@AEBVPxTransform@2@AEBVPxBoxGeometry@2@1AEBVBox@Gu@2@AEBVPxVec3@2@MAEAUPxSweepHit@2@V?$PxFlags@W4Enum@PxHitFlag@physx@@G@2@M@Z 0000000180123cc0 f   GuCCTSweepTests.obj
 0001:00122fa0       ?sweepBox_CapsuleGeom_Precise@@YA_NAEBVPxGeometry@physx@@AEBVPxTransform@2@AEBVPxBoxGeometry@2@1AEBVBox@Gu@2@AEBVPxVec3@2@MAEAUPxSweepHit@2@V?$PxFlags@W4Enum@PxHitFlag@physx@@G@2@M@Z 0000000180123fa0 f   GuCCTSweepTests.obj
 0001:00123370       ?sweepBox_BoxGeom_Precise@@YA_NAEBVPxGeometry@physx@@AEBVPxTransform@2@AEBVPxBoxGeometry@2@1AEBVBox@Gu@2@AEBVPxVec3@2@MAEAUPxSweepHit@2@V?$PxFlags@W4Enum@PxHitFlag@physx@@G@2@M@Z 0000000180124370 f   GuCCTSweepTests.obj
 0001:00123530       ?sweepBox_HeightFieldGeom_Precise@@YA_NAEBVPxGeometry@physx@@AEBVPxTransform@2@AEBVPxBoxGeometry@2@1AEBVBox@Gu@2@AEBVPxVec3@2@MAEAUPxSweepHit@2@V?$PxFlags@W4Enum@PxHitFlag@physx@@G@2@M@Z 0000000180124530 f   GuCCTSweepTests.obj
 0001:00124760       ?sweep@PxGeometryQuery@physx@@SA_NAEBVPxVec3@2@MAEBVPxGeometry@2@AEBVPxTransform@2@12AEAUPxSweepHit@2@V?$PxFlags@W4Enum@PxHitFlag@physx@@G@2@M@Z 0000000180125760 f   GuGeometryQuery.obj
 0001:00124b60       ?overlap@PxGeometryQuery@physx@@SA_NAEBVPxGeometry@2@AEBVPxTransform@2@01@Z 0000000180125b60 f   GuGeometryQuery.obj
 0001:00124c10       ?raycast@PxGeometryQuery@physx@@SAIAEBVPxVec3@2@0AEBVPxGeometry@2@AEBVPxTransform@2@MV?$PxFlags@W4Enum@PxHitFlag@physx@@G@2@IPEIAUPxRaycastHit@2@@Z 0000000180125c10 f   GuGeometryQuery.obj
 0001:00124cb0       ?computePenetration@PxGeometryQuery@physx@@SA_NAEAVPxVec3@2@AEAMAEBVPxGeometry@2@AEBVPxTransform@2@23@Z 0000000180125cb0 f   GuGeometryQuery.obj
 0001:00124d90       ?pointDistance@PxGeometryQuery@physx@@SAMAEBVPxVec3@2@AEBVPxGeometry@2@AEBVPxTransform@2@PEAV32@@Z 0000000180125d90 f   GuGeometryQuery.obj
 0001:00125420       ?getWorldBounds@PxGeometryQuery@physx@@SA?AVPxBounds3@2@AEBVPxGeometry@2@AEBVPxTransform@2@M@Z 0000000180126420 f   GuGeometryQuery.obj
 0001:00125490       ?isValid@PxGeometryQuery@physx@@SA_NAEBVPxGeometry@2@@Z 0000000180126490 f   GuGeometryQuery.obj
 0001:00125690       ?isFinite@PxQuat@physx@@QEBA_NXZ 0000000180126690 f i GuGeometryQuery.obj
 0001:00125700       ?set@GeometryUnion@Gu@physx@@QEAAXAEBVPxGeometry@3@@Z 0000000180126700 f   GuGeometryUnion.obj
 0001:001258d0       ?computeBoxPoints@Gu@physx@@YAXAEBVPxBounds3@2@PEIAVPxVec3@2@@Z 00000001801268d0 f   GuInternal.obj
 0001:00125970       ?computeBoundsAroundVertices@Gu@physx@@YAXAEAVPxBounds3@2@IPEIBVPxVec3@2@@Z 0000000180126970 f   GuInternal.obj
 0001:00125a20       ?getPlane@Gu@physx@@YA?AVPxPlane@2@AEBVPxTransform@2@@Z 0000000180126a20 f   GuInternal.obj
 0001:00125ad0       ?computeSweptBox@Gu@physx@@YAXAEAVBox@12@AEBVPxVec3@2@1AEBVPxMat33@2@1M@Z 0000000180126ad0 f   GuInternal.obj
 0001:00126010       ??0GuMeshFactory@physx@@QEAA@XZ 0000000180127010 f   GuMeshFactory.obj
 0001:00126170       ??1GuMeshFactory@physx@@MEAA@XZ 0000000180127170 f   GuMeshFactory.obj
 0001:00126240       ?release@GuMeshFactory@physx@@QEAAXXZ 0000000180127240 f   GuMeshFactory.obj
 0001:00126310       ?addTriangleMesh@GuMeshFactory@physx@@QEAAXPEAVTriangleMesh@Gu@2@_N@Z 0000000180127310 f   GuMeshFactory.obj
 0001:00126390       ?createTriangleMesh@GuMeshFactory@physx@@QEAAPEAVPxTriangleMesh@2@AEAVPxInputStream@2@@Z 0000000180127390 f   GuMeshFactory.obj
 0001:001263f0       ?createTriangleMesh@GuMeshFactory@physx@@QEAAPEAVPxTriangleMesh@2@PEAX@Z 00000001801273f0 f   GuMeshFactory.obj
 0001:00126400       ?removeTriangleMesh@GuMeshFactory@physx@@QEAA_NAEAVPxTriangleMesh@2@@Z 0000000180127400 f   GuMeshFactory.obj
 0001:00126470       ?getNbTriangleMeshes@GuMeshFactory@physx@@QEBAIXZ 0000000180127470 f   GuMeshFactory.obj
 0001:001264b0       ?getTriangleMeshes@GuMeshFactory@physx@@QEBAIPEAPEAVPxTriangleMesh@2@II@Z 00000001801274b0 f   GuMeshFactory.obj
 0001:00126540       ?addConvexMesh@GuMeshFactory@physx@@QEAAXPEAVConvexMesh@Gu@2@_N@Z 0000000180127540 f   GuMeshFactory.obj
 0001:001265c0       ?createConvexMesh@GuMeshFactory@physx@@QEAAPEAVPxConvexMesh@2@AEAVPxInputStream@2@@Z 00000001801275c0 f   GuMeshFactory.obj
 0001:001266e0       ?createConvexMesh@GuMeshFactory@physx@@QEAAPEAVPxConvexMesh@2@PEAX@Z 00000001801276e0 f   GuMeshFactory.obj
 0001:001266f0       ?removeConvexMesh@GuMeshFactory@physx@@QEAA_NAEAVPxConvexMesh@2@@Z 00000001801276f0 f   GuMeshFactory.obj
 0001:00126760       ?getNbConvexMeshes@GuMeshFactory@physx@@QEBAIXZ 0000000180127760 f   GuMeshFactory.obj
 0001:001267a0       ?getConvexMeshes@GuMeshFactory@physx@@QEBAIPEAPEAVPxConvexMesh@2@II@Z 00000001801277a0 f   GuMeshFactory.obj
 0001:00126830       ?addHeightField@GuMeshFactory@physx@@QEAAXPEAVHeightField@Gu@2@_N@Z 0000000180127830 f   GuMeshFactory.obj
 0001:001268b0       ?createHeightField@GuMeshFactory@physx@@QEAAPEAVPxHeightField@2@PEAX@Z 00000001801278b0 f   GuMeshFactory.obj
 0001:001269b0       ?createHeightField@GuMeshFactory@physx@@QEAAPEAVPxHeightField@2@AEAVPxInputStream@2@@Z 00000001801279b0 f   GuMeshFactory.obj
 0001:00126ad0       ?removeHeightField@GuMeshFactory@physx@@QEAA_NAEAVPxHeightField@2@@Z 0000000180127ad0 f   GuMeshFactory.obj
 0001:00126b40       ?getNbHeightFields@GuMeshFactory@physx@@QEBAIXZ 0000000180127b40 f   GuMeshFactory.obj
 0001:00126b80       ?getHeightFields@GuMeshFactory@physx@@QEBAIPEAPEAVPxHeightField@2@II@Z 0000000180127b80 f   GuMeshFactory.obj
 0001:00126c20       ?addFactoryListener@GuMeshFactory@physx@@QEAAXAEAVGuMeshFactoryListener@2@@Z 0000000180127c20 f   GuMeshFactory.obj
 0001:00126ca0       ?removeFactoryListener@GuMeshFactory@physx@@QEAAXAEAVGuMeshFactoryListener@2@@Z 0000000180127ca0 f   GuMeshFactory.obj
 0001:00126d30       ?notifyFactoryListener@GuMeshFactory@physx@@QEAAXPEBVPxBase@2@G@Z 0000000180127d30 f   GuMeshFactory.obj
 0001:00126db0       ?createTriangleMesh@GuMeshFactory@physx@@IEAAPEAVPxTriangleMesh@2@AEAVTriangleMeshData@Gu@2@@Z 0000000180127db0 f   GuMeshFactory.obj
 0001:00126f40       ?createConvexMesh@GuMeshFactory@physx@@IEAAPEAVPxConvexMesh@2@AEAUConvexHullData@Gu@2@@Z 0000000180127f40 f   GuMeshFactory.obj
 0001:00127030       ??1BV4TriangleData@Gu@physx@@UEAA@XZ 0000000180128030 f i GuMeshFactory.obj
 0001:00127070       ??1RTreeTriangleData@Gu@physx@@UEAA@XZ 0000000180128070 f i GuMeshFactory.obj
 0001:001270e0       ??1TriangleMeshData@Gu@physx@@UEAA@XZ 00000001801280e0 f i GuMeshFactory.obj
 0001:00127250       ??_EGuMeshFactory@physx@@MEAAPEAXI@Z 0000000180128250 f i GuMeshFactory.obj
 0001:00127360       ??_EBV4TriangleData@Gu@physx@@UEAAPEAXI@Z 0000000180128360 f i GuMeshFactory.obj
 0001:00127360       ??_GBV4TriangleData@Gu@physx@@UEAAPEAXI@Z 0000000180128360 f i GuMeshFactory.obj
 0001:001273e0       ??_GGuMeshFactory@physx@@MEAAPEAXI@Z 00000001801283e0 f i GuMeshFactory.obj
 0001:00127440       ??_ERTreeTriangleData@Gu@physx@@UEAAPEAXI@Z 0000000180128440 f i GuMeshFactory.obj
 0001:00127440       ??_GRTreeTriangleData@Gu@physx@@UEAAPEAXI@Z 0000000180128440 f i GuMeshFactory.obj
 0001:001274f0       ??_ETriangleMeshData@Gu@physx@@UEAAPEAXI@Z 00000001801284f0 f i GuMeshFactory.obj
 0001:001274f0       ??_GTriangleMeshData@Gu@physx@@UEAAPEAXI@Z 00000001801284f0 f i GuMeshFactory.obj
 0001:00127550       ?create@?$HashBase@PEAVConvexMesh@Gu@physx@@PEAV123@U?$Hash@PEAVConvexMesh@Gu@physx@@@shdfnd@3@UGetKey@?$HashSetBase@PEAVConvexMesh@Gu@physx@@U?$Hash@PEAVConvexMesh@Gu@physx@@@shdfnd@3@VNonTrackingAllocator@53@$00@internal@53@VNonTrackingAllocator@53@$00@internal@shdfnd@physx@@QEAAPEAPEAVConvexMesh@Gu@4@AEBQEAV564@AEA_N@Z 0000000180128550 f i GuMeshFactory.obj
 0001:001276e0       ?create@?$HashBase@PEAVHeightField@Gu@physx@@PEAV123@U?$Hash@PEAVHeightField@Gu@physx@@@shdfnd@3@UGetKey@?$HashSetBase@PEAVHeightField@Gu@physx@@U?$Hash@PEAVHeightField@Gu@physx@@@shdfnd@3@VNonTrackingAllocator@53@$00@internal@53@VNonTrackingAllocator@53@$00@internal@shdfnd@physx@@QEAAPEAPEAVHeightField@Gu@4@AEBQEAV564@AEA_N@Z 00000001801286e0 f i GuMeshFactory.obj
 0001:00127870       ?create@?$HashBase@PEAVTriangleMesh@Gu@physx@@PEAV123@U?$Hash@PEAVTriangleMesh@Gu@physx@@@shdfnd@3@UGetKey@?$HashSetBase@PEAVTriangleMesh@Gu@physx@@U?$Hash@PEAVTriangleMesh@Gu@physx@@@shdfnd@3@VNonTrackingAllocator@53@$00@internal@53@VNonTrackingAllocator@53@$00@internal@shdfnd@physx@@QEAAPEAPEAVTriangleMesh@Gu@4@AEBQEAV564@AEA_N@Z 0000000180128870 f i GuMeshFactory.obj
 0001:00127a00       ?erase@?$HashBase@PEAVConvexMesh@Gu@physx@@PEAV123@U?$Hash@PEAVConvexMesh@Gu@physx@@@shdfnd@3@UGetKey@?$HashSetBase@PEAVConvexMesh@Gu@physx@@U?$Hash@PEAVConvexMesh@Gu@physx@@@shdfnd@3@VNonTrackingAllocator@53@$00@internal@53@VNonTrackingAllocator@53@$00@internal@shdfnd@physx@@QEAA_NAEBQEAVConvexMesh@Gu@4@@Z 0000000180128a00 f i GuMeshFactory.obj
 0001:00127b80       ?erase@?$HashBase@PEAVHeightField@Gu@physx@@PEAV123@U?$Hash@PEAVHeightField@Gu@physx@@@shdfnd@3@UGetKey@?$HashSetBase@PEAVHeightField@Gu@physx@@U?$Hash@PEAVHeightField@Gu@physx@@@shdfnd@3@VNonTrackingAllocator@53@$00@internal@53@VNonTrackingAllocator@53@$00@internal@shdfnd@physx@@QEAA_NAEBQEAVHeightField@Gu@4@@Z 0000000180128b80 f i GuMeshFactory.obj
 0001:00127d00       ?erase@?$HashBase@PEAVTriangleMesh@Gu@physx@@PEAV123@U?$Hash@PEAVTriangleMesh@Gu@physx@@@shdfnd@3@UGetKey@?$HashSetBase@PEAVTriangleMesh@Gu@physx@@U?$Hash@PEAVTriangleMesh@Gu@physx@@@shdfnd@3@VNonTrackingAllocator@53@$00@internal@53@VNonTrackingAllocator@53@$00@internal@shdfnd@physx@@QEAA_NAEBQEAVTriangleMesh@Gu@4@@Z 0000000180128d00 f i GuMeshFactory.obj
 0001:00127e80       ?growAndPushBack@?$Array@PEAVGuMeshFactoryListener@physx@@V?$ReflectionAllocator@PEAVGuMeshFactoryListener@physx@@@shdfnd@2@@shdfnd@physx@@IEAAAEAPEAVGuMeshFactoryListener@3@AEBQEAV43@@Z 0000000180128e80 f i GuMeshFactory.obj
 0001:00128f60       ?reserveInternal@?$HashBase@PEAVConvexMesh@Gu@physx@@PEAV123@U?$Hash@PEAVConvexMesh@Gu@physx@@@shdfnd@3@UGetKey@?$HashSetBase@PEAVConvexMesh@Gu@physx@@U?$Hash@PEAVConvexMesh@Gu@physx@@@shdfnd@3@VNonTrackingAllocator@53@$00@internal@53@VNonTrackingAllocator@53@$00@internal@shdfnd@physx@@AEAAXI@Z 0000000180129f60 f i GuMeshFactory.obj
 0001:00129130       ?reserveInternal@?$HashBase@PEAVHeightField@Gu@physx@@PEAV123@U?$Hash@PEAVHeightField@Gu@physx@@@shdfnd@3@UGetKey@?$HashSetBase@PEAVHeightField@Gu@physx@@U?$Hash@PEAVHeightField@Gu@physx@@@shdfnd@3@VNonTrackingAllocator@53@$00@internal@53@VNonTrackingAllocator@53@$00@internal@shdfnd@physx@@AEAAXI@Z 000000018012a130 f i GuMeshFactory.obj
 0001:00129300       ?reserveInternal@?$HashBase@PEAVTriangleMesh@Gu@physx@@PEAV123@U?$Hash@PEAVTriangleMesh@Gu@physx@@@shdfnd@3@UGetKey@?$HashSetBase@PEAVTriangleMesh@Gu@physx@@U?$Hash@PEAVTriangleMesh@Gu@physx@@@shdfnd@3@VNonTrackingAllocator@53@$00@internal@53@VNonTrackingAllocator@53@$00@internal@shdfnd@physx@@AEAAXI@Z 000000018012a300 f i GuMeshFactory.obj
 0001:001294d0       ?getBinaryMetaData@HeightField@Gu@physx@@SAXAEAVPxOutputStream@3@@Z 000000018012a4d0 f   GuMetaData.obj
 0001:00129900       ?getBinaryMetaData@BigConvexData@physx@@SAXAEAVPxOutputStream@2@@Z 000000018012a900 f   GuMetaData.obj
 0001:00129bd0       ?getBinaryMetaData@ConvexMesh@Gu@physx@@SAXAEAVPxOutputStream@3@@Z 000000018012abd0 f   GuMetaData.obj
 0001:0012a260       ?getBinaryMetaData@RTree@Gu@physx@@SAXAEAVPxOutputStream@3@@Z 000000018012b260 f   GuMetaData.obj
 0001:0012a5a0       ?getBinaryMetaData@SourceMesh@Gu@physx@@SAXAEAVPxOutputStream@3@@Z 000000018012b5a0 f   GuMetaData.obj
 0001:0012a790       ?getBinaryMetaData@BV4Tree@Gu@physx@@SAXAEAVPxOutputStream@3@@Z 000000018012b790 f   GuMetaData.obj
 0001:0012ab30       ?getBinaryMetaData@TriangleMesh@Gu@physx@@SAXAEAVPxOutputStream@3@@Z 000000018012bb30 f   GuMetaData.obj
 0001:0012b350       ?getBinaryMetaData@BV4TriangleMesh@Gu@physx@@SAXAEAVPxOutputStream@3@@Z 000000018012c350 f   GuMetaData.obj
 0001:0012b630       ?getBinaryMetaData@RTreeTriangleMesh@Gu@physx@@SAXAEAVPxOutputStream@3@@Z 000000018012c630 f   GuMetaData.obj
 0001:0012b720       ?getBinaryMetaData@MaterialIndicesStruct@physx@@SAXAEAVPxOutputStream@2@@Z 000000018012c720 f   GuMetaData.obj
 0001:0012b8d0       ?getBinaryMetaData@GeometryUnion@Gu@physx@@SAXAEAVPxOutputStream@3@@Z 000000018012c8d0 f   GuMetaData.obj
 0001:0012d3b0       ?pointConvexDistance@@YA_NAEAVPxVec3@physx@@0AEAMAEBV12@PEBVConvexMesh@Gu@2@AEBVPxMeshScale@2@AEBVPxTransform@2@@Z 000000018012e3b0 f   GuMTD.obj
 0001:0012fdb0       ??0ContactPoint@Gu@physx@@QEAA@XZ 0000000180130db0 f i GuMTD.obj
 0001:001341c0       ?getOverlapFuncTable@Gu@physx@@YAPEAY06Q6A_NAEBVPxGeometry@2@AEBVPxTransform@2@01PEAUTriggerCache@12@@ZXZ 00000001801351c0 f   GuOverlapTests.obj
 0001:001341d0       ?registerHeightFields@Gu@physx@@YAXXZ 00000001801351d0 f   GuOverlapTests.obj
 0001:00136450       ??$gjk@U?$RelativeConvex@VBoxV@Gu@physx@@@Gu@physx@@U?$LocalConvex@VConvexHullV@Gu@physx@@@23@@Gu@physx@@YA?AW4GjkStatus@01@AEBU?$RelativeConvex@VBoxV@Gu@physx@@@01@AEBU?$LocalConvex@VConvexHullV@Gu@physx@@@01@AEBT__m128@@2AEAT5@333@Z 0000000180137450 f i GuOverlapTests.obj
 0001:00137210       ??$gjk@U?$RelativeConvex@VConvexHullV@Gu@physx@@@Gu@physx@@U?$LocalConvex@VConvexHullV@Gu@physx@@@23@@Gu@physx@@YA?AW4GjkStatus@01@AEBU?$RelativeConvex@VConvexHullV@Gu@physx@@@01@AEBU?$LocalConvex@VConvexHullV@Gu@physx@@@01@AEBT__m128@@2AEAT5@333@Z 0000000180138210 f i GuOverlapTests.obj
 0001:001380a0       ?ComputeCubemapNearestOffset@physx@@YAIAEBVPxVec3@1@I@Z 00000001801390a0 f i GuOverlapTests.obj
 0001:00139c90       ?getRaycastFuncTable@Gu@physx@@YAAEAY06Q6AIAEBVPxGeometry@2@AEBVPxTransform@2@AEBVPxVec3@2@2MV?$PxFlags@W4Enum@PxHitFlag@physx@@G@2@IPEIAUPxRaycastHit@2@@ZXZ 000000018013ac90 f   GuRaycastTests.obj
 0001:00139ca0       ?raycast_box@@YAIAEBVPxGeometry@physx@@AEBVPxTransform@2@AEBVPxVec3@2@2MV?$PxFlags@W4Enum@PxHitFlag@physx@@G@2@IPEIAUPxRaycastHit@2@@Z 000000018013aca0 f   GuRaycastTests.obj
 0001:0013a2e0       ?raycast_sphere@@YAIAEBVPxGeometry@physx@@AEBVPxTransform@2@AEBVPxVec3@2@2MV?$PxFlags@W4Enum@PxHitFlag@physx@@G@2@IPEIAUPxRaycastHit@2@@Z 000000018013b2e0 f   GuRaycastTests.obj
 0001:0013a470       ?raycast_capsule@@YAIAEBVPxGeometry@physx@@AEBVPxTransform@2@AEBVPxVec3@2@2MV?$PxFlags@W4Enum@PxHitFlag@physx@@G@2@IPEIAUPxRaycastHit@2@@Z 000000018013b470 f   GuRaycastTests.obj
 0001:0013a9d0       ?raycast_plane@@YAIAEBVPxGeometry@physx@@AEBVPxTransform@2@AEBVPxVec3@2@2MV?$PxFlags@W4Enum@PxHitFlag@physx@@G@2@IPEIAUPxRaycastHit@2@@Z 000000018013b9d0 f   GuRaycastTests.obj
 0001:0013ab50       ?raycast_convexMesh@@YAIAEBVPxGeometry@physx@@AEBVPxTransform@2@AEBVPxVec3@2@2MV?$PxFlags@W4Enum@PxHitFlag@physx@@G@2@IPEIAUPxRaycastHit@2@@Z 000000018013bb50 f   GuRaycastTests.obj
 0001:0013b680       ?raycast_triangleMesh@@YAIAEBVPxGeometry@physx@@AEBVPxTransform@2@AEBVPxVec3@2@2MV?$PxFlags@W4Enum@PxHitFlag@physx@@G@2@IPEIAUPxRaycastHit@2@@Z 000000018013c680 f   GuRaycastTests.obj
 0001:0013b710       ?raycast_heightField@@YAIAEBVPxGeometry@physx@@AEBVPxTransform@2@AEBVPxVec3@2@2MV?$PxFlags@W4Enum@PxHitFlag@physx@@G@2@IPEIAUPxRaycastHit@2@@Z 000000018013c710 f   GuRaycastTests.obj
 0001:0013be90       ?registerHeightFields_Raycasts@@YAXXZ 000000018013ce90 f   GuRaycastTests.obj
 0001:0013d690       ?readChunk@physx@@YAXAEAC000AEAVPxInputStream@1@@Z 000000018013e690 f   GuSerialize.obj
 0001:0013d720       ?readWord@physx@@YAG_NAEAVPxInputStream@1@@Z 000000018013e720 f   GuSerialize.obj
 0001:0013d770       ?readDword@physx@@YAI_NAEAVPxInputStream@1@@Z 000000018013e770 f   GuSerialize.obj
 0001:0013d7d0       ?readFloat@physx@@YAM_NAEAVPxInputStream@1@@Z 000000018013e7d0 f   GuSerialize.obj
 0001:0013d830       ?writeWord@physx@@YAXG_NAEAVPxOutputStream@1@@Z 000000018013e830 f   GuSerialize.obj
 0001:0013d870       ?writeDword@physx@@YAXI_NAEAVPxOutputStream@1@@Z 000000018013e870 f   GuSerialize.obj
 0001:0013d8c0       ?writeFloat@physx@@YAXM_NAEAVPxOutputStream@1@@Z 000000018013e8c0 f   GuSerialize.obj
 0001:0013d920       ?readFloatBuffer@physx@@YA_NPEAMI_NAEAVPxInputStream@1@@Z 000000018013e920 f   GuSerialize.obj
 0001:0013d9a0       ?writeFloatBuffer@physx@@YAXPEBMI_NAEAVPxOutputStream@1@@Z 000000018013e9a0 f   GuSerialize.obj
 0001:0013da50       ?writeWordBuffer@physx@@YAXPEBGI_NAEAVPxOutputStream@1@@Z 000000018013ea50 f   GuSerialize.obj
 0001:0013dae0       ?readWordBuffer@physx@@YAXPEAGI_NAEAVPxInputStream@1@@Z 000000018013eae0 f   GuSerialize.obj
 0001:0013db50       ?writeHeader@physx@@YA_NCCCCI_NAEAVPxOutputStream@1@@Z 000000018013eb50 f   GuSerialize.obj
 0001:0013dc80       ?readHeader@physx@@YA_NCCCCAEAIAEA_NAEAVPxInputStream@1@@Z 000000018013ec80 f   GuSerialize.obj
 0001:0013dde0       ?computeMaxIndex@physx@@YAIPEBII@Z 000000018013ede0 f   GuSerialize.obj
 0001:0013de10       ?computeMaxIndex@physx@@YAGPEBGI@Z 000000018013ee10 f   GuSerialize.obj
 0001:0013de50       ?storeIndices@physx@@YAXIIPEBIAEAVPxOutputStream@1@_N@Z 000000018013ee50 f   GuSerialize.obj
 0001:0013df70       ?readIndices@physx@@YAXIIPEAIAEAVPxInputStream@1@_N@Z 000000018013ef70 f   GuSerialize.obj
 0001:0013e0a0       ?WriteHeader@Gu@physx@@YA_NEEEEI_NAEAVPxOutputStream@2@@Z 000000018013f0a0 f   GuSerialize.obj
 0001:0013e1d0       ?ReadHeader@Gu@physx@@YA_NEEEEAEAIAEA_NAEAVPxInputStream@2@@Z 000000018013f1d0 f   GuSerialize.obj
 0001:0013e340       ?StoreIndices@Gu@physx@@YAXIIPEBIAEAVPxOutputStream@2@_N@Z 000000018013f340 f   GuSerialize.obj
 0001:0013e4d0       ?ReadIndices@Gu@physx@@YAXIIPEAIAEAVPxInputStream@2@_N@Z 000000018013f4d0 f   GuSerialize.obj
 0001:0013e740       ?StoreIndices@Gu@physx@@YAXGIPEBGAEAVPxOutputStream@2@_N@Z 000000018013f740 f   GuSerialize.obj
 0001:0013e830       ?ReadIndices@Gu@physx@@YAXGIPEAGAEAVPxInputStream@2@_N@Z 000000018013f830 f   GuSerialize.obj
 0001:0013e980       ?computeCapsule_TriangleMeshMTD@Gu@physx@@YA_NAEBVPxTriangleMeshGeometry@2@AEBVPxTransform@2@AEAVCapsuleV@12@M_NAEAUPxSweepHit@2@@Z 000000018013f980 f   GuSweepMTD.obj
 0001:0013f220       ?computeCapsule_HeightFieldMTD@Gu@physx@@YA_NAEBVPxHeightFieldGeometry@2@AEBVPxTransform@2@AEAVCapsuleV@12@M_NIAEAUPxSweepHit@2@@Z 0000000180140220 f   GuSweepMTD.obj
 0001:0013fa60       ?computeBox_TriangleMeshMTD@Gu@physx@@YA_NAEBVPxTriangleMeshGeometry@2@AEBVPxTransform@2@AEBVBox@12@1M_NAEAUPxSweepHit@2@@Z 0000000180140a60 f   GuSweepMTD.obj
 0001:001406b0       ?computeBox_HeightFieldMTD@Gu@physx@@YA_NAEBVPxHeightFieldGeometry@2@AEBVPxTransform@2@AEBVBox@12@1M_NIAEAUPxSweepHit@2@@Z 00000001801416b0 f   GuSweepMTD.obj
 0001:00141540       ?computeConvex_TriangleMeshMTD@Gu@physx@@YA_NAEBVPxTriangleMeshGeometry@2@AEBVPxTransform@2@AEBVPxConvexMeshGeometry@2@1M_NAEAUPxSweepHit@2@@Z 0000000180142540 f   GuSweepMTD.obj
 0001:001427c0       ?computeConvex_HeightFieldMTD@Gu@physx@@YA_NAEBVPxHeightFieldGeometry@2@AEBVPxTransform@2@AEBVPxConvexMeshGeometry@2@1M_NIAEAUPxSweepHit@2@@Z 00000001801437c0 f   GuSweepMTD.obj
 0001:00143b60       ?computeSphere_SphereMTD@Gu@physx@@YA_NAEBVSphere@12@0AEAUPxSweepHit@2@@Z 0000000180144b60 f   GuSweepMTD.obj
 0001:00143c50       ?computeSphere_CapsuleMTD@Gu@physx@@YA_NAEBVSphere@12@AEBVCapsule@12@AEAUPxSweepHit@2@@Z 0000000180144c50 f   GuSweepMTD.obj
 0001:00143e00       ?computeCapsule_CapsuleMTD@Gu@physx@@YA_NAEBVCapsule@12@0AEAUPxSweepHit@2@@Z 0000000180144e00 f   GuSweepMTD.obj
 0001:00144040       ?computePlane_CapsuleMTD@Gu@physx@@YA_NAEBVPxPlane@2@AEBVCapsule@12@AEAUPxSweepHit@2@@Z 0000000180145040 f   GuSweepMTD.obj
 0001:00144160       ?computePlane_BoxMTD@Gu@physx@@YA_NAEBVPxPlane@2@AEBVBox@12@AEAUPxSweepHit@2@@Z 0000000180145160 f   GuSweepMTD.obj
 0001:00144400       ?computePlane_ConvexMTD@Gu@physx@@YA_NAEBVPxPlane@2@AEBVPxConvexMeshGeometry@2@AEBVPxTransform@2@AEAUPxSweepHit@2@@Z 0000000180145400 f   GuSweepMTD.obj
 0001:00144fc0       ??0MTDTriangle@@QEAA@XZ    0000000180145fc0 f i GuSweepMTD.obj
 0001:00144fd0       ??1MTDTriangle@@QEAA@XZ    0000000180145fd0 f i GuSweepMTD.obj
 0001:00144fe0       ??_EMeshMTDGenerationCallback@@UEAAPEAXI@Z 0000000180145fe0 f i GuSweepMTD.obj
 0001:00144fe0       ??_GMeshMTDGenerationCallback@@UEAAPEAXI@Z 0000000180145fe0 f i GuSweepMTD.obj
 0001:00145010       ??_EMidPhaseQueryLocalReport@@UEAAPEAXI@Z 0000000180146010 f i GuSweepMTD.obj
 0001:00145010       ??_GMidPhaseQueryLocalReport@@UEAAPEAXI@Z 0000000180146010 f i GuSweepMTD.obj
 0001:00145040       ?onEvent@MidPhaseQueryLocalReport@@UEAA_NIPEAI@Z 0000000180146040 f i GuSweepMTD.obj
 0001:001450b0       ?processHit@MeshMTDGenerationCallback@@UEAA_NAEBUPxRaycastHit@physx@@AEBVPxVec3@3@11AEAMPEBI@Z 00000001801460b0 f i GuSweepMTD.obj
 0001:00145100       ?sweepCapsuleTriangles@Gu@physx@@YA_NIPEBVPxTriangle@2@_NAEBVPxCapsuleGeometry@2@AEBVPxTransform@2@AEBVPxVec3@2@MAEAUPxSweepHit@2@PEBIMV?$PxFlags@W4Enum@PxHitFlag@physx@@G@2@@Z 0000000180146100 f   GuSweepSharedTests.obj
 0001:001452f0       ?sweepCapsule_SphereGeom@@YA_NAEBVPxGeometry@physx@@AEBVPxTransform@2@AEBVPxCapsuleGeometry@2@1AEBVCapsule@Gu@2@AEBVPxVec3@2@MAEAUPxSweepHit@2@V?$PxFlags@W4Enum@PxHitFlag@physx@@G@2@M@Z 00000001801462f0 f   GuSweepSharedTests.obj
 0001:00145490       ?sweepCapsule_PlaneGeom@@YA_NAEBVPxGeometry@physx@@AEBVPxTransform@2@AEBVPxCapsuleGeometry@2@1AEBVCapsule@Gu@2@AEBVPxVec3@2@MAEAUPxSweepHit@2@V?$PxFlags@W4Enum@PxHitFlag@physx@@G@2@M@Z 0000000180146490 f   GuSweepSharedTests.obj
 0001:00145780       ?sweepCapsule_CapsuleGeom@@YA_NAEBVPxGeometry@physx@@AEBVPxTransform@2@AEBVPxCapsuleGeometry@2@1AEBVCapsule@Gu@2@AEBVPxVec3@2@MAEAUPxSweepHit@2@V?$PxFlags@W4Enum@PxHitFlag@physx@@G@2@M@Z 0000000180146780 f   GuSweepSharedTests.obj
 0001:00145960       ?sweepCapsule_ConvexGeom@@YA_NAEBVPxGeometry@physx@@AEBVPxTransform@2@AEBVPxCapsuleGeometry@2@1AEBVCapsule@Gu@2@AEBVPxVec3@2@MAEAUPxSweepHit@2@V?$PxFlags@W4Enum@PxHitFlag@physx@@G@2@M@Z 0000000180146960 f   GuSweepSharedTests.obj
 0001:001466b0       ?sweepBox_PlaneGeom@@YA_NAEBVPxGeometry@physx@@AEBVPxTransform@2@AEBVPxBoxGeometry@2@1AEBVBox@Gu@2@AEBVPxVec3@2@MAEAUPxSweepHit@2@V?$PxFlags@W4Enum@PxHitFlag@physx@@G@2@M@Z 00000001801476b0 f   GuSweepSharedTests.obj
 0001:00146a80       ?sweepBox_ConvexGeom@@YA_NAEBVPxGeometry@physx@@AEBVPxTransform@2@AEBVPxBoxGeometry@2@1AEBVBox@Gu@2@AEBVPxVec3@2@MAEAUPxSweepHit@2@V?$PxFlags@W4Enum@PxHitFlag@physx@@G@2@M@Z 0000000180147a80 f   GuSweepSharedTests.obj
 0001:001478f0       ?sweepConvex_SphereGeom@@YA_NAEBVPxGeometry@physx@@AEBVPxTransform@2@AEBVPxConvexMeshGeometry@2@1AEBVPxVec3@2@MAEAUPxSweepHit@2@V?$PxFlags@W4Enum@PxHitFlag@physx@@G@2@M@Z 00000001801488f0 f   GuSweepSharedTests.obj
 0001:00148530       ?sweepConvex_PlaneGeom@@YA_NAEBVPxGeometry@physx@@AEBVPxTransform@2@AEBVPxConvexMeshGeometry@2@1AEBVPxVec3@2@MAEAUPxSweepHit@2@V?$PxFlags@W4Enum@PxHitFlag@physx@@G@2@M@Z 0000000180149530 f   GuSweepSharedTests.obj
 0001:00148980       ?sweepConvex_CapsuleGeom@@YA_NAEBVPxGeometry@physx@@AEBVPxTransform@2@AEBVPxConvexMeshGeometry@2@1AEBVPxVec3@2@MAEAUPxSweepHit@2@V?$PxFlags@W4Enum@PxHitFlag@physx@@G@2@M@Z 0000000180149980 f   GuSweepSharedTests.obj
 0001:00148bb0       ?sweepConvex_BoxGeom@@YA_NAEBVPxGeometry@physx@@AEBVPxTransform@2@AEBVPxConvexMeshGeometry@2@1AEBVPxVec3@2@MAEAUPxSweepHit@2@V?$PxFlags@W4Enum@PxHitFlag@physx@@G@2@M@Z 0000000180149bb0 f   GuSweepSharedTests.obj
 0001:00148dd0       ?sweepConvex_ConvexGeom@@YA_NAEBVPxGeometry@physx@@AEBVPxTransform@2@AEBVPxConvexMeshGeometry@2@1AEBVPxVec3@2@MAEAUPxSweepHit@2@V?$PxFlags@W4Enum@PxHitFlag@physx@@G@2@M@Z 0000000180149dd0 f   GuSweepSharedTests.obj
 0001:00149dd0       ??$gjkPenetration@U?$LocalConvex@VCapsuleV@Gu@physx@@@Gu@physx@@U?$LocalConvex@VShrunkConvexHullV@Gu@physx@@@23@@Gu@physx@@YA?AW4GjkStatus@01@AEBU?$LocalConvex@VCapsuleV@Gu@physx@@@01@AEBU?$LocalConvex@VShrunkConvexHullV@Gu@physx@@@01@AEBT__m128@@2AEAT5@333PEIAE4AEAE_N@Z 000000018014add0 f i GuSweepSharedTests.obj
 0001:0014b750       ??$gjkRaycast@U?$LocalConvex@VCapsuleV@Gu@physx@@@Gu@physx@@U?$LocalConvex@VConvexHullV@Gu@physx@@@23@@Gu@physx@@YA_NAEBU?$LocalConvex@VCapsuleV@Gu@physx@@@01@AEBU?$LocalConvex@VConvexHullV@Gu@physx@@@01@AEBT__m128@@222AEAT4@33M@Z 000000018014c750 f i GuSweepSharedTests.obj
 0001:0014c4b0       ??$gjkRaycast@U?$RelativeConvex@VBoxV@Gu@physx@@@Gu@physx@@U?$LocalConvex@VConvexHullV@Gu@physx@@@23@@Gu@physx@@YA_NAEBU?$RelativeConvex@VBoxV@Gu@physx@@@01@AEBU?$LocalConvex@VConvexHullV@Gu@physx@@@01@AEBT__m128@@222AEAT4@33M@Z 000000018014d4b0 f i GuSweepSharedTests.obj
 0001:0014d2b0       ??$gjkRaycast@U?$RelativeConvex@VConvexHullV@Gu@physx@@@Gu@physx@@U?$LocalConvex@VConvexHullV@Gu@physx@@@23@@Gu@physx@@YA_NAEBU?$RelativeConvex@VConvexHullV@Gu@physx@@@01@AEBU?$LocalConvex@VConvexHullV@Gu@physx@@@01@AEBT__m128@@222AEAT4@33M@Z 000000018014e2b0 f i GuSweepSharedTests.obj
 0001:0014e0a0       ??$gjkRaycastPenetration@U?$LocalConvex@VCapsuleV@Gu@physx@@@Gu@physx@@U?$LocalConvex@VConvexHullV@Gu@physx@@@23@@Gu@physx@@YA_NAEBU?$LocalConvex@VCapsuleV@Gu@physx@@@01@AEBU?$LocalConvex@VConvexHullV@Gu@physx@@@01@AEBT__m128@@222AEAT4@33M_N@Z 000000018014f0a0 f i GuSweepSharedTests.obj
 0001:0014e2d0       ??$gjkRaycastPenetration@U?$RelativeConvex@VBoxV@Gu@physx@@@Gu@physx@@U?$LocalConvex@VConvexHullV@Gu@physx@@@23@@Gu@physx@@YA_NAEBU?$RelativeConvex@VBoxV@Gu@physx@@@01@AEBU?$LocalConvex@VConvexHullV@Gu@physx@@@01@AEBT__m128@@222AEAT4@33M_N@Z 000000018014f2d0 f i GuSweepSharedTests.obj
 0001:0014e560       ??$gjkRaycastPenetration@U?$RelativeConvex@VConvexHullV@Gu@physx@@@Gu@physx@@U?$LocalConvex@VConvexHullV@Gu@physx@@@23@@Gu@physx@@YA_NAEBU?$RelativeConvex@VConvexHullV@Gu@physx@@@01@AEBU?$LocalConvex@VConvexHullV@Gu@physx@@@01@AEBT__m128@@222AEAT4@33M_N@Z 000000018014f560 f i GuSweepSharedTests.obj
 0001:0014f140       ?getSweepFuncTable@Gu@physx@@YAAEBUGeomSweepFuncs@12@XZ 0000000180150140 f   GuSweepTests.obj
 0001:0014f150       ?sweepBoxTriangles@Gu@physx@@YA_NIPEBVPxTriangle@2@_NAEBVPxBoxGeometry@2@AEBVPxTransform@2@AEBVPxVec3@2@MAEAUPxSweepHit@2@PEBIMV?$PxFlags@W4Enum@PxHitFlag@physx@@G@2@@Z 0000000180150150 f   GuSweepTests.obj
 0001:0014fc00       ?sweepCapsule_BoxGeom@@YA_NAEBVPxGeometry@physx@@AEBVPxTransform@2@AEBVPxCapsuleGeometry@2@1AEBVCapsule@Gu@2@AEBVPxVec3@2@MAEAUPxSweepHit@2@V?$PxFlags@W4Enum@PxHitFlag@physx@@G@2@M@Z 0000000180150c00 f   GuSweepTests.obj
 0001:00150550       ?sweepBox_SphereGeom@@YA_NAEBVPxGeometry@physx@@AEBVPxTransform@2@AEBVPxBoxGeometry@2@1AEBVBox@Gu@2@AEBVPxVec3@2@MAEAUPxSweepHit@2@V?$PxFlags@W4Enum@PxHitFlag@physx@@G@2@M@Z 0000000180151550 f   GuSweepTests.obj
 0001:00150c70       ?sweepBox_CapsuleGeom@@YA_NAEBVPxGeometry@physx@@AEBVPxTransform@2@AEBVPxBoxGeometry@2@1AEBVBox@Gu@2@AEBVPxVec3@2@MAEAUPxSweepHit@2@V?$PxFlags@W4Enum@PxHitFlag@physx@@G@2@M@Z 0000000180151c70 f   GuSweepTests.obj
 0001:001515c0       ?sweepBox_BoxGeom@@YA_NAEBVPxGeometry@physx@@AEBVPxTransform@2@AEBVPxBoxGeometry@2@1AEBVBox@Gu@2@AEBVPxVec3@2@MAEAUPxSweepHit@2@V?$PxFlags@W4Enum@PxHitFlag@physx@@G@2@M@Z 00000001801525c0 f   GuSweepTests.obj
 0001:00151fc0       ?registerHeightFields_Sweeps@@YAXXZ 0000000180152fc0 f   GuSweepTests.obj
 0001:00152000       ??$gjkPenetration@U?$LocalConvex@VCapsuleV@Gu@physx@@@Gu@physx@@U?$LocalConvex@VShrunkBoxV@Gu@physx@@@23@@Gu@physx@@YA?AW4GjkStatus@01@AEBU?$LocalConvex@VCapsuleV@Gu@physx@@@01@AEBU?$LocalConvex@VShrunkBoxV@Gu@physx@@@01@AEBT__m128@@2AEAT5@333PEIAE4AEAE_N@Z 0000000180153000 f i GuSweepTests.obj
 0001:00153660       ??$gjkRaycast@U?$LocalConvex@VCapsuleV@Gu@physx@@@Gu@physx@@U?$LocalConvex@VBoxV@Gu@physx@@@23@@Gu@physx@@YA_NAEBU?$LocalConvex@VCapsuleV@Gu@physx@@@01@AEBU?$LocalConvex@VBoxV@Gu@physx@@@01@AEBT__m128@@222AEAT4@33M@Z 0000000180154660 f i GuSweepTests.obj
 0001:00154240       ??$gjkRaycast@U?$RelativeConvex@VBoxV@Gu@physx@@@Gu@physx@@U?$LocalConvex@VBoxV@Gu@physx@@@23@@Gu@physx@@YA_NAEBU?$RelativeConvex@VBoxV@Gu@physx@@@01@AEBU?$LocalConvex@VBoxV@Gu@physx@@@01@AEBT__m128@@222AEAT4@33M@Z 0000000180155240 f i GuSweepTests.obj
 0001:00154e80       ??$gjkRaycastPenetration@U?$LocalConvex@VCapsuleV@Gu@physx@@@Gu@physx@@U?$LocalConvex@VBoxV@Gu@physx@@@23@@Gu@physx@@YA_NAEBU?$LocalConvex@VCapsuleV@Gu@physx@@@01@AEBU?$LocalConvex@VBoxV@Gu@physx@@@01@AEBT__m128@@222AEAT4@33M_N@Z 0000000180155e80 f i GuSweepTests.obj
 0001:001550b0       ??$gjkRaycastPenetration@U?$RelativeConvex@VBoxV@Gu@physx@@@Gu@physx@@U?$LocalConvex@VBoxV@Gu@physx@@@23@@Gu@physx@@YA_NAEBU?$RelativeConvex@VBoxV@Gu@physx@@@01@AEBU?$LocalConvex@VBoxV@Gu@physx@@@01@AEBT__m128@@222AEAT4@33M_N@Z 00000001801560b0 f i GuSweepTests.obj
 0001:00155335       LoadLibraryA               0000000180156335 f   kernel32:KERNEL32.dll
 0001:0015533b       FreeLibrary                000000018015633b f   kernel32:KERNEL32.dll
 0001:00155341       GetProcAddress             0000000180156341 f   kernel32:KERNEL32.dll
 0001:00155347       PxGetFoundation            0000000180156347 f   PhysXFoundation_64:PhysXFoundation_64.dll
 0001:0015534d       ?getAllocator@shdfnd@physx@@YAAEAVPxAllocatorCallback@2@XZ 000000018015634d f   PhysXFoundation_64:PhysXFoundation_64.dll
 0001:00155353       ?getInstance@Foundation@shdfnd@physx@@SAAEAV123@XZ 0000000180156353 f   PhysXFoundation_64:PhysXFoundation_64.dll
 0001:00155359       ?error@Foundation@shdfnd@physx@@QEAAXW4Enum@PxErrorCode@3@PEBDH1ZZ 0000000180156359 f   PhysXFoundation_64:PhysXFoundation_64.dll
 0001:0015535f       ?PxShortestRotation@physx@@YA?AVPxQuat@1@AEBVPxVec3@1@0@Z 000000018015635f f   PhysXFoundation_64:PhysXFoundation_64.dll
 0001:00155365       ?vsnprintf@shdfnd@physx@@YAHPEAD_KPEBD0@Z 0000000180156365 f   PhysXFoundation_64:PhysXFoundation_64.dll
 0001:0015536b       ?optimizeBoundingBox@shdfnd@physx@@YA?AVPxVec3@2@AEAVPxMat33@2@@Z 000000018015636b f   PhysXFoundation_64:PhysXFoundation_64.dll
 0001:00155371       ?allocate@TempAllocator@shdfnd@physx@@QEAAPEAX_KPEBDH@Z 0000000180156371 f   PhysXFoundation_64:PhysXFoundation_64.dll
 0001:00155377       ?deallocate@TempAllocator@shdfnd@physx@@QEAAXPEAX@Z 0000000180156377 f   PhysXFoundation_64:PhysXFoundation_64.dll
 0001:0015537d       ?atomicIncrement@shdfnd@physx@@YAHPECH@Z 000000018015637d f   PhysXFoundation_64:PhysXFoundation_64.dll
 0001:00155383       ?atomicDecrement@shdfnd@physx@@YAHPECH@Z 0000000180156383 f   PhysXFoundation_64:PhysXFoundation_64.dll
 0001:00155389       ??0MutexImpl@shdfnd@physx@@QEAA@XZ 0000000180156389 f   PhysXFoundation_64:PhysXFoundation_64.dll
 0001:0015538f       ??1MutexImpl@shdfnd@physx@@QEAA@XZ 000000018015638f f   PhysXFoundation_64:PhysXFoundation_64.dll
 0001:00155395       ?lock@MutexImpl@shdfnd@physx@@QEAAXXZ 0000000180156395 f   PhysXFoundation_64:PhysXFoundation_64.dll
 0001:0015539b       ?unlock@MutexImpl@shdfnd@physx@@QEAAXXZ 000000018015639b f   PhysXFoundation_64:PhysXFoundation_64.dll
 0001:001553a1       ?getSize@MutexImpl@shdfnd@physx@@SAIXZ 00000001801563a1 f   PhysXFoundation_64:PhysXFoundation_64.dll
 0001:001553a8       ??3@YAXPEAX_K@Z            00000001801563a8 f   LIBCMT:delete_scalar_size.obj
 0001:001553b0       ??_V@YAXPEAX_K@Z           00000001801563b0 f   LIBCMT:delete_array_size.obj
 0001:001553b8       ??1type_info@@UEAA@XZ      00000001801563b8 f   LIBCMT:std_type_info_static.obj
 0001:001553c4       ??_Etype_info@@UEAAPEAXI@Z 00000001801563c4 f i LIBCMT:std_type_info_static.obj
 0001:001553c4       ??_Gtype_info@@UEAAPEAXI@Z 00000001801563c4 f i LIBCMT:std_type_info_static.obj
 0001:001553f0       ?__scrt_initialize_type_info@@YAXXZ 00000001801563f0 f   LIBCMT:tncleanup.obj
 0001:00155400       ?__scrt_uninitialize_type_info@@YAXXZ 0000000180156400 f   LIBCMT:tncleanup.obj
 0001:00155420       __chkstk                   0000000180156420 f   LIBCMT:chkstk.obj
 0001:00155420       _alloca_probe              0000000180156420 f   LIBCMT:chkstk.obj
 0001:00155470       __vdecl_sinf4              0000000180156470 f   LIBCMT:svml_ssinf4_dispatch.obj
 0001:00155490       __libm_sse2_sincosf_       0000000180156490 f   LIBCMT:svml_ssinf4_dispatch.obj
 0001:001554d3       __libm_sse2_sincosf4_      00000001801564d3 f   LIBCMT:svml_ssinf4_dispatch.obj
 0001:001554e0       ??3@YAXPEAX@Z              00000001801564e0 f   LIBCMT:delete_scalar.obj
 0001:001554e8       ??_V@YAXPEAX@Z             00000001801564e8 f   LIBCMT:delete_array.obj
 0001:0015582c       _CRT_INIT                  000000018015682c f   LIBCMT:dll_dllmain.obj
 0001:00155834       _DllMainCRTStartup         0000000180156834 f   LIBCMT:dll_dllmain.obj
 0001:00155874       __isa_available_init       0000000180156874 f   LIBCMT:cpu_disp.obj
 0001:00155a20       __sse2_sinf4@@16           0000000180156a20 f   LIBCMT:svml_ssinf4_sse2.obj
 0001:00156360       __sse4_sinf4@@16           0000000180157360 f   LIBCMT:svml_ssinf4_sse4.obj
 0001:00156b40       __security_init_cookie     0000000180157b40 f   LIBCMT:gs_support.obj
 0001:00156bec       DllMain                    0000000180157bec f   LIBCMT:dll_dllmain_stub.obj
 0001:00156bf4       __local_stdio_printf_options 0000000180157bf4 f i LIBCMT:default_local_stdio_options.obj
 0001:00156bfc       __local_stdio_scanf_options 0000000180157bfc f i LIBCMT:default_local_stdio_options.obj
 0001:00156c04       __scrt_initialize_default_local_stdio_options 0000000180157c04 f   LIBCMT:default_local_stdio_options.obj
 0001:00156c20       ?configure_argv@__scrt_narrow_argv_policy@@SAHXZ 0000000180157c20 f i LIBCMT:utility.obj
 0001:00156c80       ?initialize_environment@__scrt_narrow_environment_policy@@SAHXZ 0000000180157c80 f i LIBCMT:utility.obj
 0001:00156cb8       NtCurrentTeb               0000000180157cb8 f i LIBCMT:utility.obj
 0001:00156cc4       __scrt_acquire_startup_lock 0000000180157cc4 f   LIBCMT:utility.obj
 0001:00156d00       __scrt_dllmain_after_initialize_c 0000000180157d00 f   LIBCMT:utility.obj
 0001:00156d34       __scrt_dllmain_before_initialize_c 0000000180157d34 f   LIBCMT:utility.obj
 0001:00156d4c       __scrt_dllmain_crt_thread_attach 0000000180157d4c f   LIBCMT:utility.obj
 0001:00156d74       __scrt_dllmain_crt_thread_detach 0000000180157d74 f   LIBCMT:utility.obj
 0001:00156d8c       __scrt_dllmain_exception_filter 0000000180157d8c f   LIBCMT:utility.obj
 0001:00156dec       __scrt_dllmain_uninitialize_c 0000000180157dec f   LIBCMT:utility.obj
 0001:00156e1c       __scrt_dllmain_uninitialize_critical 0000000180157e1c f   LIBCMT:utility.obj
 0001:00156e30       __scrt_initialize_crt      0000000180157e30 f   LIBCMT:utility.obj
 0001:00156e7c       __scrt_initialize_onexit_tables 0000000180157e7c f   LIBCMT:utility.obj
 0001:00156f08       __scrt_is_nonwritable_in_current_image 0000000180157f08 f   LIBCMT:utility.obj
 0001:00156fa0       __scrt_release_startup_lock 0000000180157fa0 f   LIBCMT:utility.obj
 0001:00156fc4       __scrt_uninitialize_crt    0000000180157fc4 f   LIBCMT:utility.obj
 0001:00156ff0       _onexit                    0000000180157ff0 f   LIBCMT:utility.obj
 0001:0015702c       at_quick_exit              000000018015802c f   LIBCMT:utility.obj
 0001:0015704c       atexit                     000000018015804c f   LIBCMT:utility.obj
 0001:00157064       __scrt_get_dyn_tls_init_callback 0000000180158064 f   LIBCMT:dyn_tls_init.obj
 0001:0015706c       __crt_debugger_hook        000000018015806c f   LIBCMT:utility_desktop.obj
 0001:00157074       __scrt_fastfail            0000000180158074 f   LIBCMT:utility_desktop.obj
 0001:001571c0       __scrt_get_show_window_mode 00000001801581c0 f   LIBCMT:utility_desktop.obj
 0001:001571fc       __scrt_initialize_mta      00000001801581fc f   LIBCMT:utility_desktop.obj
 0001:00157204       __scrt_initialize_winrt    0000000180158204 f   LIBCMT:utility_desktop.obj
 0001:00157208       __scrt_is_managed_app      0000000180158208 f   LIBCMT:utility_desktop.obj
 0001:0015725c       __scrt_set_unhandled_exception_filter 000000018015825c f   LIBCMT:utility_desktop.obj
 0001:0015726c       __scrt_exe_initialize_mta  000000018015826c f   LIBCMT:utility_desktop.obj
 0001:0015726c       __scrt_stub_for_initialize_mta 000000018015826c f   LIBCMT:utility_desktop.obj
 0001:00157270       __scrt_unhandled_exception_filter 0000000180158270 f   LIBCMT:utility_desktop.obj
 0001:001572cc       _RTC_Initialize            00000001801582cc f   LIBCMT:initsect.obj
 0001:00157308       _RTC_Terminate             0000000180158308 f   LIBCMT:initsect.obj
 0001:00157344       _guard_check_icall_nop     0000000180158344 f i LIBCMT:guard_support.obj
 0001:00157348       ReadNoFence64              0000000180158348 f i LIBCMT:guard_support.obj
 0001:0015734c       ReadPointerNoFence         000000018015834c f i LIBCMT:guard_support.obj
 0001:00157350       __castguard_check_failure_debugbreak 0000000180158350 f i LIBCMT:guard_support.obj
 0001:0015736c       __castguard_check_failure_fastfail 000000018015836c f i LIBCMT:guard_support.obj
 0001:00157390       __castguard_check_failure_nop 0000000180158390 f i LIBCMT:guard_support.obj
 0001:00157394       __castguard_check_failure_os_handled 0000000180158394 f i LIBCMT:guard_support.obj
 0001:00157410       __castguard_slow_path_check_debugbreak 0000000180158410 f i LIBCMT:guard_support.obj
 0001:00157444       __castguard_slow_path_check_fastfail 0000000180158444 f i LIBCMT:guard_support.obj
 0001:00157480       __castguard_slow_path_check_nop 0000000180158480 f i LIBCMT:guard_support.obj
 0001:00157484       __castguard_slow_path_check_os_handled 0000000180158484 f i LIBCMT:guard_support.obj
 0001:001574f4       _guard_icall_checks_enforced 00000001801584f4 f i LIBCMT:guard_support.obj
 0001:0015750c       _guard_rf_checks_enforced  000000018015850c f i LIBCMT:guard_support.obj
 0001:00157510       __common_ssin_cout_rare    0000000180158510 f   LIBCMT:svml_s_sin_cout.obj
 0001:00157580       _get_startup_argv_mode     0000000180158580 f   LIBCMT:argv_mode.obj
 0001:00157588       __scrt_is_ucrt_dll_in_use  0000000180158588 f   LIBCMT:ucrt_detection.obj
 0001:001575a0       strstr                     00000001801585a0 f   libvcruntime:strstr.obj
 0001:00157798       ??$__crt_interlocked_exchange_pointer@$$A6AXXZP6AXXZ@@YAP6AXXZPEDS6AXXZQ6AXXZ@Z 0000000180158798 f i libvcruntime:purevirt.obj
 0001:001577a0       ??$__crt_interlocked_read_pointer@$$A6AXXZ@@YAP6AXXZPEDS6AXXZ@Z 00000001801587a0 f i libvcruntime:purevirt.obj
 0001:001577a8       ?__crt_interlocked_read_64@@YA_JPED_J@Z 00000001801587a8 f i libvcruntime:purevirt.obj
 0001:001577b0       _get_purecall_handler      00000001801587b0 f   libvcruntime:purevirt.obj
 0001:001577bc       _purecall                  00000001801587bc f   libvcruntime:purevirt.obj
 0001:001577d8       _set_purecall_handler      00000001801587d8 f   libvcruntime:purevirt.obj
 0001:001577f4       ??$?RD@__crt_internal_free_policy@@QEBAXQEBD@Z 00000001801587f4 f i libvcruntime:std_type_info.obj
 0001:001577fc       ??$?RX@__crt_internal_free_policy@@QEBAXQEBX@Z 00000001801587fc f i libvcruntime:std_type_info.obj
 0001:00157804       ??$__crt_interlocked_compare_exchange_pointer@$$CBDPEAD$$T@@YAPEBDPEDSEBDQEAD$$T@Z 0000000180158804 f i libvcruntime:std_type_info.obj
 0001:00157810       ??$__crt_interlocked_read_pointer@$$CBD@@YAPEBDPEDSEBD@Z 0000000180158810 f i libvcruntime:std_type_info.obj
 0001:00157818       ??0?$__crt_unique_heap_ptr@DU__crt_internal_free_policy@@@@QEAA@QEAD@Z 0000000180158818 f i libvcruntime:std_type_info.obj
 0001:00157820       ??0?$__crt_unique_heap_ptr@XU__crt_internal_free_policy@@@@QEAA@QEAX@Z 0000000180158820 f i libvcruntime:std_type_info.obj
 0001:00157828       ??1?$__crt_unique_heap_ptr@DU__crt_internal_free_policy@@@@QEAA@XZ 0000000180158828 f i libvcruntime:std_type_info.obj
 0001:00157844       ??1?$__crt_unique_heap_ptr@XU__crt_internal_free_policy@@@@QEAA@XZ 0000000180158844 f i libvcruntime:std_type_info.obj
 0001:00157860       ??B?$__crt_unique_heap_ptr@DU__crt_internal_free_policy@@@@QEBA_NXZ 0000000180158860 f i libvcruntime:std_type_info.obj
 0001:00157868       ??B?$__crt_unique_heap_ptr@XU__crt_internal_free_policy@@@@QEBA_NXZ 0000000180158868 f i libvcruntime:std_type_info.obj
 0001:00157890       ?detach@?$__crt_unique_heap_ptr@XU__crt_internal_free_policy@@@@QEAAPEAXXZ 0000000180158890 f i libvcruntime:std_type_info.obj
 0001:00157898       ?get@?$__crt_unique_heap_ptr@DU__crt_internal_free_policy@@@@QEBAPEADXZ 0000000180158898 f i libvcruntime:std_type_info.obj
 0001:0015789c       ?get@?$__crt_unique_heap_ptr@XU__crt_internal_free_policy@@@@QEBAPEAXXZ 000000018015889c f i libvcruntime:std_type_info.obj
 0001:001578a0       ?is_valid@?$__crt_unique_heap_ptr@DU__crt_internal_free_policy@@@@QEBA_NXZ 00000001801588a0 f i libvcruntime:std_type_info.obj
 0001:001578a8       ?is_valid@?$__crt_unique_heap_ptr@XU__crt_internal_free_policy@@@@QEBA_NXZ 00000001801588a8 f i libvcruntime:std_type_info.obj
 0001:001578b0       ?release@?$__crt_unique_heap_ptr@DU__crt_internal_free_policy@@@@QEAAXXZ 00000001801588b0 f i libvcruntime:std_type_info.obj
 0001:001578cc       ?release@?$__crt_unique_heap_ptr@XU__crt_internal_free_policy@@@@QEAAXXZ 00000001801588cc f i libvcruntime:std_type_info.obj
 0001:001578e8       __std_type_info_compare    00000001801588e8 f   libvcruntime:std_type_info.obj
 0001:00157910       __std_type_info_destroy_list 0000000180158910 f   libvcruntime:std_type_info.obj
 0001:0015793c       __std_type_info_hash       000000018015893c f   libvcruntime:std_type_info.obj
 0001:00157974       __std_type_info_name       0000000180158974 f   libvcruntime:std_type_info.obj
 0001:00157aa0       memcpy_repmovs             0000000180158aa0 f   libvcruntime:memcpy.obj
 0001:00157ac0       memcpy                     0000000180158ac0 f   libvcruntime:memcpy.obj
 0001:00157ac0       memmove                    0000000180158ac0 f   libvcruntime:memcpy.obj
 0001:00158150       memset_repstos             0000000180159150 f   libvcruntime:memset.obj
 0001:00158170       memset                     0000000180159170 f   libvcruntime:memset.obj
 0001:001584f8       __C_specific_handler       00000001801594f8 f   libvcruntime:riscchandler.obj
 0001:001586f0       __vcrt_initialize          00000001801596f0 f   libvcruntime:initialization.obj
 0001:00158718       __vcrt_thread_attach       0000000180159718 f   libvcruntime:initialization.obj
 0001:0015872c       __vcrt_thread_detach       000000018015972c f   libvcruntime:initialization.obj
 0001:00158740       __vcrt_uninitialize        0000000180159740 f   libvcruntime:initialization.obj
 0001:0015875c       __vcrt_uninitialize_critical 000000018015975c f   libvcruntime:initialization.obj
 0001:00158770       __DestructExceptionObject  0000000180159770 f   libvcruntime:ehhelpers.obj
 0001:001587e0       ?_CallMemberFunction0@@YAXQEAX0@Z 00000001801597e0 f i libvcruntime:ehhelpers.obj
 0001:0015883c       ?raw_name@type_info@@QEBAPEBDXZ 000000018015983c f i libvcruntime:ehhelpers.obj
 0001:00158844       _IsExceptionObjectToBeDestroyed 0000000180159844 f   libvcruntime:ehhelpers.obj
 0001:00158874       _SetWinRTOutOfMemoryExceptionCallback 0000000180159874 f   libvcruntime:ehhelpers.obj
 0001:0015887c       __AdjustPointer            000000018015987c f   libvcruntime:ehhelpers.obj
 0001:001588a0       __FrameUnwindFilter        00000001801598a0 f   libvcruntime:ehhelpers.obj
 0001:00158908       __GetPlatformExceptionInfo 0000000180159908 f   libvcruntime:ehhelpers.obj
 0001:00158964       __current_exception        0000000180159964 f   libvcruntime:ehhelpers.obj
 0001:00158978       __current_exception_context 0000000180159978 f   libvcruntime:ehhelpers.obj
 0001:0015898c       __processing_throw         000000018015998c f   libvcruntime:ehhelpers.obj
 0001:001589a0       __std_terminate            00000001801599a0 f   libvcruntime:ehhelpers.obj
 0001:001589ac       _is_exception_typeof       00000001801599ac f   libvcruntime:ehhelpers.obj
 0001:00158a54       ??$?0$00@DName@@QEAA@PEBDU?$StringLifeSelector@$00@@@Z 0000000180159a54 f i libvcruntime:undname.obj
 0001:00158a94       ??$?0$00@pcharNode@@QEAA@PEBDHU?$StringLifeSelector@$00@@@Z 0000000180159a94 f i libvcruntime:undname.obj
 0001:00158aac       ??$?0$01@DName@@QEAA@PEBDU?$StringLifeSelector@$01@@@Z 0000000180159aac f i libvcruntime:undname.obj
 0001:00158aec       ??$?0$01@pcharNode@@QEAA@PEBDHU?$StringLifeSelector@$01@@@Z 0000000180159aec f i libvcruntime:undname.obj
 0001:00158b60       ??$?0$0A@@DName@@QEAA@PEBDU?$StringLifeSelector@$0A@@@@Z 0000000180159b60 f i libvcruntime:undname.obj
 0001:00158ba0       ??$?0$0A@@pcharNode@@QEAA@PEBDHU?$StringLifeSelector@$0A@@@@Z 0000000180159ba0 f i libvcruntime:undname.obj
 0001:00158c14       ??$?0_K$0A@@?$optional@_K@std@@QEAA@$$QEA_K@Z 0000000180159c14 f i libvcruntime:undname.obj
 0001:00158c24       ??$?0_K@?$_Optional_construct_base@_K@std@@QEAA@Uin_place_t@1@$$QEA_K@Z 0000000180159c24 f i libvcruntime:undname.obj
 0001:00158c34       ??$?0_K@?$_Optional_destruct_base@_K$00@std@@QEAA@Uin_place_t@1@$$QEA_K@Z 0000000180159c34 f i libvcruntime:undname.obj
 0001:00158c44       ??$append@VDNameNode@@@DName@@AEAAXPEBVDNameNode@@@Z 0000000180159c44 f i libvcruntime:undname.obj
 0001:00158ca8       ??$append@VDNameStatusNode@@@DName@@AEAAXPEBVDNameStatusNode@@@Z 0000000180159ca8 f i libvcruntime:undname.obj
 0001:00158d0c       ??$append@VcharNode@@@DName@@AEAAXPEBVcharNode@@@Z 0000000180159d0c f i libvcruntime:undname.obj
 0001:00158d70       ??$append@VpDNameNode@@@DName@@AEAAXPEBVpDNameNode@@@Z 0000000180159d70 f i libvcruntime:undname.obj
 0001:00158dd4       ??$append@VpcharNode@@@DName@@AEAAXPEBVpcharNode@@@Z 0000000180159dd4 f i libvcruntime:undname.obj
 0001:00158e38       ??$doPchar@$00@DName@@AEAAXPEBDH@Z 0000000180159e38 f i libvcruntime:undname.obj
 0001:00158edc       ??$doPchar@$01@DName@@AEAAXPEBDH@Z 0000000180159edc f i libvcruntime:undname.obj
 0001:00158f74       ??$doPchar@$0A@@DName@@AEAAXPEBDH@Z 0000000180159f74 f i libvcruntime:undname.obj
 0001:0015900c       ??$forward@_K@std@@YA$$QEA_KAEA_K@Z 000000018015a00c f i libvcruntime:undname.obj
 0001:0015912c       ??$size@D$04@std@@YA_KAEAY04$$CBD@Z 000000018015a12c f i libvcruntime:undname.obj
 0001:00159134       ??0?$_Optional_construct_base@_K@std@@QEAA@XZ 000000018015a134 f i libvcruntime:undname.obj
 0001:0015913c       ??0?$_Optional_destruct_base@_K$00@std@@QEAA@XZ 000000018015a13c f i libvcruntime:undname.obj
 0001:00159144       ??0?$optional@_K@std@@QEAA@XZ 000000018015a144 f i libvcruntime:undname.obj
 0001:0015914c       ??0Block@_HeapManager@@QEAA@XZ 000000018015a14c f i libvcruntime:undname.obj
 0001:00159154       ??0DName@@QEAA@AEAPEBDD@Z  000000018015a154 f   libvcruntime:undname.obj
 0001:00159204       ??0DName@@QEAA@AEBUStringLiteral@@@Z 000000018015a204 f   libvcruntime:undname.obj
 0001:00159230       ??0DName@@QEAA@AEBV0@@Z    000000018015a230 f i libvcruntime:undname.obj
 0001:00159240       ??0DName@@QEAA@D@Z         000000018015a240 f   libvcruntime:undname.obj
 0001:00159260       ??0DName@@QEAA@PEAV0@@Z    000000018015a260 f   libvcruntime:undname.obj
 0001:001592e4       ??0DName@@QEAA@W4DNameStatus@@@Z 000000018015a2e4 f   libvcruntime:undname.obj
 0001:00159314       ??0DName@@QEAA@XZ          000000018015a314 f i libvcruntime:undname.obj
 0001:00159320       ??0DName@@QEAA@_J@Z        000000018015a320 f   libvcruntime:undname.obj
 0001:001593c8       ??0DName@@QEAA@_K@Z        000000018015a3c8 f   libvcruntime:undname.obj
 0001:00159450       ??0DNameNode@@IEAA@XZ      000000018015a450 f i libvcruntime:undname.obj
 0001:00159460       ??0Replicator@@QEAA@XZ     000000018015a460 f i libvcruntime:undname.obj
 0001:00159474       ??0UnDecorator@@QEAA@PEBDP6APEADJ@ZK@Z 000000018015a474 f i libvcruntime:undname.obj
 0001:001594c4       ??0_Nontrivial_dummy_type@std@@QEAA@XZ 000000018015a4c4 f i libvcruntime:undname.obj
 0001:001594c8       ??0charNode@@QEAA@D@Z      000000018015a4c8 f i libvcruntime:undname.obj
 0001:001594dc       ??0pDNameNode@@QEAA@PEAVDName@@@Z 000000018015a4dc f   libvcruntime:undname.obj
 0001:00159504       ??0pairNode@@QEAA@PEBVDNameNode@@0@Z 000000018015a504 f i libvcruntime:undname.obj
 0001:00159528       ??2@YAPEAX_KAEAV_HeapManager@@H@Z 000000018015a528 f   libvcruntime:undname.obj
 0001:00159554       ??4DName@@QEAAAEAV0@AEBUStringLiteral@@@Z 000000018015a554 f   libvcruntime:undname.obj
 0001:0015957c       ??4DName@@QEAAAEAV0@AEBV0@@Z 000000018015a57c f   libvcruntime:undname.obj
 0001:0015958c       ??4DName@@QEAAAEAV0@D@Z    000000018015a58c f i libvcruntime:undname.obj
 0001:001595ac       ??4DName@@QEAAAEAV0@PEAV0@@Z 000000018015a5ac f   libvcruntime:undname.obj
 0001:00159624       ??4DName@@QEAAAEAV0@W4DNameStatus@@@Z 000000018015a624 f   libvcruntime:undname.obj
 0001:00159654       ??AReplicator@@QEBA?AVDName@@H@Z 000000018015a654 f   libvcruntime:undname.obj
 0001:00159694       ??B?$optional@_K@std@@QEBA_NXZ 000000018015a694 f i libvcruntime:undname.obj
 0001:00159698       ??D?$_Optional_construct_base@_K@std@@QEGAAAEA_KXZ 000000018015a698 f i libvcruntime:undname.obj
 0001:0015969c       ??H@YA?AVDName@@AEBUStringLiteral@@AEBV0@@Z 000000018015a69c f i libvcruntime:undname.obj
 0001:001596d4       ??H@YA?AVDName@@DAEBV0@@Z  000000018015a6d4 f i libvcruntime:undname.obj
 0001:00159718       ??H@YA?AVDName@@W4DNameStatus@@AEBV0@@Z 000000018015a718 f i libvcruntime:undname.obj
 0001:00159764       ??HDName@@QEBA?AV0@AEBUStringLiteral@@@Z 000000018015a764 f   libvcruntime:undname.obj
 0001:00159790       ??HDName@@QEBA?AV0@AEBV0@@Z 000000018015a790 f   libvcruntime:undname.obj
 0001:001597bc       ??HDName@@QEBA?AV0@D@Z     000000018015a7bc f   libvcruntime:undname.obj
 0001:001597e8       ??HDName@@QEBA?AV0@PEAV0@@Z 000000018015a7e8 f   libvcruntime:undname.obj
 0001:00159814       ??HDName@@QEBA?AV0@W4DNameStatus@@@Z 000000018015a814 f   libvcruntime:undname.obj
 0001:00159840       ??HStringLiteral@@QEBA?AU0@H@Z 000000018015a840 f i libvcruntime:undname.obj
 0001:00159858       ??YDName@@QEAAAEAV0@AEBUStringLiteral@@@Z 000000018015a858 f   libvcruntime:undname.obj
 0001:001598d8       ??YDName@@QEAAAEAV0@AEBV0@@Z 000000018015a8d8 f   libvcruntime:undname.obj
 0001:00159930       ??YDName@@QEAAAEAV0@D@Z    000000018015a930 f   libvcruntime:undname.obj
 0001:0015999c       ??YDName@@QEAAAEAV0@PEAV0@@Z 000000018015a99c f   libvcruntime:undname.obj
 0001:00159a30       ??YDName@@QEAAAEAV0@W4DNameStatus@@@Z 000000018015aa30 f   libvcruntime:undname.obj
 0001:00159a88       ??YReplicator@@QEAAAEAV0@AEBVDName@@@Z 000000018015aa88 f   libvcruntime:undname.obj
 0001:00159ae0       ??_5DName@@QEAAAEAV0@AEBV0@@Z 000000018015aae0 f   libvcruntime:undname.obj
 0001:00159af4       ??__K_l@@YA?AUStringLiteral@@PEBD_K@Z 000000018015aaf4 f i libvcruntime:undname.obj
 0001:00159b00       ?Constructor@_HeapManager@@QEAAXP6APEAX_K@ZP6AXPEAX@Z@Z 000000018015ab00 f i libvcruntime:undname.obj
 0001:00159b18       ?Destructor@_HeapManager@@QEAAXXZ 000000018015ab18 f i libvcruntime:undname.obj
 0001:00159b64       ?UScore@UnDecorator@@SA?AUStringLiteral@@W4Tokens@@@Z 000000018015ab64 f   libvcruntime:undname.obj
 0001:00159bb0       ?composeDeclaration@UnDecorator@@CA?AVDName@@AEBV2@@Z 000000018015abb0 f i libvcruntime:undname.obj
 0001:0015aa44       ?doAccessSpecifiers@UnDecorator@@SAHXZ 000000018015ba44 f i libvcruntime:undname.obj
 0001:0015aa54       ?doAllocationLanguage@UnDecorator@@SAHXZ 000000018015ba54 f i libvcruntime:undname.obj
 0001:0015aa64       ?doAllocationModel@UnDecorator@@SAHXZ 000000018015ba64 f i libvcruntime:undname.obj
 0001:0015aa74       ?doEcsu@UnDecorator@@SAHXZ 000000018015ba74 f i libvcruntime:undname.obj
 0001:0015aa84       ?doEllipsis@UnDecorator@@SAHXZ 000000018015ba84 f i libvcruntime:undname.obj
 0001:0015aa94       ?doFunctionReturns@UnDecorator@@SAHXZ 000000018015ba94 f i libvcruntime:undname.obj
 0001:0015aaa4       ?doMSKeywords@UnDecorator@@SAHXZ 000000018015baa4 f i libvcruntime:undname.obj
 0001:0015aab4       ?doMemberTypes@UnDecorator@@SAHXZ 000000018015bab4 f i libvcruntime:undname.obj
 0001:0015aac4       ?doNameOnly@UnDecorator@@SAHXZ 000000018015bac4 f i libvcruntime:undname.obj
 0001:0015aad0       ?doNoIdentCharCheck@UnDecorator@@SAHXZ 000000018015bad0 f i libvcruntime:undname.obj
 0001:0015aadc       ?doPchar@DName@@AEAAXD@Z   000000018015badc f   libvcruntime:undname.obj
 0001:0015ab2c       ?doPtr64@UnDecorator@@SAHXZ 000000018015bb2c f i libvcruntime:undname.obj
 0001:0015ab3c       ?doRestrictionSpec@UnDecorator@@SAHXZ 000000018015bb3c f i libvcruntime:undname.obj
 0001:0015ab4c       ?doThisTypes@UnDecorator@@SAHXZ 000000018015bb4c f i libvcruntime:undname.obj
 0001:0015ab60       ?doThrowTypes@UnDecorator@@SAHXZ 000000018015bb60 f i libvcruntime:undname.obj
 0001:0015ab70       ?doTypeOnly@UnDecorator@@SAHXZ 000000018015bb70 f i libvcruntime:undname.obj
 0001:0015ab7c       ?doUnderScore@UnDecorator@@SAHXZ 000000018015bb7c f i libvcruntime:undname.obj
 0001:0015ab88       ?getAddressOf@UnDecorator@@CA?AVDName@@XZ 000000018015bb88 f   libvcruntime:undname.obj
 0001:0015ac18       ?getArgumentList@UnDecorator@@CA?AVDName@@XZ 000000018015bc18 f   libvcruntime:undname.obj
 0001:0015adcc       ?getArgumentTypes@UnDecorator@@CA?AVDName@@XZ 000000018015bdcc f   libvcruntime:undname.obj
 0001:0015af18       ?getArrayAccess@UnDecorator@@CA?AVDName@@XZ 000000018015bf18 f   libvcruntime:undname.obj
 0001:0015afb4       ?getArrayObject@UnDecorator@@CA?AVDName@@XZ 000000018015bfb4 f   libvcruntime:undname.obj
 0001:0015b070       ?getArrayType@UnDecorator@@CA?AVDName@@AEBV2@@Z 000000018015c070 f i libvcruntime:undname.obj
 0001:0015b2b8       ?getBasedType@UnDecorator@@CA?AVDName@@XZ 000000018015c2b8 f   libvcruntime:undname.obj
 0001:0015b3b0       ?getBasicDataType@UnDecorator@@CA?AVDName@@AEBV2@@Z 000000018015c3b0 f   libvcruntime:undname.obj
 0001:0015b9b0       ?getCHPEName@UnDecorator@@QEAAPEADPEADH@Z 000000018015c9b0 f i libvcruntime:undname.obj
 0001:0015bad0       ?getCallIndex@UnDecorator@@CA?AVDName@@XZ 000000018015cad0 f i libvcruntime:undname.obj
 0001:0015baec       ?getCallingConvention@UnDecorator@@CA?AVDName@@XZ 000000018015caec f   libvcruntime:undname.obj
 0001:0015bc38       ?getDataIndirectType@UnDecorator@@CA?AVDName@@AEBV2@W4IndirectionKind@@0H@Z 000000018015cc38 f   libvcruntime:undname.obj
 0001:0015c500       ?getDataIndirectType@UnDecorator@@CA?AVDName@@XZ 000000018015d500 f i libvcruntime:undname.obj
 0001:0015c53c       ?getDataType@UnDecorator@@CA?AVDName@@PEAV2@@Z 000000018015d53c f   libvcruntime:undname.obj
 0001:0015c650       ?getDecoratedName@UnDecorator@@CA?AVDName@@XZ 000000018015d650 f   libvcruntime:undname.obj
 0001:0015c938       ?getDimension@UnDecorator@@CA?AVDName@@_N@Z 000000018015d938 f   libvcruntime:undname.obj
 0001:0015ca84       ?getDispatchTarget@UnDecorator@@CA?AVDName@@XZ 000000018015da84 f   libvcruntime:undname.obj
 0001:0015cad0       ?getDisplacement@UnDecorator@@CA?AVDName@@XZ 000000018015dad0 f i libvcruntime:undname.obj
 0001:0015caec       ?getECSUDataType@UnDecorator@@CA?AVDName@@XZ 000000018015daec f   libvcruntime:undname.obj
 0001:0015cccc       ?getECSUName@UnDecorator@@CA?AVDName@@XZ 000000018015dccc f i libvcruntime:undname.obj
 0001:0015cce4       ?getEnumType@UnDecorator@@CA?AVDName@@XZ 000000018015dce4 f i libvcruntime:undname.obj
 0001:0015ce14       ?getExtendedDataIndirectType@UnDecorator@@CA?AVDName@@AEAW4IndirectionKind@@AEA_NH@Z 000000018015de14 f   libvcruntime:undname.obj
 0001:0015d018       ?getExternalDataType@UnDecorator@@CA?AVDName@@AEBV2@@Z 000000018015e018 f i libvcruntime:undname.obj
 0001:0015d0d8       ?getFloatingPoint@UnDecorator@@CA?AVDName@@H@Z 000000018015e0d8 f   libvcruntime:undname.obj
 0001:0015d23c       ?getFunctionIndirectType@UnDecorator@@CA?AVDName@@AEBV2@@Z 000000018015e23c f   libvcruntime:undname.obj
 0001:0015d764       ?getGuardNumber@UnDecorator@@CA?AVDName@@XZ 000000018015e764 f i libvcruntime:undname.obj
 0001:0015d780       ?getLastChar@DName@@QEBADXZ 000000018015e780 f i libvcruntime:undname.obj
 0001:0015d79c       ?getLastChar@DNameStatusNode@@UEBADXZ 000000018015e79c f i libvcruntime:undname.obj
 0001:0015d7a8       ?getLastChar@charNode@@UEBADXZ 000000018015e7a8 f i libvcruntime:undname.obj
 0001:0015d7ac       ?getLastChar@pDNameNode@@UEBADXZ 000000018015e7ac f i libvcruntime:undname.obj
 0001:0015d7d8       ?getLastChar@pairNode@@UEBADXZ 000000018015e7d8 f i libvcruntime:undname.obj
 0001:0015d810       ?getLastChar@pcharNode@@UEBADXZ 000000018015e810 f i libvcruntime:undname.obj
 0001:0015d824       ?getLexicalFrame@UnDecorator@@CA?AVDName@@XZ 000000018015e824 f i libvcruntime:undname.obj
 0001:0015d888       ?getMemberAccess@UnDecorator@@CA?AVDName@@XZ 000000018015e888 f   libvcruntime:undname.obj
 0001:0015d91c       ?getMemoryWithBuffer@_HeapManager@@QEAAPEAX_K@Z 000000018015e91c f   libvcruntime:undname.obj
 0001:0015d9ac       ?getMemoryWithoutBuffer@_HeapManager@@QEAAPEAX_K@Z 000000018015e9ac f   libvcruntime:undname.obj
 0001:0015d9c0       ?getNoexcept@UnDecorator@@CA?AVDName@@XZ 000000018015e9c0 f   libvcruntime:undname.obj
 0001:0015da24       ?getNumberOfDimensions@UnDecorator@@CAHXZ 000000018015ea24 f   libvcruntime:undname.obj
 0001:0015da90       ?getOperatorName@UnDecorator@@CA?AVDName@@_NPEA_N@Z 000000018015ea90 f i libvcruntime:undname.obj
 0001:0015e49c       ?getPointerToMember@UnDecorator@@CA?AVDName@@XZ 000000018015f49c f   libvcruntime:undname.obj
 0001:0015e594       ?getPointerType@UnDecorator@@CA?AVDName@@AEBV2@0@Z 000000018015f594 f i libvcruntime:undname.obj
 0001:0015e5b4       ?getPointerTypeArray@UnDecorator@@CA?AVDName@@AEBV2@0@Z 000000018015f5b4 f i libvcruntime:undname.obj
 0001:0015e5d0       ?getPrimaryDataType@UnDecorator@@CA?AVDName@@AEBV2@@Z 000000018015f5d0 f   libvcruntime:undname.obj
 0001:0015e888       ?getPtrRefDataType@UnDecorator@@CA?AVDName@@AEBV2@H@Z 000000018015f888 f   libvcruntime:undname.obj
 0001:0015ea54       ?getPtrRefType@UnDecorator@@CA?AVDName@@AEBV2@0W4IndirectionKind@@@Z 000000018015fa54 f   libvcruntime:undname.obj
 0001:0015ec2c       ?getReferenceType@UnDecorator@@CA?AVDName@@AEBV2@0W4IndirectionKind@@@Z 000000018015fc2c f i libvcruntime:undname.obj
 0001:0015ec44       ?getRestrictionSpec@UnDecorator@@CA?AVDName@@XZ 000000018015fc44 f   libvcruntime:undname.obj
 0001:0015ee20       ?getReturnType@UnDecorator@@CA?AVDName@@PEAV2@@Z 000000018015fe20 f   libvcruntime:undname.obj
 0001:0015ee54       ?getScope@UnDecorator@@CA?AVDName@@XZ 000000018015fe54 f   libvcruntime:undname.obj
 0001:0015f310       ?getScopedName@UnDecorator@@CA?AVDName@@XZ 0000000180160310 f   libvcruntime:undname.obj
 0001:0015f450       ?getSignedDimension@UnDecorator@@CA?AVDName@@XZ 0000000180160450 f   libvcruntime:undname.obj
 0001:0015f4d8       ?getStorageConvention@UnDecorator@@CA?AVDName@@XZ 00000001801604d8 f i libvcruntime:undname.obj
 0001:0015f514       ?getString@DName@@QEBAPEADPEAD0@Z 0000000180160514 f i libvcruntime:undname.obj
 0001:0015f530       ?getString@DName@@QEBAPEADPEADH@Z 0000000180160530 f i libvcruntime:undname.obj
 0001:0015f5c4       ?getString@DNameStatusNode@@UEBAPEADPEAD0@Z 00000001801605c4 f i libvcruntime:undname.obj
 0001:0015f60c       ?getString@charNode@@UEBAPEADPEAD0@Z 000000018016060c f i libvcruntime:undname.obj
 0001:0015f620       ?getString@pDNameNode@@UEBAPEADPEAD0@Z 0000000180160620 f i libvcruntime:undname.obj
 0001:0015f650       ?getString@pairNode@@UEBAPEADPEAD0@Z 0000000180160650 f i libvcruntime:undname.obj
 0001:0015f69c       ?getString@pcharNode@@UEBAPEADPEAD0@Z 000000018016069c f i libvcruntime:undname.obj
 0001:0015f6d4       ?getStringEncoding@UnDecorator@@CA?AVDName@@W4PrefixKind@@H@Z 00000001801606d4 f   libvcruntime:undname.obj
 0001:0015f7c4       ?getStringHelper@@YAPEADPEADPEBD1H@Z 00000001801607c4 f i libvcruntime:undname.obj
 0001:0015f7f4       ?getStringObject@UnDecorator@@CA?AVDName@@XZ 00000001801607f4 f   libvcruntime:undname.obj
 0001:0015f85c       ?getSymbolName@UnDecorator@@CA?AVDName@@XZ 000000018016085c f i libvcruntime:undname.obj
 0001:0015f8a8       ?getTemplateArgumentList@UnDecorator@@CA?AVDName@@XZ 00000001801608a8 f   libvcruntime:undname.obj
 0001:0015fac4       ?getTemplateName@UnDecorator@@CA?AVDName@@_N@Z 0000000180160ac4 f   libvcruntime:undname.obj
 0001:0015fd58       ?getTemplateNonTypeArgument@UnDecorator@@CA?AVDName@@XZ 0000000180160d58 f   libvcruntime:undname.obj
 0001:001602a8       ?getTemplateTypeArgument@UnDecorator@@CA?AVDName@@XZ 00000001801612a8 f   libvcruntime:undname.obj
 0001:00160410       ?getThisType@UnDecorator@@CA?AVDName@@XZ 0000000180161410 f i libvcruntime:undname.obj
 0001:00160450       ?getThrowTypes@UnDecorator@@CA?AVDName@@XZ 0000000180161450 f   libvcruntime:undname.obj
 0001:00160474       ?getTypeEncoding@UnDecorator@@CAHXZ 0000000180161474 f i libvcruntime:undname.obj
 0001:00160810       ?getUndecoratedName@UnDecorator@@QEAAPEADPEADH@Z 0000000180161810 f i libvcruntime:undname.obj
 0001:00160964       ?getUnionObject@UnDecorator@@CA?AVDName@@XZ 0000000180161964 f   libvcruntime:undname.obj
 0001:00160a3c       ?getVCallThunkType@UnDecorator@@CA?AVDName@@XZ 0000000180161a3c f i libvcruntime:undname.obj
 0001:00160ab4       ?getValue@UnDecorator@@CA?AV?$optional@_K@std@@XZ 0000000180161ab4 f   libvcruntime:undname.obj
 0001:00160b28       ?getValueObject@UnDecorator@@CA?AVDName@@XZ 0000000180161b28 f   libvcruntime:undname.obj
 0001:00160c68       ?getVbTableType@UnDecorator@@CA?AVDName@@AEBV2@@Z 0000000180161c68 f i libvcruntime:undname.obj
 0001:00160c80       ?getVdispMapType@UnDecorator@@CA?AVDName@@AEBV2@@Z 0000000180161c80 f i libvcruntime:undname.obj
 0001:00160cfc       ?getVfTableType@UnDecorator@@CA?AVDName@@AEBV2@@Z 0000000180161cfc f i libvcruntime:undname.obj
 0001:00160f08       ?getZName@UnDecorator@@CA?AVDName@@_N0@Z 0000000180161f08 f   libvcruntime:undname.obj
 0001:001611e8       ?haveTemplateParameters@UnDecorator@@SAHXZ 00000001801621e8 f i libvcruntime:undname.obj
 0001:001611f4       ?isArray@DName@@QEBAHXZ    00000001801621f4 f i libvcruntime:undname.obj
 0001:00161200       ?isComArray@DName@@QEBAHXZ 0000000180162200 f i libvcruntime:undname.obj
 0001:0016120c       ?isEmpty@DName@@QEBAHXZ    000000018016220c f i libvcruntime:undname.obj
 0001:00161218       ?isFull@Replicator@@QEBAHXZ 0000000180162218 f i libvcruntime:undname.obj
 0001:00161224       ?isNoTE@DName@@QEBAHXZ     0000000180162224 f i libvcruntime:undname.obj
 0001:00161230       ?isPinPtr@DName@@QEBAHXZ   0000000180162230 f i libvcruntime:undname.obj
 0001:0016123c       ?isPtrRef@DName@@QEBAHXZ   000000018016223c f i libvcruntime:undname.obj
 0001:00161248       ?isUDC@DName@@QEBAHXZ      0000000180162248 f i libvcruntime:undname.obj
 0001:00161260       ?isUDTThunk@DName@@QEBAHXZ 0000000180162260 f i libvcruntime:undname.obj
 0001:00161278       ?isVCallThunk@DName@@QEBAHXZ 0000000180162278 f i libvcruntime:undname.obj
 0001:00161284       ?isValid@DName@@QEBAHXZ    0000000180162284 f i libvcruntime:undname.obj
 0001:00161290       ?length@DName@@QEBAHXZ     0000000180162290 f i libvcruntime:undname.obj
 0001:001612a8       ?length@DNameStatusNode@@UEBAHXZ 00000001801622a8 f i libvcruntime:undname.obj
 0001:001612ac       ?length@charNode@@UEBAHXZ  00000001801622ac f i libvcruntime:undname.obj
 0001:001612b4       ?length@pDNameNode@@UEBAHXZ 00000001801622b4 f i libvcruntime:undname.obj
 0001:001612dc       ?length@pairNode@@UEBAHXZ  00000001801622dc f i libvcruntime:undname.obj
 0001:00161324       ?length@pcharNode@@UEBAHXZ 0000000180162324 f i libvcruntime:undname.obj
 0001:00161328       ?make@DNameStatusNode@@SAPEBV1@W4DNameStatus@@@Z 0000000180162328 f i libvcruntime:undname.obj
 0001:00161348       ?parseDecoratedName@UnDecorator@@CA?AVDName@@XZ 0000000180162348 f   libvcruntime:undname.obj
 0001:0016145c       ?raw_length@DNameStatusNode@@UEBAHXZ 000000018016245c f i libvcruntime:undname.obj
 0001:00161460       ?raw_length@charNode@@UEBAHXZ 0000000180162460 f i libvcruntime:undname.obj
 0001:00161468       ?raw_length@pDNameNode@@UEBAHXZ 0000000180162468 f i libvcruntime:undname.obj
 0001:0016146c       ?raw_length@pairNode@@UEBAHXZ 000000018016246c f i libvcruntime:undname.obj
 0001:00161470       ?raw_length@pcharNode@@UEBAHXZ 0000000180162470 f i libvcruntime:undname.obj
 0001:00161474       ?setIsArray@DName@@QEAAXXZ 0000000180162474 f i libvcruntime:undname.obj
 0001:0016147c       ?setIsComArray@DName@@QEAAXXZ 000000018016247c f i libvcruntime:undname.obj
 0001:00161484       ?setIsNoTE@DName@@QEAAXXZ  0000000180162484 f i libvcruntime:undname.obj
 0001:0016148c       ?setIsPinPtr@DName@@QEAAXXZ 000000018016248c f i libvcruntime:undname.obj
 0001:00161494       ?setIsUDC@DName@@QEAAXXZ   0000000180162494 f i libvcruntime:undname.obj
 0001:001614a0       ?setIsVCallThunk@DName@@QEAAXXZ 00000001801624a0 f i libvcruntime:undname.obj
 0001:001614a8       ?setPtrRef@DName@@QEAAAEAV1@XZ 00000001801624a8 f i libvcruntime:undname.obj
 0001:001614b4       ?status@DName@@QEBA?AW4DNameStatus@@XZ 00000001801624b4 f i libvcruntime:undname.obj
 0001:00161518       __unDName                  0000000180162518 f   libvcruntime:undname.obj
 0001:00161540       __unDNameEx                0000000180162540 f   libvcruntime:undname.obj
 0001:00161674       _vsprintf_s_l              0000000180162674 f i libvcruntime:undname.obj
 0001:001616d8       snprintf                   00000001801626d8 f i libvcruntime:undname.obj
 0001:00161730       sprintf_s                  0000000180162730 f i libvcruntime:undname.obj
 0001:00161784       unDNameGenerateCHPE        0000000180162784 f   libvcruntime:undname.obj
 0001:0016188c       vsnprintf                  000000018016288c f i libvcruntime:undname.obj
 0001:00161900       _NLG_Notify                0000000180162900 f   libvcruntime:notify.obj
 0001:00161920       __NLG_Dispatch2            0000000180162920 f   libvcruntime:notify.obj
 0001:00161930       __NLG_Return2              0000000180162930 f   libvcruntime:notify.obj
 0001:0016193c       __except_validate_context_record 000000018016293c f   libvcruntime:jbcxrval.obj
 0001:00161974       __except_validate_jump_buffer 0000000180162974 f   libvcruntime:jbcxrval.obj
 0001:001619b4       __except_validate_jump_buffer_common 00000001801629b4 f i libvcruntime:jbcxrval.obj
 0001:00161a10       ??$?RU__vcrt_ptd@@@__crt_internal_free_policy@@QEBAXQEBU__vcrt_ptd@@@Z 0000000180162a10 f i libvcruntime:per_thread_data.obj
 0001:00161a18       ??0?$__crt_unique_heap_ptr@U__vcrt_ptd@@U__crt_internal_free_policy@@@@QEAA@QEAU__vcrt_ptd@@@Z 0000000180162a18 f i libvcruntime:per_thread_data.obj
 0001:00161a3c       ??1?$__crt_unique_heap_ptr@U__vcrt_ptd@@U__crt_internal_free_policy@@@@QEAA@XZ 0000000180162a3c f i libvcruntime:per_thread_data.obj
 0001:00161a64       ??B?$__crt_unique_heap_ptr@U__vcrt_ptd@@U__crt_internal_free_policy@@@@QEBA_NXZ 0000000180162a64 f i libvcruntime:per_thread_data.obj
 0001:00161a6c       ?detach@?$__crt_unique_heap_ptr@U__vcrt_ptd@@U__crt_internal_free_policy@@@@QEAAPEAU__vcrt_ptd@@XZ 0000000180162a6c f i libvcruntime:per_thread_data.obj
 0001:00161a74       ?get@?$__crt_unique_heap_ptr@U__vcrt_ptd@@U__crt_internal_free_policy@@@@QEBAPEAU__vcrt_ptd@@XZ 0000000180162a74 f i libvcruntime:per_thread_data.obj
 0001:00161a78       ?is_valid@?$__crt_unique_heap_ptr@U__vcrt_ptd@@U__crt_internal_free_policy@@@@QEBA_NXZ 0000000180162a78 f i libvcruntime:per_thread_data.obj
 0001:00161a80       ?release@?$__crt_unique_heap_ptr@U__vcrt_ptd@@U__crt_internal_free_policy@@@@QEAAXXZ 0000000180162a80 f i libvcruntime:per_thread_data.obj
 0001:00161ac8       __vcrt_freefls             0000000180162ac8 f   libvcruntime:per_thread_data.obj
 0001:00161ae8       __vcrt_freeptd             0000000180162ae8 f   libvcruntime:per_thread_data.obj
 0001:00161b38       __vcrt_getptd              0000000180162b38 f   libvcruntime:per_thread_data.obj
 0001:00161b54       __vcrt_getptd_noexit       0000000180162b54 f   libvcruntime:per_thread_data.obj
 0001:00161c14       __vcrt_getptd_noinit       0000000180162c14 f   libvcruntime:per_thread_data.obj
 0001:00161c64       __vcrt_initialize_ptd      0000000180162c64 f   libvcruntime:per_thread_data.obj
 0001:00161cac       __vcrt_uninitialize_ptd    0000000180162cac f   libvcruntime:per_thread_data.obj
 0001:00161cd0       __vcrt_initialize_locks    0000000180162cd0 f   libvcruntime:locks.obj
 0001:00161d18       __vcrt_lock                0000000180162d18 f   libvcruntime:locks.obj
 0001:00161d34       __vcrt_uninitialize_locks  0000000180162d34 f   libvcruntime:locks.obj
 0001:00161d6c       __vcrt_unlock              0000000180162d6c f   libvcruntime:locks.obj
 0001:00161d88       ??$?0AEAViterator@TryBlockMap4@FH4@@AEAV012@$0A@@?$pair@Viterator@TryBlockMap4@FH4@@V123@@std@@QEAA@AEAViterator@TryBlockMap4@FH4@@0@Z 0000000180162d88 f i libvcruntime:risctrnsctrl.obj
 0001:00161d9c       ??$?0AEAViterator@TryBlockMap@__FrameHandler3@@AEAV012@$0A@@?$pair@Viterator@TryBlockMap@__FrameHandler3@@V123@@std@@QEAA@AEAViterator@TryBlockMap@__FrameHandler3@@0@Z 0000000180162d9c f i libvcruntime:risctrnsctrl.obj
 0001:00161eec       ??$_CallSETranslator@V__FrameHandler3@@@@YAHPEAUEHExceptionRecord@@PEA_KPEAU_CONTEXT@@PEAU_xDISPATCHER_CONTEXT@@PEBU_s_FuncInfo@@K1H@Z 0000000180162eec f i libvcruntime:risctrnsctrl.obj
 0001:00161f40       ??$_CallSETranslator@V__FrameHandler4@@@@YAHPEAUEHExceptionRecord@@PEA_KPEAU_CONTEXT@@PEAU_xDISPATCHER_CONTEXT@@PEAUFuncInfo4@FH4@@K1H@Z 0000000180162f40 f i libvcruntime:risctrnsctrl.obj
 0001:00161f94       ??$forward@AEAViterator@TryBlockMap4@FH4@@@std@@YAAEAViterator@TryBlockMap4@FH4@@AEAV123@@Z 0000000180162f94 f i libvcruntime:risctrnsctrl.obj
 0001:00161f98       ??$forward@AEAViterator@TryBlockMap@__FrameHandler3@@@std@@YAAEAViterator@TryBlockMap@__FrameHandler3@@AEAV123@@Z 0000000180162f98 f i libvcruntime:risctrnsctrl.obj
 0001:00161f9c       ??0FuncInfo4@FH4@@QEAA@XZ  0000000180162f9c f i libvcruntime:risctrnsctrl.obj
 0001:00161fb0       ??0FuncInfoHeader@FH4@@QEAA@XZ 0000000180162fb0 f i libvcruntime:risctrnsctrl.obj
 0001:00161fb8       ??0iterator@TryBlockMap4@FH4@@QEAA@AEAV12@I@Z 0000000180162fb8 f i libvcruntime:risctrnsctrl.obj
 0001:00161fc4       ??0iterator@TryBlockMap@__FrameHandler3@@QEAA@AEAV12@I@Z 0000000180162fc4 f i libvcruntime:risctrnsctrl.obj
 0001:00161fd0       ??4iterator@TryBlockMap4@FH4@@QEAAAEAV012@AEBV012@@Z 0000000180162fd0 f i libvcruntime:risctrnsctrl.obj
 0001:00161fdc       ??9iterator@TryBlockMap4@FH4@@QEBA_NAEBV012@@Z 0000000180162fdc f i libvcruntime:risctrnsctrl.obj
 0001:00161fe8       ??Diterator@TryBlockMap4@FH4@@QEAA?AUTryBlockMapEntry4@2@XZ 0000000180162fe8 f i libvcruntime:risctrnsctrl.obj
 0001:00161ff8       ??Eiterator@TryBlockMap4@FH4@@QEAAAEAV012@XZ 0000000180162ff8 f i libvcruntime:risctrnsctrl.obj
 0001:00162094       ?CatchTryBlock@__FrameHandler3@@SAPEBU_s_TryBlockMapEntry@@PEBU_s_FuncInfo@@H@Z 0000000180163094 f   libvcruntime:risctrnsctrl.obj
 0001:001620f8       ?DecompFuncInfo@FH4@@YA_JPEAEAEAUFuncInfo4@1@_KH@Z 00000001801630f8 f i libvcruntime:risctrnsctrl.obj
 0001:0016210c       ?DecompFuncInfo@FH4@@YA_JPEAEAEAUFuncInfo4@1@_KH_N@Z 000000018016310c f i libvcruntime:risctrnsctrl.obj
 0001:00162230       ?DecompTryBlock@TryBlockMap4@FH4@@AEAAXXZ 0000000180163230 f i libvcruntime:risctrnsctrl.obj
 0001:001622c4       ?ExecutionInCatch@__FrameHandler3@@SA_NPEAU_xDISPATCHER_CONTEXT@@PEBU_s_FuncInfo@@@Z 00000001801632c4 f   libvcruntime:risctrnsctrl.obj
 0001:001622f0       ?ExecutionInCatch@__FrameHandler4@@SA_NPEAU_xDISPATCHER_CONTEXT@@PEAUFuncInfo4@FH4@@@Z 00000001801632f0 f   libvcruntime:risctrnsctrl.obj
 0001:001622f8       ?FrameUnwindToEmptyState@__FrameHandler3@@SAXPEA_KPEAU_xDISPATCHER_CONTEXT@@PEBU_s_FuncInfo@@@Z 00000001801632f8 f   libvcruntime:risctrnsctrl.obj
 0001:0016235c       ?FrameUnwindToEmptyState@__FrameHandler4@@SAXPEA_KPEAU_xDISPATCHER_CONTEXT@@PEAUFuncInfo4@FH4@@@Z 000000018016335c f   libvcruntime:risctrnsctrl.obj
 0001:00162390       ?GetEstablisherFrame@__FrameHandler3@@SAPEA_KPEA_KPEAU_xDISPATCHER_CONTEXT@@PEBU_s_FuncInfo@@0@Z 0000000180163390 f   libvcruntime:risctrnsctrl.obj
 0001:0016245c       ?GetEstablisherFrame@__FrameHandler4@@SAPEA_KPEA_KPEAU_xDISPATCHER_CONTEXT@@PEAUFuncInfo4@FH4@@0@Z 000000018016345c f   libvcruntime:risctrnsctrl.obj
 0001:00162480       ?GetRangeOfTrysToCheck@__FrameHandler3@@SA?AU?$pair@Viterator@TryBlockMap@__FrameHandler3@@V123@@std@@AEAVTryBlockMap@1@HPEAU_xDISPATCHER_CONTEXT@@PEBU_s_FuncInfo@@H@Z 0000000180163480 f   libvcruntime:risctrnsctrl.obj
 0001:001625c0       ?GetRangeOfTrysToCheck@__FrameHandler4@@SA?AU?$pair@Viterator@TryBlockMap4@FH4@@V123@@std@@AEAVTryBlockMap4@FH4@@HPEAU_xDISPATCHER_CONTEXT@@PEAUFuncInfo4@5@H@Z 00000001801635c0 f   libvcruntime:risctrnsctrl.obj
 0001:0016272c       ?ReadInt@FH4@@YAHPEAPEAE@Z 000000018016372c f i libvcruntime:risctrnsctrl.obj
 0001:0016273c       ?ReadUnsigned@FH4@@YAIPEAPEAE@Z 000000018016373c f i libvcruntime:risctrnsctrl.obj
 0001:0016276c       ?UnwindNestedFrames@__FrameHandler3@@SAXPEA_KPEAUEHExceptionRecord@@PEAU_CONTEXT@@0PEAXPEBU_s_FuncInfo@@HHPEBU_s_HandlerType@@PEAU_xDISPATCHER_CONTEXT@@E@Z 000000018016376c f   libvcruntime:risctrnsctrl.obj
 0001:00162870       ?UnwindNestedFrames@__FrameHandler4@@SAXPEA_KPEAUEHExceptionRecord@@PEAU_CONTEXT@@0PEAXPEAUFuncInfo4@FH4@@HHPEAUHandlerType4@5@PEAU_xDISPATCHER_CONTEXT@@E@Z 0000000180163870 f   libvcruntime:risctrnsctrl.obj
 0001:00162990       ?begin@TryBlockMap4@FH4@@QEAA?AViterator@12@XZ 0000000180163990 f i libvcruntime:risctrnsctrl.obj
 0001:0016299c       ?end@TryBlockMap4@FH4@@QEAA?AViterator@12@XZ 000000018016399c f i libvcruntime:risctrnsctrl.obj
 0001:001629a8       ?imageRelToByteBuffer@FH4@@YAPEAE_KH@Z 00000001801639a8 f i libvcruntime:risctrnsctrl.obj
 0001:001629b0       ?incrementToSentinel@iterator@TryBlockMap4@FH4@@QEAAXXZ 00000001801639b0 f i libvcruntime:risctrnsctrl.obj
 0001:001629b4       ?setBuffer@TryBlockMap4@FH4@@QEAAXViterator@12@@Z 00000001801639b4 f i libvcruntime:risctrnsctrl.obj
 0001:00162b78       _CreateFrameInfo           0000000180163b78 f   libvcruntime:risctrnsctrl.obj
 0001:00162bb4       _FindAndUnlinkFrame        0000000180163bb4 f   libvcruntime:risctrnsctrl.obj
 0001:00162c08       _GetImageBase              0000000180163c08 f   libvcruntime:risctrnsctrl.obj
 0001:00162c1c       _GetThrowImageBase         0000000180163c1c f   libvcruntime:risctrnsctrl.obj
 0001:00162c30       _SetImageBase              0000000180163c30 f   libvcruntime:risctrnsctrl.obj
 0001:00162c48       _SetThrowImageBase         0000000180163c48 f   libvcruntime:risctrnsctrl.obj
 0001:00162c60       __CxxFrameHandler          0000000180163c60 f   libvcruntime:risctrnsctrl.obj
 0001:00162c68       __CxxFrameHandler2         0000000180163c68 f   libvcruntime:risctrnsctrl.obj
 0001:00162c70       __CxxFrameHandler3         0000000180163c70 f   libvcruntime:risctrnsctrl.obj
 0001:00162cf8       __CxxFrameHandler4         0000000180163cf8 f   libvcruntime:risctrnsctrl.obj
 0001:00162db8       ??$__crt_interlocked_exchange_pointer@UHINSTANCE__@@PEAU1@@@YAPEAUHINSTANCE__@@PEDSEAU0@QEAU0@@Z 0000000180163db8 f i libvcruntime:winapi_downlevel.obj
 0001:00162dc0       ??$__crt_interlocked_exchange_pointer@UHINSTANCE__@@PEAX@@YAPEAUHINSTANCE__@@PEDSEAU0@QEAX@Z 0000000180163dc0 f i libvcruntime:winapi_downlevel.obj
 0001:00162dc8       ??$__crt_interlocked_exchange_pointer@XPEAX@@YAPEAXPEDSEAXQEAX@Z 0000000180163dc8 f i libvcruntime:winapi_downlevel.obj
 0001:00162dd0       ??$__crt_interlocked_read_pointer@UHINSTANCE__@@@@YAPEAUHINSTANCE__@@PEDSEAU0@@Z 0000000180163dd0 f i libvcruntime:winapi_downlevel.obj
 0001:00162dd8       ??$__crt_interlocked_read_pointer@X@@YAPEAXPEDSEAX@Z 0000000180163dd8 f i libvcruntime:winapi_downlevel.obj
 0001:00163318       __vcrt_FlsAlloc            0000000180164318 f   libvcruntime:winapi_downlevel.obj
 0001:00163360       __vcrt_FlsFree             0000000180164360 f   libvcruntime:winapi_downlevel.obj
 0001:001633a8       __vcrt_FlsGetValue         00000001801643a8 f   libvcruntime:winapi_downlevel.obj
 0001:001633f0       __vcrt_FlsSetValue         00000001801643f0 f   libvcruntime:winapi_downlevel.obj
 0001:00163444       __vcrt_InitializeCriticalSectionEx 0000000180164444 f   libvcruntime:winapi_downlevel.obj
 0001:001634a8       ?GetCurrentState@__FrameHandler3@@SAHPEA_KPEAU_xDISPATCHER_CONTEXT@@PEBU_s_FuncInfo@@@Z 00000001801644a8 f   libvcruntime:ehstate.obj
 0001:001634d0       ?GetUnwindTryBlock@__FrameHandler3@@SAHPEA_KPEAU_xDISPATCHER_CONTEXT@@PEBU_s_FuncInfo@@@Z 00000001801644d0 f   libvcruntime:ehstate.obj
 0001:001634fc       ?SetState@__FrameHandler3@@SAXPEA_KPEBU_s_FuncInfo@@H@Z 00000001801644fc f   libvcruntime:ehstate.obj
 0001:00163508       ?SetUnwindTryBlock@__FrameHandler3@@SAXPEA_KPEAU_xDISPATCHER_CONTEXT@@PEBU_s_FuncInfo@@H@Z 0000000180164508 f   libvcruntime:ehstate.obj
 0001:00163544       ?StateFromControlPc@__FrameHandler3@@SAHPEBU_s_FuncInfo@@PEAU_xDISPATCHER_CONTEXT@@@Z 0000000180164544 f   libvcruntime:ehstate.obj
 0001:0016354c       ?StateFromControlPc@__FrameHandler4@@SAHPEAUFuncInfo4@FH4@@PEAU_xDISPATCHER_CONTEXT@@@Z 000000018016454c f   libvcruntime:ehstate.obj
 0001:00163554       ?StateFromIp@__FrameHandler3@@SAHPEBU_s_FuncInfo@@PEAU_xDISPATCHER_CONTEXT@@_K@Z 0000000180164554 f   libvcruntime:ehstate.obj
 0001:001635bc       ?StateFromIp@__FrameHandler4@@SAHPEAUFuncInfo4@FH4@@PEAU_xDISPATCHER_CONTEXT@@_K@Z 00000001801645bc f   libvcruntime:ehstate.obj
 0001:001636ac       ?__FuncRelToRealOffset@@YA_KPEAU_xDISPATCHER_CONTEXT@@I@Z 00000001801646ac f i libvcruntime:ehstate.obj
 0001:001636bc       ?__RVAtoRealOffset@@YA_KPEAU_xDISPATCHER_CONTEXT@@H@Z 00000001801646bc f i libvcruntime:ehstate.obj
 0001:00164cd8       ??$TypeMatchHelper@V__FrameHandler3@@@@YAHPEBU_s_HandlerType@@PEBU_s_CatchableType@@PEBU_s_ThrowInfo@@@Z 0000000180165cd8 f i libvcruntime:frame.obj
 0001:00164e18       ??$TypeMatchHelper@V__FrameHandler4@@@@YAHPEAUHandlerType4@FH4@@PEBU_s_CatchableType@@PEBU_s_ThrowInfo@@@Z 0000000180165e18 f i libvcruntime:frame.obj
 0001:00164f5c       ??$__InternalCxxFrameHandler@V__FrameHandler3@@@@YA?AW4_EXCEPTION_DISPOSITION@@PEAUEHExceptionRecord@@PEA_KPEAU_CONTEXT@@PEAU_xDISPATCHER_CONTEXT@@PEBU_s_FuncInfo@@H1E@Z 0000000180165f5c f i libvcruntime:frame.obj
 0001:00165194       ??$__InternalCxxFrameHandler@V__FrameHandler4@@@@YA?AW4_EXCEPTION_DISPOSITION@@PEAUEHExceptionRecord@@PEA_KPEAU_CONTEXT@@PEAU_xDISPATCHER_CONTEXT@@PEAUFuncInfo4@FH4@@H1E@Z 0000000180166194 f i libvcruntime:frame.obj
 0001:00165428       ??0HandlerMap4@FH4@@QEAA@PEBUTryBlockMapEntry4@1@_KH@Z 0000000180166428 f i libvcruntime:frame.obj
 0001:001654a4       ??0HandlerMap@__FrameHandler3@@QEAA@PEBU_s_TryBlockMapEntry@@_KI@Z 00000001801664a4 f i libvcruntime:frame.obj
 0001:001654b8       ??0HandlerType4@FH4@@QEAA@XZ 00000001801664b8 f i libvcruntime:frame.obj
 0001:001654d0       ??0TryBlockMap4@FH4@@QEAA@PEBUFuncInfo4@1@_K@Z 00000001801664d0 f i libvcruntime:frame.obj
 0001:001655a8       ??0TryBlockMap@__FrameHandler3@@QEAA@PEBU_s_FuncInfo@@_K@Z 00000001801665a8 f i libvcruntime:frame.obj
 0001:001655b4       ??0UWMap4@FH4@@QEAA@PEBUFuncInfo4@1@_K@Z 00000001801665b4 f i libvcruntime:frame.obj
 0001:001655f8       ??0bad_exception@std@@QEAA@AEBV01@@Z 00000001801665f8 f i libvcruntime:frame.obj
 0001:00165634       ??0bad_exception@std@@QEAA@XZ 0000000180166634 f i libvcruntime:frame.obj
 0001:00165654       ??0exception@std@@QEAA@AEBV01@@Z 0000000180166654 f i libvcruntime:frame.obj
 0001:00165688       ??0exception@std@@QEAA@QEBDH@Z 0000000180166688 f i libvcruntime:frame.obj
 0001:001656a0       ??0iterator@HandlerMap4@FH4@@QEAA@AEAV12@I@Z 00000001801666a0 f i libvcruntime:frame.obj
 0001:001656ac       ??0iterator@HandlerMap@__FrameHandler3@@QEAA@AEAV12@I@Z 00000001801666ac f i libvcruntime:frame.obj
 0001:001656b8       ??0iterator@UWMap4@FH4@@QEAA@AEAV12@PEAE@Z 00000001801666b8 f i libvcruntime:frame.obj
 0001:001656c4       ??1bad_exception@std@@UEAA@XZ 00000001801666c4 f i libvcruntime:frame.obj
 0001:001656d8       ??1exception@std@@UEAA@XZ  00000001801666d8 f i libvcruntime:frame.obj
 0001:001656ec       ??4iterator@UWMap4@FH4@@QEAAAEAV012@AEBV012@@Z 00000001801666ec f i libvcruntime:frame.obj
 0001:0016570c       ??8iterator@HandlerMap4@FH4@@QEBA_NAEBV012@@Z 000000018016670c f i libvcruntime:frame.obj
 0001:00165718       ??8iterator@HandlerMap@__FrameHandler3@@QEBA_NAEBV012@@Z 0000000180166718 f i libvcruntime:frame.obj
 0001:00165724       ??8type_info@@QEBA_NAEBV0@@Z 0000000180166724 f i libvcruntime:frame.obj
 0001:00165740       ??9iterator@HandlerMap4@FH4@@QEBA_NAEBV012@@Z 0000000180166740 f i libvcruntime:frame.obj
 0001:0016574c       ??9iterator@HandlerMap@__FrameHandler3@@QEBA_NAEBV012@@Z 000000018016674c f i libvcruntime:frame.obj
 0001:00165758       ??Diterator@HandlerMap4@FH4@@QEAA?AUHandlerType4@2@XZ 0000000180166758 f i libvcruntime:frame.obj
 0001:00165778       ??Diterator@HandlerMap@__FrameHandler3@@QEAA?BU_s_HandlerType@@XZ 0000000180166778 f i libvcruntime:frame.obj
 0001:0016579c       ??Diterator@TryBlockMap@__FrameHandler3@@QEAA?BU_s_TryBlockMapEntry@@XZ 000000018016679c f i libvcruntime:frame.obj
 0001:001657cc       ??Diterator@UWMap4@FH4@@QEAA?AUUnwindMapEntry4@2@XZ 00000001801667cc f i libvcruntime:frame.obj
 0001:00165820       ??Eiterator@HandlerMap4@FH4@@QEAAAEAV012@XZ 0000000180166820 f i libvcruntime:frame.obj
 0001:00165840       ??Eiterator@HandlerMap@__FrameHandler3@@QEAAAEAV012@XZ 0000000180166840 f i libvcruntime:frame.obj
 0001:00165848       ??Eiterator@TryBlockMap@__FrameHandler3@@QEAAAEAV012@XZ 0000000180166848 f i libvcruntime:frame.obj
 0001:00165850       ??Eiterator@UWMap4@FH4@@QEAAAEAV012@XZ 0000000180166850 f i libvcruntime:frame.obj
 0001:00165870       ??Giterator@UWMap4@FH4@@QEBA_JAEBV012@@Z 0000000180166870 f i libvcruntime:frame.obj
 0001:0016587c       ??Miterator@TryBlockMap4@FH4@@QEBA_NAEBV012@@Z 000000018016687c f i libvcruntime:frame.obj
 0001:00165888       ??Miterator@TryBlockMap@__FrameHandler3@@QEBA_NAEBV012@@Z 0000000180166888 f i libvcruntime:frame.obj
 0001:00165894       ??Oiterator@UWMap4@FH4@@QEBA_NAEBV012@@Z 0000000180166894 f i libvcruntime:frame.obj
 0001:001658a0       ??Piterator@UWMap4@FH4@@QEBA_NAEBV012@@Z 00000001801668a0 f i libvcruntime:frame.obj
 0001:001658ac       ??_Ebad_exception@std@@UEAAPEAXI@Z 00000001801668ac f i libvcruntime:frame.obj
 0001:001658ac       ??_Gbad_exception@std@@UEAAPEAXI@Z 00000001801668ac f i libvcruntime:frame.obj
 0001:001658f0       ??_Eexception@std@@UEAAPEAXI@Z 00000001801668f0 f i libvcruntime:frame.obj
 0001:001658f0       ??_Gexception@std@@UEAAPEAXI@Z 00000001801668f0 f i libvcruntime:frame.obj
 0001:00165934       ?BuildCatchObject@__FrameHandler3@@SAXPEAUEHExceptionRecord@@PEAXPEBU_s_HandlerType@@PEBU_s_CatchableType@@@Z 0000000180166934 f   libvcruntime:frame.obj
 0001:0016593c       ?BuildCatchObject@__FrameHandler4@@SAXPEAUEHExceptionRecord@@PEAXPEAUHandlerType4@FH4@@PEBU_s_CatchableType@@@Z 000000018016693c f   libvcruntime:frame.obj
 0001:00165944       ?BuildCatchObjectHelper@__FrameHandler3@@SAHPEAUEHExceptionRecord@@PEAXPEBU_s_HandlerType@@PEBU_s_CatchableType@@@Z 0000000180166944 f   libvcruntime:frame.obj
 0001:0016594c       ?BuildCatchObjectHelper@__FrameHandler4@@SAHPEAUEHExceptionRecord@@PEAXPEAUHandlerType4@FH4@@PEBU_s_CatchableType@@@Z 000000018016694c f   libvcruntime:frame.obj
 0001:00165954       ?CxxCallCatchBlock@__FrameHandler3@@SAPEAXPEAU_EXCEPTION_RECORD@@@Z 0000000180166954 f   libvcruntime:frame.obj
 0001:00165b40       ?CxxCallCatchBlock@__FrameHandler4@@SAPEAXPEAU_EXCEPTION_RECORD@@@Z 0000000180166b40 f   libvcruntime:frame.obj
 0001:00165d90       ?DecompHandler@HandlerMap4@FH4@@AEAAXXZ 0000000180166d90 f i libvcruntime:frame.obj
 0001:00165fdc       ?FrameUnwindToState@__FrameHandler3@@SAXPEA_KPEAU_xDISPATCHER_CONTEXT@@PEBU_s_FuncInfo@@H@Z 0000000180166fdc f   libvcruntime:frame.obj
 0001:00166168       ?FrameUnwindToState@__FrameHandler4@@SAXPEA_KPEAU_xDISPATCHER_CONTEXT@@PEAUFuncInfo4@FH4@@H@Z 0000000180167168 f   libvcruntime:frame.obj
 0001:00166464       ?GetHandlerSearchState@__FrameHandler3@@SAHPEA_KPEAU_xDISPATCHER_CONTEXT@@PEBU_s_FuncInfo@@@Z 0000000180167464 f i libvcruntime:frame.obj
 0001:001664fc       ?GetHandlerSearchState@__FrameHandler4@@SAHPEA_KPEAU_xDISPATCHER_CONTEXT@@PEAUFuncInfo4@FH4@@@Z 00000001801674fc f i libvcruntime:frame.obj
 0001:00166560       ?GetMaxState@__FrameHandler3@@SAHPEAU_xDISPATCHER_CONTEXT@@PEBU_s_FuncInfo@@@Z 0000000180167560 f i libvcruntime:frame.obj
 0001:00166564       ?GetMaxState@__FrameHandler4@@SAHPEAU_xDISPATCHER_CONTEXT@@PEAUFuncInfo4@FH4@@@Z 0000000180167564 f i libvcruntime:frame.obj
 0001:00166714       ?ReadEntry@UWMap4@FH4@@AEAAXPEAPEAE@Z 0000000180167714 f i libvcruntime:frame.obj
 0001:001667b0       ?TypeMatch@__FrameHandler3@@SAHPEBU_s_HandlerType@@PEBU_s_CatchableType@@PEBU_s_ThrowInfo@@@Z 00000001801677b0 f   libvcruntime:frame.obj
 0001:001667b8       ?TypeMatch@__FrameHandler4@@SAHPEAUHandlerType4@FH4@@PEBU_s_CatchableType@@PEBU_s_ThrowInfo@@@Z 00000001801677b8 f   libvcruntime:frame.obj
 0001:001667c0       ?WalkBack@UWMap4@FH4@@AEAAXPEAPEAE@Z 00000001801677c0 f i libvcruntime:frame.obj
 0001:001667f8       ?WalkBack@iterator@UWMap4@FH4@@QEAAXXZ 00000001801677f8 f i libvcruntime:frame.obj
 0001:00166838       ?WalkForward@UWMap4@FH4@@AEAAXPEAPEAE@Z 0000000180167838 f i libvcruntime:frame.obj
 0001:00166840       ?_CallMemberFunction1@@YAXQEAX00@Z 0000000180167840 f i libvcruntime:frame.obj
 0001:0016684c       ?_CallMemberFunction2@@YAXQEAX00H@Z 000000018016784c f i libvcruntime:frame.obj
 0001:00166870       ?begin@HandlerMap4@FH4@@QEAA?AViterator@12@XZ 0000000180167870 f i libvcruntime:frame.obj
 0001:0016687c       ?begin@HandlerMap@__FrameHandler3@@QEAA?AViterator@12@XZ 000000018016787c f i libvcruntime:frame.obj
 0001:00166888       ?begin@UWMap4@FH4@@QEAA?AViterator@12@XZ 0000000180167888 f i libvcruntime:frame.obj
 0001:00166898       ?end@HandlerMap4@FH4@@QEAA?AViterator@12@XZ 0000000180167898 f i libvcruntime:frame.obj
 0001:001668a4       ?end@HandlerMap@__FrameHandler3@@QEAA?AViterator@12@XZ 00000001801678a4 f i libvcruntime:frame.obj
 0001:001668b0       ?getESTypes@__FrameHandler3@@SAPEBU_s_ESTypeList@@PEBU_s_FuncInfo@@@Z 00000001801678b0 f i libvcruntime:frame.obj
 0001:001668d8       ?getESTypes@__FrameHandler4@@SAPEBU_s_ESTypeList@@PEAUFuncInfo4@FH4@@@Z 00000001801678d8 f i libvcruntime:frame.obj
 0001:001668dc       ?getLastEntry@HandlerMap4@FH4@@QEAAPEAUHandlerType4@2@XZ 00000001801678dc f i libvcruntime:frame.obj
 0001:0016692c       ?getLastEntry@HandlerMap@__FrameHandler3@@QEAAPEBU_s_HandlerType@@XZ 000000018016792c f i libvcruntime:frame.obj
 0001:00166940       ?getMagicNum@__FrameHandler3@@SAIPEBU_s_FuncInfo@@@Z 0000000180167940 f i libvcruntime:frame.obj
 0001:00166948       ?getMagicNum@__FrameHandler4@@SAIPEAUFuncInfo4@FH4@@@Z 0000000180167948 f i libvcruntime:frame.obj
 0001:00166950       ?getNumTryBlocks@TryBlockMap4@FH4@@QEAAIXZ 0000000180167950 f i libvcruntime:frame.obj
 0001:00166954       ?getNumTryBlocks@TryBlockMap@__FrameHandler3@@QEAAIXZ 0000000180167954 f i libvcruntime:frame.obj
 0001:0016695c       ?getStartStop@UWMap4@FH4@@QEAAXHHAEAViterator@12@0@Z 000000018016795c f i libvcruntime:frame.obj
 0001:00166a2c       ?getStateFromIterators@UWMap4@FH4@@SAHAEBViterator@12@H0H0@Z 0000000180167a2c f i libvcruntime:frame.obj
 0001:00166af8       ?isEHs@__FrameHandler3@@SA_NPEBU_s_FuncInfo@@@Z 0000000180167af8 f i libvcruntime:frame.obj
 0001:00166b00       ?isEHs@__FrameHandler4@@SA_NPEAUFuncInfo4@FH4@@@Z 0000000180167b00 f i libvcruntime:frame.obj
 0001:00166b08       ?isNoExcept@__FrameHandler3@@SA_NPEBU_s_FuncInfo@@@Z 0000000180167b08 f i libvcruntime:frame.obj
 0001:00166b14       ?isNoExcept@__FrameHandler4@@SA_NPEAUFuncInfo4@FH4@@@Z 0000000180167b14 f i libvcruntime:frame.obj
 0001:00166b1c       ?reset@HandlerType4@FH4@@QEAAXXZ 0000000180167b1c f i libvcruntime:frame.obj
 0001:00166b30       ?resetBuffer@HandlerMap4@FH4@@QEAAXXZ 0000000180167b30 f i libvcruntime:frame.obj
 0001:00166b40       ?setBuffer@HandlerMap4@FH4@@QEAAXI@Z 0000000180167b40 f i libvcruntime:frame.obj
 0001:00166b7c       ?what@exception@std@@UEBAPEBDXZ 0000000180167b7c f i libvcruntime:frame.obj
 0001:00166b90       __BuildCatchObject         0000000180167b90 f   libvcruntime:frame.obj
 0001:00166b98       __BuildCatchObjectHelper   0000000180167b98 f   libvcruntime:frame.obj
 0001:00166ba0       __TypeMatch                0000000180167ba0 f   libvcruntime:frame.obj
 0001:00166ba8       __vcrt_EncodePointer       0000000180167ba8 f i libvcruntime:frame.obj
 0001:00166bc0       _CallSettingFrame          0000000180167bc0 f   libvcruntime:handlers.obj
 0001:00166c10       _CallSettingFrame_LookupContinuationIndex 0000000180167c10 f   libvcruntime:handlers.obj
 0001:00166c40       _CallSettingFrame_NotifyContinuationAddr 0000000180167c40 f   libvcruntime:handlers.obj
 0001:00166c70       _CallSettingFrameEncoded   0000000180167c70 f   libvcruntime:handlers.obj
 0001:00166cb8       ??$?RD@__crt_public_free_policy@@QEBAXQEBD@Z 0000000180167cb8 f i libvcruntime:std_exception.obj
 0001:00166cc0       ??0?$__crt_unique_heap_ptr@DU__crt_public_free_policy@@@@QEAA@QEAD@Z 0000000180167cc0 f i libvcruntime:std_exception.obj
 0001:00166cc8       ??1?$__crt_unique_heap_ptr@DU__crt_public_free_policy@@@@QEAA@XZ 0000000180167cc8 f i libvcruntime:std_exception.obj
 0001:00166ce4       ??B?$__crt_unique_heap_ptr@DU__crt_public_free_policy@@@@QEBA_NXZ 0000000180167ce4 f i libvcruntime:std_exception.obj
 0001:00166cec       ?detach@?$__crt_unique_heap_ptr@DU__crt_public_free_policy@@@@QEAAPEADXZ 0000000180167cec f i libvcruntime:std_exception.obj
 0001:00166cf4       ?get@?$__crt_unique_heap_ptr@DU__crt_public_free_policy@@@@QEBAPEADXZ 0000000180167cf4 f i libvcruntime:std_exception.obj
 0001:00166cf8       ?is_valid@?$__crt_unique_heap_ptr@DU__crt_public_free_policy@@@@QEBA_NXZ 0000000180167cf8 f i libvcruntime:std_exception.obj
 0001:00166d00       ?release@?$__crt_unique_heap_ptr@DU__crt_public_free_policy@@@@QEAAXXZ 0000000180167d00 f i libvcruntime:std_exception.obj
 0001:00166d1c       __std_exception_copy       0000000180167d1c f   libvcruntime:std_exception.obj
 0001:00166dac       __std_exception_destroy    0000000180167dac f   libvcruntime:std_exception.obj
 0001:00166dd4       _CxxThrowException         0000000180167dd4 f   libvcruntime:throw.obj
 0001:00166e80       cosf                       0000000180167e80 f   libucrt:cosf.obj
 0001:00167380       sinf                       0000000180168380 f   libucrt:sinf.obj
 0001:00167a80       tanf                       0000000180168a80 f   libucrt:tanf.obj
 0001:00168110       strcmp                     0000000180169110 f   libucrt:strcmp.obj
 0001:00168178       acosf                      0000000180169178 f   libucrt:acosf.obj
 0001:0016844c       _fpclass                   000000018016944c f   libucrt:ieeemisc.obj
 0001:001684d4       _fpclassf                  00000001801694d4 f   libucrt:ieeemisc.obj
 0001:00168540       _isnan                     0000000180169540 f   libucrt:ieeemisc.obj
 0001:0016856c       _isnanf                    000000018016956c f   libucrt:ieeemisc.obj
 0001:00168588       _nextafter                 0000000180169588 f   libucrt:ieeemisc.obj
 0001:00168590       _nextafterf                0000000180169590 f   libucrt:ieeemisc.obj
 0001:00168598       _scalb                     0000000180169598 f   libucrt:ieeemisc.obj
 0001:00168744       _scalbf                    0000000180169744 f   libucrt:ieeemisc.obj
 0001:001688e4       free                       00000001801698e4 f   libucrt:free.obj
 0001:001688f8       _initterm                  00000001801698f8 f   libucrt:initterm.obj
 0001:0016893c       _initterm_e                000000018016993c f   libucrt:initterm.obj
 0001:001689a4       _seh_filter_dll            00000001801699a4 f   libucrt:exception_filter.obj
 0001:001689b8       _seh_filter_exe            00000001801699b8 f   libucrt:exception_filter.obj
 0001:00168b3c       ??$?B$$A6AXPEAXK0@Z@__crt_fast_encoded_nullptr_t@@QEBAP6AXPEAXK0@ZXZ 0000000180169b3c f i libucrt:exit.obj
 0001:00168bac       ??$__crt_fast_decode_pointer@P6AXPEAXK0@Z@@YAP6AXPEAXK0@ZQ6AX0K0@Z@Z 0000000180169bac f i libucrt:exit.obj
 0001:00168bc4       ??$__crt_fast_encode_pointer@P6AXPEAXK0@Z@@YAP6AXPEAXK0@ZQ6AX0K0@Z@Z 0000000180169bc4 f i libucrt:exit.obj
 0001:00168be4       ??$__crt_get_proc_address@P6AXI@Z@@YAP6AXI@ZQEAUHINSTANCE__@@QEBD@Z 0000000180169be4 f i libucrt:exit.obj
 0001:00168bec       ??$__crt_interlocked_read@J@@YAJPEDJ@Z 0000000180169bec f i libucrt:exit.obj
 0001:00168c10       ??0?$__crt_unique_handle_t@U__crt_hmodule_traits@@@@QEAA@QEAUHINSTANCE__@@@Z 0000000180169c10 f i libucrt:exit.obj
 0001:00168c18       ??1?$__crt_unique_handle_t@U__crt_hmodule_traits@@@@QEAA@XZ 0000000180169c18 f i libucrt:exit.obj
 0001:00168d18       ?__acrt_select_exit_lock@@YA?AW4__acrt_lock_id@@XZ 0000000180169d18 f i libucrt:exit.obj
 0001:00168d20       ?__crt_fast_encode_pointer@@YA?AU__crt_fast_encoded_nullptr_t@@$$T@Z 0000000180169d20 f i libucrt:exit.obj
 0001:00168d28       ?__crt_interlocked_read_32@@YAHPEDH@Z 0000000180169d28 f i libucrt:exit.obj
 0001:00168d2c       ?__crt_rotate_pointer_value@@YA_K_KH@Z 0000000180169d2c f i libucrt:exit.obj
 0001:00168d44       ?close@?$__crt_unique_handle_t@U__crt_hmodule_traits@@@@QEAAXXZ 0000000180169d44 f i libucrt:exit.obj
 0001:00168d68       ?close@__crt_hmodule_traits@@SA_NPEAUHINSTANCE__@@@Z 0000000180169d68 f i libucrt:exit.obj
 0001:00168e78       ?get@?$__crt_unique_handle_t@U__crt_hmodule_traits@@@@QEBAPEAUHINSTANCE__@@XZ 0000000180169e78 f i libucrt:exit.obj
 0001:00168e7c       ?get_address_of@?$__crt_unique_handle_t@U__crt_hmodule_traits@@@@QEAAPEAPEAUHINSTANCE__@@XZ 0000000180169e7c f i libucrt:exit.obj
 0001:00168e80       ?get_invalid_value@__crt_hmodule_traits@@SAPEAUHINSTANCE__@@XZ 0000000180169e80 f i libucrt:exit.obj
 0001:00168f78       _Exit                      0000000180169f78 f   libucrt:exit.obj
 0001:00168f84       __acrt_initialize_thread_local_exit_callback 0000000180169f84 f   libucrt:exit.obj
 0001:00168f8c       _c_exit                    0000000180169f8c f   libucrt:exit.obj
 0001:00168f9c       _cexit                     0000000180169f9c f   libucrt:exit.obj
 0001:00168fac       _exit                      0000000180169fac f   libucrt:exit.obj
 0001:00168fb8       _is_c_termination_complete 0000000180169fb8 f   libucrt:exit.obj
 0001:00168fc0       _register_thread_local_exe_atexit_callback 0000000180169fc0 f   libucrt:exit.obj
 0001:00169000       exit                       000000018016a000 f   libucrt:exit.obj
 0001:0016900c       quick_exit                 000000018016a00c f   libucrt:exit.obj
 0001:00169018       ??$?RE@__crt_internal_free_policy@@QEBAXQEBE@Z 000000018016a018 f i libucrt:argv_parsing.obj
 0001:00169020       ??$?RPEAD@__crt_internal_free_policy@@QEBAXQEBQEAD@Z 000000018016a020 f i libucrt:argv_parsing.obj
 0001:00169028       ??$?RPEA_W@__crt_internal_free_policy@@QEBAXQEBQEA_W@Z 000000018016a028 f i libucrt:argv_parsing.obj
 0001:00169324       ??$get_module_file_name@$$TAEAY0BAF@DH@?$__crt_char_traits@D@@SAK$$QEA$$TAEAY0BAF@D$$QEAH@Z 000000018016a324 f i libucrt:argv_parsing.obj
 0001:00169330       ??$get_module_file_name@$$TAEAY0BAF@_WH@?$__crt_char_traits@_W@@SAK$$QEA$$TAEAY0BAF@_W$$QEAH@Z 000000018016a330 f i libucrt:argv_parsing.obj
 0001:001696a4       ??$set_program_name@PEAD@?$__crt_char_traits@D@@SAX$$QEAPEAD@Z 000000018016a6a4 f i libucrt:argv_parsing.obj
 0001:001696b0       ??$set_program_name@PEA_W@?$__crt_char_traits@_W@@SAX$$QEAPEA_W@Z 000000018016a6b0 f i libucrt:argv_parsing.obj
 0001:001696cc       ??0?$__crt_unique_heap_ptr@EU__crt_internal_free_policy@@@@QEAA@QEAE@Z 000000018016a6cc f i libucrt:argv_parsing.obj
 0001:001696d4       ??0?$__crt_unique_heap_ptr@PEADU__crt_internal_free_policy@@@@QEAA@QEAPEAD@Z 000000018016a6d4 f i libucrt:argv_parsing.obj
 0001:001696dc       ??0?$__crt_unique_heap_ptr@PEA_WU__crt_internal_free_policy@@@@QEAA@QEAPEA_W@Z 000000018016a6dc f i libucrt:argv_parsing.obj
 0001:001696e4       ??1?$__crt_unique_heap_ptr@EU__crt_internal_free_policy@@@@QEAA@XZ 000000018016a6e4 f i libucrt:argv_parsing.obj
 0001:00169700       ??1?$__crt_unique_heap_ptr@PEADU__crt_internal_free_policy@@@@QEAA@XZ 000000018016a700 f i libucrt:argv_parsing.obj
 0001:0016971c       ??1?$__crt_unique_heap_ptr@PEA_WU__crt_internal_free_policy@@@@QEAA@XZ 000000018016a71c f i libucrt:argv_parsing.obj
 0001:00169738       ??B?$__crt_unique_heap_ptr@EU__crt_internal_free_policy@@@@QEBA_NXZ 000000018016a738 f i libucrt:argv_parsing.obj
 0001:00169778       ?detach@?$__crt_unique_heap_ptr@EU__crt_internal_free_policy@@@@QEAAPEAEXZ 000000018016a778 f i libucrt:argv_parsing.obj
 0001:00169780       ?detach@?$__crt_unique_heap_ptr@PEADU__crt_internal_free_policy@@@@QEAAPEAPEADXZ 000000018016a780 f i libucrt:argv_parsing.obj
 0001:00169788       ?detach@?$__crt_unique_heap_ptr@PEA_WU__crt_internal_free_policy@@@@QEAAPEAPEA_WXZ 000000018016a788 f i libucrt:argv_parsing.obj
 0001:001697ac       ?get@?$__crt_unique_heap_ptr@EU__crt_internal_free_policy@@@@QEBAPEAEXZ 000000018016a7ac f i libucrt:argv_parsing.obj
 0001:001697b0       ?get@?$__crt_unique_heap_ptr@PEADU__crt_internal_free_policy@@@@QEBAPEAPEADXZ 000000018016a7b0 f i libucrt:argv_parsing.obj
 0001:001697b4       ?get@?$__crt_unique_heap_ptr@PEA_WU__crt_internal_free_policy@@@@QEBAPEAPEA_WXZ 000000018016a7b4 f i libucrt:argv_parsing.obj
 0001:001697b8       ?get_address_of@?$__crt_unique_heap_ptr@PEADU__crt_internal_free_policy@@@@QEAAPEAPEAPEADXZ 000000018016a7b8 f i libucrt:argv_parsing.obj
 0001:001697bc       ?get_address_of@?$__crt_unique_heap_ptr@PEA_WU__crt_internal_free_policy@@@@QEAAPEAPEAPEA_WXZ 000000018016a7bc f i libucrt:argv_parsing.obj
 0001:001697e0       ?is_valid@?$__crt_unique_heap_ptr@EU__crt_internal_free_policy@@@@QEBA_NXZ 000000018016a7e0 f i libucrt:argv_parsing.obj
 0001:001697e8       ?release@?$__crt_unique_heap_ptr@EU__crt_internal_free_policy@@@@QEAAXXZ 000000018016a7e8 f i libucrt:argv_parsing.obj
 0001:00169804       ?release@?$__crt_unique_heap_ptr@PEADU__crt_internal_free_policy@@@@QEAAXXZ 000000018016a804 f i libucrt:argv_parsing.obj
 0001:00169820       ?release@?$__crt_unique_heap_ptr@PEA_WU__crt_internal_free_policy@@@@QEAAXXZ 000000018016a820 f i libucrt:argv_parsing.obj
 0001:00169858       __acrt_allocate_buffer_for_argv 000000018016a858 f   libucrt:argv_parsing.obj
 0001:001698b8       _configure_narrow_argv     000000018016a8b8 f   libucrt:argv_parsing.obj
 0001:00169a40       _configure_wide_argv       000000018016aa40 f   libucrt:argv_parsing.obj
 0001:00169bc4       _set_pgmptr                000000018016abc4 f i libucrt:argv_parsing.obj
 0001:00169bcc       _set_wpgmptr               000000018016abcc f i libucrt:argv_parsing.obj
 0001:00169bd4       ??$?R_W@__crt_internal_free_policy@@QEBAXQEB_W@Z 000000018016abd4 f i libucrt:environment_initialization.obj
 0001:0016a0fc       ??$get_environment_from_os@$$V@?$__crt_char_traits@D@@SAPEADXZ 000000018016b0fc f i libucrt:environment_initialization.obj
 0001:0016a104       ??$get_environment_from_os@$$V@?$__crt_char_traits@_W@@SAPEA_WXZ 000000018016b104 f i libucrt:environment_initialization.obj
 0001:0016a2a8       ??$set_variable_in_environment_nolock@PEADH@?$__crt_char_traits@D@@SAH$$QEAPEAD$$QEAH@Z 000000018016b2a8 f i libucrt:environment_initialization.obj
 0001:0016a2b4       ??$set_variable_in_environment_nolock@PEA_WH@?$__crt_char_traits@_W@@SAH$$QEAPEA_W$$QEAH@Z 000000018016b2b4 f i libucrt:environment_initialization.obj
 0001:0016a2c0       ??$tcscpy_s@PEADAEB_KAEAPEAD@?$__crt_char_traits@D@@SAH$$QEAPEADAEB_KAEAPEAD@Z 000000018016b2c0 f i libucrt:environment_initialization.obj
 0001:0016a2d0       ??$tcscpy_s@PEA_WAEB_KAEAPEA_W@?$__crt_char_traits@_W@@SAH$$QEAPEA_WAEB_KAEAPEA_W@Z 000000018016b2d0 f i libucrt:environment_initialization.obj
 0001:0016a2e0       ??$tcslen@AEAPEAD@?$__crt_char_traits@D@@SA_KAEAPEAD@Z 000000018016b2e0 f i libucrt:environment_initialization.obj
 0001:0016a2f4       ??$tcslen@AEAPEA_W@?$__crt_char_traits@_W@@SA_KAEAPEA_W@Z 000000018016b2f4 f i libucrt:environment_initialization.obj
 0001:0016a308       ??$uninitialize@A6AXAEAPEAPEAD@_E@?$dual_state_global@PEAPEAD@__crt_state_management@@QEAAXA6AXAEAPEAPEAD@_E@Z 000000018016b308 f i libucrt:environment_initialization.obj
 0001:0016a360       ??$uninitialize@A6AXAEAPEAPEA_W@_E@?$dual_state_global@PEAPEA_W@__crt_state_management@@QEAAXA6AXAEAPEAPEA_W@_E@Z 000000018016b360 f i libucrt:environment_initialization.obj
 0001:0016a3f0       ??0?$__crt_unique_heap_ptr@_WU__crt_internal_free_policy@@@@QEAA@QEA_W@Z 000000018016b3f0 f i libucrt:environment_initialization.obj
 0001:0016a3f8       ??1?$__crt_unique_heap_ptr@_WU__crt_internal_free_policy@@@@QEAA@XZ 000000018016b3f8 f i libucrt:environment_initialization.obj
 0001:0016a414       ??B?$__crt_unique_heap_ptr@PEADU__crt_internal_free_policy@@@@QEBA_NXZ 000000018016b414 f i libucrt:environment_initialization.obj
 0001:0016a41c       ??B?$__crt_unique_heap_ptr@PEA_WU__crt_internal_free_policy@@@@QEBA_NXZ 000000018016b41c f i libucrt:environment_initialization.obj
 0001:0016a424       ??B?$__crt_unique_heap_ptr@_WU__crt_internal_free_policy@@@@QEBA_NXZ 000000018016b424 f i libucrt:environment_initialization.obj
 0001:0016a42c       ?__crt_compute_required_transform_buffer_count@@YA_KIQEBD@Z 000000018016b42c f i libucrt:environment_initialization.obj
 0001:0016a450       ?__crt_compute_required_transform_buffer_count@@YA_KIQEB_W@Z 000000018016b450 f i libucrt:environment_initialization.obj
 0001:0016a480       ?__crt_transform_string@@YA_KIQEBDQEA_W_K@Z 000000018016b480 f i libucrt:environment_initialization.obj
 0001:0016a4a4       ?__crt_transform_string@@YA_KIQEB_WQEAD_K@Z 000000018016b4a4 f i libucrt:environment_initialization.obj
 0001:0016a4d4       ?detach@?$__crt_unique_heap_ptr@DU__crt_internal_free_policy@@@@QEAAPEADXZ 000000018016b4d4 f i libucrt:environment_initialization.obj
 0001:0016a4dc       ?detach@?$__crt_unique_heap_ptr@_WU__crt_internal_free_policy@@@@QEAAPEA_WXZ 000000018016b4dc f i libucrt:environment_initialization.obj
 0001:0016a4e4       ?get@?$__crt_unique_heap_ptr@_WU__crt_internal_free_policy@@@@QEBAPEA_WXZ 000000018016b4e4 f i libucrt:environment_initialization.obj
 0001:0016a4e8       ?get_current_state_index@__crt_state_management@@YA_KXZ 000000018016b4e8 f i libucrt:environment_initialization.obj
 0001:0016a51c       ?initialize@?$dual_state_global@PEAPEAD@__crt_state_management@@QEAAXQEAPEAD@Z 000000018016b51c f i libucrt:environment_initialization.obj
 0001:0016a52c       ?initialize@?$dual_state_global@PEAPEA_W@__crt_state_management@@QEAAXQEAPEA_W@Z 000000018016b52c f i libucrt:environment_initialization.obj
 0001:0016a53c       ?is_valid@?$__crt_unique_heap_ptr@PEADU__crt_internal_free_policy@@@@QEBA_NXZ 000000018016b53c f i libucrt:environment_initialization.obj
 0001:0016a544       ?is_valid@?$__crt_unique_heap_ptr@PEA_WU__crt_internal_free_policy@@@@QEBA_NXZ 000000018016b544 f i libucrt:environment_initialization.obj
 0001:0016a54c       ?is_valid@?$__crt_unique_heap_ptr@_WU__crt_internal_free_policy@@@@QEBA_NXZ 000000018016b54c f i libucrt:environment_initialization.obj
 0001:0016a560       ?release@?$__crt_unique_heap_ptr@_WU__crt_internal_free_policy@@@@QEAAXXZ 000000018016b560 f i libucrt:environment_initialization.obj
 0001:0016a57c       ?value@?$dual_state_global@PEAPEAD@__crt_state_management@@QEAAAEAPEAPEADXZ 000000018016b57c f i libucrt:environment_initialization.obj
 0001:0016a580       ?value@?$dual_state_global@PEAPEA_W@__crt_state_management@@QEAAAEAPEAPEA_WXZ 000000018016b580 f i libucrt:environment_initialization.obj
 0001:0016a584       __dcrt_get_or_create_narrow_environment_nolock 000000018016b584 f   libucrt:environment_initialization.obj
 0001:0016a5c0       __dcrt_get_or_create_wide_environment_nolock 000000018016b5c0 f   libucrt:environment_initialization.obj
 0001:0016a5fc       __dcrt_uninitialize_environments_nolock 000000018016b5fc f   libucrt:environment_initialization.obj
 0001:0016a640       __p__environ               000000018016b640 f   libucrt:environment_initialization.obj
 0001:0016a648       __p__wenviron              000000018016b648 f   libucrt:environment_initialization.obj
 0001:0016a650       _get_initial_narrow_environment 000000018016b650 f   libucrt:environment_initialization.obj
 0001:0016a6a0       _get_initial_wide_environment 000000018016b6a0 f   libucrt:environment_initialization.obj
 0001:0016a6f0       _initialize_narrow_environment 000000018016b6f0 f   libucrt:environment_initialization.obj
 0001:0016a6f8       _initialize_wide_environment 000000018016b6f8 f   libucrt:environment_initialization.obj
 0001:0016a700       _invoke_watson_if_error    000000018016b700 f i libucrt:environment_initialization.obj
 0001:0016a734       ??$?B$$A6AXXZ@__crt_fast_encoded_nullptr_t@@QEBAP6AXXZXZ 000000018016b734 f i libucrt:onexit.obj
 0001:0016a73c       ??$?BP6AXXZ@__crt_fast_encoded_nullptr_t@@QEBAPEAP6AXXZXZ 000000018016b73c f i libucrt:onexit.obj
 0001:0016a744       ??$?RP6AXXZ@__crt_internal_free_policy@@QEBAXQEBQ6AXXZ@Z 000000018016b744 f i libucrt:onexit.obj
 0001:0016a81c       ??$__crt_fast_decode_pointer@P6AXXZ@@YAP6AXXZQ6AXXZ@Z 000000018016b81c f i libucrt:onexit.obj
 0001:0016a834       ??$__crt_fast_decode_pointer@PEAP6AXXZ@@YAPEAP6AXXZQEAP6AXXZ@Z 000000018016b834 f i libucrt:onexit.obj
 0001:0016a84c       ??$__crt_fast_encode_pointer@P6AHXZ@@YAP6AHXZQ6AHXZ@Z 000000018016b84c f i libucrt:onexit.obj
 0001:0016a86c       ??$__crt_fast_encode_pointer@P6AXXZ@@YAP6AXXZQ6AXXZ@Z 000000018016b86c f i libucrt:onexit.obj
 0001:0016a88c       ??$__crt_fast_encode_pointer@PEAP6AXXZ@@YAPEAP6AXXZQEAP6AXXZ@Z 000000018016b88c f i libucrt:onexit.obj
 0001:0016a8e0       ??0?$__crt_unique_heap_ptr@P6AXXZU__crt_internal_free_policy@@@@QEAA@QEAP6AXXZ@Z 000000018016b8e0 f i libucrt:onexit.obj
 0001:0016a8e8       ??1?$__crt_unique_heap_ptr@P6AXXZU__crt_internal_free_policy@@@@QEAA@XZ 000000018016b8e8 f i libucrt:onexit.obj
 0001:0016a904       ??1scoped_global_state_reset@__crt_state_management@@QEAA@XZ 000000018016b904 f i libucrt:onexit.obj
 0001:0016abf8       ?detach@?$__crt_unique_heap_ptr@P6AXXZU__crt_internal_free_policy@@@@QEAAPEAP6AXXZXZ 000000018016bbf8 f i libucrt:onexit.obj
 0001:0016ac00       ?release@?$__crt_unique_heap_ptr@P6AXXZU__crt_internal_free_policy@@@@QEAAXXZ 000000018016bc00 f i libucrt:onexit.obj
 0001:0016ac1c       _crt_at_quick_exit         000000018016bc1c f   libucrt:onexit.obj
 0001:0016ac2c       _crt_atexit                000000018016bc2c f   libucrt:onexit.obj
 0001:0016ac3c       _execute_onexit_table      000000018016bc3c f   libucrt:onexit.obj
 0001:0016ac80       _initialize_onexit_table   000000018016bc80 f   libucrt:onexit.obj
 0001:0016aca8       _register_onexit_function  000000018016bca8 f   libucrt:onexit.obj
 0001:0016ae30       ??$?BX@__crt_fast_encoded_nullptr_t@@QEBAPEAXXZ 000000018016be30 f i libucrt:initialization.obj
 0001:0016ae38       ??$__crt_fast_encode_pointer@PEAX@@YAPEAXQEAX@Z 000000018016be38 f i libucrt:initialization.obj
 0001:0016aef4       ?__acrt_stdio_is_initialized@@YA_NXZ 000000018016bef4 f i libucrt:initialization.obj
 0001:0016af00       ?initialize@?$dual_state_global@PEAU__crt_locale_data@@@__crt_state_management@@QEAAXQEAU__crt_locale_data@@@Z 000000018016bf00 f i libucrt:initialization.obj
 0001:0016af10       __acrt_initialize          000000018016bf10 f   libucrt:initialization.obj
 0001:0016af24       __acrt_thread_attach       000000018016bf24 f   libucrt:initialization.obj
 0001:0016af38       __acrt_thread_detach       000000018016bf38 f   libucrt:initialization.obj
 0001:0016af48       __acrt_uninitialize        000000018016bf48 f   libucrt:initialization.obj
 0001:0016af80       __acrt_uninitialize_critical 000000018016bf80 f   libucrt:initialization.obj
 0001:0016afa4       _get_terminate             000000018016bfa4 f   libucrt:terminate.obj
 0001:0016afc8       set_terminate              000000018016bfc8 f   libucrt:terminate.obj
 0001:0016aff4       terminate                  000000018016bff4 f   libucrt:terminate.obj
 0001:0016b020       _set_abort_behavior        000000018016c020 f   libucrt:abort.obj
 0001:0016b03c       abort                      000000018016c03c f   libucrt:abort.obj
 0001:0016b094       malloc                     000000018016c094 f   libucrt:malloc.obj
 0001:0016b100       strcpy_s                   000000018016c100 f   libucrt:strcpy_s.obj
 0001:0016b160       ??$?0AEBV?$stream_output_adapter@D@__crt_stdio_output@@AEB_KAEBQEBDAEAV__crt_cached_ptd_host@@AEBQEAD@?$format_validation_base@DV?$stream_output_adapter@D@__crt_stdio_output@@@__crt_stdio_output@@IEAA@AEBV?$stream_output_adapter@D@1@AEB_KAEBQEBDAEAV__crt_cached_ptd_host@@AEBQEAD@Z 000000018016c160 f i libucrt:output.obj
 0001:0016b1d0       ??$?0AEBV?$stream_output_adapter@D@__crt_stdio_output@@AEB_KAEBQEBDAEAV__crt_cached_ptd_host@@AEBQEAD@?$positional_parameter_base@DV?$stream_output_adapter@D@__crt_stdio_output@@@__crt_stdio_output@@IEAA@AEBV?$stream_output_adapter@D@1@AEB_KAEBQEBDAEAV__crt_cached_ptd_host@@AEBQEAD@Z 000000018016c1d0 f i libucrt:output.obj
 0001:0016b260       ??$?0AEBV?$stream_output_adapter@D@__crt_stdio_output@@AEB_KAEBQEBDAEAV__crt_cached_ptd_host@@AEBQEAD@?$standard_base@DV?$stream_output_adapter@D@__crt_stdio_output@@@__crt_stdio_output@@IEAA@AEBV?$stream_output_adapter@D@1@AEB_KAEBQEBDAEAV__crt_cached_ptd_host@@AEBQEAD@Z 000000018016c260 f i libucrt:output.obj
 0001:0016b2d0       ??$?0AEBV?$stream_output_adapter@_W@__crt_stdio_output@@AEB_KAEBQEB_WAEAV__crt_cached_ptd_host@@AEBQEAD@?$format_validation_base@_WV?$stream_output_adapter@_W@__crt_stdio_output@@@__crt_stdio_output@@IEAA@AEBV?$stream_output_adapter@_W@1@AEB_KAEBQEB_WAEAV__crt_cached_ptd_host@@AEBQEAD@Z 000000018016c2d0 f i libucrt:output.obj
 0001:0016b344       ??$?0AEBV?$stream_output_adapter@_W@__crt_stdio_output@@AEB_KAEBQEB_WAEAV__crt_cached_ptd_host@@AEBQEAD@?$positional_parameter_base@_WV?$stream_output_adapter@_W@__crt_stdio_output@@@__crt_stdio_output@@IEAA@AEBV?$stream_output_adapter@_W@1@AEB_KAEBQEB_WAEAV__crt_cached_ptd_host@@AEBQEAD@Z 000000018016c344 f i libucrt:output.obj
 0001:0016b3d8       ??$?0AEBV?$stream_output_adapter@_W@__crt_stdio_output@@AEB_KAEBQEB_WAEAV__crt_cached_ptd_host@@AEBQEAD@?$standard_base@_WV?$stream_output_adapter@_W@__crt_stdio_output@@@__crt_stdio_output@@IEAA@AEBV?$stream_output_adapter@_W@1@AEB_KAEBQEB_WAEAV__crt_cached_ptd_host@@AEBQEAD@Z 000000018016c3d8 f i libucrt:output.obj
 0001:0016b44c       ??$?0AEBV?$string_output_adapter@D@__crt_stdio_output@@AEB_KAEBQEBDAEAV__crt_cached_ptd_host@@AEBQEAD@?$format_validation_base@DV?$string_output_adapter@D@__crt_stdio_output@@@__crt_stdio_output@@IEAA@AEBV?$string_output_adapter@D@1@AEB_KAEBQEBDAEAV__crt_cached_ptd_host@@AEBQEAD@Z 000000018016c44c f i libucrt:output.obj
 0001:0016b4bc       ??$?0AEBV?$string_output_adapter@D@__crt_stdio_output@@AEB_KAEBQEBDAEAV__crt_cached_ptd_host@@AEBQEAD@?$positional_parameter_base@DV?$string_output_adapter@D@__crt_stdio_output@@@__crt_stdio_output@@IEAA@AEBV?$string_output_adapter@D@1@AEB_KAEBQEBDAEAV__crt_cached_ptd_host@@AEBQEAD@Z 000000018016c4bc f i libucrt:output.obj
 0001:0016b54c       ??$?0AEBV?$string_output_adapter@D@__crt_stdio_output@@AEB_KAEBQEBDAEAV__crt_cached_ptd_host@@AEBQEAD@?$standard_base@DV?$string_output_adapter@D@__crt_stdio_output@@@__crt_stdio_output@@IEAA@AEBV?$string_output_adapter@D@1@AEB_KAEBQEBDAEAV__crt_cached_ptd_host@@AEBQEAD@Z 000000018016c54c f i libucrt:output.obj
 0001:0016b5bc       ??$?0AEBV?$string_output_adapter@_W@__crt_stdio_output@@AEB_KAEBQEB_WAEAV__crt_cached_ptd_host@@AEBQEAD@?$format_validation_base@_WV?$string_output_adapter@_W@__crt_stdio_output@@@__crt_stdio_output@@IEAA@AEBV?$string_output_adapter@_W@1@AEB_KAEBQEB_WAEAV__crt_cached_ptd_host@@AEBQEAD@Z 000000018016c5bc f i libucrt:output.obj
 0001:0016b630       ??$?0AEBV?$string_output_adapter@_W@__crt_stdio_output@@AEB_KAEBQEB_WAEAV__crt_cached_ptd_host@@AEBQEAD@?$positional_parameter_base@_WV?$string_output_adapter@_W@__crt_stdio_output@@@__crt_stdio_output@@IEAA@AEBV?$string_output_adapter@_W@1@AEB_KAEBQEB_WAEAV__crt_cached_ptd_host@@AEBQEAD@Z 000000018016c630 f i libucrt:output.obj
 0001:0016b6c4       ??$?0AEBV?$string_output_adapter@_W@__crt_stdio_output@@AEB_KAEBQEB_WAEAV__crt_cached_ptd_host@@AEBQEAD@?$standard_base@_WV?$string_output_adapter@_W@__crt_stdio_output@@@__crt_stdio_output@@IEAA@AEBV?$string_output_adapter@_W@1@AEB_KAEBQEB_WAEAV__crt_cached_ptd_host@@AEBQEAD@Z 000000018016c6c4 f i libucrt:output.obj
 0001:0016b9a8       ??$_tcstol_internal@DPEAPEAD$0A@@@YAJAEAV__crt_cached_ptd_host@@QEBDQEAPEADH@Z 000000018016c9a8 f i libucrt:output.obj
 0001:0016b9d8       ??$_tcstol_internal@_WPEAPEA_W$0A@@@YAJAEAV__crt_cached_ptd_host@@QEB_WQEAPEA_WH@Z 000000018016c9d8 f i libucrt:output.obj
 0001:0016cb18       ??$count@D@formatting_buffer@__crt_stdio_output@@QEBA_KXZ 000000018016db18 f i libucrt:output.obj
 0001:0016cb34       ??$count@_W@formatting_buffer@__crt_stdio_output@@QEBA_KXZ 000000018016db34 f i libucrt:output.obj
 0001:0016cb50       ??$data@D@formatting_buffer@__crt_stdio_output@@QEAAPEADXZ 000000018016db50 f i libucrt:output.obj
 0001:0016cb60       ??$data@_W@formatting_buffer@__crt_stdio_output@@QEAAPEA_WXZ 000000018016db60 f i libucrt:output.obj
 0001:0016cb70       ??$ensure_buffer_is_big_enough@D@formatting_buffer@__crt_stdio_output@@QEAA_N_KAEAV__crt_cached_ptd_host@@@Z 000000018016db70 f i libucrt:output.obj
 0001:0016cc18       ??$ensure_buffer_is_big_enough@_W@formatting_buffer@__crt_stdio_output@@QEAA_N_KAEAV__crt_cached_ptd_host@@@Z 000000018016dc18 f i libucrt:output.obj
 0001:0016ccc4       ??$extract_argument_from_va_list@C_J@?$positional_parameter_base@DV?$stream_output_adapter@D@__crt_stdio_output@@@__crt_stdio_output@@IEAA_NAEA_J@Z 000000018016dcc4 f i libucrt:output.obj
 0001:0016cdcc       ??$extract_argument_from_va_list@C_J@?$positional_parameter_base@DV?$string_output_adapter@D@__crt_stdio_output@@@__crt_stdio_output@@IEAA_NAEA_J@Z 000000018016ddcc f i libucrt:output.obj
 0001:0016ced4       ??$extract_argument_from_va_list@C_J@?$positional_parameter_base@_WV?$stream_output_adapter@_W@__crt_stdio_output@@@__crt_stdio_output@@IEAA_NAEA_J@Z 000000018016ded4 f i libucrt:output.obj
 0001:0016cfe0       ??$extract_argument_from_va_list@C_J@?$positional_parameter_base@_WV?$string_output_adapter@_W@__crt_stdio_output@@@__crt_stdio_output@@IEAA_NAEA_J@Z 000000018016dfe0 f i libucrt:output.obj
 0001:0016d0ec       ??$extract_argument_from_va_list@C_J@?$standard_base@DV?$stream_output_adapter@D@__crt_stdio_output@@@__crt_stdio_output@@IEAA_NAEA_J@Z 000000018016e0ec f i libucrt:output.obj
 0001:0016d100       ??$extract_argument_from_va_list@C_J@?$standard_base@DV?$string_output_adapter@D@__crt_stdio_output@@@__crt_stdio_output@@IEAA_NAEA_J@Z 000000018016e100 f i libucrt:output.obj
 0001:0016d114       ??$extract_argument_from_va_list@C_J@?$standard_base@_WV?$stream_output_adapter@_W@__crt_stdio_output@@@__crt_stdio_output@@IEAA_NAEA_J@Z 000000018016e114 f i libucrt:output.obj
 0001:0016d128       ??$extract_argument_from_va_list@C_J@?$standard_base@_WV?$string_output_adapter@_W@__crt_stdio_output@@@__crt_stdio_output@@IEAA_NAEA_J@Z 000000018016e128 f i libucrt:output.obj
 0001:0016d13c       ??$extract_argument_from_va_list@E_J@?$positional_parameter_base@DV?$stream_output_adapter@D@__crt_stdio_output@@@__crt_stdio_output@@IEAA_NAEA_J@Z 000000018016e13c f i libucrt:output.obj
 0001:0016d244       ??$extract_argument_from_va_list@E_J@?$positional_parameter_base@DV?$string_output_adapter@D@__crt_stdio_output@@@__crt_stdio_output@@IEAA_NAEA_J@Z 000000018016e244 f i libucrt:output.obj
 0001:0016d34c       ??$extract_argument_from_va_list@E_J@?$positional_parameter_base@_WV?$stream_output_adapter@_W@__crt_stdio_output@@@__crt_stdio_output@@IEAA_NAEA_J@Z 000000018016e34c f i libucrt:output.obj
 0001:0016d454       ??$extract_argument_from_va_list@E_J@?$positional_parameter_base@_WV?$string_output_adapter@_W@__crt_stdio_output@@@__crt_stdio_output@@IEAA_NAEA_J@Z 000000018016e454 f i libucrt:output.obj
 0001:0016d55c       ??$extract_argument_from_va_list@E_J@?$standard_base@DV?$stream_output_adapter@D@__crt_stdio_output@@@__crt_stdio_output@@IEAA_NAEA_J@Z 000000018016e55c f i libucrt:output.obj
 0001:0016d570       ??$extract_argument_from_va_list@E_J@?$standard_base@DV?$string_output_adapter@D@__crt_stdio_output@@@__crt_stdio_output@@IEAA_NAEA_J@Z 000000018016e570 f i libucrt:output.obj
 0001:0016d584       ??$extract_argument_from_va_list@E_J@?$standard_base@_WV?$stream_output_adapter@_W@__crt_stdio_output@@@__crt_stdio_output@@IEAA_NAEA_J@Z 000000018016e584 f i libucrt:output.obj
 0001:0016d598       ??$extract_argument_from_va_list@E_J@?$standard_base@_WV?$string_output_adapter@_W@__crt_stdio_output@@@__crt_stdio_output@@IEAA_NAEA_J@Z 000000018016e598 f i libucrt:output.obj
 0001:0016d5ac       ??$extract_argument_from_va_list@F_J@?$positional_parameter_base@DV?$stream_output_adapter@D@__crt_stdio_output@@@__crt_stdio_output@@IEAA_NAEA_J@Z 000000018016e5ac f i libucrt:output.obj
 0001:0016d6b4       ??$extract_argument_from_va_list@F_J@?$positional_parameter_base@DV?$string_output_adapter@D@__crt_stdio_output@@@__crt_stdio_output@@IEAA_NAEA_J@Z 000000018016e6b4 f i libucrt:output.obj
 0001:0016d7bc       ??$extract_argument_from_va_list@F_J@?$positional_parameter_base@_WV?$stream_output_adapter@_W@__crt_stdio_output@@@__crt_stdio_output@@IEAA_NAEA_J@Z 000000018016e7bc f i libucrt:output.obj
 0001:0016d8c8       ??$extract_argument_from_va_list@F_J@?$positional_parameter_base@_WV?$string_output_adapter@_W@__crt_stdio_output@@@__crt_stdio_output@@IEAA_NAEA_J@Z 000000018016e8c8 f i libucrt:output.obj
 0001:0016d9d4       ??$extract_argument_from_va_list@F_J@?$standard_base@DV?$stream_output_adapter@D@__crt_stdio_output@@@__crt_stdio_output@@IEAA_NAEA_J@Z 000000018016e9d4 f i libucrt:output.obj
 0001:0016d9e8       ??$extract_argument_from_va_list@F_J@?$standard_base@DV?$string_output_adapter@D@__crt_stdio_output@@@__crt_stdio_output@@IEAA_NAEA_J@Z 000000018016e9e8 f i libucrt:output.obj
 0001:0016d9fc       ??$extract_argument_from_va_list@F_J@?$standard_base@_WV?$stream_output_adapter@_W@__crt_stdio_output@@@__crt_stdio_output@@IEAA_NAEA_J@Z 000000018016e9fc f i libucrt:output.obj
 0001:0016da10       ??$extract_argument_from_va_list@F_J@?$standard_base@_WV?$string_output_adapter@_W@__crt_stdio_output@@@__crt_stdio_output@@IEAA_NAEA_J@Z 000000018016ea10 f i libucrt:output.obj
 0001:0016da24       ??$extract_argument_from_va_list@GD@?$positional_parameter_base@DV?$stream_output_adapter@D@__crt_stdio_output@@@__crt_stdio_output@@IEAA_NAEAD@Z 000000018016ea24 f i libucrt:output.obj
 0001:0016db28       ??$extract_argument_from_va_list@GD@?$positional_parameter_base@DV?$string_output_adapter@D@__crt_stdio_output@@@__crt_stdio_output@@IEAA_NAEAD@Z 000000018016eb28 f i libucrt:output.obj
 0001:0016dc2c       ??$extract_argument_from_va_list@GD@?$standard_base@DV?$stream_output_adapter@D@__crt_stdio_output@@@__crt_stdio_output@@IEAA_NAEAD@Z 000000018016ec2c f i libucrt:output.obj
 0001:0016dc40       ??$extract_argument_from_va_list@GD@?$standard_base@DV?$string_output_adapter@D@__crt_stdio_output@@@__crt_stdio_output@@IEAA_NAEAD@Z 000000018016ec40 f i libucrt:output.obj
 0001:0016dc54       ??$extract_argument_from_va_list@G_J@?$positional_parameter_base@DV?$stream_output_adapter@D@__crt_stdio_output@@@__crt_stdio_output@@IEAA_NAEA_J@Z 000000018016ec54 f i libucrt:output.obj
 0001:0016dd5c       ??$extract_argument_from_va_list@G_J@?$positional_parameter_base@DV?$string_output_adapter@D@__crt_stdio_output@@@__crt_stdio_output@@IEAA_NAEA_J@Z 000000018016ed5c f i libucrt:output.obj
 0001:0016de64       ??$extract_argument_from_va_list@G_J@?$positional_parameter_base@_WV?$stream_output_adapter@_W@__crt_stdio_output@@@__crt_stdio_output@@IEAA_NAEA_J@Z 000000018016ee64 f i libucrt:output.obj
 0001:0016df6c       ??$extract_argument_from_va_list@G_J@?$positional_parameter_base@_WV?$string_output_adapter@_W@__crt_stdio_output@@@__crt_stdio_output@@IEAA_NAEA_J@Z 000000018016ef6c f i libucrt:output.obj
 0001:0016e074       ??$extract_argument_from_va_list@G_J@?$standard_base@DV?$stream_output_adapter@D@__crt_stdio_output@@@__crt_stdio_output@@IEAA_NAEA_J@Z 000000018016f074 f i libucrt:output.obj
 0001:0016e088       ??$extract_argument_from_va_list@G_J@?$standard_base@DV?$string_output_adapter@D@__crt_stdio_output@@@__crt_stdio_output@@IEAA_NAEA_J@Z 000000018016f088 f i libucrt:output.obj
 0001:0016e09c       ??$extract_argument_from_va_list@G_J@?$standard_base@_WV?$stream_output_adapter@_W@__crt_stdio_output@@@__crt_stdio_output@@IEAA_NAEA_J@Z 000000018016f09c f i libucrt:output.obj
 0001:0016e0b0       ??$extract_argument_from_va_list@G_J@?$standard_base@_WV?$string_output_adapter@_W@__crt_stdio_output@@@__crt_stdio_output@@IEAA_NAEA_J@Z 000000018016f0b0 f i libucrt:output.obj
 0001:0016e0c4       ??$extract_argument_from_va_list@H_J@?$positional_parameter_base@DV?$stream_output_adapter@D@__crt_stdio_output@@@__crt_stdio_output@@IEAA_NAEA_J@Z 000000018016f0c4 f i libucrt:output.obj
 0001:0016e1cc       ??$extract_argument_from_va_list@H_J@?$positional_parameter_base@DV?$string_output_adapter@D@__crt_stdio_output@@@__crt_stdio_output@@IEAA_NAEA_J@Z 000000018016f1cc f i libucrt:output.obj
 0001:0016e2d4       ??$extract_argument_from_va_list@H_J@?$positional_parameter_base@_WV?$stream_output_adapter@_W@__crt_stdio_output@@@__crt_stdio_output@@IEAA_NAEA_J@Z 000000018016f2d4 f i libucrt:output.obj
 0001:0016e3dc       ??$extract_argument_from_va_list@H_J@?$positional_parameter_base@_WV?$string_output_adapter@_W@__crt_stdio_output@@@__crt_stdio_output@@IEAA_NAEA_J@Z 000000018016f3dc f i libucrt:output.obj
 0001:0016e4e4       ??$extract_argument_from_va_list@H_J@?$standard_base@DV?$stream_output_adapter@D@__crt_stdio_output@@@__crt_stdio_output@@IEAA_NAEA_J@Z 000000018016f4e4 f i libucrt:output.obj
 0001:0016e4f8       ??$extract_argument_from_va_list@H_J@?$standard_base@DV?$string_output_adapter@D@__crt_stdio_output@@@__crt_stdio_output@@IEAA_NAEA_J@Z 000000018016f4f8 f i libucrt:output.obj
 0001:0016e50c       ??$extract_argument_from_va_list@H_J@?$standard_base@_WV?$stream_output_adapter@_W@__crt_stdio_output@@@__crt_stdio_output@@IEAA_NAEA_J@Z 000000018016f50c f i libucrt:output.obj
 0001:0016e520       ??$extract_argument_from_va_list@H_J@?$standard_base@_WV?$string_output_adapter@_W@__crt_stdio_output@@@__crt_stdio_output@@IEAA_NAEA_J@Z 000000018016f520 f i libucrt:output.obj
 0001:0016e534       ??$extract_argument_from_va_list@I_J@?$positional_parameter_base@DV?$stream_output_adapter@D@__crt_stdio_output@@@__crt_stdio_output@@IEAA_NAEA_J@Z 000000018016f534 f i libucrt:output.obj
 0001:0016e638       ??$extract_argument_from_va_list@I_J@?$positional_parameter_base@DV?$string_output_adapter@D@__crt_stdio_output@@@__crt_stdio_output@@IEAA_NAEA_J@Z 000000018016f638 f i libucrt:output.obj
 0001:0016e73c       ??$extract_argument_from_va_list@I_J@?$positional_parameter_base@_WV?$stream_output_adapter@_W@__crt_stdio_output@@@__crt_stdio_output@@IEAA_NAEA_J@Z 000000018016f73c f i libucrt:output.obj
 0001:0016e844       ??$extract_argument_from_va_list@I_J@?$positional_parameter_base@_WV?$string_output_adapter@_W@__crt_stdio_output@@@__crt_stdio_output@@IEAA_NAEA_J@Z 000000018016f844 f i libucrt:output.obj
 0001:0016e94c       ??$extract_argument_from_va_list@I_J@?$standard_base@DV?$stream_output_adapter@D@__crt_stdio_output@@@__crt_stdio_output@@IEAA_NAEA_J@Z 000000018016f94c f i libucrt:output.obj
 0001:0016e960       ??$extract_argument_from_va_list@I_J@?$standard_base@DV?$string_output_adapter@D@__crt_stdio_output@@@__crt_stdio_output@@IEAA_NAEA_J@Z 000000018016f960 f i libucrt:output.obj
 0001:0016e974       ??$extract_argument_from_va_list@I_J@?$standard_base@_WV?$stream_output_adapter@_W@__crt_stdio_output@@@__crt_stdio_output@@IEAA_NAEA_J@Z 000000018016f974 f i libucrt:output.obj
 0001:0016e988       ??$extract_argument_from_va_list@I_J@?$standard_base@_WV?$string_output_adapter@_W@__crt_stdio_output@@@__crt_stdio_output@@IEAA_NAEA_J@Z 000000018016f988 f i libucrt:output.obj
 0001:0016e99c       ??$extract_argument_from_va_list@PEADPEAD@?$positional_parameter_base@DV?$stream_output_adapter@D@__crt_stdio_output@@@__crt_stdio_output@@IEAA_NAEAPEAD@Z 000000018016f99c f i libucrt:output.obj
 0001:0016eaa4       ??$extract_argument_from_va_list@PEADPEAD@?$positional_parameter_base@DV?$string_output_adapter@D@__crt_stdio_output@@@__crt_stdio_output@@IEAA_NAEAPEAD@Z 000000018016faa4 f i libucrt:output.obj
 0001:0016ebac       ??$extract_argument_from_va_list@PEADPEAD@?$positional_parameter_base@_WV?$stream_output_adapter@_W@__crt_stdio_output@@@__crt_stdio_output@@IEAA_NAEAPEAD@Z 000000018016fbac f i libucrt:output.obj
 0001:0016ecb4       ??$extract_argument_from_va_list@PEADPEAD@?$positional_parameter_base@_WV?$string_output_adapter@_W@__crt_stdio_output@@@__crt_stdio_output@@IEAA_NAEAPEAD@Z 000000018016fcb4 f i libucrt:output.obj
 0001:0016edbc       ??$extract_argument_from_va_list@PEADPEAD@?$standard_base@DV?$stream_output_adapter@D@__crt_stdio_output@@@__crt_stdio_output@@IEAA_NAEAPEAD@Z 000000018016fdbc f i libucrt:output.obj
 0001:0016edd0       ??$extract_argument_from_va_list@PEADPEAD@?$standard_base@DV?$string_output_adapter@D@__crt_stdio_output@@@__crt_stdio_output@@IEAA_NAEAPEAD@Z 000000018016fdd0 f i libucrt:output.obj
 0001:0016ede4       ??$extract_argument_from_va_list@PEADPEAD@?$standard_base@_WV?$stream_output_adapter@_W@__crt_stdio_output@@@__crt_stdio_output@@IEAA_NAEAPEAD@Z 000000018016fde4 f i libucrt:output.obj
 0001:0016edf8       ??$extract_argument_from_va_list@PEADPEAD@?$standard_base@_WV?$string_output_adapter@_W@__crt_stdio_output@@@__crt_stdio_output@@IEAA_NAEAPEAD@Z 000000018016fdf8 f i libucrt:output.obj
 0001:0016ee0c       ??$extract_argument_from_va_list@PEAUansi_string@?1??type_case_Z@?$output_processor@DV?$stream_output_adapter@D@__crt_stdio_output@@V?$format_validation_base@DV?$stream_output_adapter@D@__crt_stdio_output@@@2@@__crt_stdio_output@@AEAA_NXZ@PEAU1?1??234@AEAA_NXZ@@?$standard_base@DV?$stream_output_adapter@D@__crt_stdio_output@@@__crt_stdio_output@@IEAA_NAEAPEAUansi_string@?1??type_case_Z@?$output_processor@DV?$stream_output_adapter@D@__crt_stdio_output@@V?$format_validation_base@DV?$stream_output_adapter@D@__crt_stdio_output@@@2@@1@AEAA_NXZ@@Z 000000018016fe0c f i libucrt:output.obj
 0001:0016ee20       ??$extract_argument_from_va_list@PEAUansi_string@?1??type_case_Z@?$output_processor@DV?$stream_output_adapter@D@__crt_stdio_output@@V?$positional_parameter_base@DV?$stream_output_adapter@D@__crt_stdio_output@@@2@@__crt_stdio_output@@AEAA_NXZ@PEAU1?1??234@AEAA_NXZ@@?$positional_parameter_base@DV?$stream_output_adapter@D@__crt_stdio_output@@@__crt_stdio_output@@IEAA_NAEAPEAUansi_string@?1??type_case_Z@?$output_processor@DV?$stream_output_adapter@D@__crt_stdio_output@@V?$positional_parameter_base@DV?$stream_output_adapter@D@__crt_stdio_output@@@2@@1@AEAA_NXZ@@Z 000000018016fe20 f i libucrt:output.obj
 0001:0016ef28       ??$extract_argument_from_va_list@PEAUansi_string@?1??type_case_Z@?$output_processor@DV?$stream_output_adapter@D@__crt_stdio_output@@V?$positional_parameter_base@DV?$stream_output_adapter@D@__crt_stdio_output@@@2@@__crt_stdio_output@@AEAA_NXZ@PEAU1?1??234@AEAA_NXZ@@?$standard_base@DV?$stream_output_adapter@D@__crt_stdio_output@@@__crt_stdio_output@@IEAA_NAEAPEAUansi_string@?1??type_case_Z@?$output_processor@DV?$stream_output_adapter@D@__crt_stdio_output@@V?$positional_parameter_base@DV?$stream_output_adapter@D@__crt_stdio_output@@@2@@1@AEAA_NXZ@@Z 000000018016ff28 f i libucrt:output.obj
 0001:0016ef3c       ??$extract_argument_from_va_list@PEAUansi_string@?1??type_case_Z@?$output_processor@DV?$stream_output_adapter@D@__crt_stdio_output@@V?$standard_base@DV?$stream_output_adapter@D@__crt_stdio_output@@@2@@__crt_stdio_output@@AEAA_NXZ@PEAU1?1??234@AEAA_NXZ@@?$standard_base@DV?$stream_output_adapter@D@__crt_stdio_output@@@__crt_stdio_output@@IEAA_NAEAPEAUansi_string@?1??type_case_Z@?$output_processor@DV?$stream_output_adapter@D@__crt_stdio_output@@V?$standard_base@DV?$stream_output_adapter@D@__crt_stdio_output@@@2@@1@AEAA_NXZ@@Z 000000018016ff3c f i libucrt:output.obj
 0001:0016ef50       ??$extract_argument_from_va_list@PEAUansi_string@?1??type_case_Z@?$output_processor@DV?$string_output_adapter@D@__crt_stdio_output@@V?$format_validation_base@DV?$string_output_adapter@D@__crt_stdio_output@@@2@@__crt_stdio_output@@AEAA_NXZ@PEAU1?1??234@AEAA_NXZ@@?$standard_base@DV?$string_output_adapter@D@__crt_stdio_output@@@__crt_stdio_output@@IEAA_NAEAPEAUansi_string@?1??type_case_Z@?$output_processor@DV?$string_output_adapter@D@__crt_stdio_output@@V?$format_validation_base@DV?$string_output_adapter@D@__crt_stdio_output@@@2@@1@AEAA_NXZ@@Z 000000018016ff50 f i libucrt:output.obj
 0001:0016ef64       ??$extract_argument_from_va_list@PEAUansi_string@?1??type_case_Z@?$output_processor@DV?$string_output_adapter@D@__crt_stdio_output@@V?$positional_parameter_base@DV?$string_output_adapter@D@__crt_stdio_output@@@2@@__crt_stdio_output@@AEAA_NXZ@PEAU1?1??234@AEAA_NXZ@@?$positional_parameter_base@DV?$string_output_adapter@D@__crt_stdio_output@@@__crt_stdio_output@@IEAA_NAEAPEAUansi_string@?1??type_case_Z@?$output_processor@DV?$string_output_adapter@D@__crt_stdio_output@@V?$positional_parameter_base@DV?$string_output_adapter@D@__crt_stdio_output@@@2@@1@AEAA_NXZ@@Z 000000018016ff64 f i libucrt:output.obj
 0001:0016f06c       ??$extract_argument_from_va_list@PEAUansi_string@?1??type_case_Z@?$output_processor@DV?$string_output_adapter@D@__crt_stdio_output@@V?$positional_parameter_base@DV?$string_output_adapter@D@__crt_stdio_output@@@2@@__crt_stdio_output@@AEAA_NXZ@PEAU1?1??234@AEAA_NXZ@@?$standard_base@DV?$string_output_adapter@D@__crt_stdio_output@@@__crt_stdio_output@@IEAA_NAEAPEAUansi_string@?1??type_case_Z@?$output_processor@DV?$string_output_adapter@D@__crt_stdio_output@@V?$positional_parameter_base@DV?$string_output_adapter@D@__crt_stdio_output@@@2@@1@AEAA_NXZ@@Z 000000018017006c f i libucrt:output.obj
 0001:0016f080       ??$extract_argument_from_va_list@PEAUansi_string@?1??type_case_Z@?$output_processor@DV?$string_output_adapter@D@__crt_stdio_output@@V?$standard_base@DV?$string_output_adapter@D@__crt_stdio_output@@@2@@__crt_stdio_output@@AEAA_NXZ@PEAU1?1??234@AEAA_NXZ@@?$standard_base@DV?$string_output_adapter@D@__crt_stdio_output@@@__crt_stdio_output@@IEAA_NAEAPEAUansi_string@?1??type_case_Z@?$output_processor@DV?$string_output_adapter@D@__crt_stdio_output@@V?$standard_base@DV?$string_output_adapter@D@__crt_stdio_output@@@2@@1@AEAA_NXZ@@Z 0000000180170080 f i libucrt:output.obj
 0001:0016f094       ??$extract_argument_from_va_list@PEAUansi_string@?1??type_case_Z@?$output_processor@_WV?$stream_output_adapter@_W@__crt_stdio_output@@V?$format_validation_base@_WV?$stream_output_adapter@_W@__crt_stdio_output@@@2@@__crt_stdio_output@@AEAA_NXZ@PEAU1?1??234@AEAA_NXZ@@?$standard_base@_WV?$stream_output_adapter@_W@__crt_stdio_output@@@__crt_stdio_output@@IEAA_NAEAPEAUansi_string@?1??type_case_Z@?$output_processor@_WV?$stream_output_adapter@_W@__crt_stdio_output@@V?$format_validation_base@_WV?$stream_output_adapter@_W@__crt_stdio_output@@@2@@1@AEAA_NXZ@@Z 0000000180170094 f i libucrt:output.obj
 0001:0016f0a8       ??$extract_argument_from_va_list@PEAUansi_string@?1??type_case_Z@?$output_processor@_WV?$stream_output_adapter@_W@__crt_stdio_output@@V?$positional_parameter_base@_WV?$stream_output_adapter@_W@__crt_stdio_output@@@2@@__crt_stdio_output@@AEAA_NXZ@PEAU1?1??234@AEAA_NXZ@@?$positional_parameter_base@_WV?$stream_output_adapter@_W@__crt_stdio_output@@@__crt_stdio_output@@IEAA_NAEAPEAUansi_string@?1??type_case_Z@?$output_processor@_WV?$stream_output_adapter@_W@__crt_stdio_output@@V?$positional_parameter_base@_WV?$stream_output_adapter@_W@__crt_stdio_output@@@2@@1@AEAA_NXZ@@Z 00000001801700a8 f i libucrt:output.obj
 0001:0016f1b0       ??$extract_argument_from_va_list@PEAUansi_string@?1??type_case_Z@?$output_processor@_WV?$stream_output_adapter@_W@__crt_stdio_output@@V?$positional_parameter_base@_WV?$stream_output_adapter@_W@__crt_stdio_output@@@2@@__crt_stdio_output@@AEAA_NXZ@PEAU1?1??234@AEAA_NXZ@@?$standard_base@_WV?$stream_output_adapter@_W@__crt_stdio_output@@@__crt_stdio_output@@IEAA_NAEAPEAUansi_string@?1??type_case_Z@?$output_processor@_WV?$stream_output_adapter@_W@__crt_stdio_output@@V?$positional_parameter_base@_WV?$stream_output_adapter@_W@__crt_stdio_output@@@2@@1@AEAA_NXZ@@Z 00000001801701b0 f i libucrt:output.obj
 0001:0016f1c4       ??$extract_argument_from_va_list@PEAUansi_string@?1??type_case_Z@?$output_processor@_WV?$stream_output_adapter@_W@__crt_stdio_output@@V?$standard_base@_WV?$stream_output_adapter@_W@__crt_stdio_output@@@2@@__crt_stdio_output@@AEAA_NXZ@PEAU1?1??234@AEAA_NXZ@@?$standard_base@_WV?$stream_output_adapter@_W@__crt_stdio_output@@@__crt_stdio_output@@IEAA_NAEAPEAUansi_string@?1??type_case_Z@?$output_processor@_WV?$stream_output_adapter@_W@__crt_stdio_output@@V?$standard_base@_WV?$stream_output_adapter@_W@__crt_stdio_output@@@2@@1@AEAA_NXZ@@Z 00000001801701c4 f i libucrt:output.obj
 0001:0016f1d8       ??$extract_argument_from_va_list@PEAUansi_string@?1??type_case_Z@?$output_processor@_WV?$string_output_adapter@_W@__crt_stdio_output@@V?$format_validation_base@_WV?$string_output_adapter@_W@__crt_stdio_output@@@2@@__crt_stdio_output@@AEAA_NXZ@PEAU1?1??234@AEAA_NXZ@@?$standard_base@_WV?$string_output_adapter@_W@__crt_stdio_output@@@__crt_stdio_output@@IEAA_NAEAPEAUansi_string@?1??type_case_Z@?$output_processor@_WV?$string_output_adapter@_W@__crt_stdio_output@@V?$format_validation_base@_WV?$string_output_adapter@_W@__crt_stdio_output@@@2@@1@AEAA_NXZ@@Z 00000001801701d8 f i libucrt:output.obj
 0001:0016f1ec       ??$extract_argument_from_va_list@PEAUansi_string@?1??type_case_Z@?$output_processor@_WV?$string_output_adapter@_W@__crt_stdio_output@@V?$positional_parameter_base@_WV?$string_output_adapter@_W@__crt_stdio_output@@@2@@__crt_stdio_output@@AEAA_NXZ@PEAU1?1??234@AEAA_NXZ@@?$positional_parameter_base@_WV?$string_output_adapter@_W@__crt_stdio_output@@@__crt_stdio_output@@IEAA_NAEAPEAUansi_string@?1??type_case_Z@?$output_processor@_WV?$string_output_adapter@_W@__crt_stdio_output@@V?$positional_parameter_base@_WV?$string_output_adapter@_W@__crt_stdio_output@@@2@@1@AEAA_NXZ@@Z 00000001801701ec f i libucrt:output.obj
 0001:0016f2f4       ??$extract_argument_from_va_list@PEAUansi_string@?1??type_case_Z@?$output_processor@_WV?$string_output_adapter@_W@__crt_stdio_output@@V?$positional_parameter_base@_WV?$string_output_adapter@_W@__crt_stdio_output@@@2@@__crt_stdio_output@@AEAA_NXZ@PEAU1?1??234@AEAA_NXZ@@?$standard_base@_WV?$string_output_adapter@_W@__crt_stdio_output@@@__crt_stdio_output@@IEAA_NAEAPEAUansi_string@?1??type_case_Z@?$output_processor@_WV?$string_output_adapter@_W@__crt_stdio_output@@V?$positional_parameter_base@_WV?$string_output_adapter@_W@__crt_stdio_output@@@2@@1@AEAA_NXZ@@Z 00000001801702f4 f i libucrt:output.obj
 0001:0016f308       ??$extract_argument_from_va_list@PEAUansi_string@?1??type_case_Z@?$output_processor@_WV?$string_output_adapter@_W@__crt_stdio_output@@V?$standard_base@_WV?$string_output_adapter@_W@__crt_stdio_output@@@2@@__crt_stdio_output@@AEAA_NXZ@PEAU1?1??234@AEAA_NXZ@@?$standard_base@_WV?$string_output_adapter@_W@__crt_stdio_output@@@__crt_stdio_output@@IEAA_NAEAPEAUansi_string@?1??type_case_Z@?$output_processor@_WV?$string_output_adapter@_W@__crt_stdio_output@@V?$standard_base@_WV?$string_output_adapter@_W@__crt_stdio_output@@@2@@1@AEAA_NXZ@@Z 0000000180170308 f i libucrt:output.obj
 0001:0016f31c       ??$extract_argument_from_va_list@PEAXPEAX@?$positional_parameter_base@DV?$stream_output_adapter@D@__crt_stdio_output@@@__crt_stdio_output@@IEAA_NAEAPEAX@Z 000000018017031c f i libucrt:output.obj
 0001:0016f424       ??$extract_argument_from_va_list@PEAXPEAX@?$positional_parameter_base@DV?$string_output_adapter@D@__crt_stdio_output@@@__crt_stdio_output@@IEAA_NAEAPEAX@Z 0000000180170424 f i libucrt:output.obj
 0001:0016f52c       ??$extract_argument_from_va_list@PEAXPEAX@?$positional_parameter_base@_WV?$stream_output_adapter@_W@__crt_stdio_output@@@__crt_stdio_output@@IEAA_NAEAPEAX@Z 000000018017052c f i libucrt:output.obj
 0001:0016f634       ??$extract_argument_from_va_list@PEAXPEAX@?$positional_parameter_base@_WV?$string_output_adapter@_W@__crt_stdio_output@@@__crt_stdio_output@@IEAA_NAEAPEAX@Z 0000000180170634 f i libucrt:output.obj
 0001:0016f73c       ??$extract_argument_from_va_list@PEAXPEAX@?$standard_base@DV?$stream_output_adapter@D@__crt_stdio_output@@@__crt_stdio_output@@IEAA_NAEAPEAX@Z 000000018017073c f i libucrt:output.obj
 0001:0016f750       ??$extract_argument_from_va_list@PEAXPEAX@?$standard_base@DV?$string_output_adapter@D@__crt_stdio_output@@@__crt_stdio_output@@IEAA_NAEAPEAX@Z 0000000180170750 f i libucrt:output.obj
 0001:0016f764       ??$extract_argument_from_va_list@PEAXPEAX@?$standard_base@_WV?$stream_output_adapter@_W@__crt_stdio_output@@@__crt_stdio_output@@IEAA_NAEAPEAX@Z 0000000180170764 f i libucrt:output.obj
 0001:0016f778       ??$extract_argument_from_va_list@PEAXPEAX@?$standard_base@_WV?$string_output_adapter@_W@__crt_stdio_output@@@__crt_stdio_output@@IEAA_NAEAPEAX@Z 0000000180170778 f i libucrt:output.obj
 0001:0016f78c       ??$extract_argument_from_va_list@U_CRT_DOUBLE@@U1@@?$positional_parameter_base@DV?$stream_output_adapter@D@__crt_stdio_output@@@__crt_stdio_output@@IEAA_NAEAU_CRT_DOUBLE@@@Z 000000018017078c f i libucrt:output.obj
 0001:0016f894       ??$extract_argument_from_va_list@U_CRT_DOUBLE@@U1@@?$positional_parameter_base@DV?$string_output_adapter@D@__crt_stdio_output@@@__crt_stdio_output@@IEAA_NAEAU_CRT_DOUBLE@@@Z 0000000180170894 f i libucrt:output.obj
 0001:0016f99c       ??$extract_argument_from_va_list@U_CRT_DOUBLE@@U1@@?$positional_parameter_base@_WV?$stream_output_adapter@_W@__crt_stdio_output@@@__crt_stdio_output@@IEAA_NAEAU_CRT_DOUBLE@@@Z 000000018017099c f i libucrt:output.obj
 0001:0016faa4       ??$extract_argument_from_va_list@U_CRT_DOUBLE@@U1@@?$positional_parameter_base@_WV?$string_output_adapter@_W@__crt_stdio_output@@@__crt_stdio_output@@IEAA_NAEAU_CRT_DOUBLE@@@Z 0000000180170aa4 f i libucrt:output.obj
 0001:0016fbac       ??$extract_argument_from_va_list@U_CRT_DOUBLE@@U1@@?$standard_base@DV?$stream_output_adapter@D@__crt_stdio_output@@@__crt_stdio_output@@IEAA_NAEAU_CRT_DOUBLE@@@Z 0000000180170bac f i libucrt:output.obj
 0001:0016fbc4       ??$extract_argument_from_va_list@U_CRT_DOUBLE@@U1@@?$standard_base@DV?$string_output_adapter@D@__crt_stdio_output@@@__crt_stdio_output@@IEAA_NAEAU_CRT_DOUBLE@@@Z 0000000180170bc4 f i libucrt:output.obj
 0001:0016fbdc       ??$extract_argument_from_va_list@U_CRT_DOUBLE@@U1@@?$standard_base@_WV?$stream_output_adapter@_W@__crt_stdio_output@@@__crt_stdio_output@@IEAA_NAEAU_CRT_DOUBLE@@@Z 0000000180170bdc f i libucrt:output.obj
 0001:0016fbf4       ??$extract_argument_from_va_list@U_CRT_DOUBLE@@U1@@?$standard_base@_WV?$string_output_adapter@_W@__crt_stdio_output@@@__crt_stdio_output@@IEAA_NAEAU_CRT_DOUBLE@@@Z 0000000180170bf4 f i libucrt:output.obj
 0001:0016fc0c       ??$extract_argument_from_va_list@_J_J@?$positional_parameter_base@DV?$stream_output_adapter@D@__crt_stdio_output@@@__crt_stdio_output@@IEAA_NAEA_J@Z 0000000180170c0c f i libucrt:output.obj
 0001:0016fd14       ??$extract_argument_from_va_list@_J_J@?$positional_parameter_base@DV?$string_output_adapter@D@__crt_stdio_output@@@__crt_stdio_output@@IEAA_NAEA_J@Z 0000000180170d14 f i libucrt:output.obj
 0001:0016fe1c       ??$extract_argument_from_va_list@_J_J@?$positional_parameter_base@_WV?$stream_output_adapter@_W@__crt_stdio_output@@@__crt_stdio_output@@IEAA_NAEA_J@Z 0000000180170e1c f i libucrt:output.obj
 0001:0016ff24       ??$extract_argument_from_va_list@_J_J@?$positional_parameter_base@_WV?$string_output_adapter@_W@__crt_stdio_output@@@__crt_stdio_output@@IEAA_NAEA_J@Z 0000000180170f24 f i libucrt:output.obj
 0001:0017002c       ??$extract_argument_from_va_list@_J_J@?$standard_base@DV?$stream_output_adapter@D@__crt_stdio_output@@@__crt_stdio_output@@IEAA_NAEA_J@Z 000000018017102c f i libucrt:output.obj
 0001:00170040       ??$extract_argument_from_va_list@_J_J@?$standard_base@DV?$string_output_adapter@D@__crt_stdio_output@@@__crt_stdio_output@@IEAA_NAEA_J@Z 0000000180171040 f i libucrt:output.obj
 0001:00170054       ??$extract_argument_from_va_list@_J_J@?$standard_base@_WV?$stream_output_adapter@_W@__crt_stdio_output@@@__crt_stdio_output@@IEAA_NAEA_J@Z 0000000180171054 f i libucrt:output.obj
 0001:00170068       ??$extract_argument_from_va_list@_J_J@?$standard_base@_WV?$string_output_adapter@_W@__crt_stdio_output@@@__crt_stdio_output@@IEAA_NAEA_J@Z 0000000180171068 f i libucrt:output.obj
 0001:0017007c       ??$extract_argument_from_va_list@_K_J@?$positional_parameter_base@DV?$stream_output_adapter@D@__crt_stdio_output@@@__crt_stdio_output@@IEAA_NAEA_J@Z 000000018017107c f i libucrt:output.obj
 0001:00170184       ??$extract_argument_from_va_list@_K_J@?$positional_parameter_base@DV?$string_output_adapter@D@__crt_stdio_output@@@__crt_stdio_output@@IEAA_NAEA_J@Z 0000000180171184 f i libucrt:output.obj
 0001:0017028c       ??$extract_argument_from_va_list@_K_J@?$positional_parameter_base@_WV?$stream_output_adapter@_W@__crt_stdio_output@@@__crt_stdio_output@@IEAA_NAEA_J@Z 000000018017128c f i libucrt:output.obj
 0001:00170394       ??$extract_argument_from_va_list@_K_J@?$positional_parameter_base@_WV?$string_output_adapter@_W@__crt_stdio_output@@@__crt_stdio_output@@IEAA_NAEA_J@Z 0000000180171394 f i libucrt:output.obj
 0001:0017049c       ??$extract_argument_from_va_list@_K_J@?$standard_base@DV?$stream_output_adapter@D@__crt_stdio_output@@@__crt_stdio_output@@IEAA_NAEA_J@Z 000000018017149c f i libucrt:output.obj
 0001:001704b0       ??$extract_argument_from_va_list@_K_J@?$standard_base@DV?$string_output_adapter@D@__crt_stdio_output@@@__crt_stdio_output@@IEAA_NAEA_J@Z 00000001801714b0 f i libucrt:output.obj
 0001:001704c4       ??$extract_argument_from_va_list@_K_J@?$standard_base@_WV?$stream_output_adapter@_W@__crt_stdio_output@@@__crt_stdio_output@@IEAA_NAEA_J@Z 00000001801714c4 f i libucrt:output.obj
 0001:001704d8       ??$extract_argument_from_va_list@_K_J@?$standard_base@_WV?$string_output_adapter@_W@__crt_stdio_output@@@__crt_stdio_output@@IEAA_NAEA_J@Z 00000001801714d8 f i libucrt:output.obj
 0001:001704ec       ??$extract_argument_from_va_list@_W_W@?$positional_parameter_base@DV?$stream_output_adapter@D@__crt_stdio_output@@@__crt_stdio_output@@IEAA_NAEA_W@Z 00000001801714ec f i libucrt:output.obj
 0001:001705f4       ??$extract_argument_from_va_list@_W_W@?$positional_parameter_base@DV?$string_output_adapter@D@__crt_stdio_output@@@__crt_stdio_output@@IEAA_NAEA_W@Z 00000001801715f4 f i libucrt:output.obj
 0001:001706fc       ??$extract_argument_from_va_list@_W_W@?$positional_parameter_base@_WV?$stream_output_adapter@_W@__crt_stdio_output@@@__crt_stdio_output@@IEAA_NAEA_W@Z 00000001801716fc f i libucrt:output.obj
 0001:00170808       ??$extract_argument_from_va_list@_W_W@?$positional_parameter_base@_WV?$string_output_adapter@_W@__crt_stdio_output@@@__crt_stdio_output@@IEAA_NAEA_W@Z 0000000180171808 f i libucrt:output.obj
 0001:00170914       ??$extract_argument_from_va_list@_W_W@?$standard_base@DV?$stream_output_adapter@D@__crt_stdio_output@@@__crt_stdio_output@@IEAA_NAEA_W@Z 0000000180171914 f i libucrt:output.obj
 0001:00170928       ??$extract_argument_from_va_list@_W_W@?$standard_base@DV?$string_output_adapter@D@__crt_stdio_output@@@__crt_stdio_output@@IEAA_NAEA_W@Z 0000000180171928 f i libucrt:output.obj
 0001:0017093c       ??$extract_argument_from_va_list@_W_W@?$standard_base@_WV?$stream_output_adapter@_W@__crt_stdio_output@@@__crt_stdio_output@@IEAA_NAEA_W@Z 000000018017193c f i libucrt:output.obj
 0001:00170950       ??$extract_argument_from_va_list@_W_W@?$standard_base@_WV?$string_output_adapter@_W@__crt_stdio_output@@@__crt_stdio_output@@IEAA_NAEA_W@Z 0000000180171950 f i libucrt:output.obj
 0001:00170964       ??$get_parameter_type@D@?$positional_parameter_base@DV?$stream_output_adapter@D@__crt_stdio_output@@@__crt_stdio_output@@CA?AW4parameter_type@01@PEAD@Z 0000000180171964 f i libucrt:output.obj
 0001:0017096c       ??$get_parameter_type@D@?$positional_parameter_base@DV?$string_output_adapter@D@__crt_stdio_output@@@__crt_stdio_output@@CA?AW4parameter_type@01@PEAD@Z 000000018017196c f i libucrt:output.obj
 0001:00170974       ??$get_parameter_type@D@?$positional_parameter_base@_WV?$stream_output_adapter@_W@__crt_stdio_output@@@__crt_stdio_output@@CA?AW4parameter_type@01@PEAD@Z 0000000180171974 f i libucrt:output.obj
 0001:0017097c       ??$get_parameter_type@D@?$positional_parameter_base@_WV?$string_output_adapter@_W@__crt_stdio_output@@@__crt_stdio_output@@CA?AW4parameter_type@01@PEAD@Z 000000018017197c f i libucrt:output.obj
 0001:00170984       ??$get_parameter_type@Uansi_string@?1??type_case_Z@?$output_processor@DV?$stream_output_adapter@D@__crt_stdio_output@@V?$positional_parameter_base@DV?$stream_output_adapter@D@__crt_stdio_output@@@2@@__crt_stdio_output@@AEAA_NXZ@@?$positional_parameter_base@DV?$stream_output_adapter@D@__crt_stdio_output@@@__crt_stdio_output@@CA?AW4parameter_type@01@PEAUansi_string@?1??type_case_Z@?$output_processor@DV?$stream_output_adapter@D@__crt_stdio_output@@V?$positional_parameter_base@DV?$stream_output_adapter@D@__crt_stdio_output@@@2@@1@AEAA_NXZ@@Z 0000000180171984 f i libucrt:output.obj
 0001:0017098c       ??$get_parameter_type@Uansi_string@?1??type_case_Z@?$output_processor@DV?$string_output_adapter@D@__crt_stdio_output@@V?$positional_parameter_base@DV?$string_output_adapter@D@__crt_stdio_output@@@2@@__crt_stdio_output@@AEAA_NXZ@@?$positional_parameter_base@DV?$string_output_adapter@D@__crt_stdio_output@@@__crt_stdio_output@@CA?AW4parameter_type@01@PEAUansi_string@?1??type_case_Z@?$output_processor@DV?$string_output_adapter@D@__crt_stdio_output@@V?$positional_parameter_base@DV?$string_output_adapter@D@__crt_stdio_output@@@2@@1@AEAA_NXZ@@Z 000000018017198c f i libucrt:output.obj
 0001:00170994       ??$get_parameter_type@Uansi_string@?1??type_case_Z@?$output_processor@_WV?$stream_output_adapter@_W@__crt_stdio_output@@V?$positional_parameter_base@_WV?$stream_output_adapter@_W@__crt_stdio_output@@@2@@__crt_stdio_output@@AEAA_NXZ@@?$positional_parameter_base@_WV?$stream_output_adapter@_W@__crt_stdio_output@@@__crt_stdio_output@@CA?AW4parameter_type@01@PEAUansi_string@?1??type_case_Z@?$output_processor@_WV?$stream_output_adapter@_W@__crt_stdio_output@@V?$positional_parameter_base@_WV?$stream_output_adapter@_W@__crt_stdio_output@@@2@@1@AEAA_NXZ@@Z 0000000180171994 f i libucrt:output.obj
 0001:0017099c       ??$get_parameter_type@Uansi_string@?1??type_case_Z@?$output_processor@_WV?$string_output_adapter@_W@__crt_stdio_output@@V?$positional_parameter_base@_WV?$string_output_adapter@_W@__crt_stdio_output@@@2@@__crt_stdio_output@@AEAA_NXZ@@?$positional_parameter_base@_WV?$string_output_adapter@_W@__crt_stdio_output@@@__crt_stdio_output@@CA?AW4parameter_type@01@PEAUansi_string@?1??type_case_Z@?$output_processor@_WV?$string_output_adapter@_W@__crt_stdio_output@@V?$positional_parameter_base@_WV?$string_output_adapter@_W@__crt_stdio_output@@@2@@1@AEAA_NXZ@@Z 000000018017199c f i libucrt:output.obj
 0001:001709a4       ??$get_parameter_type@X@?$positional_parameter_base@DV?$stream_output_adapter@D@__crt_stdio_output@@@__crt_stdio_output@@CA?AW4parameter_type@01@PEAX@Z 00000001801719a4 f i libucrt:output.obj
 0001:001709ac       ??$get_parameter_type@X@?$positional_parameter_base@DV?$string_output_adapter@D@__crt_stdio_output@@@__crt_stdio_output@@CA?AW4parameter_type@01@PEAX@Z 00000001801719ac f i libucrt:output.obj
 0001:001709b4       ??$get_parameter_type@X@?$positional_parameter_base@_WV?$stream_output_adapter@_W@__crt_stdio_output@@@__crt_stdio_output@@CA?AW4parameter_type@01@PEAX@Z 00000001801719b4 f i libucrt:output.obj
 0001:001709bc       ??$get_parameter_type@X@?$positional_parameter_base@_WV?$string_output_adapter@_W@__crt_stdio_output@@@__crt_stdio_output@@CA?AW4parameter_type@01@PEAX@Z 00000001801719bc f i libucrt:output.obj
 0001:001709c4       ??$is_character_specifier@D@?$positional_parameter_base@DV?$stream_output_adapter@D@__crt_stdio_output@@@__crt_stdio_output@@CA_ND@Z 00000001801719c4 f i libucrt:output.obj
 0001:001709d0       ??$is_character_specifier@D@?$positional_parameter_base@DV?$string_output_adapter@D@__crt_stdio_output@@@__crt_stdio_output@@CA_ND@Z 00000001801719d0 f i libucrt:output.obj
 0001:001709dc       ??$is_character_specifier@_W@?$positional_parameter_base@_WV?$stream_output_adapter@_W@__crt_stdio_output@@@__crt_stdio_output@@CA_N_W@Z 00000001801719dc f i libucrt:output.obj
 0001:001709ec       ??$is_character_specifier@_W@?$positional_parameter_base@_WV?$string_output_adapter@_W@__crt_stdio_output@@@__crt_stdio_output@@CA_N_W@Z 00000001801719ec f i libucrt:output.obj
 0001:001709fc       ??$is_integral_specifier@D@?$positional_parameter_base@DV?$stream_output_adapter@D@__crt_stdio_output@@@__crt_stdio_output@@CA_ND@Z 00000001801719fc f i libucrt:output.obj
 0001:00170a20       ??$is_integral_specifier@D@?$positional_parameter_base@DV?$string_output_adapter@D@__crt_stdio_output@@@__crt_stdio_output@@CA_ND@Z 0000000180171a20 f i libucrt:output.obj
 0001:00170a44       ??$is_integral_specifier@_W@?$positional_parameter_base@_WV?$stream_output_adapter@_W@__crt_stdio_output@@@__crt_stdio_output@@CA_N_W@Z 0000000180171a44 f i libucrt:output.obj
 0001:00170a6c       ??$is_integral_specifier@_W@?$positional_parameter_base@_WV?$string_output_adapter@_W@__crt_stdio_output@@@__crt_stdio_output@@CA_N_W@Z 0000000180171a6c f i libucrt:output.obj
 0001:00170a94       ??$is_overflow_condition@K@__crt_strtox@@YA_NIK@Z 0000000180171a94 f i libucrt:output.obj
 0001:00170ab8       ??$is_pointer_specifier@D@?$positional_parameter_base@DV?$stream_output_adapter@D@__crt_stdio_output@@@__crt_stdio_output@@CA_ND@Z 0000000180171ab8 f i libucrt:output.obj
 0001:00170ac0       ??$is_pointer_specifier@D@?$positional_parameter_base@DV?$string_output_adapter@D@__crt_stdio_output@@@__crt_stdio_output@@CA_ND@Z 0000000180171ac0 f i libucrt:output.obj
 0001:00170ac8       ??$is_pointer_specifier@_W@?$positional_parameter_base@_WV?$stream_output_adapter@_W@__crt_stdio_output@@@__crt_stdio_output@@CA_N_W@Z 0000000180171ac8 f i libucrt:output.obj
 0001:00170ad0       ??$is_pointer_specifier@_W@?$positional_parameter_base@_WV?$string_output_adapter@_W@__crt_stdio_output@@@__crt_stdio_output@@CA_N_W@Z 0000000180171ad0 f i libucrt:output.obj
 0001:00170ad8       ??$is_string_specifier@D@?$positional_parameter_base@DV?$stream_output_adapter@D@__crt_stdio_output@@@__crt_stdio_output@@CA_ND@Z 0000000180171ad8 f i libucrt:output.obj
 0001:00170ae4       ??$is_string_specifier@D@?$positional_parameter_base@DV?$string_output_adapter@D@__crt_stdio_output@@@__crt_stdio_output@@CA_ND@Z 0000000180171ae4 f i libucrt:output.obj
 0001:00170af0       ??$is_string_specifier@_W@?$positional_parameter_base@_WV?$stream_output_adapter@_W@__crt_stdio_output@@@__crt_stdio_output@@CA_N_W@Z 0000000180171af0 f i libucrt:output.obj
 0001:00170b00       ??$is_string_specifier@_W@?$positional_parameter_base@_WV?$string_output_adapter@_W@__crt_stdio_output@@@__crt_stdio_output@@CA_N_W@Z 0000000180171b00 f i libucrt:output.obj
 0001:00170b10       ??$is_wide_character_specifier@D@__crt_stdio_output@@YA_N_KDW4length_modifier@0@@Z 0000000180171b10 f i libucrt:output.obj
 0001:00170b38       ??$is_wide_character_specifier@_W@__crt_stdio_output@@YA_N_K_WW4length_modifier@0@@Z 0000000180171b38 f i libucrt:output.obj
 0001:00170b78       ??$make_c_string_character_source@DPEAPEAD@__crt_strtox@@YA?AV?$c_string_character_source@D@0@QEBDQEAPEAD@Z 0000000180171b78 f i libucrt:output.obj
 0001:00170b8c       ??$make_c_string_character_source@_WPEAPEA_W@__crt_strtox@@YA?AV?$c_string_character_source@_W@0@QEB_WQEAPEA_W@Z 0000000180171b8c f i libucrt:output.obj
 0001:00170ba0       ??$parse_integer@KV?$c_string_character_source@D@__crt_strtox@@$0A@@__crt_strtox@@YAKAEAV__crt_cached_ptd_host@@V?$c_string_character_source@D@0@H_N@Z 0000000180171ba0 f i libucrt:output.obj
 0001:00170e50       ??$parse_integer@KV?$c_string_character_source@_W@__crt_strtox@@$0A@@__crt_strtox@@YAKAEAV__crt_cached_ptd_host@@V?$c_string_character_source@_W@0@H_N@Z 0000000180171e50 f i libucrt:output.obj
 0001:001715a8       ??$peek_va_arg@C@__crt_stdio_output@@YACPEAD@Z 00000001801725a8 f i libucrt:output.obj
 0001:001715ac       ??$peek_va_arg@E@__crt_stdio_output@@YAEPEAD@Z 00000001801725ac f i libucrt:output.obj
 0001:001715b0       ??$peek_va_arg@F@__crt_stdio_output@@YAFPEAD@Z 00000001801725b0 f i libucrt:output.obj
 0001:001715b4       ??$peek_va_arg@G@__crt_stdio_output@@YAGPEAD@Z 00000001801725b4 f i libucrt:output.obj
 0001:001715b8       ??$peek_va_arg@H@__crt_stdio_output@@YAHPEAD@Z 00000001801725b8 f i libucrt:output.obj
 0001:001715bc       ??$peek_va_arg@I@__crt_stdio_output@@YAIPEAD@Z 00000001801725bc f i libucrt:output.obj
 0001:001715c0       ??$peek_va_arg@PEAD@__crt_stdio_output@@YAPEADPEAD@Z 00000001801725c0 f i libucrt:output.obj
 0001:001715c4       ??$peek_va_arg@PEAUansi_string@?1??type_case_Z@?$output_processor@DV?$stream_output_adapter@D@__crt_stdio_output@@V?$positional_parameter_base@DV?$stream_output_adapter@D@__crt_stdio_output@@@2@@__crt_stdio_output@@AEAA_NXZ@@__crt_stdio_output@@YAPEAUansi_string@?1??type_case_Z@?$output_processor@DV?$stream_output_adapter@D@__crt_stdio_output@@V?$positional_parameter_base@DV?$stream_output_adapter@D@__crt_stdio_output@@@2@@0@AEAA_NXZ@PEAD@Z 00000001801725c4 f i libucrt:output.obj
 0001:001715c8       ??$peek_va_arg@PEAUansi_string@?1??type_case_Z@?$output_processor@DV?$string_output_adapter@D@__crt_stdio_output@@V?$positional_parameter_base@DV?$string_output_adapter@D@__crt_stdio_output@@@2@@__crt_stdio_output@@AEAA_NXZ@@__crt_stdio_output@@YAPEAUansi_string@?1??type_case_Z@?$output_processor@DV?$string_output_adapter@D@__crt_stdio_output@@V?$positional_parameter_base@DV?$string_output_adapter@D@__crt_stdio_output@@@2@@0@AEAA_NXZ@PEAD@Z 00000001801725c8 f i libucrt:output.obj
 0001:001715cc       ??$peek_va_arg@PEAUansi_string@?1??type_case_Z@?$output_processor@_WV?$stream_output_adapter@_W@__crt_stdio_output@@V?$positional_parameter_base@_WV?$stream_output_adapter@_W@__crt_stdio_output@@@2@@__crt_stdio_output@@AEAA_NXZ@@__crt_stdio_output@@YAPEAUansi_string@?1??type_case_Z@?$output_processor@_WV?$stream_output_adapter@_W@__crt_stdio_output@@V?$positional_parameter_base@_WV?$stream_output_adapter@_W@__crt_stdio_output@@@2@@0@AEAA_NXZ@PEAD@Z 00000001801725cc f i libucrt:output.obj
 0001:001715d0       ??$peek_va_arg@PEAUansi_string@?1??type_case_Z@?$output_processor@_WV?$string_output_adapter@_W@__crt_stdio_output@@V?$positional_parameter_base@_WV?$string_output_adapter@_W@__crt_stdio_output@@@2@@__crt_stdio_output@@AEAA_NXZ@@__crt_stdio_output@@YAPEAUansi_string@?1??type_case_Z@?$output_processor@_WV?$string_output_adapter@_W@__crt_stdio_output@@V?$positional_parameter_base@_WV?$string_output_adapter@_W@__crt_stdio_output@@@2@@0@AEAA_NXZ@PEAD@Z 00000001801725d0 f i libucrt:output.obj
 0001:001715d4       ??$peek_va_arg@PEAX@__crt_stdio_output@@YAPEAXPEAD@Z 00000001801725d4 f i libucrt:output.obj
 0001:001715d8       ??$peek_va_arg@U_CRT_DOUBLE@@@__crt_stdio_output@@YA?AU_CRT_DOUBLE@@PEAD@Z 00000001801725d8 f i libucrt:output.obj
 0001:001715dc       ??$peek_va_arg@_J@__crt_stdio_output@@YA_JPEAD@Z 00000001801725dc f i libucrt:output.obj
 0001:001715e0       ??$peek_va_arg@_K@__crt_stdio_output@@YA_KPEAD@Z 00000001801725e0 f i libucrt:output.obj
 0001:001715e4       ??$peek_va_arg@_W@__crt_stdio_output@@YA_WPEAD@Z 00000001801725e4 f i libucrt:output.obj
 0001:001715e8       ??$puttc_nolock_internal@AEBDPEAU_iobuf@@AEAV__crt_cached_ptd_host@@@?$__crt_char_traits@D@@SAHAEBD$$QEAPEAU_iobuf@@AEAV__crt_cached_ptd_host@@@Z 00000001801725e8 f i libucrt:output.obj
 0001:001715f4       ??$puttc_nolock_internal@AEB_WPEAU_iobuf@@AEAV__crt_cached_ptd_host@@@?$__crt_char_traits@_W@@SAGAEB_W$$QEAPEAU_iobuf@@AEAV__crt_cached_ptd_host@@@Z 00000001801725f4 f i libucrt:output.obj
 0001:00171600       ??$read_va_arg@C@__crt_stdio_output@@YACAEAPEAD@Z 0000000180172600 f i libucrt:output.obj
 0001:0017160c       ??$read_va_arg@E@__crt_stdio_output@@YAEAEAPEAD@Z 000000018017260c f i libucrt:output.obj
 0001:00171618       ??$read_va_arg@F@__crt_stdio_output@@YAFAEAPEAD@Z 0000000180172618 f i libucrt:output.obj
 0001:00171624       ??$read_va_arg@G@__crt_stdio_output@@YAGAEAPEAD@Z 0000000180172624 f i libucrt:output.obj
 0001:00171630       ??$read_va_arg@H@__crt_stdio_output@@YAHAEAPEAD@Z 0000000180172630 f i libucrt:output.obj
 0001:0017163c       ??$read_va_arg@I@__crt_stdio_output@@YAIAEAPEAD@Z 000000018017263c f i libucrt:output.obj
 0001:00171648       ??$read_va_arg@PEAD@__crt_stdio_output@@YAPEADAEAPEAD@Z 0000000180172648 f i libucrt:output.obj
 0001:00171654       ??$read_va_arg@PEAUansi_string@?1??type_case_Z@?$output_processor@DV?$stream_output_adapter@D@__crt_stdio_output@@V?$format_validation_base@DV?$stream_output_adapter@D@__crt_stdio_output@@@2@@__crt_stdio_output@@AEAA_NXZ@@__crt_stdio_output@@YAPEAUansi_string@?1??type_case_Z@?$output_processor@DV?$stream_output_adapter@D@__crt_stdio_output@@V?$format_validation_base@DV?$stream_output_adapter@D@__crt_stdio_output@@@2@@0@AEAA_NXZ@AEAPEAD@Z 0000000180172654 f i libucrt:output.obj
 0001:00171660       ??$read_va_arg@PEAUansi_string@?1??type_case_Z@?$output_processor@DV?$stream_output_adapter@D@__crt_stdio_output@@V?$positional_parameter_base@DV?$stream_output_adapter@D@__crt_stdio_output@@@2@@__crt_stdio_output@@AEAA_NXZ@@__crt_stdio_output@@YAPEAUansi_string@?1??type_case_Z@?$output_processor@DV?$stream_output_adapter@D@__crt_stdio_output@@V?$positional_parameter_base@DV?$stream_output_adapter@D@__crt_stdio_output@@@2@@0@AEAA_NXZ@AEAPEAD@Z 0000000180172660 f i libucrt:output.obj
 0001:0017166c       ??$read_va_arg@PEAUansi_string@?1??type_case_Z@?$output_processor@DV?$stream_output_adapter@D@__crt_stdio_output@@V?$standard_base@DV?$stream_output_adapter@D@__crt_stdio_output@@@2@@__crt_stdio_output@@AEAA_NXZ@@__crt_stdio_output@@YAPEAUansi_string@?1??type_case_Z@?$output_processor@DV?$stream_output_adapter@D@__crt_stdio_output@@V?$standard_base@DV?$stream_output_adapter@D@__crt_stdio_output@@@2@@0@AEAA_NXZ@AEAPEAD@Z 000000018017266c f i libucrt:output.obj
 0001:00171678       ??$read_va_arg@PEAUansi_string@?1??type_case_Z@?$output_processor@DV?$string_output_adapter@D@__crt_stdio_output@@V?$format_validation_base@DV?$string_output_adapter@D@__crt_stdio_output@@@2@@__crt_stdio_output@@AEAA_NXZ@@__crt_stdio_output@@YAPEAUansi_string@?1??type_case_Z@?$output_processor@DV?$string_output_adapter@D@__crt_stdio_output@@V?$format_validation_base@DV?$string_output_adapter@D@__crt_stdio_output@@@2@@0@AEAA_NXZ@AEAPEAD@Z 0000000180172678 f i libucrt:output.obj
 0001:00171684       ??$read_va_arg@PEAUansi_string@?1??type_case_Z@?$output_processor@DV?$string_output_adapter@D@__crt_stdio_output@@V?$positional_parameter_base@DV?$string_output_adapter@D@__crt_stdio_output@@@2@@__crt_stdio_output@@AEAA_NXZ@@__crt_stdio_output@@YAPEAUansi_string@?1??type_case_Z@?$output_processor@DV?$string_output_adapter@D@__crt_stdio_output@@V?$positional_parameter_base@DV?$string_output_adapter@D@__crt_stdio_output@@@2@@0@AEAA_NXZ@AEAPEAD@Z 0000000180172684 f i libucrt:output.obj
 0001:00171690       ??$read_va_arg@PEAUansi_string@?1??type_case_Z@?$output_processor@DV?$string_output_adapter@D@__crt_stdio_output@@V?$standard_base@DV?$string_output_adapter@D@__crt_stdio_output@@@2@@__crt_stdio_output@@AEAA_NXZ@@__crt_stdio_output@@YAPEAUansi_string@?1??type_case_Z@?$output_processor@DV?$string_output_adapter@D@__crt_stdio_output@@V?$standard_base@DV?$string_output_adapter@D@__crt_stdio_output@@@2@@0@AEAA_NXZ@AEAPEAD@Z 0000000180172690 f i libucrt:output.obj
 0001:0017169c       ??$read_va_arg@PEAUansi_string@?1??type_case_Z@?$output_processor@_WV?$stream_output_adapter@_W@__crt_stdio_output@@V?$format_validation_base@_WV?$stream_output_adapter@_W@__crt_stdio_output@@@2@@__crt_stdio_output@@AEAA_NXZ@@__crt_stdio_output@@YAPEAUansi_string@?1??type_case_Z@?$output_processor@_WV?$stream_output_adapter@_W@__crt_stdio_output@@V?$format_validation_base@_WV?$stream_output_adapter@_W@__crt_stdio_output@@@2@@0@AEAA_NXZ@AEAPEAD@Z 000000018017269c f i libucrt:output.obj
 0001:001716a8       ??$read_va_arg@PEAUansi_string@?1??type_case_Z@?$output_processor@_WV?$stream_output_adapter@_W@__crt_stdio_output@@V?$positional_parameter_base@_WV?$stream_output_adapter@_W@__crt_stdio_output@@@2@@__crt_stdio_output@@AEAA_NXZ@@__crt_stdio_output@@YAPEAUansi_string@?1??type_case_Z@?$output_processor@_WV?$stream_output_adapter@_W@__crt_stdio_output@@V?$positional_parameter_base@_WV?$stream_output_adapter@_W@__crt_stdio_output@@@2@@0@AEAA_NXZ@AEAPEAD@Z 00000001801726a8 f i libucrt:output.obj
 0001:001716b4       ??$read_va_arg@PEAUansi_string@?1??type_case_Z@?$output_processor@_WV?$stream_output_adapter@_W@__crt_stdio_output@@V?$standard_base@_WV?$stream_output_adapter@_W@__crt_stdio_output@@@2@@__crt_stdio_output@@AEAA_NXZ@@__crt_stdio_output@@YAPEAUansi_string@?1??type_case_Z@?$output_processor@_WV?$stream_output_adapter@_W@__crt_stdio_output@@V?$standard_base@_WV?$stream_output_adapter@_W@__crt_stdio_output@@@2@@0@AEAA_NXZ@AEAPEAD@Z 00000001801726b4 f i libucrt:output.obj
 0001:001716c0       ??$read_va_arg@PEAUansi_string@?1??type_case_Z@?$output_processor@_WV?$string_output_adapter@_W@__crt_stdio_output@@V?$format_validation_base@_WV?$string_output_adapter@_W@__crt_stdio_output@@@2@@__crt_stdio_output@@AEAA_NXZ@@__crt_stdio_output@@YAPEAUansi_string@?1??type_case_Z@?$output_processor@_WV?$string_output_adapter@_W@__crt_stdio_output@@V?$format_validation_base@_WV?$string_output_adapter@_W@__crt_stdio_output@@@2@@0@AEAA_NXZ@AEAPEAD@Z 00000001801726c0 f i libucrt:output.obj
 0001:001716cc       ??$read_va_arg@PEAUansi_string@?1??type_case_Z@?$output_processor@_WV?$string_output_adapter@_W@__crt_stdio_output@@V?$positional_parameter_base@_WV?$string_output_adapter@_W@__crt_stdio_output@@@2@@__crt_stdio_output@@AEAA_NXZ@@__crt_stdio_output@@YAPEAUansi_string@?1??type_case_Z@?$output_processor@_WV?$string_output_adapter@_W@__crt_stdio_output@@V?$positional_parameter_base@_WV?$string_output_adapter@_W@__crt_stdio_output@@@2@@0@AEAA_NXZ@AEAPEAD@Z 00000001801726cc f i libucrt:output.obj
 0001:001716d8       ??$read_va_arg@PEAUansi_string@?1??type_case_Z@?$output_processor@_WV?$string_output_adapter@_W@__crt_stdio_output@@V?$standard_base@_WV?$string_output_adapter@_W@__crt_stdio_output@@@2@@__crt_stdio_output@@AEAA_NXZ@@__crt_stdio_output@@YAPEAUansi_string@?1??type_case_Z@?$output_processor@_WV?$string_output_adapter@_W@__crt_stdio_output@@V?$standard_base@_WV?$string_output_adapter@_W@__crt_stdio_output@@@2@@0@AEAA_NXZ@AEAPEAD@Z 00000001801726d8 f i libucrt:output.obj
 0001:001716e4       ??$read_va_arg@PEAX@__crt_stdio_output@@YAPEAXAEAPEAD@Z 00000001801726e4 f i libucrt:output.obj
 0001:001716f0       ??$read_va_arg@U_CRT_DOUBLE@@@__crt_stdio_output@@YA?AU_CRT_DOUBLE@@AEAPEAD@Z 00000001801726f0 f i libucrt:output.obj
 0001:00171700       ??$read_va_arg@_J@__crt_stdio_output@@YA_JAEAPEAD@Z 0000000180172700 f i libucrt:output.obj
 0001:0017170c       ??$read_va_arg@_K@__crt_stdio_output@@YA_KAEAPEAD@Z 000000018017270c f i libucrt:output.obj
 0001:00171718       ??$read_va_arg@_W@__crt_stdio_output@@YA_WAEAPEAD@Z 0000000180172718 f i libucrt:output.obj
 0001:00171724       ??$scratch_count@D@formatting_buffer@__crt_stdio_output@@QEBA_KXZ 0000000180172724 f i libucrt:output.obj
 0001:00171740       ??$scratch_data@D@formatting_buffer@__crt_stdio_output@@QEAAPEADXZ 0000000180172740 f i libucrt:output.obj
 0001:00171764       ??$type_case_integer@$07@?$output_processor@DV?$stream_output_adapter@D@__crt_stdio_output@@V?$format_validation_base@DV?$stream_output_adapter@D@__crt_stdio_output@@@2@@__crt_stdio_output@@AEAA_N_N@Z 0000000180172764 f i libucrt:output.obj
 0001:0017194c       ??$type_case_integer@$07@?$output_processor@DV?$stream_output_adapter@D@__crt_stdio_output@@V?$positional_parameter_base@DV?$stream_output_adapter@D@__crt_stdio_output@@@2@@__crt_stdio_output@@AEAA_N_N@Z 000000018017294c f i libucrt:output.obj
 0001:00171b78       ??$type_case_integer@$07@?$output_processor@DV?$stream_output_adapter@D@__crt_stdio_output@@V?$standard_base@DV?$stream_output_adapter@D@__crt_stdio_output@@@2@@__crt_stdio_output@@AEAA_N_N@Z 0000000180172b78 f i libucrt:output.obj
 0001:00171d60       ??$type_case_integer@$07@?$output_processor@DV?$string_output_adapter@D@__crt_stdio_output@@V?$format_validation_base@DV?$string_output_adapter@D@__crt_stdio_output@@@2@@__crt_stdio_output@@AEAA_N_N@Z 0000000180172d60 f i libucrt:output.obj
 0001:00171f48       ??$type_case_integer@$07@?$output_processor@DV?$string_output_adapter@D@__crt_stdio_output@@V?$positional_parameter_base@DV?$string_output_adapter@D@__crt_stdio_output@@@2@@__crt_stdio_output@@AEAA_N_N@Z 0000000180172f48 f i libucrt:output.obj
 0001:00172174       ??$type_case_integer@$07@?$output_processor@DV?$string_output_adapter@D@__crt_stdio_output@@V?$standard_base@DV?$string_output_adapter@D@__crt_stdio_output@@@2@@__crt_stdio_output@@AEAA_N_N@Z 0000000180173174 f i libucrt:output.obj
 0001:0017235c       ??$type_case_integer@$07@?$output_processor@_WV?$stream_output_adapter@_W@__crt_stdio_output@@V?$format_validation_base@_WV?$stream_output_adapter@_W@__crt_stdio_output@@@2@@__crt_stdio_output@@AEAA_N_N@Z 000000018017335c f i libucrt:output.obj
 0001:00172548       ??$type_case_integer@$07@?$output_processor@_WV?$stream_output_adapter@_W@__crt_stdio_output@@V?$positional_parameter_base@_WV?$stream_output_adapter@_W@__crt_stdio_output@@@2@@__crt_stdio_output@@AEAA_N_N@Z 0000000180173548 f i libucrt:output.obj
 0001:00172778       ??$type_case_integer@$07@?$output_processor@_WV?$stream_output_adapter@_W@__crt_stdio_output@@V?$standard_base@_WV?$stream_output_adapter@_W@__crt_stdio_output@@@2@@__crt_stdio_output@@AEAA_N_N@Z 0000000180173778 f i libucrt:output.obj
 0001:00172964       ??$type_case_integer@$07@?$output_processor@_WV?$string_output_adapter@_W@__crt_stdio_output@@V?$format_validation_base@_WV?$string_output_adapter@_W@__crt_stdio_output@@@2@@__crt_stdio_output@@AEAA_N_N@Z 0000000180173964 f i libucrt:output.obj
 0001:00172b50       ??$type_case_integer@$07@?$output_processor@_WV?$string_output_adapter@_W@__crt_stdio_output@@V?$positional_parameter_base@_WV?$string_output_adapter@_W@__crt_stdio_output@@@2@@__crt_stdio_output@@AEAA_N_N@Z 0000000180173b50 f i libucrt:output.obj
 0001:00172d80       ??$type_case_integer@$07@?$output_processor@_WV?$string_output_adapter@_W@__crt_stdio_output@@V?$standard_base@_WV?$string_output_adapter@_W@__crt_stdio_output@@@2@@__crt_stdio_output@@AEAA_N_N@Z 0000000180173d80 f i libucrt:output.obj
 0001:00172f6c       ??$type_case_integer@$09@?$output_processor@DV?$stream_output_adapter@D@__crt_stdio_output@@V?$format_validation_base@DV?$stream_output_adapter@D@__crt_stdio_output@@@2@@__crt_stdio_output@@AEAA_N_N@Z 0000000180173f6c f i libucrt:output.obj
 0001:00173154       ??$type_case_integer@$09@?$output_processor@DV?$stream_output_adapter@D@__crt_stdio_output@@V?$positional_parameter_base@DV?$stream_output_adapter@D@__crt_stdio_output@@@2@@__crt_stdio_output@@AEAA_N_N@Z 0000000180174154 f i libucrt:output.obj
 0001:00173380       ??$type_case_integer@$09@?$output_processor@DV?$stream_output_adapter@D@__crt_stdio_output@@V?$standard_base@DV?$stream_output_adapter@D@__crt_stdio_output@@@2@@__crt_stdio_output@@AEAA_N_N@Z 0000000180174380 f i libucrt:output.obj
 0001:00173568       ??$type_case_integer@$09@?$output_processor@DV?$string_output_adapter@D@__crt_stdio_output@@V?$format_validation_base@DV?$string_output_adapter@D@__crt_stdio_output@@@2@@__crt_stdio_output@@AEAA_N_N@Z 0000000180174568 f i libucrt:output.obj
 0001:00173750       ??$type_case_integer@$09@?$output_processor@DV?$string_output_adapter@D@__crt_stdio_output@@V?$positional_parameter_base@DV?$string_output_adapter@D@__crt_stdio_output@@@2@@__crt_stdio_output@@AEAA_N_N@Z 0000000180174750 f i libucrt:output.obj
 0001:0017397c       ??$type_case_integer@$09@?$output_processor@DV?$string_output_adapter@D@__crt_stdio_output@@V?$standard_base@DV?$string_output_adapter@D@__crt_stdio_output@@@2@@__crt_stdio_output@@AEAA_N_N@Z 000000018017497c f i libucrt:output.obj
 0001:00173b64       ??$type_case_integer@$09@?$output_processor@_WV?$stream_output_adapter@_W@__crt_stdio_output@@V?$format_validation_base@_WV?$stream_output_adapter@_W@__crt_stdio_output@@@2@@__crt_stdio_output@@AEAA_N_N@Z 0000000180174b64 f i libucrt:output.obj
 0001:00173d50       ??$type_case_integer@$09@?$output_processor@_WV?$stream_output_adapter@_W@__crt_stdio_output@@V?$positional_parameter_base@_WV?$stream_output_adapter@_W@__crt_stdio_output@@@2@@__crt_stdio_output@@AEAA_N_N@Z 0000000180174d50 f i libucrt:output.obj
 0001:00173f80       ??$type_case_integer@$09@?$output_processor@_WV?$stream_output_adapter@_W@__crt_stdio_output@@V?$standard_base@_WV?$stream_output_adapter@_W@__crt_stdio_output@@@2@@__crt_stdio_output@@AEAA_N_N@Z 0000000180174f80 f i libucrt:output.obj
 0001:0017416c       ??$type_case_integer@$09@?$output_processor@_WV?$string_output_adapter@_W@__crt_stdio_output@@V?$format_validation_base@_WV?$string_output_adapter@_W@__crt_stdio_output@@@2@@__crt_stdio_output@@AEAA_N_N@Z 000000018017516c f i libucrt:output.obj
 0001:00174358       ??$type_case_integer@$09@?$output_processor@_WV?$string_output_adapter@_W@__crt_stdio_output@@V?$positional_parameter_base@_WV?$string_output_adapter@_W@__crt_stdio_output@@@2@@__crt_stdio_output@@AEAA_N_N@Z 0000000180175358 f i libucrt:output.obj
 0001:00174588       ??$type_case_integer@$09@?$output_processor@_WV?$string_output_adapter@_W@__crt_stdio_output@@V?$standard_base@_WV?$string_output_adapter@_W@__crt_stdio_output@@@2@@__crt_stdio_output@@AEAA_N_N@Z 0000000180175588 f i libucrt:output.obj
 0001:00174774       ??$type_case_integer@$0BA@@?$output_processor@DV?$stream_output_adapter@D@__crt_stdio_output@@V?$format_validation_base@DV?$stream_output_adapter@D@__crt_stdio_output@@@2@@__crt_stdio_output@@AEAA_N_N@Z 0000000180175774 f i libucrt:output.obj
 0001:0017495c       ??$type_case_integer@$0BA@@?$output_processor@DV?$stream_output_adapter@D@__crt_stdio_output@@V?$positional_parameter_base@DV?$stream_output_adapter@D@__crt_stdio_output@@@2@@__crt_stdio_output@@AEAA_N_N@Z 000000018017595c f i libucrt:output.obj
 0001:00174b88       ??$type_case_integer@$0BA@@?$output_processor@DV?$stream_output_adapter@D@__crt_stdio_output@@V?$standard_base@DV?$stream_output_adapter@D@__crt_stdio_output@@@2@@__crt_stdio_output@@AEAA_N_N@Z 0000000180175b88 f i libucrt:output.obj
 0001:00174d70       ??$type_case_integer@$0BA@@?$output_processor@DV?$string_output_adapter@D@__crt_stdio_output@@V?$format_validation_base@DV?$string_output_adapter@D@__crt_stdio_output@@@2@@__crt_stdio_output@@AEAA_N_N@Z 0000000180175d70 f i libucrt:output.obj
 0001:00174f58       ??$type_case_integer@$0BA@@?$output_processor@DV?$string_output_adapter@D@__crt_stdio_output@@V?$positional_parameter_base@DV?$string_output_adapter@D@__crt_stdio_output@@@2@@__crt_stdio_output@@AEAA_N_N@Z 0000000180175f58 f i libucrt:output.obj
 0001:00175184       ??$type_case_integer@$0BA@@?$output_processor@DV?$string_output_adapter@D@__crt_stdio_output@@V?$standard_base@DV?$string_output_adapter@D@__crt_stdio_output@@@2@@__crt_stdio_output@@AEAA_N_N@Z 0000000180176184 f i libucrt:output.obj
 0001:0017536c       ??$type_case_integer@$0BA@@?$output_processor@_WV?$stream_output_adapter@_W@__crt_stdio_output@@V?$format_validation_base@_WV?$stream_output_adapter@_W@__crt_stdio_output@@@2@@__crt_stdio_output@@AEAA_N_N@Z 000000018017636c f i libucrt:output.obj
 0001:00175558       ??$type_case_integer@$0BA@@?$output_processor@_WV?$stream_output_adapter@_W@__crt_stdio_output@@V?$positional_parameter_base@_WV?$stream_output_adapter@_W@__crt_stdio_output@@@2@@__crt_stdio_output@@AEAA_N_N@Z 0000000180176558 f i libucrt:output.obj
 0001:00175788       ??$type_case_integer@$0BA@@?$output_processor@_WV?$stream_output_adapter@_W@__crt_stdio_output@@V?$standard_base@_WV?$stream_output_adapter@_W@__crt_stdio_output@@@2@@__crt_stdio_output@@AEAA_N_N@Z 0000000180176788 f i libucrt:output.obj
 0001:00175974       ??$type_case_integer@$0BA@@?$output_processor@_WV?$string_output_adapter@_W@__crt_stdio_output@@V?$format_validation_base@_WV?$string_output_adapter@_W@__crt_stdio_output@@@2@@__crt_stdio_output@@AEAA_N_N@Z 0000000180176974 f i libucrt:output.obj
 0001:00175b60       ??$type_case_integer@$0BA@@?$output_processor@_WV?$string_output_adapter@_W@__crt_stdio_output@@V?$positional_parameter_base@_WV?$string_output_adapter@_W@__crt_stdio_output@@@2@@__crt_stdio_output@@AEAA_N_N@Z 0000000180176b60 f i libucrt:output.obj
 0001:00175d90       ??$type_case_integer@$0BA@@?$output_processor@_WV?$string_output_adapter@_W@__crt_stdio_output@@V?$standard_base@_WV?$string_output_adapter@_W@__crt_stdio_output@@@2@@__crt_stdio_output@@AEAA_N_N@Z 0000000180176d90 f i libucrt:output.obj
 0001:00175f7c       ??$type_case_integer_parse_into_buffer@I$07@?$output_processor@DV?$stream_output_adapter@D@__crt_stdio_output@@V?$format_validation_base@DV?$stream_output_adapter@D@__crt_stdio_output@@@2@@__crt_stdio_output@@AEAAXI_N@Z 0000000180176f7c f i libucrt:output.obj
 0001:00175ff8       ??$type_case_integer_parse_into_buffer@I$07@?$output_processor@DV?$stream_output_adapter@D@__crt_stdio_output@@V?$positional_parameter_base@DV?$stream_output_adapter@D@__crt_stdio_output@@@2@@__crt_stdio_output@@AEAAXI_N@Z 0000000180176ff8 f i libucrt:output.obj
 0001:00176074       ??$type_case_integer_parse_into_buffer@I$07@?$output_processor@DV?$stream_output_adapter@D@__crt_stdio_output@@V?$standard_base@DV?$stream_output_adapter@D@__crt_stdio_output@@@2@@__crt_stdio_output@@AEAAXI_N@Z 0000000180177074 f i libucrt:output.obj
 0001:001760f0       ??$type_case_integer_parse_into_buffer@I$07@?$output_processor@DV?$string_output_adapter@D@__crt_stdio_output@@V?$format_validation_base@DV?$string_output_adapter@D@__crt_stdio_output@@@2@@__crt_stdio_output@@AEAAXI_N@Z 00000001801770f0 f i libucrt:output.obj
 0001:0017616c       ??$type_case_integer_parse_into_buffer@I$07@?$output_processor@DV?$string_output_adapter@D@__crt_stdio_output@@V?$positional_parameter_base@DV?$string_output_adapter@D@__crt_stdio_output@@@2@@__crt_stdio_output@@AEAAXI_N@Z 000000018017716c f i libucrt:output.obj
 0001:001761e8       ??$type_case_integer_parse_into_buffer@I$07@?$output_processor@DV?$string_output_adapter@D@__crt_stdio_output@@V?$standard_base@DV?$string_output_adapter@D@__crt_stdio_output@@@2@@__crt_stdio_output@@AEAAXI_N@Z 00000001801771e8 f i libucrt:output.obj
 0001:00176264       ??$type_case_integer_parse_into_buffer@I$07@?$output_processor@_WV?$stream_output_adapter@_W@__crt_stdio_output@@V?$format_validation_base@_WV?$stream_output_adapter@_W@__crt_stdio_output@@@2@@__crt_stdio_output@@AEAAXI_N@Z 0000000180177264 f i libucrt:output.obj
 0001:001762ec       ??$type_case_integer_parse_into_buffer@I$07@?$output_processor@_WV?$stream_output_adapter@_W@__crt_stdio_output@@V?$positional_parameter_base@_WV?$stream_output_adapter@_W@__crt_stdio_output@@@2@@__crt_stdio_output@@AEAAXI_N@Z 00000001801772ec f i libucrt:output.obj
 0001:00176374       ??$type_case_integer_parse_into_buffer@I$07@?$output_processor@_WV?$stream_output_adapter@_W@__crt_stdio_output@@V?$standard_base@_WV?$stream_output_adapter@_W@__crt_stdio_output@@@2@@__crt_stdio_output@@AEAAXI_N@Z 0000000180177374 f i libucrt:output.obj
 0001:001763fc       ??$type_case_integer_parse_into_buffer@I$07@?$output_processor@_WV?$string_output_adapter@_W@__crt_stdio_output@@V?$format_validation_base@_WV?$string_output_adapter@_W@__crt_stdio_output@@@2@@__crt_stdio_output@@AEAAXI_N@Z 00000001801773fc f i libucrt:output.obj
 0001:00176484       ??$type_case_integer_parse_into_buffer@I$07@?$output_processor@_WV?$string_output_adapter@_W@__crt_stdio_output@@V?$positional_parameter_base@_WV?$string_output_adapter@_W@__crt_stdio_output@@@2@@__crt_stdio_output@@AEAAXI_N@Z 0000000180177484 f i libucrt:output.obj
 0001:0017650c       ??$type_case_integer_parse_into_buffer@I$07@?$output_processor@_WV?$string_output_adapter@_W@__crt_stdio_output@@V?$standard_base@_WV?$string_output_adapter@_W@__crt_stdio_output@@@2@@__crt_stdio_output@@AEAAXI_N@Z 000000018017750c f i libucrt:output.obj
 0001:00176594       ??$type_case_integer_parse_into_buffer@I$09@?$output_processor@DV?$stream_output_adapter@D@__crt_stdio_output@@V?$format_validation_base@DV?$stream_output_adapter@D@__crt_stdio_output@@@2@@__crt_stdio_output@@AEAAXI_N@Z 0000000180177594 f i libucrt:output.obj
 0001:0017663c       ??$type_case_integer_parse_into_buffer@I$09@?$output_processor@DV?$stream_output_adapter@D@__crt_stdio_output@@V?$positional_parameter_base@DV?$stream_output_adapter@D@__crt_stdio_output@@@2@@__crt_stdio_output@@AEAAXI_N@Z 000000018017763c f i libucrt:output.obj
 0001:001766e4       ??$type_case_integer_parse_into_buffer@I$09@?$output_processor@DV?$stream_output_adapter@D@__crt_stdio_output@@V?$standard_base@DV?$stream_output_adapter@D@__crt_stdio_output@@@2@@__crt_stdio_output@@AEAAXI_N@Z 00000001801776e4 f i libucrt:output.obj
 0001:0017678c       ??$type_case_integer_parse_into_buffer@I$09@?$output_processor@DV?$string_output_adapter@D@__crt_stdio_output@@V?$format_validation_base@DV?$string_output_adapter@D@__crt_stdio_output@@@2@@__crt_stdio_output@@AEAAXI_N@Z 000000018017778c f i libucrt:output.obj
 0001:00176834       ??$type_case_integer_parse_into_buffer@I$09@?$output_processor@DV?$string_output_adapter@D@__crt_stdio_output@@V?$positional_parameter_base@DV?$string_output_adapter@D@__crt_stdio_output@@@2@@__crt_stdio_output@@AEAAXI_N@Z 0000000180177834 f i libucrt:output.obj
 0001:001768dc       ??$type_case_integer_parse_into_buffer@I$09@?$output_processor@DV?$string_output_adapter@D@__crt_stdio_output@@V?$standard_base@DV?$string_output_adapter@D@__crt_stdio_output@@@2@@__crt_stdio_output@@AEAAXI_N@Z 00000001801778dc f i libucrt:output.obj
 0001:00176984       ??$type_case_integer_parse_into_buffer@I$09@?$output_processor@_WV?$stream_output_adapter@_W@__crt_stdio_output@@V?$format_validation_base@_WV?$stream_output_adapter@_W@__crt_stdio_output@@@2@@__crt_stdio_output@@AEAAXI_N@Z 0000000180177984 f i libucrt:output.obj
 0001:00176a3c       ??$type_case_integer_parse_into_buffer@I$09@?$output_processor@_WV?$stream_output_adapter@_W@__crt_stdio_output@@V?$positional_parameter_base@_WV?$stream_output_adapter@_W@__crt_stdio_output@@@2@@__crt_stdio_output@@AEAAXI_N@Z 0000000180177a3c f i libucrt:output.obj
 0001:00176af4       ??$type_case_integer_parse_into_buffer@I$09@?$output_processor@_WV?$stream_output_adapter@_W@__crt_stdio_output@@V?$standard_base@_WV?$stream_output_adapter@_W@__crt_stdio_output@@@2@@__crt_stdio_output@@AEAAXI_N@Z 0000000180177af4 f i libucrt:output.obj
 0001:00176bac       ??$type_case_integer_parse_into_buffer@I$09@?$output_processor@_WV?$string_output_adapter@_W@__crt_stdio_output@@V?$format_validation_base@_WV?$string_output_adapter@_W@__crt_stdio_output@@@2@@__crt_stdio_output@@AEAAXI_N@Z 0000000180177bac f i libucrt:output.obj
 0001:00176c64       ??$type_case_integer_parse_into_buffer@I$09@?$output_processor@_WV?$string_output_adapter@_W@__crt_stdio_output@@V?$positional_parameter_base@_WV?$string_output_adapter@_W@__crt_stdio_output@@@2@@__crt_stdio_output@@AEAAXI_N@Z 0000000180177c64 f i libucrt:output.obj
 0001:00176d1c       ??$type_case_integer_parse_into_buffer@I$09@?$output_processor@_WV?$string_output_adapter@_W@__crt_stdio_output@@V?$standard_base@_WV?$string_output_adapter@_W@__crt_stdio_output@@@2@@__crt_stdio_output@@AEAAXI_N@Z 0000000180177d1c f i libucrt:output.obj
 0001:00176dd4       ??$type_case_integer_parse_into_buffer@I$0BA@@?$output_processor@DV?$stream_output_adapter@D@__crt_stdio_output@@V?$format_validation_base@DV?$stream_output_adapter@D@__crt_stdio_output@@@2@@__crt_stdio_output@@AEAAXI_N@Z 0000000180177dd4 f i libucrt:output.obj
 0001:00176e60       ??$type_case_integer_parse_into_buffer@I$0BA@@?$output_processor@DV?$stream_output_adapter@D@__crt_stdio_output@@V?$positional_parameter_base@DV?$stream_output_adapter@D@__crt_stdio_output@@@2@@__crt_stdio_output@@AEAAXI_N@Z 0000000180177e60 f i libucrt:output.obj
 0001:00176eec       ??$type_case_integer_parse_into_buffer@I$0BA@@?$output_processor@DV?$stream_output_adapter@D@__crt_stdio_output@@V?$standard_base@DV?$stream_output_adapter@D@__crt_stdio_output@@@2@@__crt_stdio_output@@AEAAXI_N@Z 0000000180177eec f i libucrt:output.obj
 0001:00176f78       ??$type_case_integer_parse_into_buffer@I$0BA@@?$output_processor@DV?$string_output_adapter@D@__crt_stdio_output@@V?$format_validation_base@DV?$string_output_adapter@D@__crt_stdio_output@@@2@@__crt_stdio_output@@AEAAXI_N@Z 0000000180177f78 f i libucrt:output.obj
 0001:00177004       ??$type_case_integer_parse_into_buffer@I$0BA@@?$output_processor@DV?$string_output_adapter@D@__crt_stdio_output@@V?$positional_parameter_base@DV?$string_output_adapter@D@__crt_stdio_output@@@2@@__crt_stdio_output@@AEAAXI_N@Z 0000000180178004 f i libucrt:output.obj
 0001:00177090       ??$type_case_integer_parse_into_buffer@I$0BA@@?$output_processor@DV?$string_output_adapter@D@__crt_stdio_output@@V?$standard_base@DV?$string_output_adapter@D@__crt_stdio_output@@@2@@__crt_stdio_output@@AEAAXI_N@Z 0000000180178090 f i libucrt:output.obj
 0001:0017711c       ??$type_case_integer_parse_into_buffer@I$0BA@@?$output_processor@_WV?$stream_output_adapter@_W@__crt_stdio_output@@V?$format_validation_base@_WV?$stream_output_adapter@_W@__crt_stdio_output@@@2@@__crt_stdio_output@@AEAAXI_N@Z 000000018017811c f i libucrt:output.obj
 0001:001771c0       ??$type_case_integer_parse_into_buffer@I$0BA@@?$output_processor@_WV?$stream_output_adapter@_W@__crt_stdio_output@@V?$positional_parameter_base@_WV?$stream_output_adapter@_W@__crt_stdio_output@@@2@@__crt_stdio_output@@AEAAXI_N@Z 00000001801781c0 f i libucrt:output.obj
 0001:00177264       ??$type_case_integer_parse_into_buffer@I$0BA@@?$output_processor@_WV?$stream_output_adapter@_W@__crt_stdio_output@@V?$standard_base@_WV?$stream_output_adapter@_W@__crt_stdio_output@@@2@@__crt_stdio_output@@AEAAXI_N@Z 0000000180178264 f i libucrt:output.obj
 0001:00177308       ??$type_case_integer_parse_into_buffer@I$0BA@@?$output_processor@_WV?$string_output_adapter@_W@__crt_stdio_output@@V?$format_validation_base@_WV?$string_output_adapter@_W@__crt_stdio_output@@@2@@__crt_stdio_output@@AEAAXI_N@Z 0000000180178308 f i libucrt:output.obj
 0001:001773ac       ??$type_case_integer_parse_into_buffer@I$0BA@@?$output_processor@_WV?$string_output_adapter@_W@__crt_stdio_output@@V?$positional_parameter_base@_WV?$string_output_adapter@_W@__crt_stdio_output@@@2@@__crt_stdio_output@@AEAAXI_N@Z 00000001801783ac f i libucrt:output.obj
 0001:00177450       ??$type_case_integer_parse_into_buffer@I$0BA@@?$output_processor@_WV?$string_output_adapter@_W@__crt_stdio_output@@V?$standard_base@_WV?$string_output_adapter@_W@__crt_stdio_output@@@2@@__crt_stdio_output@@AEAAXI_N@Z 0000000180178450 f i libucrt:output.obj
 0001:001774f4       ??$type_case_integer_parse_into_buffer@_K$07@?$output_processor@DV?$stream_output_adapter@D@__crt_stdio_output@@V?$format_validation_base@DV?$stream_output_adapter@D@__crt_stdio_output@@@2@@__crt_stdio_output@@AEAAX_K_N@Z 00000001801784f4 f i libucrt:output.obj
 0001:00177570       ??$type_case_integer_parse_into_buffer@_K$07@?$output_processor@DV?$stream_output_adapter@D@__crt_stdio_output@@V?$positional_parameter_base@DV?$stream_output_adapter@D@__crt_stdio_output@@@2@@__crt_stdio_output@@AEAAX_K_N@Z 0000000180178570 f i libucrt:output.obj
 0001:001775ec       ??$type_case_integer_parse_into_buffer@_K$07@?$output_processor@DV?$stream_output_adapter@D@__crt_stdio_output@@V?$standard_base@DV?$stream_output_adapter@D@__crt_stdio_output@@@2@@__crt_stdio_output@@AEAAX_K_N@Z 00000001801785ec f i libucrt:output.obj
 0001:00177668       ??$type_case_integer_parse_into_buffer@_K$07@?$output_processor@DV?$string_output_adapter@D@__crt_stdio_output@@V?$format_validation_base@DV?$string_output_adapter@D@__crt_stdio_output@@@2@@__crt_stdio_output@@AEAAX_K_N@Z 0000000180178668 f i libucrt:output.obj
 0001:001776e4       ??$type_case_integer_parse_into_buffer@_K$07@?$output_processor@DV?$string_output_adapter@D@__crt_stdio_output@@V?$positional_parameter_base@DV?$string_output_adapter@D@__crt_stdio_output@@@2@@__crt_stdio_output@@AEAAX_K_N@Z 00000001801786e4 f i libucrt:output.obj
 0001:00177760       ??$type_case_integer_parse_into_buffer@_K$07@?$output_processor@DV?$string_output_adapter@D@__crt_stdio_output@@V?$standard_base@DV?$string_output_adapter@D@__crt_stdio_output@@@2@@__crt_stdio_output@@AEAAX_K_N@Z 0000000180178760 f i libucrt:output.obj
 0001:001777dc       ??$type_case_integer_parse_into_buffer@_K$07@?$output_processor@_WV?$stream_output_adapter@_W@__crt_stdio_output@@V?$format_validation_base@_WV?$stream_output_adapter@_W@__crt_stdio_output@@@2@@__crt_stdio_output@@AEAAX_K_N@Z 00000001801787dc f i libucrt:output.obj
 0001:00177864       ??$type_case_integer_parse_into_buffer@_K$07@?$output_processor@_WV?$stream_output_adapter@_W@__crt_stdio_output@@V?$positional_parameter_base@_WV?$stream_output_adapter@_W@__crt_stdio_output@@@2@@__crt_stdio_output@@AEAAX_K_N@Z 0000000180178864 f i libucrt:output.obj
 0001:001778ec       ??$type_case_integer_parse_into_buffer@_K$07@?$output_processor@_WV?$stream_output_adapter@_W@__crt_stdio_output@@V?$standard_base@_WV?$stream_output_adapter@_W@__crt_stdio_output@@@2@@__crt_stdio_output@@AEAAX_K_N@Z 00000001801788ec f i libucrt:output.obj
 0001:00177974       ??$type_case_integer_parse_into_buffer@_K$07@?$output_processor@_WV?$string_output_adapter@_W@__crt_stdio_output@@V?$format_validation_base@_WV?$string_output_adapter@_W@__crt_stdio_output@@@2@@__crt_stdio_output@@AEAAX_K_N@Z 0000000180178974 f i libucrt:output.obj
 0001:001779fc       ??$type_case_integer_parse_into_buffer@_K$07@?$output_processor@_WV?$string_output_adapter@_W@__crt_stdio_output@@V?$positional_parameter_base@_WV?$string_output_adapter@_W@__crt_stdio_output@@@2@@__crt_stdio_output@@AEAAX_K_N@Z 00000001801789fc f i libucrt:output.obj
 0001:00177a84       ??$type_case_integer_parse_into_buffer@_K$07@?$output_processor@_WV?$string_output_adapter@_W@__crt_stdio_output@@V?$standard_base@_WV?$string_output_adapter@_W@__crt_stdio_output@@@2@@__crt_stdio_output@@AEAAX_K_N@Z 0000000180178a84 f i libucrt:output.obj
 0001:00177b0c       ??$type_case_integer_parse_into_buffer@_K$09@?$output_processor@DV?$stream_output_adapter@D@__crt_stdio_output@@V?$format_validation_base@DV?$stream_output_adapter@D@__crt_stdio_output@@@2@@__crt_stdio_output@@AEAAX_K_N@Z 0000000180178b0c f i libucrt:output.obj
 0001:00177bb8       ??$type_case_integer_parse_into_buffer@_K$09@?$output_processor@DV?$stream_output_adapter@D@__crt_stdio_output@@V?$positional_parameter_base@DV?$stream_output_adapter@D@__crt_stdio_output@@@2@@__crt_stdio_output@@AEAAX_K_N@Z 0000000180178bb8 f i libucrt:output.obj
 0001:00177c64       ??$type_case_integer_parse_into_buffer@_K$09@?$output_processor@DV?$stream_output_adapter@D@__crt_stdio_output@@V?$standard_base@DV?$stream_output_adapter@D@__crt_stdio_output@@@2@@__crt_stdio_output@@AEAAX_K_N@Z 0000000180178c64 f i libucrt:output.obj
 0001:00177d10       ??$type_case_integer_parse_into_buffer@_K$09@?$output_processor@DV?$string_output_adapter@D@__crt_stdio_output@@V?$format_validation_base@DV?$string_output_adapter@D@__crt_stdio_output@@@2@@__crt_stdio_output@@AEAAX_K_N@Z 0000000180178d10 f i libucrt:output.obj
 0001:00177dbc       ??$type_case_integer_parse_into_buffer@_K$09@?$output_processor@DV?$string_output_adapter@D@__crt_stdio_output@@V?$positional_parameter_base@DV?$string_output_adapter@D@__crt_stdio_output@@@2@@__crt_stdio_output@@AEAAX_K_N@Z 0000000180178dbc f i libucrt:output.obj
 0001:00177e68       ??$type_case_integer_parse_into_buffer@_K$09@?$output_processor@DV?$string_output_adapter@D@__crt_stdio_output@@V?$standard_base@DV?$string_output_adapter@D@__crt_stdio_output@@@2@@__crt_stdio_output@@AEAAX_K_N@Z 0000000180178e68 f i libucrt:output.obj
 0001:00177f14       ??$type_case_integer_parse_into_buffer@_K$09@?$output_processor@_WV?$stream_output_adapter@_W@__crt_stdio_output@@V?$format_validation_base@_WV?$stream_output_adapter@_W@__crt_stdio_output@@@2@@__crt_stdio_output@@AEAAX_K_N@Z 0000000180178f14 f i libucrt:output.obj
 0001:00177fd4       ??$type_case_integer_parse_into_buffer@_K$09@?$output_processor@_WV?$stream_output_adapter@_W@__crt_stdio_output@@V?$positional_parameter_base@_WV?$stream_output_adapter@_W@__crt_stdio_output@@@2@@__crt_stdio_output@@AEAAX_K_N@Z 0000000180178fd4 f i libucrt:output.obj
 0001:00178094       ??$type_case_integer_parse_into_buffer@_K$09@?$output_processor@_WV?$stream_output_adapter@_W@__crt_stdio_output@@V?$standard_base@_WV?$stream_output_adapter@_W@__crt_stdio_output@@@2@@__crt_stdio_output@@AEAAX_K_N@Z 0000000180179094 f i libucrt:output.obj
 0001:00178154       ??$type_case_integer_parse_into_buffer@_K$09@?$output_processor@_WV?$string_output_adapter@_W@__crt_stdio_output@@V?$format_validation_base@_WV?$string_output_adapter@_W@__crt_stdio_output@@@2@@__crt_stdio_output@@AEAAX_K_N@Z 0000000180179154 f i libucrt:output.obj
 0001:00178214       ??$type_case_integer_parse_into_buffer@_K$09@?$output_processor@_WV?$string_output_adapter@_W@__crt_stdio_output@@V?$positional_parameter_base@_WV?$string_output_adapter@_W@__crt_stdio_output@@@2@@__crt_stdio_output@@AEAAX_K_N@Z 0000000180179214 f i libucrt:output.obj
 0001:001782d4       ??$type_case_integer_parse_into_buffer@_K$09@?$output_processor@_WV?$string_output_adapter@_W@__crt_stdio_output@@V?$standard_base@_WV?$string_output_adapter@_W@__crt_stdio_output@@@2@@__crt_stdio_output@@AEAAX_K_N@Z 00000001801792d4 f i libucrt:output.obj
 0001:00178394       ??$type_case_integer_parse_into_buffer@_K$0BA@@?$output_processor@DV?$stream_output_adapter@D@__crt_stdio_output@@V?$format_validation_base@DV?$stream_output_adapter@D@__crt_stdio_output@@@2@@__crt_stdio_output@@AEAAX_K_N@Z 0000000180179394 f i libucrt:output.obj
 0001:00178420       ??$type_case_integer_parse_into_buffer@_K$0BA@@?$output_processor@DV?$stream_output_adapter@D@__crt_stdio_output@@V?$positional_parameter_base@DV?$stream_output_adapter@D@__crt_stdio_output@@@2@@__crt_stdio_output@@AEAAX_K_N@Z 0000000180179420 f i libucrt:output.obj
 0001:001784ac       ??$type_case_integer_parse_into_buffer@_K$0BA@@?$output_processor@DV?$stream_output_adapter@D@__crt_stdio_output@@V?$standard_base@DV?$stream_output_adapter@D@__crt_stdio_output@@@2@@__crt_stdio_output@@AEAAX_K_N@Z 00000001801794ac f i libucrt:output.obj
 0001:00178538       ??$type_case_integer_parse_into_buffer@_K$0BA@@?$output_processor@DV?$string_output_adapter@D@__crt_stdio_output@@V?$format_validation_base@DV?$string_output_adapter@D@__crt_stdio_output@@@2@@__crt_stdio_output@@AEAAX_K_N@Z 0000000180179538 f i libucrt:output.obj
 0001:001785c4       ??$type_case_integer_parse_into_buffer@_K$0BA@@?$output_processor@DV?$string_output_adapter@D@__crt_stdio_output@@V?$positional_parameter_base@DV?$string_output_adapter@D@__crt_stdio_output@@@2@@__crt_stdio_output@@AEAAX_K_N@Z 00000001801795c4 f i libucrt:output.obj
 0001:00178650       ??$type_case_integer_parse_into_buffer@_K$0BA@@?$output_processor@DV?$string_output_adapter@D@__crt_stdio_output@@V?$standard_base@DV?$string_output_adapter@D@__crt_stdio_output@@@2@@__crt_stdio_output@@AEAAX_K_N@Z 0000000180179650 f i libucrt:output.obj
 0001:001786dc       ??$type_case_integer_parse_into_buffer@_K$0BA@@?$output_processor@_WV?$stream_output_adapter@_W@__crt_stdio_output@@V?$format_validation_base@_WV?$stream_output_adapter@_W@__crt_stdio_output@@@2@@__crt_stdio_output@@AEAAX_K_N@Z 00000001801796dc f i libucrt:output.obj
 0001:00178780       ??$type_case_integer_parse_into_buffer@_K$0BA@@?$output_processor@_WV?$stream_output_adapter@_W@__crt_stdio_output@@V?$positional_parameter_base@_WV?$stream_output_adapter@_W@__crt_stdio_output@@@2@@__crt_stdio_output@@AEAAX_K_N@Z 0000000180179780 f i libucrt:output.obj
 0001:00178824       ??$type_case_integer_parse_into_buffer@_K$0BA@@?$output_processor@_WV?$stream_output_adapter@_W@__crt_stdio_output@@V?$standard_base@_WV?$stream_output_adapter@_W@__crt_stdio_output@@@2@@__crt_stdio_output@@AEAAX_K_N@Z 0000000180179824 f i libucrt:output.obj
 0001:001788c8       ??$type_case_integer_parse_into_buffer@_K$0BA@@?$output_processor@_WV?$string_output_adapter@_W@__crt_stdio_output@@V?$format_validation_base@_WV?$string_output_adapter@_W@__crt_stdio_output@@@2@@__crt_stdio_output@@AEAAX_K_N@Z 00000001801798c8 f i libucrt:output.obj
 0001:0017896c       ??$type_case_integer_parse_into_buffer@_K$0BA@@?$output_processor@_WV?$string_output_adapter@_W@__crt_stdio_output@@V?$positional_parameter_base@_WV?$string_output_adapter@_W@__crt_stdio_output@@@2@@__crt_stdio_output@@AEAAX_K_N@Z 000000018017996c f i libucrt:output.obj
 0001:00178a10       ??$type_case_integer_parse_into_buffer@_K$0BA@@?$output_processor@_WV?$string_output_adapter@_W@__crt_stdio_output@@V?$standard_base@_WV?$string_output_adapter@_W@__crt_stdio_output@@@2@@__crt_stdio_output@@AEAAX_K_N@Z 0000000180179a10 f i libucrt:output.obj
 0001:00178ab4       ??$write_multiple_characters@V?$stream_output_adapter@D@__crt_stdio_output@@D@__crt_stdio_output@@YAXAEBV?$stream_output_adapter@D@0@DHQEAHAEAV__crt_cached_ptd_host@@@Z 0000000180179ab4 f i libucrt:output.obj
 0001:00178b44       ??$write_multiple_characters@V?$stream_output_adapter@_W@__crt_stdio_output@@D@__crt_stdio_output@@YAXAEBV?$stream_output_adapter@_W@0@DHQEAHAEAV__crt_cached_ptd_host@@@Z 0000000180179b44 f i libucrt:output.obj
 0001:00178bdc       ??$write_multiple_characters@V?$string_output_adapter@D@__crt_stdio_output@@D@__crt_stdio_output@@YAXAEBV?$string_output_adapter@D@0@DHQEAHAEAV__crt_cached_ptd_host@@@Z 0000000180179bdc f i libucrt:output.obj
 0001:00178c54       ??$write_multiple_characters@V?$string_output_adapter@_W@__crt_stdio_output@@D@__crt_stdio_output@@YAXAEBV?$string_output_adapter@_W@0@DHQEAHAEAV__crt_cached_ptd_host@@@Z 0000000180179c54 f i libucrt:output.obj
 0001:00178e34       ??0?$c_string_character_source@D@__crt_strtox@@QEAA@QEBDQEAPEBD@Z 0000000180179e34 f i libucrt:output.obj
 0001:00178e48       ??0?$c_string_character_source@_W@__crt_strtox@@QEAA@QEB_WQEAPEB_W@Z 0000000180179e48 f i libucrt:output.obj
 0001:00178e5c       ??0?$cached@H@__crt_cached_ptd_host@@QEAA@XZ 0000000180179e5c f i libucrt:output.obj
 0001:00178e64       ??0?$cached@K@__crt_cached_ptd_host@@QEAA@XZ 0000000180179e64 f i libucrt:output.obj
 0001:00178e6c       ??0?$common_data@D@__crt_stdio_output@@IEAA@AEAV__crt_cached_ptd_host@@@Z 0000000180179e6c f i libucrt:output.obj
 0001:00178ea8       ??0?$common_data@_W@__crt_stdio_output@@IEAA@AEAV__crt_cached_ptd_host@@@Z 0000000180179ea8 f i libucrt:output.obj
 0001:00178ee8       ??0?$output_adapter_data@DV?$stream_output_adapter@D@__crt_stdio_output@@@__crt_stdio_output@@IEAA@AEBV?$stream_output_adapter@D@1@_KQEBDAEAV__crt_cached_ptd_host@@QEAD@Z 0000000180179ee8 f i libucrt:output.obj
 0001:00178f48       ??0?$output_adapter_data@DV?$string_output_adapter@D@__crt_stdio_output@@@__crt_stdio_output@@IEAA@AEBV?$string_output_adapter@D@1@_KQEBDAEAV__crt_cached_ptd_host@@QEAD@Z 0000000180179f48 f i libucrt:output.obj
 0001:00178fa8       ??0?$output_adapter_data@_WV?$stream_output_adapter@_W@__crt_stdio_output@@@__crt_stdio_output@@IEAA@AEBV?$stream_output_adapter@_W@1@_KQEB_WAEAV__crt_cached_ptd_host@@QEAD@Z 0000000180179fa8 f i libucrt:output.obj
 0001:0017900c       ??0?$output_adapter_data@_WV?$string_output_adapter@_W@__crt_stdio_output@@@__crt_stdio_output@@IEAA@AEBV?$string_output_adapter@_W@1@_KQEB_WAEAV__crt_cached_ptd_host@@QEAD@Z 000000018017a00c f i libucrt:output.obj
 0001:00179070       ??0?$output_processor@DV?$stream_output_adapter@D@__crt_stdio_output@@V?$format_validation_base@DV?$stream_output_adapter@D@__crt_stdio_output@@@2@@__crt_stdio_output@@QEAA@AEBV?$stream_output_adapter@D@1@_KQEBDAEAV__crt_cached_ptd_host@@QEAD@Z 000000018017a070 f i libucrt:output.obj
 0001:001790d8       ??0?$output_processor@DV?$stream_output_adapter@D@__crt_stdio_output@@V?$positional_parameter_base@DV?$stream_output_adapter@D@__crt_stdio_output@@@2@@__crt_stdio_output@@QEAA@AEBV?$stream_output_adapter@D@1@_KQEBDAEAV__crt_cached_ptd_host@@QEAD@Z 000000018017a0d8 f i libucrt:output.obj
 0001:0017915c       ??0?$output_processor@DV?$stream_output_adapter@D@__crt_stdio_output@@V?$standard_base@DV?$stream_output_adapter@D@__crt_stdio_output@@@2@@__crt_stdio_output@@QEAA@AEBV?$stream_output_adapter@D@1@_KQEBDAEAV__crt_cached_ptd_host@@QEAD@Z 000000018017a15c f i libucrt:output.obj
 0001:001791c4       ??0?$output_processor@DV?$string_output_adapter@D@__crt_stdio_output@@V?$format_validation_base@DV?$string_output_adapter@D@__crt_stdio_output@@@2@@__crt_stdio_output@@QEAA@AEBV?$string_output_adapter@D@1@_KQEBDAEAV__crt_cached_ptd_host@@QEAD@Z 000000018017a1c4 f i libucrt:output.obj
 0001:0017922c       ??0?$output_processor@DV?$string_output_adapter@D@__crt_stdio_output@@V?$positional_parameter_base@DV?$string_output_adapter@D@__crt_stdio_output@@@2@@__crt_stdio_output@@QEAA@AEBV?$string_output_adapter@D@1@_KQEBDAEAV__crt_cached_ptd_host@@QEAD@Z 000000018017a22c f i libucrt:output.obj
 0001:001792b0       ??0?$output_processor@DV?$string_output_adapter@D@__crt_stdio_output@@V?$standard_base@DV?$string_output_adapter@D@__crt_stdio_output@@@2@@__crt_stdio_output@@QEAA@AEBV?$string_output_adapter@D@1@_KQEBDAEAV__crt_cached_ptd_host@@QEAD@Z 000000018017a2b0 f i libucrt:output.obj
 0001:00179318       ??0?$output_processor@_WV?$stream_output_adapter@_W@__crt_stdio_output@@V?$format_validation_base@_WV?$stream_output_adapter@_W@__crt_stdio_output@@@2@@__crt_stdio_output@@QEAA@AEBV?$stream_output_adapter@_W@1@_KQEB_WAEAV__crt_cached_ptd_host@@QEAD@Z 000000018017a318 f i libucrt:output.obj
 0001:00179384       ??0?$output_processor@_WV?$stream_output_adapter@_W@__crt_stdio_output@@V?$positional_parameter_base@_WV?$stream_output_adapter@_W@__crt_stdio_output@@@2@@__crt_stdio_output@@QEAA@AEBV?$stream_output_adapter@_W@1@_KQEB_WAEAV__crt_cached_ptd_host@@QEAD@Z 000000018017a384 f i libucrt:output.obj
 0001:0017940c       ??0?$output_processor@_WV?$stream_output_adapter@_W@__crt_stdio_output@@V?$standard_base@_WV?$stream_output_adapter@_W@__crt_stdio_output@@@2@@__crt_stdio_output@@QEAA@AEBV?$stream_output_adapter@_W@1@_KQEB_WAEAV__crt_cached_ptd_host@@QEAD@Z 000000018017a40c f i libucrt:output.obj
 0001:00179478       ??0?$output_processor@_WV?$string_output_adapter@_W@__crt_stdio_output@@V?$format_validation_base@_WV?$string_output_adapter@_W@__crt_stdio_output@@@2@@__crt_stdio_output@@QEAA@AEBV?$string_output_adapter@_W@1@_KQEB_WAEAV__crt_cached_ptd_host@@QEAD@Z 000000018017a478 f i libucrt:output.obj
 0001:001794e4       ??0?$output_processor@_WV?$string_output_adapter@_W@__crt_stdio_output@@V?$positional_parameter_base@_WV?$string_output_adapter@_W@__crt_stdio_output@@@2@@__crt_stdio_output@@QEAA@AEBV?$string_output_adapter@_W@1@_KQEB_WAEAV__crt_cached_ptd_host@@QEAD@Z 000000018017a4e4 f i libucrt:output.obj
 0001:0017956c       ??0?$output_processor@_WV?$string_output_adapter@_W@__crt_stdio_output@@V?$standard_base@_WV?$string_output_adapter@_W@__crt_stdio_output@@@2@@__crt_stdio_output@@QEAA@AEBV?$string_output_adapter@_W@1@_KQEB_WAEAV__crt_cached_ptd_host@@QEAD@Z 000000018017a56c f i libucrt:output.obj
 0001:001795d8       ??0?$stream_output_adapter@D@__crt_stdio_output@@QEAA@QEAU_iobuf@@@Z 000000018017a5d8 f i libucrt:output.obj
 0001:001795e0       ??0?$stream_output_adapter@_W@__crt_stdio_output@@QEAA@QEAU_iobuf@@@Z 000000018017a5e0 f i libucrt:output.obj
 0001:001795e8       ??0?$string_output_adapter@D@__crt_stdio_output@@QEAA@QEAU?$string_output_adapter_context@D@1@@Z 000000018017a5e8 f i libucrt:output.obj
 0001:001795f0       ??0?$string_output_adapter@_W@__crt_stdio_output@@QEAA@QEAU?$string_output_adapter_context@_W@1@@Z 000000018017a5f0 f i libucrt:output.obj
 0001:001795f8       ??0__acrt_stdio_temporary_buffering_guard@@QEAA@QEAU_iobuf@@AEAV__crt_cached_ptd_host@@@Z 000000018017a5f8 f i libucrt:output.obj
 0001:00179620       ??0__crt_cached_ptd_host@@QEAA@QEAU__crt_locale_pointers@@@Z 000000018017a620 f i libucrt:output.obj
 0001:00179668       ??0__crt_scoped_get_last_error_reset@@QEAA@XZ 000000018017a668 f i libucrt:output.obj
 0001:00179684       ??0__crt_stdio_stream@@QEAA@QEAU_iobuf@@@Z 000000018017a684 f i libucrt:output.obj
 0001:0017968c       ??0formatting_buffer@__crt_stdio_output@@QEAA@XZ 000000018017a68c f i libucrt:output.obj
 0001:001796a0       ??0guard@?$cached@H@__crt_cached_ptd_host@@QEAA@AEAU12@@Z 000000018017a6a0 f i libucrt:output.obj
 0001:001796b4       ??1?$c_string_character_source@D@__crt_strtox@@QEAA@XZ 000000018017a6b4 f i libucrt:output.obj
 0001:001796c4       ??1?$c_string_character_source@_W@__crt_strtox@@QEAA@XZ 000000018017a6c4 f i libucrt:output.obj
 0001:001796d4       ??1?$common_data@D@__crt_stdio_output@@QEAA@XZ 000000018017a6d4 f i libucrt:output.obj
 0001:001796f8       ??1?$common_data@_W@__crt_stdio_output@@QEAA@XZ 000000018017a6f8 f i libucrt:output.obj
 0001:0017971c       ??1?$format_validation_base@DV?$stream_output_adapter@D@__crt_stdio_output@@@__crt_stdio_output@@QEAA@XZ 000000018017a71c f i libucrt:output.obj
 0001:00179740       ??1?$format_validation_base@DV?$string_output_adapter@D@__crt_stdio_output@@@__crt_stdio_output@@QEAA@XZ 000000018017a740 f i libucrt:output.obj
 0001:00179764       ??1?$format_validation_base@_WV?$stream_output_adapter@_W@__crt_stdio_output@@@__crt_stdio_output@@QEAA@XZ 000000018017a764 f i libucrt:output.obj
 0001:00179788       ??1?$format_validation_base@_WV?$string_output_adapter@_W@__crt_stdio_output@@@__crt_stdio_output@@QEAA@XZ 000000018017a788 f i libucrt:output.obj
 0001:001797ac       ??1?$output_adapter_data@DV?$stream_output_adapter@D@__crt_stdio_output@@@__crt_stdio_output@@QEAA@XZ 000000018017a7ac f i libucrt:output.obj
 0001:001797d0       ??1?$output_adapter_data@DV?$string_output_adapter@D@__crt_stdio_output@@@__crt_stdio_output@@QEAA@XZ 000000018017a7d0 f i libucrt:output.obj
 0001:001797f4       ??1?$output_adapter_data@_WV?$stream_output_adapter@_W@__crt_stdio_output@@@__crt_stdio_output@@QEAA@XZ 000000018017a7f4 f i libucrt:output.obj
 0001:00179818       ??1?$output_adapter_data@_WV?$string_output_adapter@_W@__crt_stdio_output@@@__crt_stdio_output@@QEAA@XZ 000000018017a818 f i libucrt:output.obj
 0001:0017983c       ??1?$output_processor@DV?$stream_output_adapter@D@__crt_stdio_output@@V?$format_validation_base@DV?$stream_output_adapter@D@__crt_stdio_output@@@2@@__crt_stdio_output@@QEAA@XZ 000000018017a83c f i libucrt:output.obj
 0001:00179860       ??1?$output_processor@DV?$stream_output_adapter@D@__crt_stdio_output@@V?$positional_parameter_base@DV?$stream_output_adapter@D@__crt_stdio_output@@@2@@__crt_stdio_output@@QEAA@XZ 000000018017a860 f i libucrt:output.obj
 0001:00179884       ??1?$output_processor@DV?$stream_output_adapter@D@__crt_stdio_output@@V?$standard_base@DV?$stream_output_adapter@D@__crt_stdio_output@@@2@@__crt_stdio_output@@QEAA@XZ 000000018017a884 f i libucrt:output.obj
 0001:001798a8       ??1?$output_processor@DV?$string_output_adapter@D@__crt_stdio_output@@V?$format_validation_base@DV?$string_output_adapter@D@__crt_stdio_output@@@2@@__crt_stdio_output@@QEAA@XZ 000000018017a8a8 f i libucrt:output.obj
 0001:001798cc       ??1?$output_processor@DV?$string_output_adapter@D@__crt_stdio_output@@V?$positional_parameter_base@DV?$string_output_adapter@D@__crt_stdio_output@@@2@@__crt_stdio_output@@QEAA@XZ 000000018017a8cc f i libucrt:output.obj
 0001:001798f0       ??1?$output_processor@DV?$string_output_adapter@D@__crt_stdio_output@@V?$standard_base@DV?$string_output_adapter@D@__crt_stdio_output@@@2@@__crt_stdio_output@@QEAA@XZ 000000018017a8f0 f i libucrt:output.obj
 0001:00179914       ??1?$output_processor@_WV?$stream_output_adapter@_W@__crt_stdio_output@@V?$format_validation_base@_WV?$stream_output_adapter@_W@__crt_stdio_output@@@2@@__crt_stdio_output@@QEAA@XZ 000000018017a914 f i libucrt:output.obj
 0001:00179938       ??1?$output_processor@_WV?$stream_output_adapter@_W@__crt_stdio_output@@V?$positional_parameter_base@_WV?$stream_output_adapter@_W@__crt_stdio_output@@@2@@__crt_stdio_output@@QEAA@XZ 000000018017a938 f i libucrt:output.obj
 0001:0017995c       ??1?$output_processor@_WV?$stream_output_adapter@_W@__crt_stdio_output@@V?$standard_base@_WV?$stream_output_adapter@_W@__crt_stdio_output@@@2@@__crt_stdio_output@@QEAA@XZ 000000018017a95c f i libucrt:output.obj
 0001:00179980       ??1?$output_processor@_WV?$string_output_adapter@_W@__crt_stdio_output@@V?$format_validation_base@_WV?$string_output_adapter@_W@__crt_stdio_output@@@2@@__crt_stdio_output@@QEAA@XZ 000000018017a980 f i libucrt:output.obj
 0001:001799a4       ??1?$output_processor@_WV?$string_output_adapter@_W@__crt_stdio_output@@V?$positional_parameter_base@_WV?$string_output_adapter@_W@__crt_stdio_output@@@2@@__crt_stdio_output@@QEAA@XZ 000000018017a9a4 f i libucrt:output.obj
 0001:001799c8       ??1?$output_processor@_WV?$string_output_adapter@_W@__crt_stdio_output@@V?$standard_base@_WV?$string_output_adapter@_W@__crt_stdio_output@@@2@@__crt_stdio_output@@QEAA@XZ 000000018017a9c8 f i libucrt:output.obj
 0001:001799ec       ??1?$positional_parameter_base@DV?$stream_output_adapter@D@__crt_stdio_output@@@__crt_stdio_output@@QEAA@XZ 000000018017a9ec f i libucrt:output.obj
 0001:00179a10       ??1?$positional_parameter_base@DV?$string_output_adapter@D@__crt_stdio_output@@@__crt_stdio_output@@QEAA@XZ 000000018017aa10 f i libucrt:output.obj
 0001:00179a34       ??1?$positional_parameter_base@_WV?$stream_output_adapter@_W@__crt_stdio_output@@@__crt_stdio_output@@QEAA@XZ 000000018017aa34 f i libucrt:output.obj
 0001:00179a58       ??1?$positional_parameter_base@_WV?$string_output_adapter@_W@__crt_stdio_output@@@__crt_stdio_output@@QEAA@XZ 000000018017aa58 f i libucrt:output.obj
 0001:00179a7c       ??1?$standard_base@DV?$stream_output_adapter@D@__crt_stdio_output@@@__crt_stdio_output@@QEAA@XZ 000000018017aa7c f i libucrt:output.obj
 0001:00179aa0       ??1?$standard_base@DV?$string_output_adapter@D@__crt_stdio_output@@@__crt_stdio_output@@QEAA@XZ 000000018017aaa0 f i libucrt:output.obj
 0001:00179ac4       ??1?$standard_base@_WV?$stream_output_adapter@_W@__crt_stdio_output@@@__crt_stdio_output@@QEAA@XZ 000000018017aac4 f i libucrt:output.obj
 0001:00179ae8       ??1?$standard_base@_WV?$string_output_adapter@_W@__crt_stdio_output@@@__crt_stdio_output@@QEAA@XZ 000000018017aae8 f i libucrt:output.obj
 0001:00179b0c       ??1__acrt_stdio_temporary_buffering_guard@@QEAA@XZ 000000018017ab0c f i libucrt:output.obj
 0001:00179b20       ??1__crt_cached_ptd_host@@QEAA@XZ 000000018017ab20 f i libucrt:output.obj
 0001:00179b70       ??1__crt_scoped_get_last_error_reset@@QEAA@XZ 000000018017ab70 f i libucrt:output.obj
 0001:00179b7c       ??1formatting_buffer@__crt_stdio_output@@QEAA@XZ 000000018017ab7c f i libucrt:output.obj
 0001:00179ba0       ??1guard@?$cached@H@__crt_cached_ptd_host@@QEAA@XZ 000000018017aba0 f i libucrt:output.obj
 0001:00179bb4       ??4?$__crt_unique_heap_ptr@DU__crt_internal_free_policy@@@@QEAAAEAV0@$$QEAV0@@Z 000000018017abb4 f i libucrt:output.obj
 0001:00179be8       ??A?$spectre_mitigated_lookup_table@Ustate_transition_pair@__crt_stdio_output@@$0IA@@__crt_stdio_output@@QEBAAEBUstate_transition_pair@1@_K@Z 000000018017abe8 f i libucrt:output.obj
 0001:00179bf0       ??C__crt_stdio_stream@@QEBAPEAU__crt_stdio_stream_data@@XZ 000000018017abf0 f i libucrt:output.obj
 0001:0017a338       ?adjust_hexit@?$output_processor@DV?$stream_output_adapter@D@__crt_stdio_output@@V?$format_validation_base@DV?$stream_output_adapter@D@__crt_stdio_output@@@2@@__crt_stdio_output@@CADH_N@Z 000000018017b338 f i libucrt:output.obj
 0001:0017a344       ?adjust_hexit@?$output_processor@DV?$stream_output_adapter@D@__crt_stdio_output@@V?$positional_parameter_base@DV?$stream_output_adapter@D@__crt_stdio_output@@@2@@__crt_stdio_output@@CADH_N@Z 000000018017b344 f i libucrt:output.obj
 0001:0017a350       ?adjust_hexit@?$output_processor@DV?$stream_output_adapter@D@__crt_stdio_output@@V?$standard_base@DV?$stream_output_adapter@D@__crt_stdio_output@@@2@@__crt_stdio_output@@CADH_N@Z 000000018017b350 f i libucrt:output.obj
 0001:0017a35c       ?adjust_hexit@?$output_processor@DV?$string_output_adapter@D@__crt_stdio_output@@V?$format_validation_base@DV?$string_output_adapter@D@__crt_stdio_output@@@2@@__crt_stdio_output@@CADH_N@Z 000000018017b35c f i libucrt:output.obj
 0001:0017a368       ?adjust_hexit@?$output_processor@DV?$string_output_adapter@D@__crt_stdio_output@@V?$positional_parameter_base@DV?$string_output_adapter@D@__crt_stdio_output@@@2@@__crt_stdio_output@@CADH_N@Z 000000018017b368 f i libucrt:output.obj
 0001:0017a374       ?adjust_hexit@?$output_processor@DV?$string_output_adapter@D@__crt_stdio_output@@V?$standard_base@DV?$string_output_adapter@D@__crt_stdio_output@@@2@@__crt_stdio_output@@CADH_N@Z 000000018017b374 f i libucrt:output.obj
 0001:0017a380       ?adjust_hexit@?$output_processor@_WV?$stream_output_adapter@_W@__crt_stdio_output@@V?$format_validation_base@_WV?$stream_output_adapter@_W@__crt_stdio_output@@@2@@__crt_stdio_output@@CADH_N@Z 000000018017b380 f i libucrt:output.obj
 0001:0017a38c       ?adjust_hexit@?$output_processor@_WV?$stream_output_adapter@_W@__crt_stdio_output@@V?$positional_parameter_base@_WV?$stream_output_adapter@_W@__crt_stdio_output@@@2@@__crt_stdio_output@@CADH_N@Z 000000018017b38c f i libucrt:output.obj
 0001:0017a398       ?adjust_hexit@?$output_processor@_WV?$stream_output_adapter@_W@__crt_stdio_output@@V?$standard_base@_WV?$stream_output_adapter@_W@__crt_stdio_output@@@2@@__crt_stdio_output@@CADH_N@Z 000000018017b398 f i libucrt:output.obj
 0001:0017a3a4       ?adjust_hexit@?$output_processor@_WV?$string_output_adapter@_W@__crt_stdio_output@@V?$format_validation_base@_WV?$string_output_adapter@_W@__crt_stdio_output@@@2@@__crt_stdio_output@@CADH_N@Z 000000018017b3a4 f i libucrt:output.obj
 0001:0017a3b0       ?adjust_hexit@?$output_processor@_WV?$string_output_adapter@_W@__crt_stdio_output@@V?$positional_parameter_base@_WV?$string_output_adapter@_W@__crt_stdio_output@@@2@@__crt_stdio_output@@CADH_N@Z 000000018017b3b0 f i libucrt:output.obj
 0001:0017a3bc       ?adjust_hexit@?$output_processor@_WV?$string_output_adapter@_W@__crt_stdio_output@@V?$standard_base@_WV?$string_output_adapter@_W@__crt_stdio_output@@@2@@__crt_stdio_output@@CADH_N@Z 000000018017b3bc f i libucrt:output.obj
 0001:0017a3c8       ?advance_to_next_pass@?$positional_parameter_base@DV?$stream_output_adapter@D@__crt_stdio_output@@@__crt_stdio_output@@IEAA_NXZ 000000018017b3c8 f i libucrt:output.obj
 0001:0017a418       ?advance_to_next_pass@?$positional_parameter_base@DV?$string_output_adapter@D@__crt_stdio_output@@@__crt_stdio_output@@IEAA_NXZ 000000018017b418 f i libucrt:output.obj
 0001:0017a468       ?advance_to_next_pass@?$positional_parameter_base@_WV?$stream_output_adapter@_W@__crt_stdio_output@@@__crt_stdio_output@@IEAA_NXZ 000000018017b468 f i libucrt:output.obj
 0001:0017a4b8       ?advance_to_next_pass@?$positional_parameter_base@_WV?$string_output_adapter@_W@__crt_stdio_output@@@__crt_stdio_output@@IEAA_NXZ 000000018017b4b8 f i libucrt:output.obj
 0001:0017a508       ?advance_to_next_pass@?$standard_base@DV?$stream_output_adapter@D@__crt_stdio_output@@@__crt_stdio_output@@IEAA_NXZ 000000018017b508 f i libucrt:output.obj
 0001:0017a51c       ?advance_to_next_pass@?$standard_base@DV?$string_output_adapter@D@__crt_stdio_output@@@__crt_stdio_output@@IEAA_NXZ 000000018017b51c f i libucrt:output.obj
 0001:0017a530       ?advance_to_next_pass@?$standard_base@_WV?$stream_output_adapter@_W@__crt_stdio_output@@@__crt_stdio_output@@IEAA_NXZ 000000018017b530 f i libucrt:output.obj
 0001:0017a544       ?advance_to_next_pass@?$standard_base@_WV?$string_output_adapter@_W@__crt_stdio_output@@@__crt_stdio_output@@IEAA_NXZ 000000018017b544 f i libucrt:output.obj
 0001:0017a558       ?check@?$cached@H@__crt_cached_ptd_host@@QEBA_NH@Z 000000018017b558 f i libucrt:output.obj
 0001:0017a570       ?check_synchronize_global_state_index@__crt_cached_ptd_host@@AEAA_KAEBV__crt_scoped_get_last_error_reset@@@Z 000000018017b570 f i libucrt:output.obj
 0001:0017a590       ?check_synchronize_per_thread_data@__crt_cached_ptd_host@@AEAAPEAU__acrt_ptd@@XZ 000000018017b590 f i libucrt:output.obj
 0001:0017a5f8       ?create_guard@?$cached@H@__crt_cached_ptd_host@@QEAA?AVguard@12@XZ 000000018017b5f8 f i libucrt:output.obj
 0001:0017a60c       ?crop_zeroes@__crt_stdio_output@@YAXPEADQEAU__crt_locale_pointers@@@Z 000000018017b60c f i libucrt:output.obj
 0001:0017a678       ?disable@guard@?$cached@H@__crt_cached_ptd_host@@QEAAXXZ 000000018017b678 f i libucrt:output.obj
 0001:0017a680       ?enable@guard@?$cached@H@__crt_cached_ptd_host@@QEAAXXZ 000000018017b680 f i libucrt:output.obj
 0001:0017a688       ?find_next_state@?$output_processor@DV?$stream_output_adapter@D@__crt_stdio_output@@V?$format_validation_base@DV?$stream_output_adapter@D@__crt_stdio_output@@@2@@__crt_stdio_output@@AEBA?AW4state@2@DW432@@Z 000000018017b688 f i libucrt:output.obj
 0001:0017a6c0       ?find_next_state@?$output_processor@DV?$stream_output_adapter@D@__crt_stdio_output@@V?$positional_parameter_base@DV?$stream_output_adapter@D@__crt_stdio_output@@@2@@__crt_stdio_output@@AEBA?AW4state@2@DW432@@Z 000000018017b6c0 f i libucrt:output.obj
 0001:0017a6f8       ?find_next_state@?$output_processor@DV?$stream_output_adapter@D@__crt_stdio_output@@V?$standard_base@DV?$stream_output_adapter@D@__crt_stdio_output@@@2@@__crt_stdio_output@@AEBA?AW4state@2@DW432@@Z 000000018017b6f8 f i libucrt:output.obj
 0001:0017a72c       ?find_next_state@?$output_processor@DV?$string_output_adapter@D@__crt_stdio_output@@V?$format_validation_base@DV?$string_output_adapter@D@__crt_stdio_output@@@2@@__crt_stdio_output@@AEBA?AW4state@2@DW432@@Z 000000018017b72c f i libucrt:output.obj
 0001:0017a764       ?find_next_state@?$output_processor@DV?$string_output_adapter@D@__crt_stdio_output@@V?$positional_parameter_base@DV?$string_output_adapter@D@__crt_stdio_output@@@2@@__crt_stdio_output@@AEBA?AW4state@2@DW432@@Z 000000018017b764 f i libucrt:output.obj
 0001:0017a79c       ?find_next_state@?$output_processor@DV?$string_output_adapter@D@__crt_stdio_output@@V?$standard_base@DV?$string_output_adapter@D@__crt_stdio_output@@@2@@__crt_stdio_output@@AEBA?AW4state@2@DW432@@Z 000000018017b79c f i libucrt:output.obj
 0001:0017a7d0       ?find_next_state@?$output_processor@_WV?$stream_output_adapter@_W@__crt_stdio_output@@V?$format_validation_base@_WV?$stream_output_adapter@_W@__crt_stdio_output@@@2@@__crt_stdio_output@@AEBA?AW4state@2@_WW432@@Z 000000018017b7d0 f i libucrt:output.obj
 0001:0017a810       ?find_next_state@?$output_processor@_WV?$stream_output_adapter@_W@__crt_stdio_output@@V?$positional_parameter_base@_WV?$stream_output_adapter@_W@__crt_stdio_output@@@2@@__crt_stdio_output@@AEBA?AW4state@2@_WW432@@Z 000000018017b810 f i libucrt:output.obj
 0001:0017a850       ?find_next_state@?$output_processor@_WV?$stream_output_adapter@_W@__crt_stdio_output@@V?$standard_base@_WV?$stream_output_adapter@_W@__crt_stdio_output@@@2@@__crt_stdio_output@@AEBA?AW4state@2@_WW432@@Z 000000018017b850 f i libucrt:output.obj
 0001:0017a88c       ?find_next_state@?$output_processor@_WV?$string_output_adapter@_W@__crt_stdio_output@@V?$format_validation_base@_WV?$string_output_adapter@_W@__crt_stdio_output@@@2@@__crt_stdio_output@@AEBA?AW4state@2@_WW432@@Z 000000018017b88c f i libucrt:output.obj
 0001:0017a8cc       ?find_next_state@?$output_processor@_WV?$string_output_adapter@_W@__crt_stdio_output@@V?$positional_parameter_base@_WV?$string_output_adapter@_W@__crt_stdio_output@@@2@@__crt_stdio_output@@AEBA?AW4state@2@_WW432@@Z 000000018017b8cc f i libucrt:output.obj
 0001:0017a90c       ?find_next_state@?$output_processor@_WV?$string_output_adapter@_W@__crt_stdio_output@@V?$standard_base@_WV?$string_output_adapter@_W@__crt_stdio_output@@@2@@__crt_stdio_output@@AEBA?AW4state@2@_WW432@@Z 000000018017b90c f i libucrt:output.obj
 0001:0017a948       ?force_decimal_point@__crt_stdio_output@@YAXPEADQEAU__crt_locale_pointers@@@Z 000000018017b948 f i libucrt:output.obj
 0001:0017a9b0       ?force_synchronize_global_state_index@__crt_cached_ptd_host@@AEAA_KAEBV__crt_scoped_get_last_error_reset@@@Z 000000018017b9b0 f i libucrt:output.obj
 0001:0017a9c0       ?force_synchronize_per_thread_data@__crt_cached_ptd_host@@AEAAPEAU__acrt_ptd@@XZ 000000018017b9c0 f i libucrt:output.obj
 0001:0017aa18       ?get@?$c_string_character_source@D@__crt_strtox@@QEAADXZ 000000018017ba18 f i libucrt:output.obj
 0001:0017aa24       ?get@?$c_string_character_source@_W@__crt_strtox@@QEAA_WXZ 000000018017ba24 f i libucrt:output.obj
 0001:0017aa34       ?get_current_state_index@__crt_state_management@@YA_KAEBV__crt_scoped_get_last_error_reset@@@Z 000000018017ba34 f i libucrt:output.obj
 0001:0017aa40       ?get_errno@__crt_cached_ptd_host@@QEAAAEAU?$cached@H@1@XZ 000000018017ba40 f i libucrt:output.obj
 0001:0017aa48       ?get_flags@__crt_stdio_stream@@QEBAJXZ 000000018017ba48 f i libucrt:output.obj
 0001:0017aa50       ?get_locale@__crt_cached_ptd_host@@QEAAPEAU__crt_locale_pointers@@XZ 000000018017ba50 f i libucrt:output.obj
 0001:0017aa78       ?get_parameter_type@?$positional_parameter_base@DV?$stream_output_adapter@D@__crt_stdio_output@@@__crt_stdio_output@@CA?AW4parameter_type@12@F@Z 000000018017ba78 f i libucrt:output.obj
 0001:0017aa80       ?get_parameter_type@?$positional_parameter_base@DV?$stream_output_adapter@D@__crt_stdio_output@@@__crt_stdio_output@@CA?AW4parameter_type@12@G@Z 000000018017ba80 f i libucrt:output.obj
 0001:0017aa88       ?get_parameter_type@?$positional_parameter_base@DV?$stream_output_adapter@D@__crt_stdio_output@@@__crt_stdio_output@@CA?AW4parameter_type@12@H@Z 000000018017ba88 f i libucrt:output.obj
 0001:0017aa90       ?get_parameter_type@?$positional_parameter_base@DV?$stream_output_adapter@D@__crt_stdio_output@@@__crt_stdio_output@@CA?AW4parameter_type@12@I@Z 000000018017ba90 f i libucrt:output.obj
 0001:0017aa98       ?get_parameter_type@?$positional_parameter_base@DV?$stream_output_adapter@D@__crt_stdio_output@@@__crt_stdio_output@@CA?AW4parameter_type@12@U_CRT_DOUBLE@@@Z 000000018017ba98 f i libucrt:output.obj
 0001:0017aaa0       ?get_parameter_type@?$positional_parameter_base@DV?$stream_output_adapter@D@__crt_stdio_output@@@__crt_stdio_output@@CA?AW4parameter_type@12@_J@Z 000000018017baa0 f i libucrt:output.obj
 0001:0017aaa8       ?get_parameter_type@?$positional_parameter_base@DV?$stream_output_adapter@D@__crt_stdio_output@@@__crt_stdio_output@@CA?AW4parameter_type@12@_K@Z 000000018017baa8 f i libucrt:output.obj
 0001:0017aab0       ?get_parameter_type@?$positional_parameter_base@DV?$stream_output_adapter@D@__crt_stdio_output@@@__crt_stdio_output@@CA?AW4parameter_type@12@_W@Z 000000018017bab0 f i libucrt:output.obj
 0001:0017aab8       ?get_parameter_type@?$positional_parameter_base@DV?$string_output_adapter@D@__crt_stdio_output@@@__crt_stdio_output@@CA?AW4parameter_type@12@F@Z 000000018017bab8 f i libucrt:output.obj
 0001:0017aac0       ?get_parameter_type@?$positional_parameter_base@DV?$string_output_adapter@D@__crt_stdio_output@@@__crt_stdio_output@@CA?AW4parameter_type@12@G@Z 000000018017bac0 f i libucrt:output.obj
 0001:0017aac8       ?get_parameter_type@?$positional_parameter_base@DV?$string_output_adapter@D@__crt_stdio_output@@@__crt_stdio_output@@CA?AW4parameter_type@12@H@Z 000000018017bac8 f i libucrt:output.obj
 0001:0017aad0       ?get_parameter_type@?$positional_parameter_base@DV?$string_output_adapter@D@__crt_stdio_output@@@__crt_stdio_output@@CA?AW4parameter_type@12@I@Z 000000018017bad0 f i libucrt:output.obj
 0001:0017aad8       ?get_parameter_type@?$positional_parameter_base@DV?$string_output_adapter@D@__crt_stdio_output@@@__crt_stdio_output@@CA?AW4parameter_type@12@U_CRT_DOUBLE@@@Z 000000018017bad8 f i libucrt:output.obj
 0001:0017aae0       ?get_parameter_type@?$positional_parameter_base@DV?$string_output_adapter@D@__crt_stdio_output@@@__crt_stdio_output@@CA?AW4parameter_type@12@_J@Z 000000018017bae0 f i libucrt:output.obj
 0001:0017aae8       ?get_parameter_type@?$positional_parameter_base@DV?$string_output_adapter@D@__crt_stdio_output@@@__crt_stdio_output@@CA?AW4parameter_type@12@_K@Z 000000018017bae8 f i libucrt:output.obj
 0001:0017aaf0       ?get_parameter_type@?$positional_parameter_base@DV?$string_output_adapter@D@__crt_stdio_output@@@__crt_stdio_output@@CA?AW4parameter_type@12@_W@Z 000000018017baf0 f i libucrt:output.obj
 0001:0017aaf8       ?get_parameter_type@?$positional_parameter_base@_WV?$stream_output_adapter@_W@__crt_stdio_output@@@__crt_stdio_output@@CA?AW4parameter_type@12@F@Z 000000018017baf8 f i libucrt:output.obj
 0001:0017ab00       ?get_parameter_type@?$positional_parameter_base@_WV?$stream_output_adapter@_W@__crt_stdio_output@@@__crt_stdio_output@@CA?AW4parameter_type@12@G@Z 000000018017bb00 f i libucrt:output.obj
 0001:0017ab08       ?get_parameter_type@?$positional_parameter_base@_WV?$stream_output_adapter@_W@__crt_stdio_output@@@__crt_stdio_output@@CA?AW4parameter_type@12@H@Z 000000018017bb08 f i libucrt:output.obj
 0001:0017ab10       ?get_parameter_type@?$positional_parameter_base@_WV?$stream_output_adapter@_W@__crt_stdio_output@@@__crt_stdio_output@@CA?AW4parameter_type@12@I@Z 000000018017bb10 f i libucrt:output.obj
 0001:0017ab18       ?get_parameter_type@?$positional_parameter_base@_WV?$stream_output_adapter@_W@__crt_stdio_output@@@__crt_stdio_output@@CA?AW4parameter_type@12@U_CRT_DOUBLE@@@Z 000000018017bb18 f i libucrt:output.obj
 0001:0017ab20       ?get_parameter_type@?$positional_parameter_base@_WV?$stream_output_adapter@_W@__crt_stdio_output@@@__crt_stdio_output@@CA?AW4parameter_type@12@_J@Z 000000018017bb20 f i libucrt:output.obj
 0001:0017ab28       ?get_parameter_type@?$positional_parameter_base@_WV?$stream_output_adapter@_W@__crt_stdio_output@@@__crt_stdio_output@@CA?AW4parameter_type@12@_K@Z 000000018017bb28 f i libucrt:output.obj
 0001:0017ab30       ?get_parameter_type@?$positional_parameter_base@_WV?$stream_output_adapter@_W@__crt_stdio_output@@@__crt_stdio_output@@CA?AW4parameter_type@12@_W@Z 000000018017bb30 f i libucrt:output.obj
 0001:0017ab38       ?get_parameter_type@?$positional_parameter_base@_WV?$string_output_adapter@_W@__crt_stdio_output@@@__crt_stdio_output@@CA?AW4parameter_type@12@F@Z 000000018017bb38 f i libucrt:output.obj
 0001:0017ab40       ?get_parameter_type@?$positional_parameter_base@_WV?$string_output_adapter@_W@__crt_stdio_output@@@__crt_stdio_output@@CA?AW4parameter_type@12@G@Z 000000018017bb40 f i libucrt:output.obj
 0001:0017ab48       ?get_parameter_type@?$positional_parameter_base@_WV?$string_output_adapter@_W@__crt_stdio_output@@@__crt_stdio_output@@CA?AW4parameter_type@12@H@Z 000000018017bb48 f i libucrt:output.obj
 0001:0017ab50       ?get_parameter_type@?$positional_parameter_base@_WV?$string_output_adapter@_W@__crt_stdio_output@@@__crt_stdio_output@@CA?AW4parameter_type@12@I@Z 000000018017bb50 f i libucrt:output.obj
 0001:0017ab58       ?get_parameter_type@?$positional_parameter_base@_WV?$string_output_adapter@_W@__crt_stdio_output@@@__crt_stdio_output@@CA?AW4parameter_type@12@U_CRT_DOUBLE@@@Z 000000018017bb58 f i libucrt:output.obj
 0001:0017ab60       ?get_parameter_type@?$positional_parameter_base@_WV?$string_output_adapter@_W@__crt_stdio_output@@@__crt_stdio_output@@CA?AW4parameter_type@12@_J@Z 000000018017bb60 f i libucrt:output.obj
 0001:0017ab68       ?get_parameter_type@?$positional_parameter_base@_WV?$string_output_adapter@_W@__crt_stdio_output@@@__crt_stdio_output@@CA?AW4parameter_type@12@_K@Z 000000018017bb68 f i libucrt:output.obj
 0001:0017ab70       ?get_parameter_type@?$positional_parameter_base@_WV?$string_output_adapter@_W@__crt_stdio_output@@@__crt_stdio_output@@CA?AW4parameter_type@12@_W@Z 000000018017bb70 f i libucrt:output.obj
 0001:0017ab80       ?get_raw_ptd@__crt_cached_ptd_host@@QEAAPEAU__acrt_ptd@@XZ 000000018017bb80 f i libucrt:output.obj
 0001:0017abe8       ?has_flag@?$output_processor@DV?$stream_output_adapter@D@__crt_stdio_output@@V?$format_validation_base@DV?$stream_output_adapter@D@__crt_stdio_output@@@2@@__crt_stdio_output@@AEBA_NI@Z 000000018017bbe8 f i libucrt:output.obj
 0001:0017abf0       ?has_flag@?$output_processor@DV?$stream_output_adapter@D@__crt_stdio_output@@V?$positional_parameter_base@DV?$stream_output_adapter@D@__crt_stdio_output@@@2@@__crt_stdio_output@@AEBA_NI@Z 000000018017bbf0 f i libucrt:output.obj
 0001:0017abf8       ?has_flag@?$output_processor@DV?$stream_output_adapter@D@__crt_stdio_output@@V?$standard_base@DV?$stream_output_adapter@D@__crt_stdio_output@@@2@@__crt_stdio_output@@AEBA_NI@Z 000000018017bbf8 f i libucrt:output.obj
 0001:0017ac00       ?has_flag@?$output_processor@DV?$string_output_adapter@D@__crt_stdio_output@@V?$format_validation_base@DV?$string_output_adapter@D@__crt_stdio_output@@@2@@__crt_stdio_output@@AEBA_NI@Z 000000018017bc00 f i libucrt:output.obj
 0001:0017ac08       ?has_flag@?$output_processor@DV?$string_output_adapter@D@__crt_stdio_output@@V?$positional_parameter_base@DV?$string_output_adapter@D@__crt_stdio_output@@@2@@__crt_stdio_output@@AEBA_NI@Z 000000018017bc08 f i libucrt:output.obj
 0001:0017ac10       ?has_flag@?$output_processor@DV?$string_output_adapter@D@__crt_stdio_output@@V?$standard_base@DV?$string_output_adapter@D@__crt_stdio_output@@@2@@__crt_stdio_output@@AEBA_NI@Z 000000018017bc10 f i libucrt:output.obj
 0001:0017ac18       ?has_flag@?$output_processor@_WV?$stream_output_adapter@_W@__crt_stdio_output@@V?$format_validation_base@_WV?$stream_output_adapter@_W@__crt_stdio_output@@@2@@__crt_stdio_output@@AEBA_NI@Z 000000018017bc18 f i libucrt:output.obj
 0001:0017ac20       ?has_flag@?$output_processor@_WV?$stream_output_adapter@_W@__crt_stdio_output@@V?$positional_parameter_base@_WV?$stream_output_adapter@_W@__crt_stdio_output@@@2@@__crt_stdio_output@@AEBA_NI@Z 000000018017bc20 f i libucrt:output.obj
 0001:0017ac28       ?has_flag@?$output_processor@_WV?$stream_output_adapter@_W@__crt_stdio_output@@V?$standard_base@_WV?$stream_output_adapter@_W@__crt_stdio_output@@@2@@__crt_stdio_output@@AEBA_NI@Z 000000018017bc28 f i libucrt:output.obj
 0001:0017ac30       ?has_flag@?$output_processor@_WV?$string_output_adapter@_W@__crt_stdio_output@@V?$format_validation_base@_WV?$string_output_adapter@_W@__crt_stdio_output@@@2@@__crt_stdio_output@@AEBA_NI@Z 000000018017bc30 f i libucrt:output.obj
 0001:0017ac38       ?has_flag@?$output_processor@_WV?$string_output_adapter@_W@__crt_stdio_output@@V?$positional_parameter_base@_WV?$string_output_adapter@_W@__crt_stdio_output@@@2@@__crt_stdio_output@@AEBA_NI@Z 000000018017bc38 f i libucrt:output.obj
 0001:0017ac40       ?has_flag@?$output_processor@_WV?$string_output_adapter@_W@__crt_stdio_output@@V?$standard_base@_WV?$string_output_adapter@_W@__crt_stdio_output@@@2@@__crt_stdio_output@@AEBA_NI@Z 000000018017bc40 f i libucrt:output.obj
 0001:0017ac48       ?is_positional_parameter_reappearance_consistent@?$positional_parameter_base@DV?$stream_output_adapter@D@__crt_stdio_output@@@__crt_stdio_output@@AEAA_NAEBUparameter_data@12@W4parameter_type@12@DW4length_modifier@2@@Z 000000018017bc48 f i libucrt:output.obj
 0001:0017ae7c       ?is_positional_parameter_reappearance_consistent@?$positional_parameter_base@DV?$string_output_adapter@D@__crt_stdio_output@@@__crt_stdio_output@@AEAA_NAEBUparameter_data@12@W4parameter_type@12@DW4length_modifier@2@@Z 000000018017be7c f i libucrt:output.obj
 0001:0017b0b0       ?is_positional_parameter_reappearance_consistent@?$positional_parameter_base@_WV?$stream_output_adapter@_W@__crt_stdio_output@@@__crt_stdio_output@@AEAA_NAEBUparameter_data@12@W4parameter_type@12@_WW4length_modifier@2@@Z 000000018017c0b0 f i libucrt:output.obj
 0001:0017b2b4       ?is_positional_parameter_reappearance_consistent@?$positional_parameter_base@_WV?$string_output_adapter@_W@__crt_stdio_output@@@__crt_stdio_output@@AEAA_NAEBUparameter_data@12@W4parameter_type@12@_WW4length_modifier@2@@Z 000000018017c2b4 f i libucrt:output.obj
 0001:0017b4b8       ?is_string_backed@__crt_stdio_stream@@QEBA_NXZ 000000018017c4b8 f i libucrt:output.obj
 0001:0017b4c4       ?maximum_signed_value@__crt_strtox@@YAJK@Z 000000018017c4c4 f i libucrt:output.obj
 0001:0017b4cc       ?minimum_signed_value@__crt_strtox@@YAJK@Z 000000018017c4cc f i libucrt:output.obj
 0001:0017b4d4       ?narrow_null_string@?$output_processor@DV?$stream_output_adapter@D@__crt_stdio_output@@V?$format_validation_base@DV?$stream_output_adapter@D@__crt_stdio_output@@@2@@__crt_stdio_output@@CAPEADXZ 000000018017c4d4 f i libucrt:output.obj
 0001:0017b4dc       ?narrow_null_string@?$output_processor@DV?$stream_output_adapter@D@__crt_stdio_output@@V?$positional_parameter_base@DV?$stream_output_adapter@D@__crt_stdio_output@@@2@@__crt_stdio_output@@CAPEADXZ 000000018017c4dc f i libucrt:output.obj
 0001:0017b4e4       ?narrow_null_string@?$output_processor@DV?$stream_output_adapter@D@__crt_stdio_output@@V?$standard_base@DV?$stream_output_adapter@D@__crt_stdio_output@@@2@@__crt_stdio_output@@CAPEADXZ 000000018017c4e4 f i libucrt:output.obj
 0001:0017b4ec       ?narrow_null_string@?$output_processor@DV?$string_output_adapter@D@__crt_stdio_output@@V?$format_validation_base@DV?$string_output_adapter@D@__crt_stdio_output@@@2@@__crt_stdio_output@@CAPEADXZ 000000018017c4ec f i libucrt:output.obj
 0001:0017b4f4       ?narrow_null_string@?$output_processor@DV?$string_output_adapter@D@__crt_stdio_output@@V?$positional_parameter_base@DV?$string_output_adapter@D@__crt_stdio_output@@@2@@__crt_stdio_output@@CAPEADXZ 000000018017c4f4 f i libucrt:output.obj
 0001:0017b4fc       ?narrow_null_string@?$output_processor@DV?$string_output_adapter@D@__crt_stdio_output@@V?$standard_base@DV?$string_output_adapter@D@__crt_stdio_output@@@2@@__crt_stdio_output@@CAPEADXZ 000000018017c4fc f i libucrt:output.obj
 0001:0017b504       ?narrow_null_string@?$output_processor@_WV?$stream_output_adapter@_W@__crt_stdio_output@@V?$format_validation_base@_WV?$stream_output_adapter@_W@__crt_stdio_output@@@2@@__crt_stdio_output@@CAPEADXZ 000000018017c504 f i libucrt:output.obj
 0001:0017b50c       ?narrow_null_string@?$output_processor@_WV?$stream_output_adapter@_W@__crt_stdio_output@@V?$positional_parameter_base@_WV?$stream_output_adapter@_W@__crt_stdio_output@@@2@@__crt_stdio_output@@CAPEADXZ 000000018017c50c f i libucrt:output.obj
 0001:0017b514       ?narrow_null_string@?$output_processor@_WV?$stream_output_adapter@_W@__crt_stdio_output@@V?$standard_base@_WV?$stream_output_adapter@_W@__crt_stdio_output@@@2@@__crt_stdio_output@@CAPEADXZ 000000018017c514 f i libucrt:output.obj
 0001:0017b51c       ?narrow_null_string@?$output_processor@_WV?$string_output_adapter@_W@__crt_stdio_output@@V?$format_validation_base@_WV?$string_output_adapter@_W@__crt_stdio_output@@@2@@__crt_stdio_output@@CAPEADXZ 000000018017c51c f i libucrt:output.obj
 0001:0017b524       ?narrow_null_string@?$output_processor@_WV?$string_output_adapter@_W@__crt_stdio_output@@V?$positional_parameter_base@_WV?$string_output_adapter@_W@__crt_stdio_output@@@2@@__crt_stdio_output@@CAPEADXZ 000000018017c524 f i libucrt:output.obj
 0001:0017b52c       ?narrow_null_string@?$output_processor@_WV?$string_output_adapter@_W@__crt_stdio_output@@V?$standard_base@_WV?$string_output_adapter@_W@__crt_stdio_output@@@2@@__crt_stdio_output@@CAPEADXZ 000000018017c52c f i libucrt:output.obj
 0001:0017b534       ?parse_digit@__crt_strtox@@YAID@Z 000000018017c534 f i libucrt:output.obj
 0001:0017b564       ?parse_digit@__crt_strtox@@YAI_W@Z 000000018017c564 f i libucrt:output.obj
 0001:0017b720       ?parse_int_from_format_string@?$output_processor@DV?$stream_output_adapter@D@__crt_stdio_output@@V?$format_validation_base@DV?$stream_output_adapter@D@__crt_stdio_output@@@2@@__crt_stdio_output@@AEAA_NQEAH@Z 000000018017c720 f i libucrt:output.obj
 0001:0017b7b0       ?parse_int_from_format_string@?$output_processor@DV?$stream_output_adapter@D@__crt_stdio_output@@V?$positional_parameter_base@DV?$stream_output_adapter@D@__crt_stdio_output@@@2@@__crt_stdio_output@@AEAA_NQEAH@Z 000000018017c7b0 f i libucrt:output.obj
 0001:0017b840       ?parse_int_from_format_string@?$output_processor@DV?$stream_output_adapter@D@__crt_stdio_output@@V?$standard_base@DV?$stream_output_adapter@D@__crt_stdio_output@@@2@@__crt_stdio_output@@AEAA_NQEAH@Z 000000018017c840 f i libucrt:output.obj
 0001:0017b8d0       ?parse_int_from_format_string@?$output_processor@DV?$string_output_adapter@D@__crt_stdio_output@@V?$format_validation_base@DV?$string_output_adapter@D@__crt_stdio_output@@@2@@__crt_stdio_output@@AEAA_NQEAH@Z 000000018017c8d0 f i libucrt:output.obj
 0001:0017b960       ?parse_int_from_format_string@?$output_processor@DV?$string_output_adapter@D@__crt_stdio_output@@V?$positional_parameter_base@DV?$string_output_adapter@D@__crt_stdio_output@@@2@@__crt_stdio_output@@AEAA_NQEAH@Z 000000018017c960 f i libucrt:output.obj
 0001:0017b9f0       ?parse_int_from_format_string@?$output_processor@DV?$string_output_adapter@D@__crt_stdio_output@@V?$standard_base@DV?$string_output_adapter@D@__crt_stdio_output@@@2@@__crt_stdio_output@@AEAA_NQEAH@Z 000000018017c9f0 f i libucrt:output.obj
 0001:0017ba80       ?parse_int_from_format_string@?$output_processor@_WV?$stream_output_adapter@_W@__crt_stdio_output@@V?$format_validation_base@_WV?$stream_output_adapter@_W@__crt_stdio_output@@@2@@__crt_stdio_output@@AEAA_NQEAH@Z 000000018017ca80 f i libucrt:output.obj
 0001:0017bb10       ?parse_int_from_format_string@?$output_processor@_WV?$stream_output_adapter@_W@__crt_stdio_output@@V?$positional_parameter_base@_WV?$stream_output_adapter@_W@__crt_stdio_output@@@2@@__crt_stdio_output@@AEAA_NQEAH@Z 000000018017cb10 f i libucrt:output.obj
 0001:0017bba0       ?parse_int_from_format_string@?$output_processor@_WV?$stream_output_adapter@_W@__crt_stdio_output@@V?$standard_base@_WV?$stream_output_adapter@_W@__crt_stdio_output@@@2@@__crt_stdio_output@@AEAA_NQEAH@Z 000000018017cba0 f i libucrt:output.obj
 0001:0017bc30       ?parse_int_from_format_string@?$output_processor@_WV?$string_output_adapter@_W@__crt_stdio_output@@V?$format_validation_base@_WV?$string_output_adapter@_W@__crt_stdio_output@@@2@@__crt_stdio_output@@AEAA_NQEAH@Z 000000018017cc30 f i libucrt:output.obj
 0001:0017bcc0       ?parse_int_from_format_string@?$output_processor@_WV?$string_output_adapter@_W@__crt_stdio_output@@V?$positional_parameter_base@_WV?$string_output_adapter@_W@__crt_stdio_output@@@2@@__crt_stdio_output@@AEAA_NQEAH@Z 000000018017ccc0 f i libucrt:output.obj
 0001:0017bd50       ?parse_int_from_format_string@?$output_processor@_WV?$string_output_adapter@_W@__crt_stdio_output@@V?$standard_base@_WV?$string_output_adapter@_W@__crt_stdio_output@@@2@@__crt_stdio_output@@AEAA_NQEAH@Z 000000018017cd50 f i libucrt:output.obj
 0001:0017bde0       ?process@?$output_processor@DV?$stream_output_adapter@D@__crt_stdio_output@@V?$format_validation_base@DV?$stream_output_adapter@D@__crt_stdio_output@@@2@@__crt_stdio_output@@QEAAHXZ 000000018017cde0 f i libucrt:output.obj
 0001:0017c174       ?process@?$output_processor@DV?$stream_output_adapter@D@__crt_stdio_output@@V?$positional_parameter_base@DV?$stream_output_adapter@D@__crt_stdio_output@@@2@@__crt_stdio_output@@QEAAHXZ 000000018017d174 f i libucrt:output.obj
 0001:0017c59c       ?process@?$output_processor@DV?$stream_output_adapter@D@__crt_stdio_output@@V?$standard_base@DV?$stream_output_adapter@D@__crt_stdio_output@@@2@@__crt_stdio_output@@QEAAHXZ 000000018017d59c f i libucrt:output.obj
 0001:0017c928       ?process@?$output_processor@DV?$string_output_adapter@D@__crt_stdio_output@@V?$format_validation_base@DV?$string_output_adapter@D@__crt_stdio_output@@@2@@__crt_stdio_output@@QEAAHXZ 000000018017d928 f i libucrt:output.obj
 0001:0017ccb8       ?process@?$output_processor@DV?$string_output_adapter@D@__crt_stdio_output@@V?$positional_parameter_base@DV?$string_output_adapter@D@__crt_stdio_output@@@2@@__crt_stdio_output@@QEAAHXZ 000000018017dcb8 f i libucrt:output.obj
 0001:0017d0c4       ?process@?$output_processor@DV?$string_output_adapter@D@__crt_stdio_output@@V?$standard_base@DV?$string_output_adapter@D@__crt_stdio_output@@@2@@__crt_stdio_output@@QEAAHXZ 000000018017e0c4 f i libucrt:output.obj
 0001:0017d448       ?process@?$output_processor@_WV?$stream_output_adapter@_W@__crt_stdio_output@@V?$format_validation_base@_WV?$stream_output_adapter@_W@__crt_stdio_output@@@2@@__crt_stdio_output@@QEAAHXZ 000000018017e448 f i libucrt:output.obj
 0001:0017d72c       ?process@?$output_processor@_WV?$stream_output_adapter@_W@__crt_stdio_output@@V?$positional_parameter_base@_WV?$stream_output_adapter@_W@__crt_stdio_output@@@2@@__crt_stdio_output@@QEAAHXZ 000000018017e72c f i libucrt:output.obj
 0001:0017daa8       ?process@?$output_processor@_WV?$stream_output_adapter@_W@__crt_stdio_output@@V?$standard_base@_WV?$stream_output_adapter@_W@__crt_stdio_output@@@2@@__crt_stdio_output@@QEAAHXZ 000000018017eaa8 f i libucrt:output.obj
 0001:0017dd64       ?process@?$output_processor@_WV?$string_output_adapter@_W@__crt_stdio_output@@V?$format_validation_base@_WV?$string_output_adapter@_W@__crt_stdio_output@@@2@@__crt_stdio_output@@QEAAHXZ 000000018017ed64 f i libucrt:output.obj
 0001:0017e040       ?process@?$output_processor@_WV?$string_output_adapter@_W@__crt_stdio_output@@V?$positional_parameter_base@_WV?$string_output_adapter@_W@__crt_stdio_output@@@2@@__crt_stdio_output@@QEAAHXZ 000000018017f040 f i libucrt:output.obj
 0001:0017e3bc       ?process@?$output_processor@_WV?$string_output_adapter@_W@__crt_stdio_output@@V?$standard_base@_WV?$string_output_adapter@_W@__crt_stdio_output@@@2@@__crt_stdio_output@@QEAAHXZ 000000018017f3bc f i libucrt:output.obj
 0001:0017e680       ?public_stream@__crt_stdio_stream@@QEBAPEAU_iobuf@@XZ 000000018017f680 f i libucrt:output.obj
 0001:0017e684       ?restore_state@?$c_string_character_source@D@__crt_strtox@@QEAA_NQEBD@Z 000000018017f684 f i libucrt:output.obj
 0001:0017e68c       ?restore_state@?$c_string_character_source@_W@__crt_strtox@@QEAA_NQEB_W@Z 000000018017f68c f i libucrt:output.obj
 0001:0017e694       ?save_state@?$c_string_character_source@D@__crt_strtox@@QEBAPEBDXZ 000000018017f694 f i libucrt:output.obj
 0001:0017e698       ?save_state@?$c_string_character_source@_W@__crt_strtox@@QEBAPEB_WXZ 000000018017f698 f i libucrt:output.obj
 0001:0017e69c       ?set@?$cached@H@__crt_cached_ptd_host@@QEAAHH@Z 000000018017f69c f i libucrt:output.obj
 0001:0017e6a8       ?set_flag@?$output_processor@DV?$stream_output_adapter@D@__crt_stdio_output@@V?$format_validation_base@DV?$stream_output_adapter@D@__crt_stdio_output@@@2@@__crt_stdio_output@@AEAAXI@Z 000000018017f6a8 f i libucrt:output.obj
 0001:0017e6ac       ?set_flag@?$output_processor@DV?$stream_output_adapter@D@__crt_stdio_output@@V?$positional_parameter_base@DV?$stream_output_adapter@D@__crt_stdio_output@@@2@@__crt_stdio_output@@AEAAXI@Z 000000018017f6ac f i libucrt:output.obj
 0001:0017e6b0       ?set_flag@?$output_processor@DV?$stream_output_adapter@D@__crt_stdio_output@@V?$standard_base@DV?$stream_output_adapter@D@__crt_stdio_output@@@2@@__crt_stdio_output@@AEAAXI@Z 000000018017f6b0 f i libucrt:output.obj
 0001:0017e6b4       ?set_flag@?$output_processor@DV?$string_output_adapter@D@__crt_stdio_output@@V?$format_validation_base@DV?$string_output_adapter@D@__crt_stdio_output@@@2@@__crt_stdio_output@@AEAAXI@Z 000000018017f6b4 f i libucrt:output.obj
 0001:0017e6b8       ?set_flag@?$output_processor@DV?$string_output_adapter@D@__crt_stdio_output@@V?$positional_parameter_base@DV?$string_output_adapter@D@__crt_stdio_output@@@2@@__crt_stdio_output@@AEAAXI@Z 000000018017f6b8 f i libucrt:output.obj
 0001:0017e6bc       ?set_flag@?$output_processor@DV?$string_output_adapter@D@__crt_stdio_output@@V?$standard_base@DV?$string_output_adapter@D@__crt_stdio_output@@@2@@__crt_stdio_output@@AEAAXI@Z 000000018017f6bc f i libucrt:output.obj
 0001:0017e6c0       ?set_flag@?$output_processor@_WV?$stream_output_adapter@_W@__crt_stdio_output@@V?$format_validation_base@_WV?$stream_output_adapter@_W@__crt_stdio_output@@@2@@__crt_stdio_output@@AEAAXI@Z 000000018017f6c0 f i libucrt:output.obj
 0001:0017e6c4       ?set_flag@?$output_processor@_WV?$stream_output_adapter@_W@__crt_stdio_output@@V?$positional_parameter_base@_WV?$stream_output_adapter@_W@__crt_stdio_output@@@2@@__crt_stdio_output@@AEAAXI@Z 000000018017f6c4 f i libucrt:output.obj
 0001:0017e6c8       ?set_flag@?$output_processor@_WV?$stream_output_adapter@_W@__crt_stdio_output@@V?$standard_base@_WV?$stream_output_adapter@_W@__crt_stdio_output@@@2@@__crt_stdio_output@@AEAAXI@Z 000000018017f6c8 f i libucrt:output.obj
 0001:0017e6cc       ?set_flag@?$output_processor@_WV?$string_output_adapter@_W@__crt_stdio_output@@V?$format_validation_base@_WV?$string_output_adapter@_W@__crt_stdio_output@@@2@@__crt_stdio_output@@AEAAXI@Z 000000018017f6cc f i libucrt:output.obj
 0001:0017e6d0       ?set_flag@?$output_processor@_WV?$string_output_adapter@_W@__crt_stdio_output@@V?$positional_parameter_base@_WV?$string_output_adapter@_W@__crt_stdio_output@@@2@@__crt_stdio_output@@AEAAXI@Z 000000018017f6d0 f i libucrt:output.obj
 0001:0017e6d4       ?set_flag@?$output_processor@_WV?$string_output_adapter@_W@__crt_stdio_output@@V?$standard_base@_WV?$string_output_adapter@_W@__crt_stdio_output@@@2@@__crt_stdio_output@@AEAAXI@Z 000000018017f6d4 f i libucrt:output.obj
 0001:0017e6d8       ?should_format@?$positional_parameter_base@DV?$stream_output_adapter@D@__crt_stdio_output@@@__crt_stdio_output@@IEAA_NXZ 000000018017f6d8 f i libucrt:output.obj
 0001:0017e6f0       ?should_format@?$positional_parameter_base@DV?$string_output_adapter@D@__crt_stdio_output@@@__crt_stdio_output@@IEAA_NXZ 000000018017f6f0 f i libucrt:output.obj
 0001:0017e708       ?should_format@?$positional_parameter_base@_WV?$stream_output_adapter@_W@__crt_stdio_output@@@__crt_stdio_output@@IEAA_NXZ 000000018017f708 f i libucrt:output.obj
 0001:0017e720       ?should_format@?$positional_parameter_base@_WV?$string_output_adapter@_W@__crt_stdio_output@@@__crt_stdio_output@@IEAA_NXZ 000000018017f720 f i libucrt:output.obj
 0001:0017e738       ?should_format@?$standard_base@DV?$stream_output_adapter@D@__crt_stdio_output@@@__crt_stdio_output@@IEAA_NXZ 000000018017f738 f i libucrt:output.obj
 0001:0017e73c       ?should_format@?$standard_base@DV?$string_output_adapter@D@__crt_stdio_output@@@__crt_stdio_output@@IEAA_NXZ 000000018017f73c f i libucrt:output.obj
 0001:0017e740       ?should_format@?$standard_base@_WV?$stream_output_adapter@_W@__crt_stdio_output@@@__crt_stdio_output@@IEAA_NXZ 000000018017f740 f i libucrt:output.obj
 0001:0017e744       ?should_format@?$standard_base@_WV?$string_output_adapter@_W@__crt_stdio_output@@@__crt_stdio_output@@IEAA_NXZ 000000018017f744 f i libucrt:output.obj
 0001:0017e748       ?should_skip_normal_state_processing@?$positional_parameter_base@DV?$stream_output_adapter@D@__crt_stdio_output@@@__crt_stdio_output@@IEAA_NXZ 000000018017f748 f i libucrt:output.obj
 0001:0017e770       ?should_skip_normal_state_processing@?$positional_parameter_base@DV?$string_output_adapter@D@__crt_stdio_output@@@__crt_stdio_output@@IEAA_NXZ 000000018017f770 f i libucrt:output.obj
 0001:0017e798       ?should_skip_normal_state_processing@?$positional_parameter_base@_WV?$stream_output_adapter@_W@__crt_stdio_output@@@__crt_stdio_output@@IEAA_NXZ 000000018017f798 f i libucrt:output.obj
 0001:0017e7c0       ?should_skip_normal_state_processing@?$positional_parameter_base@_WV?$string_output_adapter@_W@__crt_stdio_output@@@__crt_stdio_output@@IEAA_NXZ 000000018017f7c0 f i libucrt:output.obj
 0001:0017e7e8       ?should_skip_normal_state_processing@?$standard_base@DV?$stream_output_adapter@D@__crt_stdio_output@@@__crt_stdio_output@@IEAA_NXZ 000000018017f7e8 f i libucrt:output.obj
 0001:0017e7ec       ?should_skip_normal_state_processing@?$standard_base@DV?$string_output_adapter@D@__crt_stdio_output@@@__crt_stdio_output@@IEAA_NXZ 000000018017f7ec f i libucrt:output.obj
 0001:0017e7f0       ?should_skip_normal_state_processing@?$standard_base@_WV?$stream_output_adapter@_W@__crt_stdio_output@@@__crt_stdio_output@@IEAA_NXZ 000000018017f7f0 f i libucrt:output.obj
 0001:0017e7f4       ?should_skip_normal_state_processing@?$standard_base@_WV?$string_output_adapter@_W@__crt_stdio_output@@@__crt_stdio_output@@IEAA_NXZ 000000018017f7f4 f i libucrt:output.obj
 0001:0017e7f8       ?should_skip_type_state_output@?$positional_parameter_base@DV?$stream_output_adapter@D@__crt_stdio_output@@@__crt_stdio_output@@IEBA_NXZ 000000018017f7f8 f i libucrt:output.obj
 0001:0017e814       ?should_skip_type_state_output@?$positional_parameter_base@DV?$string_output_adapter@D@__crt_stdio_output@@@__crt_stdio_output@@IEBA_NXZ 000000018017f814 f i libucrt:output.obj
 0001:0017e830       ?should_skip_type_state_output@?$positional_parameter_base@_WV?$stream_output_adapter@_W@__crt_stdio_output@@@__crt_stdio_output@@IEBA_NXZ 000000018017f830 f i libucrt:output.obj
 0001:0017e84c       ?should_skip_type_state_output@?$positional_parameter_base@_WV?$string_output_adapter@_W@__crt_stdio_output@@@__crt_stdio_output@@IEBA_NXZ 000000018017f84c f i libucrt:output.obj
 0001:0017e868       ?should_skip_type_state_output@?$standard_base@DV?$stream_output_adapter@D@__crt_stdio_output@@@__crt_stdio_output@@IEBA_NXZ 000000018017f868 f i libucrt:output.obj
 0001:0017e86c       ?should_skip_type_state_output@?$standard_base@DV?$string_output_adapter@D@__crt_stdio_output@@@__crt_stdio_output@@IEBA_NXZ 000000018017f86c f i libucrt:output.obj
 0001:0017e870       ?should_skip_type_state_output@?$standard_base@_WV?$stream_output_adapter@_W@__crt_stdio_output@@@__crt_stdio_output@@IEBA_NXZ 000000018017f870 f i libucrt:output.obj
 0001:0017e874       ?should_skip_type_state_output@?$standard_base@_WV?$string_output_adapter@_W@__crt_stdio_output@@@__crt_stdio_output@@IEBA_NXZ 000000018017f874 f i libucrt:output.obj
 0001:0017e878       ?state_case_dot@?$output_processor@DV?$stream_output_adapter@D@__crt_stdio_output@@V?$format_validation_base@DV?$stream_output_adapter@D@__crt_stdio_output@@@2@@__crt_stdio_output@@AEAA_NXZ 000000018017f878 f i libucrt:output.obj
 0001:0017e880       ?state_case_dot@?$output_processor@DV?$stream_output_adapter@D@__crt_stdio_output@@V?$positional_parameter_base@DV?$stream_output_adapter@D@__crt_stdio_output@@@2@@__crt_stdio_output@@AEAA_NXZ 000000018017f880 f i libucrt:output.obj
 0001:0017e888       ?state_case_dot@?$output_processor@DV?$stream_output_adapter@D@__crt_stdio_output@@V?$standard_base@DV?$stream_output_adapter@D@__crt_stdio_output@@@2@@__crt_stdio_output@@AEAA_NXZ 000000018017f888 f i libucrt:output.obj
 0001:0017e890       ?state_case_dot@?$output_processor@DV?$string_output_adapter@D@__crt_stdio_output@@V?$format_validation_base@DV?$string_output_adapter@D@__crt_stdio_output@@@2@@__crt_stdio_output@@AEAA_NXZ 000000018017f890 f i libucrt:output.obj
 0001:0017e898       ?state_case_dot@?$output_processor@DV?$string_output_adapter@D@__crt_stdio_output@@V?$positional_parameter_base@DV?$string_output_adapter@D@__crt_stdio_output@@@2@@__crt_stdio_output@@AEAA_NXZ 000000018017f898 f i libucrt:output.obj
 0001:0017e8a0       ?state_case_dot@?$output_processor@DV?$string_output_adapter@D@__crt_stdio_output@@V?$standard_base@DV?$string_output_adapter@D@__crt_stdio_output@@@2@@__crt_stdio_output@@AEAA_NXZ 000000018017f8a0 f i libucrt:output.obj
 0001:0017e8a8       ?state_case_dot@?$output_processor@_WV?$stream_output_adapter@_W@__crt_stdio_output@@V?$format_validation_base@_WV?$stream_output_adapter@_W@__crt_stdio_output@@@2@@__crt_stdio_output@@AEAA_NXZ 000000018017f8a8 f i libucrt:output.obj
 0001:0017e8b0       ?state_case_dot@?$output_processor@_WV?$stream_output_adapter@_W@__crt_stdio_output@@V?$positional_parameter_base@_WV?$stream_output_adapter@_W@__crt_stdio_output@@@2@@__crt_stdio_output@@AEAA_NXZ 000000018017f8b0 f i libucrt:output.obj
 0001:0017e8b8       ?state_case_dot@?$output_processor@_WV?$stream_output_adapter@_W@__crt_stdio_output@@V?$standard_base@_WV?$stream_output_adapter@_W@__crt_stdio_output@@@2@@__crt_stdio_output@@AEAA_NXZ 000000018017f8b8 f i libucrt:output.obj
 0001:0017e8c0       ?state_case_dot@?$output_processor@_WV?$string_output_adapter@_W@__crt_stdio_output@@V?$format_validation_base@_WV?$string_output_adapter@_W@__crt_stdio_output@@@2@@__crt_stdio_output@@AEAA_NXZ 000000018017f8c0 f i libucrt:output.obj
 0001:0017e8c8       ?state_case_dot@?$output_processor@_WV?$string_output_adapter@_W@__crt_stdio_output@@V?$positional_parameter_base@_WV?$string_output_adapter@_W@__crt_stdio_output@@@2@@__crt_stdio_output@@AEAA_NXZ 000000018017f8c8 f i libucrt:output.obj
 0001:0017e8d0       ?state_case_dot@?$output_processor@_WV?$string_output_adapter@_W@__crt_stdio_output@@V?$standard_base@_WV?$string_output_adapter@_W@__crt_stdio_output@@@2@@__crt_stdio_output@@AEAA_NXZ 000000018017f8d0 f i libucrt:output.obj
 0001:0017e8d8       ?state_case_flag@?$output_processor@DV?$stream_output_adapter@D@__crt_stdio_output@@V?$format_validation_base@DV?$stream_output_adapter@D@__crt_stdio_output@@@2@@__crt_stdio_output@@AEAA_NXZ 000000018017f8d8 f i libucrt:output.obj
 0001:0017e910       ?state_case_flag@?$output_processor@DV?$stream_output_adapter@D@__crt_stdio_output@@V?$positional_parameter_base@DV?$stream_output_adapter@D@__crt_stdio_output@@@2@@__crt_stdio_output@@AEAA_NXZ 000000018017f910 f i libucrt:output.obj
 0001:0017e948       ?state_case_flag@?$output_processor@DV?$stream_output_adapter@D@__crt_stdio_output@@V?$standard_base@DV?$stream_output_adapter@D@__crt_stdio_output@@@2@@__crt_stdio_output@@AEAA_NXZ 000000018017f948 f i libucrt:output.obj
 0001:0017e980       ?state_case_flag@?$output_processor@DV?$string_output_adapter@D@__crt_stdio_output@@V?$format_validation_base@DV?$string_output_adapter@D@__crt_stdio_output@@@2@@__crt_stdio_output@@AEAA_NXZ 000000018017f980 f i libucrt:output.obj
 0001:0017e9b8       ?state_case_flag@?$output_processor@DV?$string_output_adapter@D@__crt_stdio_output@@V?$positional_parameter_base@DV?$string_output_adapter@D@__crt_stdio_output@@@2@@__crt_stdio_output@@AEAA_NXZ 000000018017f9b8 f i libucrt:output.obj
 0001:0017e9f0       ?state_case_flag@?$output_processor@DV?$string_output_adapter@D@__crt_stdio_output@@V?$standard_base@DV?$string_output_adapter@D@__crt_stdio_output@@@2@@__crt_stdio_output@@AEAA_NXZ 000000018017f9f0 f i libucrt:output.obj
 0001:0017ea28       ?state_case_flag@?$output_processor@_WV?$stream_output_adapter@_W@__crt_stdio_output@@V?$format_validation_base@_WV?$stream_output_adapter@_W@__crt_stdio_output@@@2@@__crt_stdio_output@@AEAA_NXZ 000000018017fa28 f i libucrt:output.obj
 0001:0017ea6c       ?state_case_flag@?$output_processor@_WV?$stream_output_adapter@_W@__crt_stdio_output@@V?$positional_parameter_base@_WV?$stream_output_adapter@_W@__crt_stdio_output@@@2@@__crt_stdio_output@@AEAA_NXZ 000000018017fa6c f i libucrt:output.obj
 0001:0017eab0       ?state_case_flag@?$output_processor@_WV?$stream_output_adapter@_W@__crt_stdio_output@@V?$standard_base@_WV?$stream_output_adapter@_W@__crt_stdio_output@@@2@@__crt_stdio_output@@AEAA_NXZ 000000018017fab0 f i libucrt:output.obj
 0001:0017eaf4       ?state_case_flag@?$output_processor@_WV?$string_output_adapter@_W@__crt_stdio_output@@V?$format_validation_base@_WV?$string_output_adapter@_W@__crt_stdio_output@@@2@@__crt_stdio_output@@AEAA_NXZ 000000018017faf4 f i libucrt:output.obj
 0001:0017eb38       ?state_case_flag@?$output_processor@_WV?$string_output_adapter@_W@__crt_stdio_output@@V?$positional_parameter_base@_WV?$string_output_adapter@_W@__crt_stdio_output@@@2@@__crt_stdio_output@@AEAA_NXZ 000000018017fb38 f i libucrt:output.obj
 0001:0017eb7c       ?state_case_flag@?$output_processor@_WV?$string_output_adapter@_W@__crt_stdio_output@@V?$standard_base@_WV?$string_output_adapter@_W@__crt_stdio_output@@@2@@__crt_stdio_output@@AEAA_NXZ 000000018017fb7c f i libucrt:output.obj
 0001:0017ebc0       ?state_case_normal@?$output_processor@DV?$stream_output_adapter@D@__crt_stdio_output@@V?$format_validation_base@DV?$stream_output_adapter@D@__crt_stdio_output@@@2@@__crt_stdio_output@@AEAA_NXZ 000000018017fbc0 f i libucrt:output.obj
 0001:0017ed14       ?state_case_normal@?$output_processor@DV?$stream_output_adapter@D@__crt_stdio_output@@V?$positional_parameter_base@DV?$stream_output_adapter@D@__crt_stdio_output@@@2@@__crt_stdio_output@@AEAA_NXZ 000000018017fd14 f i libucrt:output.obj
 0001:0017ee90       ?state_case_normal@?$output_processor@DV?$stream_output_adapter@D@__crt_stdio_output@@V?$standard_base@DV?$stream_output_adapter@D@__crt_stdio_output@@@2@@__crt_stdio_output@@AEAA_NXZ 000000018017fe90 f i libucrt:output.obj
 0001:0017efe4       ?state_case_normal@?$output_processor@DV?$string_output_adapter@D@__crt_stdio_output@@V?$format_validation_base@DV?$string_output_adapter@D@__crt_stdio_output@@@2@@__crt_stdio_output@@AEAA_NXZ 000000018017ffe4 f i libucrt:output.obj
 0001:0017f130       ?state_case_normal@?$output_processor@DV?$string_output_adapter@D@__crt_stdio_output@@V?$positional_parameter_base@DV?$string_output_adapter@D@__crt_stdio_output@@@2@@__crt_stdio_output@@AEAA_NXZ 0000000180180130 f i libucrt:output.obj
 0001:0017f2a8       ?state_case_normal@?$output_processor@DV?$string_output_adapter@D@__crt_stdio_output@@V?$standard_base@DV?$string_output_adapter@D@__crt_stdio_output@@@2@@__crt_stdio_output@@AEAA_NXZ 00000001801802a8 f i libucrt:output.obj
 0001:0017f3f4       ?state_case_normal@?$output_processor@_WV?$stream_output_adapter@_W@__crt_stdio_output@@V?$format_validation_base@_WV?$stream_output_adapter@_W@__crt_stdio_output@@@2@@__crt_stdio_output@@AEAA_NXZ 00000001801803f4 f i libucrt:output.obj
 0001:0017f450       ?state_case_normal@?$output_processor@_WV?$stream_output_adapter@_W@__crt_stdio_output@@V?$positional_parameter_base@_WV?$stream_output_adapter@_W@__crt_stdio_output@@@2@@__crt_stdio_output@@AEAA_NXZ 0000000180180450 f i libucrt:output.obj
 0001:0017f4d0       ?state_case_normal@?$output_processor@_WV?$stream_output_adapter@_W@__crt_stdio_output@@V?$standard_base@_WV?$stream_output_adapter@_W@__crt_stdio_output@@@2@@__crt_stdio_output@@AEAA_NXZ 00000001801804d0 f i libucrt:output.obj
 0001:0017f52c       ?state_case_normal@?$output_processor@_WV?$string_output_adapter@_W@__crt_stdio_output@@V?$format_validation_base@_WV?$string_output_adapter@_W@__crt_stdio_output@@@2@@__crt_stdio_output@@AEAA_NXZ 000000018018052c f i libucrt:output.obj
 0001:0017f580       ?state_case_normal@?$output_processor@_WV?$string_output_adapter@_W@__crt_stdio_output@@V?$positional_parameter_base@_WV?$string_output_adapter@_W@__crt_stdio_output@@@2@@__crt_stdio_output@@AEAA_NXZ 0000000180180580 f i libucrt:output.obj
 0001:0017f5f8       ?state_case_normal@?$output_processor@_WV?$string_output_adapter@_W@__crt_stdio_output@@V?$standard_base@_WV?$string_output_adapter@_W@__crt_stdio_output@@@2@@__crt_stdio_output@@AEAA_NXZ 00000001801805f8 f i libucrt:output.obj
 0001:0017f64c       ?state_case_normal_common@?$output_processor@DV?$stream_output_adapter@D@__crt_stdio_output@@V?$format_validation_base@DV?$stream_output_adapter@D@__crt_stdio_output@@@2@@__crt_stdio_output@@AEAA_NXZ 000000018018064c f i libucrt:output.obj
 0001:0017f774       ?state_case_normal_common@?$output_processor@DV?$stream_output_adapter@D@__crt_stdio_output@@V?$positional_parameter_base@DV?$stream_output_adapter@D@__crt_stdio_output@@@2@@__crt_stdio_output@@AEAA_NXZ 0000000180180774 f i libucrt:output.obj
 0001:0017f89c       ?state_case_normal_common@?$output_processor@DV?$stream_output_adapter@D@__crt_stdio_output@@V?$standard_base@DV?$stream_output_adapter@D@__crt_stdio_output@@@2@@__crt_stdio_output@@AEAA_NXZ 000000018018089c f i libucrt:output.obj
 0001:0017f9c4       ?state_case_normal_common@?$output_processor@DV?$string_output_adapter@D@__crt_stdio_output@@V?$format_validation_base@DV?$string_output_adapter@D@__crt_stdio_output@@@2@@__crt_stdio_output@@AEAA_NXZ 00000001801809c4 f i libucrt:output.obj
 0001:0017fae8       ?state_case_normal_common@?$output_processor@DV?$string_output_adapter@D@__crt_stdio_output@@V?$positional_parameter_base@DV?$string_output_adapter@D@__crt_stdio_output@@@2@@__crt_stdio_output@@AEAA_NXZ 0000000180180ae8 f i libucrt:output.obj
 0001:0017fc0c       ?state_case_normal_common@?$output_processor@DV?$string_output_adapter@D@__crt_stdio_output@@V?$standard_base@DV?$string_output_adapter@D@__crt_stdio_output@@@2@@__crt_stdio_output@@AEAA_NXZ 0000000180180c0c f i libucrt:output.obj
 0001:0017fd30       ?state_case_normal_common@?$output_processor@_WV?$stream_output_adapter@_W@__crt_stdio_output@@V?$format_validation_base@_WV?$stream_output_adapter@_W@__crt_stdio_output@@@2@@__crt_stdio_output@@AEAA_NXZ 0000000180180d30 f i libucrt:output.obj
 0001:0017fd8c       ?state_case_normal_common@?$output_processor@_WV?$stream_output_adapter@_W@__crt_stdio_output@@V?$positional_parameter_base@_WV?$stream_output_adapter@_W@__crt_stdio_output@@@2@@__crt_stdio_output@@AEAA_NXZ 0000000180180d8c f i libucrt:output.obj
 0001:0017fde8       ?state_case_normal_common@?$output_processor@_WV?$stream_output_adapter@_W@__crt_stdio_output@@V?$standard_base@_WV?$stream_output_adapter@_W@__crt_stdio_output@@@2@@__crt_stdio_output@@AEAA_NXZ 0000000180180de8 f i libucrt:output.obj
 0001:0017fe44       ?state_case_normal_common@?$output_processor@_WV?$string_output_adapter@_W@__crt_stdio_output@@V?$format_validation_base@_WV?$string_output_adapter@_W@__crt_stdio_output@@@2@@__crt_stdio_output@@AEAA_NXZ 0000000180180e44 f i libucrt:output.obj
 0001:0017fe98       ?state_case_normal_common@?$output_processor@_WV?$string_output_adapter@_W@__crt_stdio_output@@V?$positional_parameter_base@_WV?$string_output_adapter@_W@__crt_stdio_output@@@2@@__crt_stdio_output@@AEAA_NXZ 0000000180180e98 f i libucrt:output.obj
 0001:0017feec       ?state_case_normal_common@?$output_processor@_WV?$string_output_adapter@_W@__crt_stdio_output@@V?$standard_base@_WV?$string_output_adapter@_W@__crt_stdio_output@@@2@@__crt_stdio_output@@AEAA_NXZ 0000000180180eec f i libucrt:output.obj
 0001:0017ff40       ?state_case_normal_tchar@?$output_processor@DV?$stream_output_adapter@D@__crt_stdio_output@@V?$format_validation_base@DV?$stream_output_adapter@D@__crt_stdio_output@@@2@@__crt_stdio_output@@AEAA_ND@Z 0000000180180f40 f i libucrt:output.obj
 0001:0018001c       ?state_case_normal_tchar@?$output_processor@DV?$stream_output_adapter@D@__crt_stdio_output@@V?$positional_parameter_base@DV?$stream_output_adapter@D@__crt_stdio_output@@@2@@__crt_stdio_output@@AEAA_ND@Z 000000018018101c f i libucrt:output.obj
 0001:001800f8       ?state_case_normal_tchar@?$output_processor@DV?$stream_output_adapter@D@__crt_stdio_output@@V?$standard_base@DV?$stream_output_adapter@D@__crt_stdio_output@@@2@@__crt_stdio_output@@AEAA_ND@Z 00000001801810f8 f i libucrt:output.obj
 0001:001801d4       ?state_case_normal_tchar@?$output_processor@DV?$string_output_adapter@D@__crt_stdio_output@@V?$format_validation_base@DV?$string_output_adapter@D@__crt_stdio_output@@@2@@__crt_stdio_output@@AEAA_ND@Z 00000001801811d4 f i libucrt:output.obj
 0001:001802b0       ?state_case_normal_tchar@?$output_processor@DV?$string_output_adapter@D@__crt_stdio_output@@V?$positional_parameter_base@DV?$string_output_adapter@D@__crt_stdio_output@@@2@@__crt_stdio_output@@AEAA_ND@Z 00000001801812b0 f i libucrt:output.obj
 0001:0018038c       ?state_case_normal_tchar@?$output_processor@DV?$string_output_adapter@D@__crt_stdio_output@@V?$standard_base@DV?$string_output_adapter@D@__crt_stdio_output@@@2@@__crt_stdio_output@@AEAA_ND@Z 000000018018138c f i libucrt:output.obj
 0001:00180468       ?state_case_normal_tchar@?$output_processor@_WV?$stream_output_adapter@_W@__crt_stdio_output@@V?$format_validation_base@_WV?$stream_output_adapter@_W@__crt_stdio_output@@@2@@__crt_stdio_output@@AEAA_N_W@Z 0000000180181468 f i libucrt:output.obj
 0001:00180470       ?state_case_normal_tchar@?$output_processor@_WV?$stream_output_adapter@_W@__crt_stdio_output@@V?$positional_parameter_base@_WV?$stream_output_adapter@_W@__crt_stdio_output@@@2@@__crt_stdio_output@@AEAA_N_W@Z 0000000180181470 f i libucrt:output.obj
 0001:00180478       ?state_case_normal_tchar@?$output_processor@_WV?$stream_output_adapter@_W@__crt_stdio_output@@V?$standard_base@_WV?$stream_output_adapter@_W@__crt_stdio_output@@@2@@__crt_stdio_output@@AEAA_N_W@Z 0000000180181478 f i libucrt:output.obj
 0001:00180480       ?state_case_normal_tchar@?$output_processor@_WV?$string_output_adapter@_W@__crt_stdio_output@@V?$format_validation_base@_WV?$string_output_adapter@_W@__crt_stdio_output@@@2@@__crt_stdio_output@@AEAA_N_W@Z 0000000180181480 f i libucrt:output.obj
 0001:00180488       ?state_case_normal_tchar@?$output_processor@_WV?$string_output_adapter@_W@__crt_stdio_output@@V?$positional_parameter_base@_WV?$string_output_adapter@_W@__crt_stdio_output@@@2@@__crt_stdio_output@@AEAA_N_W@Z 0000000180181488 f i libucrt:output.obj
 0001:00180490       ?state_case_normal_tchar@?$output_processor@_WV?$string_output_adapter@_W@__crt_stdio_output@@V?$standard_base@_WV?$string_output_adapter@_W@__crt_stdio_output@@@2@@__crt_stdio_output@@AEAA_N_W@Z 0000000180181490 f i libucrt:output.obj
 0001:00180498       ?state_case_percent@?$output_processor@DV?$stream_output_adapter@D@__crt_stdio_output@@V?$format_validation_base@DV?$stream_output_adapter@D@__crt_stdio_output@@@2@@__crt_stdio_output@@AEAA_NXZ 0000000180181498 f i libucrt:output.obj
 0001:001804b0       ?state_case_percent@?$output_processor@DV?$stream_output_adapter@D@__crt_stdio_output@@V?$positional_parameter_base@DV?$stream_output_adapter@D@__crt_stdio_output@@@2@@__crt_stdio_output@@AEAA_NXZ 00000001801814b0 f i libucrt:output.obj
 0001:001804c8       ?state_case_percent@?$output_processor@DV?$stream_output_adapter@D@__crt_stdio_output@@V?$standard_base@DV?$stream_output_adapter@D@__crt_stdio_output@@@2@@__crt_stdio_output@@AEAA_NXZ 00000001801814c8 f i libucrt:output.obj
 0001:001804e0       ?state_case_percent@?$output_processor@DV?$string_output_adapter@D@__crt_stdio_output@@V?$format_validation_base@DV?$string_output_adapter@D@__crt_stdio_output@@@2@@__crt_stdio_output@@AEAA_NXZ 00000001801814e0 f i libucrt:output.obj
 0001:001804f8       ?state_case_percent@?$output_processor@DV?$string_output_adapter@D@__crt_stdio_output@@V?$positional_parameter_base@DV?$string_output_adapter@D@__crt_stdio_output@@@2@@__crt_stdio_output@@AEAA_NXZ 00000001801814f8 f i libucrt:output.obj
 0001:00180510       ?state_case_percent@?$output_processor@DV?$string_output_adapter@D@__crt_stdio_output@@V?$standard_base@DV?$string_output_adapter@D@__crt_stdio_output@@@2@@__crt_stdio_output@@AEAA_NXZ 0000000180181510 f i libucrt:output.obj
 0001:00180528       ?state_case_percent@?$output_processor@_WV?$stream_output_adapter@_W@__crt_stdio_output@@V?$format_validation_base@_WV?$stream_output_adapter@_W@__crt_stdio_output@@@2@@__crt_stdio_output@@AEAA_NXZ 0000000180181528 f i libucrt:output.obj
 0001:00180540       ?state_case_percent@?$output_processor@_WV?$stream_output_adapter@_W@__crt_stdio_output@@V?$positional_parameter_base@_WV?$stream_output_adapter@_W@__crt_stdio_output@@@2@@__crt_stdio_output@@AEAA_NXZ 0000000180181540 f i libucrt:output.obj
 0001:00180558       ?state_case_percent@?$output_processor@_WV?$stream_output_adapter@_W@__crt_stdio_output@@V?$standard_base@_WV?$stream_output_adapter@_W@__crt_stdio_output@@@2@@__crt_stdio_output@@AEAA_NXZ 0000000180181558 f i libucrt:output.obj
 0001:00180570       ?state_case_percent@?$output_processor@_WV?$string_output_adapter@_W@__crt_stdio_output@@V?$format_validation_base@_WV?$string_output_adapter@_W@__crt_stdio_output@@@2@@__crt_stdio_output@@AEAA_NXZ 0000000180181570 f i libucrt:output.obj
 0001:00180588       ?state_case_percent@?$output_processor@_WV?$string_output_adapter@_W@__crt_stdio_output@@V?$positional_parameter_base@_WV?$string_output_adapter@_W@__crt_stdio_output@@@2@@__crt_stdio_output@@AEAA_NXZ 0000000180181588 f i libucrt:output.obj
 0001:001805a0       ?state_case_percent@?$output_processor@_WV?$string_output_adapter@_W@__crt_stdio_output@@V?$standard_base@_WV?$string_output_adapter@_W@__crt_stdio_output@@@2@@__crt_stdio_output@@AEAA_NXZ 00000001801815a0 f i libucrt:output.obj
 0001:001805b8       ?state_case_precision@?$output_processor@DV?$stream_output_adapter@D@__crt_stdio_output@@V?$format_validation_base@DV?$stream_output_adapter@D@__crt_stdio_output@@@2@@__crt_stdio_output@@AEAA_NXZ 00000001801815b8 f i libucrt:output.obj
 0001:001805e0       ?state_case_precision@?$output_processor@DV?$stream_output_adapter@D@__crt_stdio_output@@V?$positional_parameter_base@DV?$stream_output_adapter@D@__crt_stdio_output@@@2@@__crt_stdio_output@@AEAA_NXZ 00000001801815e0 f i libucrt:output.obj
 0001:0018062c       ?state_case_precision@?$output_processor@DV?$stream_output_adapter@D@__crt_stdio_output@@V?$standard_base@DV?$stream_output_adapter@D@__crt_stdio_output@@@2@@__crt_stdio_output@@AEAA_NXZ 000000018018162c f i libucrt:output.obj
 0001:00180654       ?state_case_precision@?$output_processor@DV?$string_output_adapter@D@__crt_stdio_output@@V?$format_validation_base@DV?$string_output_adapter@D@__crt_stdio_output@@@2@@__crt_stdio_output@@AEAA_NXZ 0000000180181654 f i libucrt:output.obj
 0001:0018067c       ?state_case_precision@?$output_processor@DV?$string_output_adapter@D@__crt_stdio_output@@V?$positional_parameter_base@DV?$string_output_adapter@D@__crt_stdio_output@@@2@@__crt_stdio_output@@AEAA_NXZ 000000018018167c f i libucrt:output.obj
 0001:001806c8       ?state_case_precision@?$output_processor@DV?$string_output_adapter@D@__crt_stdio_output@@V?$standard_base@DV?$string_output_adapter@D@__crt_stdio_output@@@2@@__crt_stdio_output@@AEAA_NXZ 00000001801816c8 f i libucrt:output.obj
 0001:001806f0       ?state_case_precision@?$output_processor@_WV?$stream_output_adapter@_W@__crt_stdio_output@@V?$format_validation_base@_WV?$stream_output_adapter@_W@__crt_stdio_output@@@2@@__crt_stdio_output@@AEAA_NXZ 00000001801816f0 f i libucrt:output.obj
 0001:00180718       ?state_case_precision@?$output_processor@_WV?$stream_output_adapter@_W@__crt_stdio_output@@V?$positional_parameter_base@_WV?$stream_output_adapter@_W@__crt_stdio_output@@@2@@__crt_stdio_output@@AEAA_NXZ 0000000180181718 f i libucrt:output.obj
 0001:00180764       ?state_case_precision@?$output_processor@_WV?$stream_output_adapter@_W@__crt_stdio_output@@V?$standard_base@_WV?$stream_output_adapter@_W@__crt_stdio_output@@@2@@__crt_stdio_output@@AEAA_NXZ 0000000180181764 f i libucrt:output.obj
 0001:0018078c       ?state_case_precision@?$output_processor@_WV?$string_output_adapter@_W@__crt_stdio_output@@V?$format_validation_base@_WV?$string_output_adapter@_W@__crt_stdio_output@@@2@@__crt_stdio_output@@AEAA_NXZ 000000018018178c f i libucrt:output.obj
 0001:001807b4       ?state_case_precision@?$output_processor@_WV?$string_output_adapter@_W@__crt_stdio_output@@V?$positional_parameter_base@_WV?$string_output_adapter@_W@__crt_stdio_output@@@2@@__crt_stdio_output@@AEAA_NXZ 00000001801817b4 f i libucrt:output.obj
 0001:00180800       ?state_case_precision@?$output_processor@_WV?$string_output_adapter@_W@__crt_stdio_output@@V?$standard_base@_WV?$string_output_adapter@_W@__crt_stdio_output@@@2@@__crt_stdio_output@@AEAA_NXZ 0000000180181800 f i libucrt:output.obj
 0001:00180828       ?state_case_size@?$output_processor@DV?$stream_output_adapter@D@__crt_stdio_output@@V?$format_validation_base@DV?$stream_output_adapter@D@__crt_stdio_output@@@2@@__crt_stdio_output@@AEAA_NXZ 0000000180181828 f i libucrt:output.obj
 0001:001809ac       ?state_case_size@?$output_processor@DV?$stream_output_adapter@D@__crt_stdio_output@@V?$positional_parameter_base@DV?$stream_output_adapter@D@__crt_stdio_output@@@2@@__crt_stdio_output@@AEAA_NXZ 00000001801819ac f i libucrt:output.obj
 0001:00180b30       ?state_case_size@?$output_processor@DV?$stream_output_adapter@D@__crt_stdio_output@@V?$standard_base@DV?$stream_output_adapter@D@__crt_stdio_output@@@2@@__crt_stdio_output@@AEAA_NXZ 0000000180181b30 f i libucrt:output.obj
 0001:00180cb4       ?state_case_size@?$output_processor@DV?$string_output_adapter@D@__crt_stdio_output@@V?$format_validation_base@DV?$string_output_adapter@D@__crt_stdio_output@@@2@@__crt_stdio_output@@AEAA_NXZ 0000000180181cb4 f i libucrt:output.obj
 0001:00180e38       ?state_case_size@?$output_processor@DV?$string_output_adapter@D@__crt_stdio_output@@V?$positional_parameter_base@DV?$string_output_adapter@D@__crt_stdio_output@@@2@@__crt_stdio_output@@AEAA_NXZ 0000000180181e38 f i libucrt:output.obj
 0001:00180fbc       ?state_case_size@?$output_processor@DV?$string_output_adapter@D@__crt_stdio_output@@V?$standard_base@DV?$string_output_adapter@D@__crt_stdio_output@@@2@@__crt_stdio_output@@AEAA_NXZ 0000000180181fbc f i libucrt:output.obj
 0001:00181140       ?state_case_size@?$output_processor@_WV?$stream_output_adapter@_W@__crt_stdio_output@@V?$format_validation_base@_WV?$stream_output_adapter@_W@__crt_stdio_output@@@2@@__crt_stdio_output@@AEAA_NXZ 0000000180182140 f i libucrt:output.obj
 0001:001812ec       ?state_case_size@?$output_processor@_WV?$stream_output_adapter@_W@__crt_stdio_output@@V?$positional_parameter_base@_WV?$stream_output_adapter@_W@__crt_stdio_output@@@2@@__crt_stdio_output@@AEAA_NXZ 00000001801822ec f i libucrt:output.obj
 0001:00181498       ?state_case_size@?$output_processor@_WV?$stream_output_adapter@_W@__crt_stdio_output@@V?$standard_base@_WV?$stream_output_adapter@_W@__crt_stdio_output@@@2@@__crt_stdio_output@@AEAA_NXZ 0000000180182498 f i libucrt:output.obj
 0001:00181644       ?state_case_size@?$output_processor@_WV?$string_output_adapter@_W@__crt_stdio_output@@V?$format_validation_base@_WV?$string_output_adapter@_W@__crt_stdio_output@@@2@@__crt_stdio_output@@AEAA_NXZ 0000000180182644 f i libucrt:output.obj
 0001:001817f0       ?state_case_size@?$output_processor@_WV?$string_output_adapter@_W@__crt_stdio_output@@V?$positional_parameter_base@_WV?$string_output_adapter@_W@__crt_stdio_output@@@2@@__crt_stdio_output@@AEAA_NXZ 00000001801827f0 f i libucrt:output.obj
 0001:0018199c       ?state_case_size@?$output_processor@_WV?$string_output_adapter@_W@__crt_stdio_output@@V?$standard_base@_WV?$string_output_adapter@_W@__crt_stdio_output@@@2@@__crt_stdio_output@@AEAA_NXZ 000000018018299c f i libucrt:output.obj
 0001:00181b48       ?state_case_type@?$output_processor@DV?$stream_output_adapter@D@__crt_stdio_output@@V?$format_validation_base@DV?$stream_output_adapter@D@__crt_stdio_output@@@2@@__crt_stdio_output@@AEAA_NXZ 0000000180182b48 f i libucrt:output.obj
 0001:00181f7c       ?state_case_type@?$output_processor@DV?$stream_output_adapter@D@__crt_stdio_output@@V?$positional_parameter_base@DV?$stream_output_adapter@D@__crt_stdio_output@@@2@@__crt_stdio_output@@AEAA_NXZ 0000000180182f7c f i libucrt:output.obj
 0001:001823c8       ?state_case_type@?$output_processor@DV?$stream_output_adapter@D@__crt_stdio_output@@V?$standard_base@DV?$stream_output_adapter@D@__crt_stdio_output@@@2@@__crt_stdio_output@@AEAA_NXZ 00000001801833c8 f i libucrt:output.obj
 0001:001827fc       ?state_case_type@?$output_processor@DV?$string_output_adapter@D@__crt_stdio_output@@V?$format_validation_base@DV?$string_output_adapter@D@__crt_stdio_output@@@2@@__crt_stdio_output@@AEAA_NXZ 00000001801837fc f i libucrt:output.obj
 0001:00182bc8       ?state_case_type@?$output_processor@DV?$string_output_adapter@D@__crt_stdio_output@@V?$positional_parameter_base@DV?$string_output_adapter@D@__crt_stdio_output@@@2@@__crt_stdio_output@@AEAA_NXZ 0000000180183bc8 f i libucrt:output.obj
 0001:00182fac       ?state_case_type@?$output_processor@DV?$string_output_adapter@D@__crt_stdio_output@@V?$standard_base@DV?$string_output_adapter@D@__crt_stdio_output@@@2@@__crt_stdio_output@@AEAA_NXZ 0000000180183fac f i libucrt:output.obj
 0001:00183378       ?state_case_type@?$output_processor@_WV?$stream_output_adapter@_W@__crt_stdio_output@@V?$format_validation_base@_WV?$stream_output_adapter@_W@__crt_stdio_output@@@2@@__crt_stdio_output@@AEAA_NXZ 0000000180184378 f i libucrt:output.obj
 0001:00183848       ?state_case_type@?$output_processor@_WV?$stream_output_adapter@_W@__crt_stdio_output@@V?$positional_parameter_base@_WV?$stream_output_adapter@_W@__crt_stdio_output@@@2@@__crt_stdio_output@@AEAA_NXZ 0000000180184848 f i libucrt:output.obj
 0001:00183d2c       ?state_case_type@?$output_processor@_WV?$stream_output_adapter@_W@__crt_stdio_output@@V?$standard_base@_WV?$stream_output_adapter@_W@__crt_stdio_output@@@2@@__crt_stdio_output@@AEAA_NXZ 0000000180184d2c f i libucrt:output.obj
 0001:001841fc       ?state_case_type@?$output_processor@_WV?$string_output_adapter@_W@__crt_stdio_output@@V?$format_validation_base@_WV?$string_output_adapter@_W@__crt_stdio_output@@@2@@__crt_stdio_output@@AEAA_NXZ 00000001801851fc f i libucrt:output.obj
 0001:00184658       ?state_case_type@?$output_processor@_WV?$string_output_adapter@_W@__crt_stdio_output@@V?$positional_parameter_base@_WV?$string_output_adapter@_W@__crt_stdio_output@@@2@@__crt_stdio_output@@AEAA_NXZ 0000000180185658 f i libucrt:output.obj
 0001:00184acc       ?state_case_type@?$output_processor@_WV?$string_output_adapter@_W@__crt_stdio_output@@V?$standard_base@_WV?$string_output_adapter@_W@__crt_stdio_output@@@2@@__crt_stdio_output@@AEAA_NXZ 0000000180185acc f i libucrt:output.obj
 0001:00184f28       ?state_case_width@?$output_processor@DV?$stream_output_adapter@D@__crt_stdio_output@@V?$format_validation_base@DV?$stream_output_adapter@D@__crt_stdio_output@@@2@@__crt_stdio_output@@AEAA_NXZ 0000000180185f28 f i libucrt:output.obj
 0001:00184f5c       ?state_case_width@?$output_processor@DV?$stream_output_adapter@D@__crt_stdio_output@@V?$positional_parameter_base@DV?$stream_output_adapter@D@__crt_stdio_output@@@2@@__crt_stdio_output@@AEAA_NXZ 0000000180185f5c f i libucrt:output.obj
 0001:00184fac       ?state_case_width@?$output_processor@DV?$stream_output_adapter@D@__crt_stdio_output@@V?$standard_base@DV?$stream_output_adapter@D@__crt_stdio_output@@@2@@__crt_stdio_output@@AEAA_NXZ 0000000180185fac f i libucrt:output.obj
 0001:00184fe0       ?state_case_width@?$output_processor@DV?$string_output_adapter@D@__crt_stdio_output@@V?$format_validation_base@DV?$string_output_adapter@D@__crt_stdio_output@@@2@@__crt_stdio_output@@AEAA_NXZ 0000000180185fe0 f i libucrt:output.obj
 0001:00185014       ?state_case_width@?$output_processor@DV?$string_output_adapter@D@__crt_stdio_output@@V?$positional_parameter_base@DV?$string_output_adapter@D@__crt_stdio_output@@@2@@__crt_stdio_output@@AEAA_NXZ 0000000180186014 f i libucrt:output.obj
 0001:00185064       ?state_case_width@?$output_processor@DV?$string_output_adapter@D@__crt_stdio_output@@V?$standard_base@DV?$string_output_adapter@D@__crt_stdio_output@@@2@@__crt_stdio_output@@AEAA_NXZ 0000000180186064 f i libucrt:output.obj
 0001:00185098       ?state_case_width@?$output_processor@_WV?$stream_output_adapter@_W@__crt_stdio_output@@V?$format_validation_base@_WV?$stream_output_adapter@_W@__crt_stdio_output@@@2@@__crt_stdio_output@@AEAA_NXZ 0000000180186098 f i libucrt:output.obj
 0001:001850cc       ?state_case_width@?$output_processor@_WV?$stream_output_adapter@_W@__crt_stdio_output@@V?$positional_parameter_base@_WV?$stream_output_adapter@_W@__crt_stdio_output@@@2@@__crt_stdio_output@@AEAA_NXZ 00000001801860cc f i libucrt:output.obj
 0001:00185120       ?state_case_width@?$output_processor@_WV?$stream_output_adapter@_W@__crt_stdio_output@@V?$standard_base@_WV?$stream_output_adapter@_W@__crt_stdio_output@@@2@@__crt_stdio_output@@AEAA_NXZ 0000000180186120 f i libucrt:output.obj
 0001:00185154       ?state_case_width@?$output_processor@_WV?$string_output_adapter@_W@__crt_stdio_output@@V?$format_validation_base@_WV?$string_output_adapter@_W@__crt_stdio_output@@@2@@__crt_stdio_output@@AEAA_NXZ 0000000180186154 f i libucrt:output.obj
 0001:00185188       ?state_case_width@?$output_processor@_WV?$string_output_adapter@_W@__crt_stdio_output@@V?$positional_parameter_base@_WV?$string_output_adapter@_W@__crt_stdio_output@@@2@@__crt_stdio_output@@AEAA_NXZ 0000000180186188 f i libucrt:output.obj
 0001:001851dc       ?state_case_width@?$output_processor@_WV?$string_output_adapter@_W@__crt_stdio_output@@V?$standard_base@_WV?$string_output_adapter@_W@__crt_stdio_output@@@2@@__crt_stdio_output@@AEAA_NXZ 00000001801861dc f i libucrt:output.obj
 0001:00185210       ?state_count@?$format_validation_base@DV?$stream_output_adapter@D@__crt_stdio_output@@@__crt_stdio_output@@KAIXZ 0000000180186210 f i libucrt:output.obj
 0001:00185218       ?state_count@?$format_validation_base@DV?$string_output_adapter@D@__crt_stdio_output@@@__crt_stdio_output@@KAIXZ 0000000180186218 f i libucrt:output.obj
 0001:00185220       ?state_count@?$format_validation_base@_WV?$stream_output_adapter@_W@__crt_stdio_output@@@__crt_stdio_output@@KAIXZ 0000000180186220 f i libucrt:output.obj
 0001:00185228       ?state_count@?$format_validation_base@_WV?$string_output_adapter@_W@__crt_stdio_output@@@__crt_stdio_output@@KAIXZ 0000000180186228 f i libucrt:output.obj
 0001:00185230       ?state_count@?$standard_base@DV?$stream_output_adapter@D@__crt_stdio_output@@@__crt_stdio_output@@KAIXZ 0000000180186230 f i libucrt:output.obj
 0001:00185238       ?state_count@?$standard_base@DV?$string_output_adapter@D@__crt_stdio_output@@@__crt_stdio_output@@KAIXZ 0000000180186238 f i libucrt:output.obj
 0001:00185240       ?state_count@?$standard_base@_WV?$stream_output_adapter@_W@__crt_stdio_output@@@__crt_stdio_output@@KAIXZ 0000000180186240 f i libucrt:output.obj
 0001:00185248       ?state_count@?$standard_base@_WV?$string_output_adapter@_W@__crt_stdio_output@@@__crt_stdio_output@@KAIXZ 0000000180186248 f i libucrt:output.obj
 0001:00185250       ?state_transition_table@?$format_validation_base@DV?$stream_output_adapter@D@__crt_stdio_output@@@__crt_stdio_output@@KAAEBV?$spectre_mitigated_lookup_table@Ustate_transition_pair@__crt_stdio_output@@$0IA@@2@XZ 0000000180186250 f i libucrt:output.obj
 0001:00185258       ?state_transition_table@?$format_validation_base@DV?$string_output_adapter@D@__crt_stdio_output@@@__crt_stdio_output@@KAAEBV?$spectre_mitigated_lookup_table@Ustate_transition_pair@__crt_stdio_output@@$0IA@@2@XZ 0000000180186258 f i libucrt:output.obj
 0001:00185260       ?state_transition_table@?$format_validation_base@_WV?$stream_output_adapter@_W@__crt_stdio_output@@@__crt_stdio_output@@KAAEBV?$spectre_mitigated_lookup_table@Ustate_transition_pair@__crt_stdio_output@@$0IA@@2@XZ 0000000180186260 f i libucrt:output.obj
 0001:00185268       ?state_transition_table@?$format_validation_base@_WV?$string_output_adapter@_W@__crt_stdio_output@@@__crt_stdio_output@@KAAEBV?$spectre_mitigated_lookup_table@Ustate_transition_pair@__crt_stdio_output@@$0IA@@2@XZ 0000000180186268 f i libucrt:output.obj
 0001:00185270       ?state_transition_table@?$standard_base@DV?$stream_output_adapter@D@__crt_stdio_output@@@__crt_stdio_output@@KAAEBV?$spectre_mitigated_lookup_table@Ustate_transition_pair@__crt_stdio_output@@$0IA@@2@XZ 0000000180186270 f i libucrt:output.obj
 0001:00185278       ?state_transition_table@?$standard_base@DV?$string_output_adapter@D@__crt_stdio_output@@@__crt_stdio_output@@KAAEBV?$spectre_mitigated_lookup_table@Ustate_transition_pair@__crt_stdio_output@@$0IA@@2@XZ 0000000180186278 f i libucrt:output.obj
 0001:00185280       ?state_transition_table@?$standard_base@_WV?$stream_output_adapter@_W@__crt_stdio_output@@@__crt_stdio_output@@KAAEBV?$spectre_mitigated_lookup_table@Ustate_transition_pair@__crt_stdio_output@@$0IA@@2@XZ 0000000180186280 f i libucrt:output.obj
 0001:00185288       ?state_transition_table@?$standard_base@_WV?$string_output_adapter@_W@__crt_stdio_output@@@__crt_stdio_output@@KAAEBV?$spectre_mitigated_lookup_table@Ustate_transition_pair@__crt_stdio_output@@$0IA@@2@XZ 0000000180186288 f i libucrt:output.obj
 0001:00185290       ?tchar_string@?$common_data@D@__crt_stdio_output@@IEAAAEAPEADD@Z 0000000180186290 f i libucrt:output.obj
 0001:00185298       ?tchar_string@?$common_data@D@__crt_stdio_output@@IEAAAEAPEADXZ 0000000180186298 f i libucrt:output.obj
 0001:001852a0       ?tchar_string@?$common_data@_W@__crt_stdio_output@@IEAAAEAPEA_WXZ 00000001801862a0 f i libucrt:output.obj
 0001:001852a8       ?tchar_string@?$common_data@_W@__crt_stdio_output@@IEAAAEAPEA_W_W@Z 00000001801862a8 f i libucrt:output.obj
 0001:001852b0       ?to_integer_size@__crt_stdio_output@@YA_KW4length_modifier@1@@Z 00000001801862b0 f i libucrt:output.obj
 0001:001852f8       ?type_case_X@?$output_processor@DV?$stream_output_adapter@D@__crt_stdio_output@@V?$format_validation_base@DV?$stream_output_adapter@D@__crt_stdio_output@@@2@@__crt_stdio_output@@AEAA_NXZ 00000001801862f8 f i libucrt:output.obj
 0001:00185300       ?type_case_X@?$output_processor@DV?$stream_output_adapter@D@__crt_stdio_output@@V?$positional_parameter_base@DV?$stream_output_adapter@D@__crt_stdio_output@@@2@@__crt_stdio_output@@AEAA_NXZ 0000000180186300 f i libucrt:output.obj
 0001:00185308       ?type_case_X@?$output_processor@DV?$stream_output_adapter@D@__crt_stdio_output@@V?$standard_base@DV?$stream_output_adapter@D@__crt_stdio_output@@@2@@__crt_stdio_output@@AEAA_NXZ 0000000180186308 f i libucrt:output.obj
 0001:00185310       ?type_case_X@?$output_processor@DV?$string_output_adapter@D@__crt_stdio_output@@V?$format_validation_base@DV?$string_output_adapter@D@__crt_stdio_output@@@2@@__crt_stdio_output@@AEAA_NXZ 0000000180186310 f i libucrt:output.obj
 0001:00185318       ?type_case_X@?$output_processor@DV?$string_output_adapter@D@__crt_stdio_output@@V?$positional_parameter_base@DV?$string_output_adapter@D@__crt_stdio_output@@@2@@__crt_stdio_output@@AEAA_NXZ 0000000180186318 f i libucrt:output.obj
 0001:00185320       ?type_case_X@?$output_processor@DV?$string_output_adapter@D@__crt_stdio_output@@V?$standard_base@DV?$string_output_adapter@D@__crt_stdio_output@@@2@@__crt_stdio_output@@AEAA_NXZ 0000000180186320 f i libucrt:output.obj
 0001:00185328       ?type_case_X@?$output_processor@_WV?$stream_output_adapter@_W@__crt_stdio_output@@V?$format_validation_base@_WV?$stream_output_adapter@_W@__crt_stdio_output@@@2@@__crt_stdio_output@@AEAA_NXZ 0000000180186328 f i libucrt:output.obj
 0001:00185330       ?type_case_X@?$output_processor@_WV?$stream_output_adapter@_W@__crt_stdio_output@@V?$positional_parameter_base@_WV?$stream_output_adapter@_W@__crt_stdio_output@@@2@@__crt_stdio_output@@AEAA_NXZ 0000000180186330 f i libucrt:output.obj
 0001:00185338       ?type_case_X@?$output_processor@_WV?$stream_output_adapter@_W@__crt_stdio_output@@V?$standard_base@_WV?$stream_output_adapter@_W@__crt_stdio_output@@@2@@__crt_stdio_output@@AEAA_NXZ 0000000180186338 f i libucrt:output.obj
 0001:00185340       ?type_case_X@?$output_processor@_WV?$string_output_adapter@_W@__crt_stdio_output@@V?$format_validation_base@_WV?$string_output_adapter@_W@__crt_stdio_output@@@2@@__crt_stdio_output@@AEAA_NXZ 0000000180186340 f i libucrt:output.obj
 0001:00185348       ?type_case_X@?$output_processor@_WV?$string_output_adapter@_W@__crt_stdio_output@@V?$positional_parameter_base@_WV?$string_output_adapter@_W@__crt_stdio_output@@@2@@__crt_stdio_output@@AEAA_NXZ 0000000180186348 f i libucrt:output.obj
 0001:00185350       ?type_case_X@?$output_processor@_WV?$string_output_adapter@_W@__crt_stdio_output@@V?$standard_base@_WV?$string_output_adapter@_W@__crt_stdio_output@@@2@@__crt_stdio_output@@AEAA_NXZ 0000000180186350 f i libucrt:output.obj
 0001:00185358       ?type_case_Z@?$output_processor@DV?$stream_output_adapter@D@__crt_stdio_output@@V?$format_validation_base@DV?$stream_output_adapter@D@__crt_stdio_output@@@2@@__crt_stdio_output@@AEAA_NXZ 0000000180186358 f i libucrt:output.obj
 0001:001853cc       ?type_case_Z@?$output_processor@DV?$stream_output_adapter@D@__crt_stdio_output@@V?$positional_parameter_base@DV?$stream_output_adapter@D@__crt_stdio_output@@@2@@__crt_stdio_output@@AEAA_NXZ 00000001801863cc f i libucrt:output.obj
 0001:0018546c       ?type_case_Z@?$output_processor@DV?$stream_output_adapter@D@__crt_stdio_output@@V?$standard_base@DV?$stream_output_adapter@D@__crt_stdio_output@@@2@@__crt_stdio_output@@AEAA_NXZ 000000018018646c f i libucrt:output.obj
 0001:001854e0       ?type_case_Z@?$output_processor@DV?$string_output_adapter@D@__crt_stdio_output@@V?$format_validation_base@DV?$string_output_adapter@D@__crt_stdio_output@@@2@@__crt_stdio_output@@AEAA_NXZ 00000001801864e0 f i libucrt:output.obj
 0001:00185554       ?type_case_Z@?$output_processor@DV?$string_output_adapter@D@__crt_stdio_output@@V?$positional_parameter_base@DV?$string_output_adapter@D@__crt_stdio_output@@@2@@__crt_stdio_output@@AEAA_NXZ 0000000180186554 f i libucrt:output.obj
 0001:001855f4       ?type_case_Z@?$output_processor@DV?$string_output_adapter@D@__crt_stdio_output@@V?$standard_base@DV?$string_output_adapter@D@__crt_stdio_output@@@2@@__crt_stdio_output@@AEAA_NXZ 00000001801865f4 f i libucrt:output.obj
 0001:00185668       ?type_case_Z@?$output_processor@_WV?$stream_output_adapter@_W@__crt_stdio_output@@V?$format_validation_base@_WV?$stream_output_adapter@_W@__crt_stdio_output@@@2@@__crt_stdio_output@@AEAA_NXZ 0000000180186668 f i libucrt:output.obj
 0001:001856e4       ?type_case_Z@?$output_processor@_WV?$stream_output_adapter@_W@__crt_stdio_output@@V?$positional_parameter_base@_WV?$stream_output_adapter@_W@__crt_stdio_output@@@2@@__crt_stdio_output@@AEAA_NXZ 00000001801866e4 f i libucrt:output.obj
 0001:0018577c       ?type_case_Z@?$output_processor@_WV?$stream_output_adapter@_W@__crt_stdio_output@@V?$standard_base@_WV?$stream_output_adapter@_W@__crt_stdio_output@@@2@@__crt_stdio_output@@AEAA_NXZ 000000018018677c f i libucrt:output.obj
 0001:001857f8       ?type_case_Z@?$output_processor@_WV?$string_output_adapter@_W@__crt_stdio_output@@V?$format_validation_base@_WV?$string_output_adapter@_W@__crt_stdio_output@@@2@@__crt_stdio_output@@AEAA_NXZ 00000001801867f8 f i libucrt:output.obj
 0001:00185874       ?type_case_Z@?$output_processor@_WV?$string_output_adapter@_W@__crt_stdio_output@@V?$positional_parameter_base@_WV?$string_output_adapter@_W@__crt_stdio_output@@@2@@__crt_stdio_output@@AEAA_NXZ 0000000180186874 f i libucrt:output.obj
 0001:0018590c       ?type_case_Z@?$output_processor@_WV?$string_output_adapter@_W@__crt_stdio_output@@V?$standard_base@_WV?$string_output_adapter@_W@__crt_stdio_output@@@2@@__crt_stdio_output@@AEAA_NXZ 000000018018690c f i libucrt:output.obj
 0001:00185988       ?type_case_a@?$output_processor@DV?$stream_output_adapter@D@__crt_stdio_output@@V?$format_validation_base@DV?$stream_output_adapter@D@__crt_stdio_output@@@2@@__crt_stdio_output@@AEAA_NXZ 0000000180186988 f i libucrt:output.obj
 0001:00185bd4       ?type_case_a@?$output_processor@DV?$stream_output_adapter@D@__crt_stdio_output@@V?$positional_parameter_base@DV?$stream_output_adapter@D@__crt_stdio_output@@@2@@__crt_stdio_output@@AEAA_NXZ 0000000180186bd4 f i libucrt:output.obj
 0001:00185e50       ?type_case_a@?$output_processor@DV?$stream_output_adapter@D@__crt_stdio_output@@V?$standard_base@DV?$stream_output_adapter@D@__crt_stdio_output@@@2@@__crt_stdio_output@@AEAA_NXZ 0000000180186e50 f i libucrt:output.obj
 0001:0018609c       ?type_case_a@?$output_processor@DV?$string_output_adapter@D@__crt_stdio_output@@V?$format_validation_base@DV?$string_output_adapter@D@__crt_stdio_output@@@2@@__crt_stdio_output@@AEAA_NXZ 000000018018709c f i libucrt:output.obj
 0001:001862e8       ?type_case_a@?$output_processor@DV?$string_output_adapter@D@__crt_stdio_output@@V?$positional_parameter_base@DV?$string_output_adapter@D@__crt_stdio_output@@@2@@__crt_stdio_output@@AEAA_NXZ 00000001801872e8 f i libucrt:output.obj
 0001:00186564       ?type_case_a@?$output_processor@DV?$string_output_adapter@D@__crt_stdio_output@@V?$standard_base@DV?$string_output_adapter@D@__crt_stdio_output@@@2@@__crt_stdio_output@@AEAA_NXZ 0000000180187564 f i libucrt:output.obj
 0001:001867b0       ?type_case_a@?$output_processor@_WV?$stream_output_adapter@_W@__crt_stdio_output@@V?$format_validation_base@_WV?$stream_output_adapter@_W@__crt_stdio_output@@@2@@__crt_stdio_output@@AEAA_NXZ 00000001801877b0 f i libucrt:output.obj
 0001:00186a10       ?type_case_a@?$output_processor@_WV?$stream_output_adapter@_W@__crt_stdio_output@@V?$positional_parameter_base@_WV?$stream_output_adapter@_W@__crt_stdio_output@@@2@@__crt_stdio_output@@AEAA_NXZ 0000000180187a10 f i libucrt:output.obj
 0001:00186ca4       ?type_case_a@?$output_processor@_WV?$stream_output_adapter@_W@__crt_stdio_output@@V?$standard_base@_WV?$stream_output_adapter@_W@__crt_stdio_output@@@2@@__crt_stdio_output@@AEAA_NXZ 0000000180187ca4 f i libucrt:output.obj
 0001:00186f04       ?type_case_a@?$output_processor@_WV?$string_output_adapter@_W@__crt_stdio_output@@V?$format_validation_base@_WV?$string_output_adapter@_W@__crt_stdio_output@@@2@@__crt_stdio_output@@AEAA_NXZ 0000000180187f04 f i libucrt:output.obj
 0001:00187164       ?type_case_a@?$output_processor@_WV?$string_output_adapter@_W@__crt_stdio_output@@V?$positional_parameter_base@_WV?$string_output_adapter@_W@__crt_stdio_output@@@2@@__crt_stdio_output@@AEAA_NXZ 0000000180188164 f i libucrt:output.obj
 0001:001873f8       ?type_case_a@?$output_processor@_WV?$string_output_adapter@_W@__crt_stdio_output@@V?$standard_base@_WV?$string_output_adapter@_W@__crt_stdio_output@@@2@@__crt_stdio_output@@AEAA_NXZ 00000001801883f8 f i libucrt:output.obj
 0001:00187658       ?type_case_c@?$output_processor@DV?$stream_output_adapter@D@__crt_stdio_output@@V?$format_validation_base@DV?$stream_output_adapter@D@__crt_stdio_output@@@2@@__crt_stdio_output@@AEAA_NXZ 0000000180188658 f i libucrt:output.obj
 0001:00187660       ?type_case_c@?$output_processor@DV?$stream_output_adapter@D@__crt_stdio_output@@V?$positional_parameter_base@DV?$stream_output_adapter@D@__crt_stdio_output@@@2@@__crt_stdio_output@@AEAA_NXZ 0000000180188660 f i libucrt:output.obj
 0001:00187668       ?type_case_c@?$output_processor@DV?$stream_output_adapter@D@__crt_stdio_output@@V?$standard_base@DV?$stream_output_adapter@D@__crt_stdio_output@@@2@@__crt_stdio_output@@AEAA_NXZ 0000000180188668 f i libucrt:output.obj
 0001:00187670       ?type_case_c@?$output_processor@DV?$string_output_adapter@D@__crt_stdio_output@@V?$format_validation_base@DV?$string_output_adapter@D@__crt_stdio_output@@@2@@__crt_stdio_output@@AEAA_NXZ 0000000180188670 f i libucrt:output.obj
 0001:00187678       ?type_case_c@?$output_processor@DV?$string_output_adapter@D@__crt_stdio_output@@V?$positional_parameter_base@DV?$string_output_adapter@D@__crt_stdio_output@@@2@@__crt_stdio_output@@AEAA_NXZ 0000000180188678 f i libucrt:output.obj
 0001:00187680       ?type_case_c@?$output_processor@DV?$string_output_adapter@D@__crt_stdio_output@@V?$standard_base@DV?$string_output_adapter@D@__crt_stdio_output@@@2@@__crt_stdio_output@@AEAA_NXZ 0000000180188680 f i libucrt:output.obj
 0001:00187688       ?type_case_c@?$output_processor@_WV?$stream_output_adapter@_W@__crt_stdio_output@@V?$format_validation_base@_WV?$stream_output_adapter@_W@__crt_stdio_output@@@2@@__crt_stdio_output@@AEAA_NXZ 0000000180188688 f i libucrt:output.obj
 0001:00187690       ?type_case_c@?$output_processor@_WV?$stream_output_adapter@_W@__crt_stdio_output@@V?$positional_parameter_base@_WV?$stream_output_adapter@_W@__crt_stdio_output@@@2@@__crt_stdio_output@@AEAA_NXZ 0000000180188690 f i libucrt:output.obj
 0001:00187698       ?type_case_c@?$output_processor@_WV?$stream_output_adapter@_W@__crt_stdio_output@@V?$standard_base@_WV?$stream_output_adapter@_W@__crt_stdio_output@@@2@@__crt_stdio_output@@AEAA_NXZ 0000000180188698 f i libucrt:output.obj
 0001:001876a0       ?type_case_c@?$output_processor@_WV?$string_output_adapter@_W@__crt_stdio_output@@V?$format_validation_base@_WV?$string_output_adapter@_W@__crt_stdio_output@@@2@@__crt_stdio_output@@AEAA_NXZ 00000001801886a0 f i libucrt:output.obj
 0001:001876a8       ?type_case_c@?$output_processor@_WV?$string_output_adapter@_W@__crt_stdio_output@@V?$positional_parameter_base@_WV?$string_output_adapter@_W@__crt_stdio_output@@@2@@__crt_stdio_output@@AEAA_NXZ 00000001801886a8 f i libucrt:output.obj
 0001:001876b0       ?type_case_c@?$output_processor@_WV?$string_output_adapter@_W@__crt_stdio_output@@V?$standard_base@_WV?$string_output_adapter@_W@__crt_stdio_output@@@2@@__crt_stdio_output@@AEAA_NXZ 00000001801886b0 f i libucrt:output.obj
 0001:001876b8       ?type_case_c_tchar@?$output_processor@DV?$stream_output_adapter@D@__crt_stdio_output@@V?$format_validation_base@DV?$stream_output_adapter@D@__crt_stdio_output@@@2@@__crt_stdio_output@@AEAA_ND@Z 00000001801886b8 f i libucrt:output.obj
 0001:0018777c       ?type_case_c_tchar@?$output_processor@DV?$stream_output_adapter@D@__crt_stdio_output@@V?$positional_parameter_base@DV?$stream_output_adapter@D@__crt_stdio_output@@@2@@__crt_stdio_output@@AEAA_ND@Z 000000018018877c f i libucrt:output.obj
 0001:00187884       ?type_case_c_tchar@?$output_processor@DV?$stream_output_adapter@D@__crt_stdio_output@@V?$standard_base@DV?$stream_output_adapter@D@__crt_stdio_output@@@2@@__crt_stdio_output@@AEAA_ND@Z 0000000180188884 f i libucrt:output.obj
 0001:00187948       ?type_case_c_tchar@?$output_processor@DV?$string_output_adapter@D@__crt_stdio_output@@V?$format_validation_base@DV?$string_output_adapter@D@__crt_stdio_output@@@2@@__crt_stdio_output@@AEAA_ND@Z 0000000180188948 f i libucrt:output.obj
 0001:00187a0c       ?type_case_c_tchar@?$output_processor@DV?$string_output_adapter@D@__crt_stdio_output@@V?$positional_parameter_base@DV?$string_output_adapter@D@__crt_stdio_output@@@2@@__crt_stdio_output@@AEAA_ND@Z 0000000180188a0c f i libucrt:output.obj
 0001:00187b14       ?type_case_c_tchar@?$output_processor@DV?$string_output_adapter@D@__crt_stdio_output@@V?$standard_base@DV?$string_output_adapter@D@__crt_stdio_output@@@2@@__crt_stdio_output@@AEAA_ND@Z 0000000180188b14 f i libucrt:output.obj
 0001:00187bd8       ?type_case_c_tchar@?$output_processor@_WV?$stream_output_adapter@_W@__crt_stdio_output@@V?$format_validation_base@_WV?$stream_output_adapter@_W@__crt_stdio_output@@@2@@__crt_stdio_output@@AEAA_N_W@Z 0000000180188bd8 f i libucrt:output.obj
 0001:00187c9c       ?type_case_c_tchar@?$output_processor@_WV?$stream_output_adapter@_W@__crt_stdio_output@@V?$positional_parameter_base@_WV?$stream_output_adapter@_W@__crt_stdio_output@@@2@@__crt_stdio_output@@AEAA_N_W@Z 0000000180188c9c f i libucrt:output.obj
 0001:00187d94       ?type_case_c_tchar@?$output_processor@_WV?$stream_output_adapter@_W@__crt_stdio_output@@V?$standard_base@_WV?$stream_output_adapter@_W@__crt_stdio_output@@@2@@__crt_stdio_output@@AEAA_N_W@Z 0000000180188d94 f i libucrt:output.obj
 0001:00187e58       ?type_case_c_tchar@?$output_processor@_WV?$string_output_adapter@_W@__crt_stdio_output@@V?$format_validation_base@_WV?$string_output_adapter@_W@__crt_stdio_output@@@2@@__crt_stdio_output@@AEAA_N_W@Z 0000000180188e58 f i libucrt:output.obj
 0001:00187f1c       ?type_case_c_tchar@?$output_processor@_WV?$string_output_adapter@_W@__crt_stdio_output@@V?$positional_parameter_base@_WV?$string_output_adapter@_W@__crt_stdio_output@@@2@@__crt_stdio_output@@AEAA_N_W@Z 0000000180188f1c f i libucrt:output.obj
 0001:00188014       ?type_case_c_tchar@?$output_processor@_WV?$string_output_adapter@_W@__crt_stdio_output@@V?$standard_base@_WV?$string_output_adapter@_W@__crt_stdio_output@@@2@@__crt_stdio_output@@AEAA_N_W@Z 0000000180189014 f i libucrt:output.obj
 0001:001880d8       ?type_case_d@?$output_processor@DV?$stream_output_adapter@D@__crt_stdio_output@@V?$format_validation_base@DV?$stream_output_adapter@D@__crt_stdio_output@@@2@@__crt_stdio_output@@AEAA_NXZ 00000001801890d8 f i libucrt:output.obj
 0001:001880e4       ?type_case_d@?$output_processor@DV?$stream_output_adapter@D@__crt_stdio_output@@V?$positional_parameter_base@DV?$stream_output_adapter@D@__crt_stdio_output@@@2@@__crt_stdio_output@@AEAA_NXZ 00000001801890e4 f i libucrt:output.obj
 0001:001880f0       ?type_case_d@?$output_processor@DV?$stream_output_adapter@D@__crt_stdio_output@@V?$standard_base@DV?$stream_output_adapter@D@__crt_stdio_output@@@2@@__crt_stdio_output@@AEAA_NXZ 00000001801890f0 f i libucrt:output.obj
 0001:001880fc       ?type_case_d@?$output_processor@DV?$string_output_adapter@D@__crt_stdio_output@@V?$format_validation_base@DV?$string_output_adapter@D@__crt_stdio_output@@@2@@__crt_stdio_output@@AEAA_NXZ 00000001801890fc f i libucrt:output.obj
 0001:00188108       ?type_case_d@?$output_processor@DV?$string_output_adapter@D@__crt_stdio_output@@V?$positional_parameter_base@DV?$string_output_adapter@D@__crt_stdio_output@@@2@@__crt_stdio_output@@AEAA_NXZ 0000000180189108 f i libucrt:output.obj
 0001:00188114       ?type_case_d@?$output_processor@DV?$string_output_adapter@D@__crt_stdio_output@@V?$standard_base@DV?$string_output_adapter@D@__crt_stdio_output@@@2@@__crt_stdio_output@@AEAA_NXZ 0000000180189114 f i libucrt:output.obj
 0001:00188120       ?type_case_d@?$output_processor@_WV?$stream_output_adapter@_W@__crt_stdio_output@@V?$format_validation_base@_WV?$stream_output_adapter@_W@__crt_stdio_output@@@2@@__crt_stdio_output@@AEAA_NXZ 0000000180189120 f i libucrt:output.obj
 0001:0018812c       ?type_case_d@?$output_processor@_WV?$stream_output_adapter@_W@__crt_stdio_output@@V?$positional_parameter_base@_WV?$stream_output_adapter@_W@__crt_stdio_output@@@2@@__crt_stdio_output@@AEAA_NXZ 000000018018912c f i libucrt:output.obj
 0001:00188138       ?type_case_d@?$output_processor@_WV?$stream_output_adapter@_W@__crt_stdio_output@@V?$standard_base@_WV?$stream_output_adapter@_W@__crt_stdio_output@@@2@@__crt_stdio_output@@AEAA_NXZ 0000000180189138 f i libucrt:output.obj
 0001:00188144       ?type_case_d@?$output_processor@_WV?$string_output_adapter@_W@__crt_stdio_output@@V?$format_validation_base@_WV?$string_output_adapter@_W@__crt_stdio_output@@@2@@__crt_stdio_output@@AEAA_NXZ 0000000180189144 f i libucrt:output.obj
 0001:00188150       ?type_case_d@?$output_processor@_WV?$string_output_adapter@_W@__crt_stdio_output@@V?$positional_parameter_base@_WV?$string_output_adapter@_W@__crt_stdio_output@@@2@@__crt_stdio_output@@AEAA_NXZ 0000000180189150 f i libucrt:output.obj
 0001:0018815c       ?type_case_d@?$output_processor@_WV?$string_output_adapter@_W@__crt_stdio_output@@V?$standard_base@_WV?$string_output_adapter@_W@__crt_stdio_output@@@2@@__crt_stdio_output@@AEAA_NXZ 000000018018915c f i libucrt:output.obj
 0001:00188168       ?type_case_n@?$output_processor@DV?$stream_output_adapter@D@__crt_stdio_output@@V?$format_validation_base@DV?$stream_output_adapter@D@__crt_stdio_output@@@2@@__crt_stdio_output@@AEAA_NXZ 0000000180189168 f i libucrt:output.obj
 0001:0018821c       ?type_case_n@?$output_processor@DV?$stream_output_adapter@D@__crt_stdio_output@@V?$positional_parameter_base@DV?$stream_output_adapter@D@__crt_stdio_output@@@2@@__crt_stdio_output@@AEAA_NXZ 000000018018921c f i libucrt:output.obj
 0001:00188300       ?type_case_n@?$output_processor@DV?$stream_output_adapter@D@__crt_stdio_output@@V?$standard_base@DV?$stream_output_adapter@D@__crt_stdio_output@@@2@@__crt_stdio_output@@AEAA_NXZ 0000000180189300 f i libucrt:output.obj
 0001:001883b4       ?type_case_n@?$output_processor@DV?$string_output_adapter@D@__crt_stdio_output@@V?$format_validation_base@DV?$string_output_adapter@D@__crt_stdio_output@@@2@@__crt_stdio_output@@AEAA_NXZ 00000001801893b4 f i libucrt:output.obj
 0001:00188468       ?type_case_n@?$output_processor@DV?$string_output_adapter@D@__crt_stdio_output@@V?$positional_parameter_base@DV?$string_output_adapter@D@__crt_stdio_output@@@2@@__crt_stdio_output@@AEAA_NXZ 0000000180189468 f i libucrt:output.obj
 0001:0018854c       ?type_case_n@?$output_processor@DV?$string_output_adapter@D@__crt_stdio_output@@V?$standard_base@DV?$string_output_adapter@D@__crt_stdio_output@@@2@@__crt_stdio_output@@AEAA_NXZ 000000018018954c f i libucrt:output.obj
 0001:00188600       ?type_case_n@?$output_processor@_WV?$stream_output_adapter@_W@__crt_stdio_output@@V?$format_validation_base@_WV?$stream_output_adapter@_W@__crt_stdio_output@@@2@@__crt_stdio_output@@AEAA_NXZ 0000000180189600 f i libucrt:output.obj
 0001:001886b4       ?type_case_n@?$output_processor@_WV?$stream_output_adapter@_W@__crt_stdio_output@@V?$positional_parameter_base@_WV?$stream_output_adapter@_W@__crt_stdio_output@@@2@@__crt_stdio_output@@AEAA_NXZ 00000001801896b4 f i libucrt:output.obj
 0001:00188798       ?type_case_n@?$output_processor@_WV?$stream_output_adapter@_W@__crt_stdio_output@@V?$standard_base@_WV?$stream_output_adapter@_W@__crt_stdio_output@@@2@@__crt_stdio_output@@AEAA_NXZ 0000000180189798 f i libucrt:output.obj
 0001:0018884c       ?type_case_n@?$output_processor@_WV?$string_output_adapter@_W@__crt_stdio_output@@V?$format_validation_base@_WV?$string_output_adapter@_W@__crt_stdio_output@@@2@@__crt_stdio_output@@AEAA_NXZ 000000018018984c f i libucrt:output.obj
 0001:00188900       ?type_case_n@?$output_processor@_WV?$string_output_adapter@_W@__crt_stdio_output@@V?$positional_parameter_base@_WV?$string_output_adapter@_W@__crt_stdio_output@@@2@@__crt_stdio_output@@AEAA_NXZ 0000000180189900 f i libucrt:output.obj
 0001:001889e4       ?type_case_n@?$output_processor@_WV?$string_output_adapter@_W@__crt_stdio_output@@V?$standard_base@_WV?$string_output_adapter@_W@__crt_stdio_output@@@2@@__crt_stdio_output@@AEAA_NXZ 00000001801899e4 f i libucrt:output.obj
 0001:00188a98       ?type_case_o@?$output_processor@DV?$stream_output_adapter@D@__crt_stdio_output@@V?$format_validation_base@DV?$stream_output_adapter@D@__crt_stdio_output@@@2@@__crt_stdio_output@@AEAA_NXZ 0000000180189a98 f i libucrt:output.obj
 0001:00188ab4       ?type_case_o@?$output_processor@DV?$stream_output_adapter@D@__crt_stdio_output@@V?$positional_parameter_base@DV?$stream_output_adapter@D@__crt_stdio_output@@@2@@__crt_stdio_output@@AEAA_NXZ 0000000180189ab4 f i libucrt:output.obj
 0001:00188ad0       ?type_case_o@?$output_processor@DV?$stream_output_adapter@D@__crt_stdio_output@@V?$standard_base@DV?$stream_output_adapter@D@__crt_stdio_output@@@2@@__crt_stdio_output@@AEAA_NXZ 0000000180189ad0 f i libucrt:output.obj
 0001:00188aec       ?type_case_o@?$output_processor@DV?$string_output_adapter@D@__crt_stdio_output@@V?$format_validation_base@DV?$string_output_adapter@D@__crt_stdio_output@@@2@@__crt_stdio_output@@AEAA_NXZ 0000000180189aec f i libucrt:output.obj
 0001:00188b08       ?type_case_o@?$output_processor@DV?$string_output_adapter@D@__crt_stdio_output@@V?$positional_parameter_base@DV?$string_output_adapter@D@__crt_stdio_output@@@2@@__crt_stdio_output@@AEAA_NXZ 0000000180189b08 f i libucrt:output.obj
 0001:00188b24       ?type_case_o@?$output_processor@DV?$string_output_adapter@D@__crt_stdio_output@@V?$standard_base@DV?$string_output_adapter@D@__crt_stdio_output@@@2@@__crt_stdio_output@@AEAA_NXZ 0000000180189b24 f i libucrt:output.obj
 0001:00188b40       ?type_case_o@?$output_processor@_WV?$stream_output_adapter@_W@__crt_stdio_output@@V?$format_validation_base@_WV?$stream_output_adapter@_W@__crt_stdio_output@@@2@@__crt_stdio_output@@AEAA_NXZ 0000000180189b40 f i libucrt:output.obj
 0001:00188b5c       ?type_case_o@?$output_processor@_WV?$stream_output_adapter@_W@__crt_stdio_output@@V?$positional_parameter_base@_WV?$stream_output_adapter@_W@__crt_stdio_output@@@2@@__crt_stdio_output@@AEAA_NXZ 0000000180189b5c f i libucrt:output.obj
 0001:00188b78       ?type_case_o@?$output_processor@_WV?$stream_output_adapter@_W@__crt_stdio_output@@V?$standard_base@_WV?$stream_output_adapter@_W@__crt_stdio_output@@@2@@__crt_stdio_output@@AEAA_NXZ 0000000180189b78 f i libucrt:output.obj
 0001:00188b94       ?type_case_o@?$output_processor@_WV?$string_output_adapter@_W@__crt_stdio_output@@V?$format_validation_base@_WV?$string_output_adapter@_W@__crt_stdio_output@@@2@@__crt_stdio_output@@AEAA_NXZ 0000000180189b94 f i libucrt:output.obj
 0001:00188bb0       ?type_case_o@?$output_processor@_WV?$string_output_adapter@_W@__crt_stdio_output@@V?$positional_parameter_base@_WV?$string_output_adapter@_W@__crt_stdio_output@@@2@@__crt_stdio_output@@AEAA_NXZ 0000000180189bb0 f i libucrt:output.obj
 0001:00188bcc       ?type_case_o@?$output_processor@_WV?$string_output_adapter@_W@__crt_stdio_output@@V?$standard_base@_WV?$string_output_adapter@_W@__crt_stdio_output@@@2@@__crt_stdio_output@@AEAA_NXZ 0000000180189bcc f i libucrt:output.obj
 0001:00188be8       ?type_case_p@?$output_processor@DV?$stream_output_adapter@D@__crt_stdio_output@@V?$format_validation_base@DV?$stream_output_adapter@D@__crt_stdio_output@@@2@@__crt_stdio_output@@AEAA_NXZ 0000000180189be8 f i libucrt:output.obj
 0001:00188c00       ?type_case_p@?$output_processor@DV?$stream_output_adapter@D@__crt_stdio_output@@V?$positional_parameter_base@DV?$stream_output_adapter@D@__crt_stdio_output@@@2@@__crt_stdio_output@@AEAA_NXZ 0000000180189c00 f i libucrt:output.obj
 0001:00188c18       ?type_case_p@?$output_processor@DV?$stream_output_adapter@D@__crt_stdio_output@@V?$standard_base@DV?$stream_output_adapter@D@__crt_stdio_output@@@2@@__crt_stdio_output@@AEAA_NXZ 0000000180189c18 f i libucrt:output.obj
 0001:00188c30       ?type_case_p@?$output_processor@DV?$string_output_adapter@D@__crt_stdio_output@@V?$format_validation_base@DV?$string_output_adapter@D@__crt_stdio_output@@@2@@__crt_stdio_output@@AEAA_NXZ 0000000180189c30 f i libucrt:output.obj
 0001:00188c48       ?type_case_p@?$output_processor@DV?$string_output_adapter@D@__crt_stdio_output@@V?$positional_parameter_base@DV?$string_output_adapter@D@__crt_stdio_output@@@2@@__crt_stdio_output@@AEAA_NXZ 0000000180189c48 f i libucrt:output.obj
 0001:00188c60       ?type_case_p@?$output_processor@DV?$string_output_adapter@D@__crt_stdio_output@@V?$standard_base@DV?$string_output_adapter@D@__crt_stdio_output@@@2@@__crt_stdio_output@@AEAA_NXZ 0000000180189c60 f i libucrt:output.obj
 0001:00188c78       ?type_case_p@?$output_processor@_WV?$stream_output_adapter@_W@__crt_stdio_output@@V?$format_validation_base@_WV?$stream_output_adapter@_W@__crt_stdio_output@@@2@@__crt_stdio_output@@AEAA_NXZ 0000000180189c78 f i libucrt:output.obj
 0001:00188c90       ?type_case_p@?$output_processor@_WV?$stream_output_adapter@_W@__crt_stdio_output@@V?$positional_parameter_base@_WV?$stream_output_adapter@_W@__crt_stdio_output@@@2@@__crt_stdio_output@@AEAA_NXZ 0000000180189c90 f i libucrt:output.obj
 0001:00188ca8       ?type_case_p@?$output_processor@_WV?$stream_output_adapter@_W@__crt_stdio_output@@V?$standard_base@_WV?$stream_output_adapter@_W@__crt_stdio_output@@@2@@__crt_stdio_output@@AEAA_NXZ 0000000180189ca8 f i libucrt:output.obj
 0001:00188cc0       ?type_case_p@?$output_processor@_WV?$string_output_adapter@_W@__crt_stdio_output@@V?$format_validation_base@_WV?$string_output_adapter@_W@__crt_stdio_output@@@2@@__crt_stdio_output@@AEAA_NXZ 0000000180189cc0 f i libucrt:output.obj
 0001:00188cd8       ?type_case_p@?$output_processor@_WV?$string_output_adapter@_W@__crt_stdio_output@@V?$positional_parameter_base@_WV?$string_output_adapter@_W@__crt_stdio_output@@@2@@__crt_stdio_output@@AEAA_NXZ 0000000180189cd8 f i libucrt:output.obj
 0001:00188cf0       ?type_case_p@?$output_processor@_WV?$string_output_adapter@_W@__crt_stdio_output@@V?$standard_base@_WV?$string_output_adapter@_W@__crt_stdio_output@@@2@@__crt_stdio_output@@AEAA_NXZ 0000000180189cf0 f i libucrt:output.obj
 0001:00188d08       ?type_case_s@?$output_processor@DV?$stream_output_adapter@D@__crt_stdio_output@@V?$format_validation_base@DV?$stream_output_adapter@D@__crt_stdio_output@@@2@@__crt_stdio_output@@AEAA_NXZ 0000000180189d08 f i libucrt:output.obj
 0001:00188d9c       ?type_case_s@?$output_processor@DV?$stream_output_adapter@D@__crt_stdio_output@@V?$positional_parameter_base@DV?$stream_output_adapter@D@__crt_stdio_output@@@2@@__crt_stdio_output@@AEAA_NXZ 0000000180189d9c f i libucrt:output.obj
 0001:00188e50       ?type_case_s@?$output_processor@DV?$stream_output_adapter@D@__crt_stdio_output@@V?$standard_base@DV?$stream_output_adapter@D@__crt_stdio_output@@@2@@__crt_stdio_output@@AEAA_NXZ 0000000180189e50 f i libucrt:output.obj
 0001:00188ee4       ?type_case_s@?$output_processor@DV?$string_output_adapter@D@__crt_stdio_output@@V?$format_validation_base@DV?$string_output_adapter@D@__crt_stdio_output@@@2@@__crt_stdio_output@@AEAA_NXZ 0000000180189ee4 f i libucrt:output.obj
 0001:00188f78       ?type_case_s@?$output_processor@DV?$string_output_adapter@D@__crt_stdio_output@@V?$positional_parameter_base@DV?$string_output_adapter@D@__crt_stdio_output@@@2@@__crt_stdio_output@@AEAA_NXZ 0000000180189f78 f i libucrt:output.obj
 0001:0018902c       ?type_case_s@?$output_processor@DV?$string_output_adapter@D@__crt_stdio_output@@V?$standard_base@DV?$string_output_adapter@D@__crt_stdio_output@@@2@@__crt_stdio_output@@AEAA_NXZ 000000018018a02c f i libucrt:output.obj
 0001:001890c0       ?type_case_s@?$output_processor@_WV?$stream_output_adapter@_W@__crt_stdio_output@@V?$format_validation_base@_WV?$stream_output_adapter@_W@__crt_stdio_output@@@2@@__crt_stdio_output@@AEAA_NXZ 000000018018a0c0 f i libucrt:output.obj
 0001:00189158       ?type_case_s@?$output_processor@_WV?$stream_output_adapter@_W@__crt_stdio_output@@V?$positional_parameter_base@_WV?$stream_output_adapter@_W@__crt_stdio_output@@@2@@__crt_stdio_output@@AEAA_NXZ 000000018018a158 f i libucrt:output.obj
 0001:0018920c       ?type_case_s@?$output_processor@_WV?$stream_output_adapter@_W@__crt_stdio_output@@V?$standard_base@_WV?$stream_output_adapter@_W@__crt_stdio_output@@@2@@__crt_stdio_output@@AEAA_NXZ 000000018018a20c f i libucrt:output.obj
 0001:001892a4       ?type_case_s@?$output_processor@_WV?$string_output_adapter@_W@__crt_stdio_output@@V?$format_validation_base@_WV?$string_output_adapter@_W@__crt_stdio_output@@@2@@__crt_stdio_output@@AEAA_NXZ 000000018018a2a4 f i libucrt:output.obj
 0001:0018933c       ?type_case_s@?$output_processor@_WV?$string_output_adapter@_W@__crt_stdio_output@@V?$positional_parameter_base@_WV?$string_output_adapter@_W@__crt_stdio_output@@@2@@__crt_stdio_output@@AEAA_NXZ 000000018018a33c f i libucrt:output.obj
 0001:001893f0       ?type_case_s@?$output_processor@_WV?$string_output_adapter@_W@__crt_stdio_output@@V?$standard_base@_WV?$string_output_adapter@_W@__crt_stdio_output@@@2@@__crt_stdio_output@@AEAA_NXZ 000000018018a3f0 f i libucrt:output.obj
 0001:00189488       ?type_case_s_compute_narrow_string_length@?$output_processor@DV?$stream_output_adapter@D@__crt_stdio_output@@V?$format_validation_base@DV?$stream_output_adapter@D@__crt_stdio_output@@@2@@__crt_stdio_output@@AEAAHHD@Z 000000018018a488 f i libucrt:output.obj
 0001:00189494       ?type_case_s_compute_narrow_string_length@?$output_processor@DV?$stream_output_adapter@D@__crt_stdio_output@@V?$positional_parameter_base@DV?$stream_output_adapter@D@__crt_stdio_output@@@2@@__crt_stdio_output@@AEAAHHD@Z 000000018018a494 f i libucrt:output.obj
 0001:001894a0       ?type_case_s_compute_narrow_string_length@?$output_processor@DV?$stream_output_adapter@D@__crt_stdio_output@@V?$standard_base@DV?$stream_output_adapter@D@__crt_stdio_output@@@2@@__crt_stdio_output@@AEAAHHD@Z 000000018018a4a0 f i libucrt:output.obj
 0001:001894ac       ?type_case_s_compute_narrow_string_length@?$output_processor@DV?$string_output_adapter@D@__crt_stdio_output@@V?$format_validation_base@DV?$string_output_adapter@D@__crt_stdio_output@@@2@@__crt_stdio_output@@AEAAHHD@Z 000000018018a4ac f i libucrt:output.obj
 0001:001894b8       ?type_case_s_compute_narrow_string_length@?$output_processor@DV?$string_output_adapter@D@__crt_stdio_output@@V?$positional_parameter_base@DV?$string_output_adapter@D@__crt_stdio_output@@@2@@__crt_stdio_output@@AEAAHHD@Z 000000018018a4b8 f i libucrt:output.obj
 0001:001894c4       ?type_case_s_compute_narrow_string_length@?$output_processor@DV?$string_output_adapter@D@__crt_stdio_output@@V?$standard_base@DV?$string_output_adapter@D@__crt_stdio_output@@@2@@__crt_stdio_output@@AEAAHHD@Z 000000018018a4c4 f i libucrt:output.obj
 0001:001894d0       ?type_case_s_compute_narrow_string_length@?$output_processor@_WV?$stream_output_adapter@_W@__crt_stdio_output@@V?$format_validation_base@_WV?$stream_output_adapter@_W@__crt_stdio_output@@@2@@__crt_stdio_output@@AEAAHH_W@Z 000000018018a4d0 f i libucrt:output.obj
 0001:00189548       ?type_case_s_compute_narrow_string_length@?$output_processor@_WV?$stream_output_adapter@_W@__crt_stdio_output@@V?$positional_parameter_base@_WV?$stream_output_adapter@_W@__crt_stdio_output@@@2@@__crt_stdio_output@@AEAAHH_W@Z 000000018018a548 f i libucrt:output.obj
 0001:001895c0       ?type_case_s_compute_narrow_string_length@?$output_processor@_WV?$stream_output_adapter@_W@__crt_stdio_output@@V?$standard_base@_WV?$stream_output_adapter@_W@__crt_stdio_output@@@2@@__crt_stdio_output@@AEAAHH_W@Z 000000018018a5c0 f i libucrt:output.obj
 0001:00189638       ?type_case_s_compute_narrow_string_length@?$output_processor@_WV?$string_output_adapter@_W@__crt_stdio_output@@V?$format_validation_base@_WV?$string_output_adapter@_W@__crt_stdio_output@@@2@@__crt_stdio_output@@AEAAHH_W@Z 000000018018a638 f i libucrt:output.obj
 0001:001896b0       ?type_case_s_compute_narrow_string_length@?$output_processor@_WV?$string_output_adapter@_W@__crt_stdio_output@@V?$positional_parameter_base@_WV?$string_output_adapter@_W@__crt_stdio_output@@@2@@__crt_stdio_output@@AEAAHH_W@Z 000000018018a6b0 f i libucrt:output.obj
 0001:00189728       ?type_case_s_compute_narrow_string_length@?$output_processor@_WV?$string_output_adapter@_W@__crt_stdio_output@@V?$standard_base@_WV?$string_output_adapter@_W@__crt_stdio_output@@@2@@__crt_stdio_output@@AEAAHH_W@Z 000000018018a728 f i libucrt:output.obj
 0001:001897a0       ?type_case_u@?$output_processor@DV?$stream_output_adapter@D@__crt_stdio_output@@V?$format_validation_base@DV?$stream_output_adapter@D@__crt_stdio_output@@@2@@__crt_stdio_output@@AEAA_NXZ 000000018018a7a0 f i libucrt:output.obj
 0001:001897a8       ?type_case_u@?$output_processor@DV?$stream_output_adapter@D@__crt_stdio_output@@V?$positional_parameter_base@DV?$stream_output_adapter@D@__crt_stdio_output@@@2@@__crt_stdio_output@@AEAA_NXZ 000000018018a7a8 f i libucrt:output.obj
 0001:001897b0       ?type_case_u@?$output_processor@DV?$stream_output_adapter@D@__crt_stdio_output@@V?$standard_base@DV?$stream_output_adapter@D@__crt_stdio_output@@@2@@__crt_stdio_output@@AEAA_NXZ 000000018018a7b0 f i libucrt:output.obj
 0001:001897b8       ?type_case_u@?$output_processor@DV?$string_output_adapter@D@__crt_stdio_output@@V?$format_validation_base@DV?$string_output_adapter@D@__crt_stdio_output@@@2@@__crt_stdio_output@@AEAA_NXZ 000000018018a7b8 f i libucrt:output.obj
 0001:001897c0       ?type_case_u@?$output_processor@DV?$string_output_adapter@D@__crt_stdio_output@@V?$positional_parameter_base@DV?$string_output_adapter@D@__crt_stdio_output@@@2@@__crt_stdio_output@@AEAA_NXZ 000000018018a7c0 f i libucrt:output.obj
 0001:001897c8       ?type_case_u@?$output_processor@DV?$string_output_adapter@D@__crt_stdio_output@@V?$standard_base@DV?$string_output_adapter@D@__crt_stdio_output@@@2@@__crt_stdio_output@@AEAA_NXZ 000000018018a7c8 f i libucrt:output.obj
